ARM GAS  C:\Users\osour\AppData\Local\Temp\ccr12IjC.s 			page 1


   1              		.cpu cortex-m4
   2              		.eabi_attribute 27, 1
   3              		.eabi_attribute 28, 1
   4              		.eabi_attribute 20, 1
   5              		.eabi_attribute 21, 1
   6              		.eabi_attribute 23, 3
   7              		.eabi_attribute 24, 1
   8              		.eabi_attribute 25, 1
   9              		.eabi_attribute 26, 1
  10              		.eabi_attribute 30, 2
  11              		.eabi_attribute 34, 1
  12              		.eabi_attribute 18, 4
  13              		.file	"audio_processing.c"
  14              		.text
  15              	.Ltext0:
  16              		.cfi_sections	.debug_frame
  17              		.section	.text.chprintf.constprop.0,"ax",%progbits
  18              		.align	1
  19              		.p2align 4,,15
  20              		.syntax unified
  21              		.thumb
  22              		.thumb_func
  23              		.fpu fpv4-sp-d16
  24              		.type	chprintf.constprop.0, %function
  25              	chprintf.constprop.0:
  26              	.LFB297:
  27              		.file 1 "../../lib/e-puck2_main-processor/ChibiOS//os/hal/lib/streams/chprintf.h"
  28              		.loc 1 69 0
  29              		.cfi_startproc
  30              		@ args = 4, pretend = 12, frame = 8
  31              		@ frame_needed = 0, uses_anonymous_args = 1
  32              	.LVL0:
  33 0000 0EB4     		push	{r1, r2, r3}
  34              		.cfi_def_cfa_offset 12
  35              		.cfi_offset 1, -12
  36              		.cfi_offset 2, -8
  37              		.cfi_offset 3, -4
  38 0002 10B5     		push	{r4, lr}
  39              		.cfi_def_cfa_offset 20
  40              		.cfi_offset 4, -20
  41              		.cfi_offset 14, -16
  42 0004 83B0     		sub	sp, sp, #12
  43              		.cfi_def_cfa_offset 32
  44              		.loc 1 69 0
  45 0006 05AA     		add	r2, sp, #20
  46 0008 094C     		ldr	r4, .L6
  47 000a 52F8041B 		ldr	r1, [r2], #4
  48 000e 2368     		ldr	r3, [r4]
  49              		.loc 1 74 0
  50 0010 0848     		ldr	r0, .L6+4
  51              	.LVL1:
  52              		.loc 1 73 0
  53 0012 0092     		str	r2, [sp]
  54              		.loc 1 69 0
  55 0014 0193     		str	r3, [sp, #4]
  56              	.LVL2:
  57              		.loc 1 74 0
ARM GAS  C:\Users\osour\AppData\Local\Temp\ccr12IjC.s 			page 2


  58 0016 FFF7FEFF 		bl	chvprintf
  59              	.LVL3:
  60              		.loc 1 78 0
  61 001a 019A     		ldr	r2, [sp, #4]
  62 001c 2368     		ldr	r3, [r4]
  63 001e 9A42     		cmp	r2, r3
  64 0020 04D1     		bne	.L5
  65 0022 03B0     		add	sp, sp, #12
  66              		.cfi_remember_state
  67              		.cfi_def_cfa_offset 20
  68              		@ sp needed
  69 0024 BDE81040 		pop	{r4, lr}
  70              		.cfi_restore 14
  71              		.cfi_restore 4
  72              		.cfi_def_cfa_offset 12
  73 0028 03B0     		add	sp, sp, #12
  74              		.cfi_restore 3
  75              		.cfi_restore 2
  76              		.cfi_restore 1
  77              		.cfi_def_cfa_offset 0
  78 002a 7047     		bx	lr
  79              	.L5:
  80              		.cfi_restore_state
  81 002c FFF7FEFF 		bl	__stack_chk_fail
  82              	.LVL4:
  83              	.L7:
  84              		.align	2
  85              	.L6:
  86 0030 00000000 		.word	__stack_chk_guard
  87 0034 00000000 		.word	SD3
  88              		.cfi_endproc
  89              	.LFE297:
  90              		.size	chprintf.constprop.0, .-chprintf.constprop.0
  91              		.section	.text.fundamental_frequency,"ax",%progbits
  92              		.align	1
  93              		.p2align 4,,15
  94              		.global	fundamental_frequency
  95              		.syntax unified
  96              		.thumb
  97              		.thumb_func
  98              		.fpu fpv4-sp-d16
  99              		.type	fundamental_frequency, %function
 100              	fundamental_frequency:
 101              	.LFB290:
 102              		.file 2 "audio_processing.c"
 103              		.loc 2 46 0
 104              		.cfi_startproc
 105              		@ args = 0, pretend = 0, frame = 8
 106              		@ frame_needed = 0, uses_anonymous_args = 0
 107              	.LVL5:
 108 0000 10B5     		push	{r4, lr}
 109              		.cfi_def_cfa_offset 8
 110              		.cfi_offset 4, -8
 111              		.cfi_offset 14, -4
 112 0002 114C     		ldr	r4, .L20
 113 0004 82B0     		sub	sp, sp, #8
 114              		.cfi_def_cfa_offset 16
ARM GAS  C:\Users\osour\AppData\Local\Temp\ccr12IjC.s 			page 3


 115              		.loc 2 46 0
 116 0006 2368     		ldr	r3, [r4]
 117 0008 0193     		str	r3, [sp, #4]
 118              	.LVL6:
 119              	.LBB35:
 120              		.loc 2 47 0
 121 000a A0B1     		cbz	r0, .L8
 122 000c 0F4A     		ldr	r2, .L20+4
 123 000e 0121     		movs	r1, #1
 124              	.LVL7:
 125              	.L11:
 126 0010 07EE901A 		vmov	s15, r1	@ int
 127 0014 0E4B     		ldr	r3, .L20+8
 128 0016 F8EE676A 		vcvt.f32.u32	s13, s15
 129              	.L10:
 130              	.LBB36:
 131              		.loc 2 49 0 discriminator 3
 132 001a 93ED007A 		vldr.32	s14, [r3]
 133 001e C7EE267A 		vdiv.f32	s15, s14, s13
 134 0022 77EE877A 		vadd.f32	s15, s15, s14
 135 0026 E3EC017A 		vstmia.32	r3!, {s15}
 136              	.LVL8:
 137              		.loc 2 48 0 discriminator 3
 138 002a 9A42     		cmp	r2, r3
 139 002c F5D1     		bne	.L10
 140              	.LBE36:
 141              		.loc 2 47 0 discriminator 2
 142 002e 0131     		adds	r1, r1, #1
 143              	.LVL9:
 144 0030 C9B2     		uxtb	r1, r1
 145              	.LVL10:
 146 0032 8842     		cmp	r0, r1
 147 0034 ECD2     		bcs	.L11
 148              	.LVL11:
 149              	.L8:
 150              	.LBE35:
 151              		.loc 2 52 0
 152 0036 019A     		ldr	r2, [sp, #4]
 153 0038 2368     		ldr	r3, [r4]
 154 003a 9A42     		cmp	r2, r3
 155 003c 01D1     		bne	.L19
 156 003e 02B0     		add	sp, sp, #8
 157              		.cfi_remember_state
 158              		.cfi_def_cfa_offset 8
 159              		@ sp needed
 160 0040 10BD     		pop	{r4, pc}
 161              	.L19:
 162              		.cfi_restore_state
 163 0042 FFF7FEFF 		bl	__stack_chk_fail
 164              	.LVL12:
 165              	.L21:
 166 0046 00BF     		.align	2
 167              	.L20:
 168 0048 00000000 		.word	__stack_chk_guard
 169 004c 00400000 		.word	micLeft_output+16384
 170 0050 00000000 		.word	micLeft_output
 171              		.cfi_endproc
ARM GAS  C:\Users\osour\AppData\Local\Temp\ccr12IjC.s 			page 4


 172              	.LFE290:
 173              		.size	fundamental_frequency, .-fundamental_frequency
 174              		.section	.text.send_to_computer,"ax",%progbits
 175              		.align	1
 176              		.p2align 4,,15
 177              		.global	send_to_computer
 178              		.syntax unified
 179              		.thumb
 180              		.thumb_func
 181              		.fpu fpv4-sp-d16
 182              		.type	send_to_computer, %function
 183              	send_to_computer:
 184              	.LFB293:
 185              		.loc 2 134 0
 186              		.cfi_startproc
 187              		@ args = 0, pretend = 0, frame = 8
 188              		@ frame_needed = 0, uses_anonymous_args = 0
 189 0000 00B5     		push	{lr}
 190              		.cfi_def_cfa_offset 4
 191              		.cfi_offset 14, -4
 192 0002 064B     		ldr	r3, .L26
 193 0004 83B0     		sub	sp, sp, #12
 194              		.cfi_def_cfa_offset 16
 195              		.loc 2 134 0
 196 0006 1A68     		ldr	r2, [r3]
 197 0008 0192     		str	r2, [sp, #4]
 198              		.loc 2 136 0
 199 000a 019A     		ldr	r2, [sp, #4]
 200 000c 1B68     		ldr	r3, [r3]
 201 000e 9A42     		cmp	r2, r3
 202 0010 02D1     		bne	.L25
 203 0012 03B0     		add	sp, sp, #12
 204              		.cfi_remember_state
 205              		.cfi_def_cfa_offset 4
 206              		@ sp needed
 207 0014 5DF804FB 		ldr	pc, [sp], #4
 208              	.L25:
 209              		.cfi_restore_state
 210 0018 FFF7FEFF 		bl	__stack_chk_fail
 211              	.LVL13:
 212              	.L27:
 213              		.align	2
 214              	.L26:
 215 001c 00000000 		.word	__stack_chk_guard
 216              		.cfi_endproc
 217              	.LFE293:
 218              		.size	send_to_computer, .-send_to_computer
 219              		.section	.text.wait_send_to_computer,"ax",%progbits
 220              		.align	1
 221              		.p2align 4,,15
 222              		.global	wait_send_to_computer
 223              		.syntax unified
 224              		.thumb
 225              		.thumb_func
 226              		.fpu fpv4-sp-d16
 227              		.type	wait_send_to_computer, %function
 228              	wait_send_to_computer:
ARM GAS  C:\Users\osour\AppData\Local\Temp\ccr12IjC.s 			page 5


 229              	.LFB294:
 230              		.loc 2 137 0
 231              		.cfi_startproc
 232              		@ args = 0, pretend = 0, frame = 8
 233              		@ frame_needed = 0, uses_anonymous_args = 0
 234 0000 00B5     		push	{lr}
 235              		.cfi_def_cfa_offset 4
 236              		.cfi_offset 14, -4
 237 0002 084B     		ldr	r3, .L33
 238 0004 83B0     		sub	sp, sp, #12
 239              		.cfi_def_cfa_offset 16
 240              		.loc 2 137 0
 241 0006 1A68     		ldr	r2, [r3]
 242 0008 0192     		str	r2, [sp, #4]
 243              	.LVL14:
 244              	.LBB37:
 245              	.LBB38:
 246              		.file 3 "../../lib/e-puck2_main-processor/ChibiOS//os/rt/include/chbsem.h"
 247              		.loc 3 143 0
 248 000a 019A     		ldr	r2, [sp, #4]
 249 000c 1B68     		ldr	r3, [r3]
 250 000e 9A42     		cmp	r2, r3
 251 0010 05D1     		bne	.L32
 252 0012 0548     		ldr	r0, .L33+4
 253              	.LBE38:
 254              	.LBE37:
 255              		.loc 2 139 0
 256 0014 03B0     		add	sp, sp, #12
 257              		.cfi_remember_state
 258              		.cfi_def_cfa_offset 4
 259              		@ sp needed
 260 0016 5DF804EB 		ldr	lr, [sp], #4
 261              		.cfi_restore 14
 262              		.cfi_def_cfa_offset 0
 263              	.LBB40:
 264              	.LBB39:
 265              		.loc 3 143 0
 266 001a FFF7FEBF 		b	chSemWait
 267              	.LVL15:
 268              	.L32:
 269              		.cfi_restore_state
 270 001e FFF7FEFF 		bl	__stack_chk_fail
 271              	.LVL16:
 272              	.L34:
 273 0022 00BF     		.align	2
 274              	.L33:
 275 0024 00000000 		.word	__stack_chk_guard
 276 0028 00000000 		.word	.LANCHOR0
 277              	.LBE39:
 278              	.LBE40:
 279              		.cfi_endproc
 280              	.LFE294:
 281              		.size	wait_send_to_computer, .-wait_send_to_computer
 282              		.section	.text.find_note,"ax",%progbits
 283              		.align	1
 284              		.p2align 4,,15
 285              		.global	find_note
ARM GAS  C:\Users\osour\AppData\Local\Temp\ccr12IjC.s 			page 6


 286              		.syntax unified
 287              		.thumb
 288              		.thumb_func
 289              		.fpu fpv4-sp-d16
 290              		.type	find_note, %function
 291              	find_note:
 292              	.LFB295:
 293              		.loc 2 142 0
 294              		.cfi_startproc
 295              		@ args = 0, pretend = 0, frame = 8
 296              		@ frame_needed = 0, uses_anonymous_args = 0
 297              	.LVL17:
 298 0000 10B5     		push	{r4, lr}
 299              		.cfi_def_cfa_offset 8
 300              		.cfi_offset 4, -8
 301              		.cfi_offset 14, -4
 302 0002 5A4C     		ldr	r4, .L72
 303 0004 82B0     		sub	sp, sp, #8
 304              		.cfi_def_cfa_offset 16
 305              		.loc 2 142 0
 306 0006 2368     		ldr	r3, [r4]
 307 0008 0193     		str	r3, [sp, #4]
 308              		.loc 2 143 0
 309 000a 0C28     		cmp	r0, #12
 310 000c 00F2A780 		bhi	.L35
 311 0010 DFE800F0 		tbb	[pc, r0]
 312              	.L38:
 313 0014 19       		.byte	(.L37-.L38)/2
 314 0015 2A       		.byte	(.L39-.L38)/2
 315 0016 31       		.byte	(.L40-.L38)/2
 316 0017 3C       		.byte	(.L41-.L38)/2
 317 0018 4C       		.byte	(.L42-.L38)/2
 318 0019 52       		.byte	(.L43-.L38)/2
 319 001a 60       		.byte	(.L44-.L38)/2
 320 001b 66       		.byte	(.L45-.L38)/2
 321 001c 77       		.byte	(.L46-.L38)/2
 322 001d 7E       		.byte	(.L47-.L38)/2
 323 001e 84       		.byte	(.L48-.L38)/2
 324 001f 94       		.byte	(.L49-.L38)/2
 325 0020 07       		.byte	(.L50-.L38)/2
 326 0021 00       		.p2align 1
 327              	.L50:
 328              		.loc 2 199 0
 329 0022 5349     		ldr	r1, .L72+4
 330 0024 5348     		ldr	r0, .L72+8
 331              	.LVL18:
 332 0026 FFF7FEFF 		bl	chprintf.constprop.0
 333              	.LVL19:
 334              		.loc 2 200 0
 335 002a 0020     		movs	r0, #0
 336              	.L69:
 337 002c FFF7FEFF 		bl	left_motor_set_speed
 338              	.LVL20:
 339              		.loc 2 201 0
 340 0030 019A     		ldr	r2, [sp, #4]
 341 0032 2368     		ldr	r3, [r4]
 342 0034 9A42     		cmp	r2, r3
ARM GAS  C:\Users\osour\AppData\Local\Temp\ccr12IjC.s 			page 7


 343 0036 08BF     		it	eq
 344 0038 0020     		moveq	r0, #0
 345 003a 13D1     		bne	.L67
 346              	.L66:
 347              		.loc 2 205 0
 348 003c 02B0     		add	sp, sp, #8
 349              		.cfi_remember_state
 350              		.cfi_def_cfa_offset 8
 351              		@ sp needed
 352 003e BDE81040 		pop	{r4, lr}
 353              		.cfi_restore 14
 354              		.cfi_restore 4
 355              		.cfi_def_cfa_offset 0
 356              		.loc 2 201 0
 357 0042 FFF7FEBF 		b	right_motor_set_speed
 358              	.LVL21:
 359              	.L37:
 360              		.cfi_restore_state
 361              		.loc 2 145 0
 362 0046 4C49     		ldr	r1, .L72+12
 363 0048 4A48     		ldr	r0, .L72+8
 364              	.LVL22:
 365 004a FFF7FEFF 		bl	chprintf.constprop.0
 366              	.LVL23:
 367              		.loc 2 146 0
 368 004e 4FF47A70 		mov	r0, #1000
 369              	.L70:
 370              		.loc 2 151 0
 371 0052 FFF7FEFF 		bl	left_motor_set_speed
 372              	.LVL24:
 373              		.loc 2 152 0
 374 0056 019A     		ldr	r2, [sp, #4]
 375 0058 2368     		ldr	r3, [r4]
 376 005a 9A42     		cmp	r2, r3
 377 005c 08BF     		it	eq
 378 005e 4FF47A70 		moveq	r0, #1000
 379 0062 EBD0     		beq	.L66
 380              	.L67:
 381              		.loc 2 205 0
 382 0064 FFF7FEFF 		bl	__stack_chk_fail
 383              	.LVL25:
 384              	.L39:
 385              		.loc 2 150 0
 386 0068 4449     		ldr	r1, .L72+16
 387 006a 4248     		ldr	r0, .L72+8
 388              	.LVL26:
 389 006c FFF7FEFF 		bl	chprintf.constprop.0
 390              	.LVL27:
 391              		.loc 2 151 0
 392 0070 4FF4C870 		mov	r0, #400
 393 0074 EDE7     		b	.L70
 394              	.LVL28:
 395              	.L40:
 396              		.loc 2 155 0
 397 0076 019A     		ldr	r2, [sp, #4]
 398 0078 2368     		ldr	r3, [r4]
 399 007a 9A42     		cmp	r2, r3
ARM GAS  C:\Users\osour\AppData\Local\Temp\ccr12IjC.s 			page 8


 400 007c F2D1     		bne	.L67
 401 007e 4049     		ldr	r1, .L72+20
 402              	.L68:
 403              		.loc 2 163 0
 404 0080 3C48     		ldr	r0, .L72+8
 405              	.LVL29:
 406              		.loc 2 205 0
 407 0082 02B0     		add	sp, sp, #8
 408              		.cfi_remember_state
 409              		.cfi_def_cfa_offset 8
 410              		@ sp needed
 411 0084 BDE81040 		pop	{r4, lr}
 412              		.cfi_restore 14
 413              		.cfi_restore 4
 414              		.cfi_def_cfa_offset 0
 415              		.loc 2 163 0
 416 0088 FFF7FEBF 		b	chprintf.constprop.0
 417              	.LVL30:
 418              	.L41:
 419              		.cfi_restore_state
 420              		.loc 2 158 0
 421 008c 3D49     		ldr	r1, .L72+24
 422 008e 3948     		ldr	r0, .L72+8
 423              	.LVL31:
 424 0090 FFF7FEFF 		bl	chprintf.constprop.0
 425              	.LVL32:
 426              		.loc 2 159 0
 427 0094 4FF47A70 		mov	r0, #1000
 428 0098 FFF7FEFF 		bl	left_motor_set_speed
 429              	.LVL33:
 430              		.loc 2 160 0
 431 009c 019A     		ldr	r2, [sp, #4]
 432 009e 2368     		ldr	r3, [r4]
 433 00a0 9A42     		cmp	r2, r3
 434 00a2 08BF     		it	eq
 435 00a4 4FF4C870 		moveq	r0, #400
 436 00a8 C8D0     		beq	.L66
 437 00aa DBE7     		b	.L67
 438              	.LVL34:
 439              	.L42:
 440              		.loc 2 163 0
 441 00ac 019A     		ldr	r2, [sp, #4]
 442 00ae 2368     		ldr	r3, [r4]
 443 00b0 9A42     		cmp	r2, r3
 444 00b2 D7D1     		bne	.L67
 445 00b4 3449     		ldr	r1, .L72+28
 446 00b6 E3E7     		b	.L68
 447              	.L43:
 448              		.loc 2 166 0
 449 00b8 3449     		ldr	r1, .L72+32
 450 00ba 2E48     		ldr	r0, .L72+8
 451              	.LVL35:
 452 00bc FFF7FEFF 		bl	chprintf.constprop.0
 453              	.LVL36:
 454              		.loc 2 167 0
 455 00c0 4FF41670 		mov	r0, #600
 456 00c4 FFF7FEFF 		bl	left_motor_set_speed
ARM GAS  C:\Users\osour\AppData\Local\Temp\ccr12IjC.s 			page 9


 457              	.LVL37:
 458              		.loc 2 168 0
 459 00c8 019A     		ldr	r2, [sp, #4]
 460 00ca 2368     		ldr	r3, [r4]
 461 00cc 9A42     		cmp	r2, r3
 462 00ce C9D1     		bne	.L67
 463 00d0 2F48     		ldr	r0, .L72+36
 464 00d2 B3E7     		b	.L66
 465              	.LVL38:
 466              	.L44:
 467              		.loc 2 171 0
 468 00d4 019A     		ldr	r2, [sp, #4]
 469 00d6 2368     		ldr	r3, [r4]
 470 00d8 9A42     		cmp	r2, r3
 471 00da C3D1     		bne	.L67
 472 00dc 2D49     		ldr	r1, .L72+40
 473 00de CFE7     		b	.L68
 474              	.L45:
 475              		.loc 2 174 0
 476 00e0 2D49     		ldr	r1, .L72+44
 477 00e2 2448     		ldr	r0, .L72+8
 478              	.LVL39:
 479 00e4 FFF7FEFF 		bl	chprintf.constprop.0
 480              	.LVL40:
 481              		.loc 2 175 0
 482 00e8 2C48     		ldr	r0, .L72+48
 483              	.L71:
 484              		.loc 2 185 0
 485 00ea FFF7FEFF 		bl	left_motor_set_speed
 486              	.LVL41:
 487              		.loc 2 186 0
 488 00ee 019A     		ldr	r2, [sp, #4]
 489 00f0 2368     		ldr	r3, [r4]
 490 00f2 9A42     		cmp	r2, r3
 491 00f4 B6D1     		bne	.L67
 492 00f6 2948     		ldr	r0, .L72+48
 493              		.loc 2 205 0
 494 00f8 02B0     		add	sp, sp, #8
 495              		.cfi_remember_state
 496              		.cfi_def_cfa_offset 8
 497              		@ sp needed
 498 00fa BDE81040 		pop	{r4, lr}
 499              		.cfi_restore 14
 500              		.cfi_restore 4
 501              		.cfi_def_cfa_offset 0
 502              		.loc 2 201 0
 503 00fe FFF7FEBF 		b	right_motor_set_speed
 504              	.LVL42:
 505              	.L46:
 506              		.cfi_restore_state
 507              		.loc 2 179 0
 508 0102 2749     		ldr	r1, .L72+52
 509 0104 1B48     		ldr	r0, .L72+8
 510              	.LVL43:
 511 0106 FFF7FEFF 		bl	chprintf.constprop.0
 512              	.LVL44:
 513              		.loc 2 180 0
ARM GAS  C:\Users\osour\AppData\Local\Temp\ccr12IjC.s 			page 10


 514 010a 4FF47A70 		mov	r0, #1000
 515 010e 8DE7     		b	.L69
 516              	.LVL45:
 517              	.L47:
 518              		.loc 2 184 0
 519 0110 2449     		ldr	r1, .L72+56
 520 0112 1848     		ldr	r0, .L72+8
 521              	.LVL46:
 522 0114 FFF7FEFF 		bl	chprintf.constprop.0
 523              	.LVL47:
 524              		.loc 2 185 0
 525 0118 0020     		movs	r0, #0
 526 011a E6E7     		b	.L71
 527              	.LVL48:
 528              	.L48:
 529              		.loc 2 189 0
 530 011c 2249     		ldr	r1, .L72+60
 531 011e 1548     		ldr	r0, .L72+8
 532              	.LVL49:
 533 0120 FFF7FEFF 		bl	chprintf.constprop.0
 534              	.LVL50:
 535              		.loc 2 190 0
 536 0124 4FF42F70 		mov	r0, #700
 537 0128 FFF7FEFF 		bl	left_motor_set_speed
 538              	.LVL51:
 539              		.loc 2 191 0
 540 012c 019A     		ldr	r2, [sp, #4]
 541 012e 2368     		ldr	r3, [r4]
 542 0130 9A42     		cmp	r2, r3
 543 0132 08BF     		it	eq
 544 0134 6FF0C700 		mvneq	r0, #199
 545 0138 80D0     		beq	.L66
 546 013a 93E7     		b	.L67
 547              	.LVL52:
 548              	.L49:
 549              		.loc 2 194 0
 550 013c 1B49     		ldr	r1, .L72+64
 551 013e 0D48     		ldr	r0, .L72+8
 552              	.LVL53:
 553 0140 FFF7FEFF 		bl	chprintf.constprop.0
 554              	.LVL54:
 555              		.loc 2 195 0
 556 0144 6FF0C700 		mvn	r0, #199
 557 0148 FFF7FEFF 		bl	left_motor_set_speed
 558              	.LVL55:
 559              		.loc 2 196 0
 560 014c 019A     		ldr	r2, [sp, #4]
 561 014e 2368     		ldr	r3, [r4]
 562 0150 9A42     		cmp	r2, r3
 563 0152 08BF     		it	eq
 564 0154 4FF41670 		moveq	r0, #600
 565 0158 3FF470AF 		beq	.L66
 566 015c 82E7     		b	.L67
 567              	.LVL56:
 568              	.L35:
 569              		.loc 2 205 0
 570 015e 019A     		ldr	r2, [sp, #4]
ARM GAS  C:\Users\osour\AppData\Local\Temp\ccr12IjC.s 			page 11


 571 0160 2368     		ldr	r3, [r4]
 572 0162 9A42     		cmp	r2, r3
 573 0164 7FF47EAF 		bne	.L67
 574 0168 02B0     		add	sp, sp, #8
 575              		@ sp needed
 576 016a 10BD     		pop	{r4, pc}
 577              	.L73:
 578              		.align	2
 579              	.L72:
 580 016c 00000000 		.word	__stack_chk_guard
 581 0170 60000000 		.word	.LC12
 582 0174 00000000 		.word	SD3
 583 0178 00000000 		.word	.LC0
 584 017c 08000000 		.word	.LC1
 585 0180 10000000 		.word	.LC2
 586 0184 18000000 		.word	.LC3
 587 0188 20000000 		.word	.LC4
 588 018c 28000000 		.word	.LC5
 589 0190 A8FDFFFF 		.word	-600
 590 0194 30000000 		.word	.LC6
 591 0198 38000000 		.word	.LC7
 592 019c 18FCFFFF 		.word	-1000
 593 01a0 40000000 		.word	.LC8
 594 01a4 48000000 		.word	.LC9
 595 01a8 50000000 		.word	.LC10
 596 01ac 58000000 		.word	.LC11
 597              		.cfi_endproc
 598              	.LFE295:
 599              		.size	find_note, .-find_note
 600              		.section	.text.frequency_to_note,"ax",%progbits
 601              		.align	1
 602              		.p2align 4,,15
 603              		.global	frequency_to_note
 604              		.syntax unified
 605              		.thumb
 606              		.thumb_func
 607              		.fpu fpv4-sp-d16
 608              		.type	frequency_to_note, %function
 609              	frequency_to_note:
 610              	.LFB291:
 611              		.loc 2 54 0
 612              		.cfi_startproc
 613              		@ args = 0, pretend = 0, frame = 32
 614              		@ frame_needed = 0, uses_anonymous_args = 0
 615              	.LVL57:
 616 0000 30B5     		push	{r4, r5, lr}
 617              		.cfi_def_cfa_offset 12
 618              		.cfi_offset 4, -12
 619              		.cfi_offset 5, -8
 620              		.cfi_offset 14, -4
 621 0002 564C     		ldr	r4, .L94
 622              		.loc 2 55 0
 623 0004 564D     		ldr	r5, .L94+4
 624              		.loc 2 54 0
 625 0006 2268     		ldr	r2, [r4]
 626 0008 89B0     		sub	sp, sp, #36
 627              		.cfi_def_cfa_offset 48
ARM GAS  C:\Users\osour\AppData\Local\Temp\ccr12IjC.s 			page 12


 628              		.loc 2 56 0
 629 000a 0023     		movs	r3, #0
 630              		.loc 2 54 0
 631 000c 0792     		str	r2, [sp, #28]
 632              		.loc 2 57 0
 633 000e 4FF6FF71 		movw	r1, #65535
 634 0012 0022     		movs	r2, #0
 635              		.loc 2 55 0
 636 0014 0395     		str	r5, [sp, #12]	@ float
 637 0016 1430     		adds	r0, r0, #20
 638              	.LVL58:
 639              		.loc 2 56 0
 640 0018 0493     		str	r3, [sp, #16]	@ float
 641 001a 0593     		str	r3, [sp, #20]	@ float
 642 001c 0693     		str	r3, [sp, #24]	@ float
 643              		.loc 2 57 0
 644 001e ADF80610 		strh	r1, [sp, #6]	@ movhi
 645              	.LBB41:
 646              		.loc 2 61 0
 647 0022 0523     		movs	r3, #5
 648              	.LBE41:
 649              		.loc 2 57 0
 650 0024 ADF80820 		strh	r2, [sp, #8]	@ movhi
 651              	.LBB42:
 652              		.loc 2 61 0
 653 0028 40F60101 		movw	r1, #2049
 654              	.LBE42:
 655              		.loc 2 58 0
 656 002c ADF80A20 		strh	r2, [sp, #10]	@ movhi
 657              	.LVL59:
 658              	.L77:
 659              	.LBB43:
 660              		.loc 2 62 0
 661 0030 F0EC017A 		vldmia.32	r0!, {s15}
 662 0034 9DED037A 		vldr.32	s14, [sp, #12]
 663 0038 F4EEC77A 		vcmpe.f32	s15, s14
 664 003c F1EE10FA 		vmrs	APSR_nzcv, FPSCR
 665 0040 04DD     		ble	.L75
 666              		.loc 2 64 0
 667 0042 1AB2     		sxth	r2, r3
 668              		.loc 2 63 0
 669 0044 CDED037A 		vstr.32	s15, [sp, #12]
 670              		.loc 2 64 0
 671 0048 ADF80620 		strh	r2, [sp, #6]	@ movhi
 672              	.L75:
 673              		.loc 2 61 0 discriminator 2
 674 004c 0133     		adds	r3, r3, #1
 675              	.LVL60:
 676 004e 9BB2     		uxth	r3, r3
 677              	.LVL61:
 678 0050 8B42     		cmp	r3, r1
 679 0052 EDD1     		bne	.L77
 680              	.LBE43:
 681              		.loc 2 67 0
 682 0054 BDF80630 		ldrh	r3, [sp, #6]
 683              	.LVL62:
 684 0058 1BB2     		sxth	r3, r3
ARM GAS  C:\Users\osour\AppData\Local\Temp\ccr12IjC.s 			page 13


 685 005a B3F5006F 		cmp	r3, #2048
 686 005e 6FDA     		bge	.L78
 687              		.loc 2 67 0 is_stmt 0 discriminator 1
 688 0060 BDF80630 		ldrh	r3, [sp, #6]
 689 0064 1BB2     		sxth	r3, r3
 690 0066 002B     		cmp	r3, #0
 691 0068 6ADD     		ble	.L78
 692              	.LBB44:
 693              		.loc 2 68 0 is_stmt 1
 694 006a BDF80620 		ldrh	r2, [sp, #6]
 695 006e DFED3D6A 		vldr.32	s13, .L94+8
 696              		.loc 2 69 0
 697 0072 9FED3D7A 		vldr.32	s14, .L94+12
 698 0076 3D4B     		ldr	r3, .L94+16
 699              		.loc 2 68 0
 700 0078 12B2     		sxth	r2, r2
 701 007a 013A     		subs	r2, r2, #1
 702 007c 07EE902A 		vmov	s15, r2	@ int
 703 0080 F8EEE77A 		vcvt.f32.s32	s15, s15
 704 0084 03F14405 		add	r5, r3, #68
 705 0088 67EEA67A 		vmul.f32	s15, s15, s13
 706              		.loc 2 69 0
 707 008c 0122     		movs	r2, #1
 708              		.loc 2 68 0
 709 008e CDED047A 		vstr.32	s15, [sp, #16]
 710              		.loc 2 69 0
 711 0092 DDED047A 		vldr.32	s15, [sp, #16]
 712 0096 77EEC77A 		vsub.f32	s15, s15, s14
 713 009a 5721     		movs	r1, #87
 714 009c FDEEE77A 		vcvt.s32.f32	s15, s15
 715 00a0 17EE900A 		vmov	r0, s15	@ int
 716 00a4 0028     		cmp	r0, #0
 717 00a6 B8BF     		it	lt
 718 00a8 4042     		rsblt	r0, r0, #0
 719 00aa 07EE900A 		vmov	s15, r0	@ int
 720 00ae F8EEE77A 		vcvt.f32.s32	s15, s15
 721 00b2 CDED057A 		vstr.32	s15, [sp, #20]
 722              	.LVL63:
 723 00b6 01E0     		b	.L82
 724              	.LVL64:
 725              	.L93:
 726 00b8 33F8021F 		ldrh	r1, [r3, #2]!
 727              	.L82:
 728              	.LVL65:
 729              	.LBB45:
 730              		.loc 2 71 0
 731 00bc DDED047A 		vldr.32	s15, [sp, #16]
 732 00c0 07EE101A 		vmov	s14, r1	@ int
 733 00c4 B8EEC77A 		vcvt.f32.s32	s14, s14
 734 00c8 77EEC77A 		vsub.f32	s15, s15, s14
 735 00cc FDEEE77A 		vcvt.s32.f32	s15, s15
 736 00d0 17EE900A 		vmov	r0, s15	@ int
 737 00d4 0028     		cmp	r0, #0
 738 00d6 B8BF     		it	lt
 739 00d8 4042     		rsblt	r0, r0, #0
 740 00da 07EE900A 		vmov	s15, r0	@ int
 741 00de F8EEE77A 		vcvt.f32.s32	s15, s15
ARM GAS  C:\Users\osour\AppData\Local\Temp\ccr12IjC.s 			page 14


 742 00e2 CDED067A 		vstr.32	s15, [sp, #24]
 743              		.loc 2 72 0
 744 00e6 9DED067A 		vldr.32	s14, [sp, #24]
 745 00ea DDED057A 		vldr.32	s15, [sp, #20]
 746 00ee B4EEE77A 		vcmpe.f32	s14, s15
 747 00f2 F1EE10FA 		vmrs	APSR_nzcv, FPSCR
 748 00f6 06D5     		bpl	.L79
 749              		.loc 2 73 0
 750 00f8 0698     		ldr	r0, [sp, #24]	@ float
 751 00fa 0590     		str	r0, [sp, #20]	@ float
 752              		.loc 2 75 0
 753 00fc 10B2     		sxth	r0, r2
 754              		.loc 2 74 0
 755 00fe ADF80A10 		strh	r1, [sp, #10]	@ movhi
 756              		.loc 2 75 0
 757 0102 ADF80800 		strh	r0, [sp, #8]	@ movhi
 758              	.L79:
 759              	.LVL66:
 760              		.loc 2 70 0 discriminator 2
 761 0106 AB42     		cmp	r3, r5
 762 0108 02F10102 		add	r2, r2, #1
 763              	.LVL67:
 764 010c D4D1     		bne	.L93
 765              	.LBE45:
 766              		.loc 2 78 0
 767 010e BDF80830 		ldrh	r3, [sp, #8]
 768 0112 1749     		ldr	r1, .L94+20
 769 0114 1BB2     		sxth	r3, r3
 770 0116 81FB0321 		smull	r2, r1, r1, r3
 771 011a DA17     		asrs	r2, r3, #31
 772 011c C2EB6102 		rsb	r2, r2, r1, asr #1
 773 0120 02EB4202 		add	r2, r2, r2, lsl #1
 774 0124 A3EB8203 		sub	r3, r3, r2, lsl #2
 775 0128 1BB2     		sxth	r3, r3
 776 012a ADF80830 		strh	r3, [sp, #8]	@ movhi
 777              		.loc 2 79 0
 778 012e BDF80800 		ldrh	r0, [sp, #8]
 779 0132 079A     		ldr	r2, [sp, #28]
 780 0134 2368     		ldr	r3, [r4]
 781 0136 9A42     		cmp	r2, r3
 782 0138 00B2     		sxth	r0, r0
 783 013a 09D0     		beq	.L91
 784              	.L92:
 785              	.LBE44:
 786              	.LBB46:
 787              		.loc 2 82 0
 788 013c FFF7FEFF 		bl	__stack_chk_fail
 789              	.LVL68:
 790              	.L78:
 791              		.loc 2 81 0
 792 0140 0023     		movs	r3, #0
 793 0142 0493     		str	r3, [sp, #16]	@ float
 794              		.loc 2 82 0
 795 0144 079A     		ldr	r2, [sp, #28]
 796 0146 2368     		ldr	r3, [r4]
 797 0148 9A42     		cmp	r2, r3
 798 014a 08BF     		it	eq
ARM GAS  C:\Users\osour\AppData\Local\Temp\ccr12IjC.s 			page 15


 799 014c 0C20     		moveq	r0, #12
 800 014e F5D1     		bne	.L92
 801              	.L91:
 802              	.LBE46:
 803              		.loc 2 88 0
 804 0150 09B0     		add	sp, sp, #36
 805              		.cfi_def_cfa_offset 12
 806              		@ sp needed
 807 0152 BDE83040 		pop	{r4, r5, lr}
 808              		.cfi_restore 14
 809              		.cfi_restore 5
 810              		.cfi_restore 4
 811              		.cfi_def_cfa_offset 0
 812              	.LBB47:
 813              		.loc 2 82 0
 814 0156 FFF7FEBF 		b	find_note
 815              	.LVL69:
 816              	.L95:
 817 015a 00BF     		.align	2
 818              	.L94:
 819 015c 00000000 		.word	__stack_chk_guard
 820 0160 00007A46 		.word	1182400512
 821 0164 9A997D40 		.word	1081973146
 822 0168 0000A442 		.word	1118044160
 823 016c 02000000 		.word	.LANCHOR1+2
 824 0170 ABAAAA2A 		.word	715827883
 825              	.LBE47:
 826              		.cfi_endproc
 827              	.LFE291:
 828              		.size	frequency_to_note, .-frequency_to_note
 829              		.section	.text.processAudioData,"ax",%progbits
 830              		.align	1
 831              		.p2align 4,,15
 832              		.global	processAudioData
 833              		.syntax unified
 834              		.thumb
 835              		.thumb_func
 836              		.fpu fpv4-sp-d16
 837              		.type	processAudioData, %function
 838              	processAudioData:
 839              	.LFB292:
 840              		.loc 2 99 0
 841              		.cfi_startproc
 842              		@ args = 0, pretend = 0, frame = 8
 843              		@ frame_needed = 0, uses_anonymous_args = 0
 844              	.LVL70:
 845 0000 F0B5     		push	{r4, r5, r6, r7, lr}
 846              		.cfi_def_cfa_offset 20
 847              		.cfi_offset 4, -20
 848              		.cfi_offset 5, -16
 849              		.cfi_offset 6, -12
 850              		.cfi_offset 7, -8
 851              		.cfi_offset 14, -4
 852 0002 5C4D     		ldr	r5, .L119
 853 0004 5C4C     		ldr	r4, .L119+4
 854 0006 2B68     		ldr	r3, [r5]
 855 0008 83B0     		sub	sp, sp, #12
ARM GAS  C:\Users\osour\AppData\Local\Temp\ccr12IjC.s 			page 16


 856              		.cfi_def_cfa_offset 32
 857              	.LBB66:
 858              		.loc 2 109 0
 859 000a 0026     		movs	r6, #0
 860              	.LBE66:
 861              		.loc 2 99 0
 862 000c 0193     		str	r3, [sp, #4]
 863              	.LBB67:
 864              		.loc 2 109 0
 865 000e ADF80260 		strh	r6, [sp, #2]	@ movhi
 866 0012 BDF80220 		ldrh	r2, [sp, #2]
 867 0016 2388     		ldrh	r3, [r4]
 868 0018 9142     		cmp	r1, r2
 869 001a 40F2A280 		bls	.L97
 870              		.loc 2 111 0
 871 001e BDF802C0 		ldrh	ip, [sp, #2]
 872 0022 564F     		ldr	r7, .L119+8
 873 0024 0CF1010C 		add	ip, ip, #1
 874              		.loc 2 112 0
 875 0028 5A1C     		adds	r2, r3, #1
 876              		.loc 2 111 0
 877 002a 30F91CC0 		ldrsh	ip, [r0, ip, lsl #1]
 878 002e 07EE90CA 		vmov	s15, ip	@ int
 879              		.loc 2 113 0
 880 0032 92B2     		uxth	r2, r2
 881              		.loc 2 111 0
 882 0034 07EB830C 		add	ip, r7, r3, lsl #2
 883              		.loc 2 114 0
 884 0038 0233     		adds	r3, r3, #2
 885 003a 9BB2     		uxth	r3, r3
 886              		.loc 2 111 0
 887 003c F8EEE77A 		vcvt.f32.s32	s15, s15
 888              		.loc 2 113 0
 889 0040 07EB8202 		add	r2, r7, r2, lsl #2
 890 0044 4FF0000E 		mov	lr, #0
 891              		.loc 2 115 0
 892 0048 B3F5005F 		cmp	r3, #8192
 893              		.loc 2 111 0
 894 004c CCED007A 		vstr.32	s15, [ip]
 895              		.loc 2 114 0
 896 0050 2380     		strh	r3, [r4]	@ movhi
 897              		.loc 2 113 0
 898 0052 C2F800E0 		str	lr, [r2]	@ float
 899              		.loc 2 115 0
 900 0056 1CD3     		bcc	.L99
 901 0058 2EE0     		b	.L98
 902              	.L101:
 903              		.loc 2 111 0
 904 005a BDF80260 		ldrh	r6, [sp, #2]
 905 005e 0136     		adds	r6, r6, #1
 906              		.loc 2 113 0
 907 0060 5A1C     		adds	r2, r3, #1
 908              		.loc 2 111 0
 909 0062 30F91660 		ldrsh	r6, [r0, r6, lsl #1]
 910 0066 07EE906A 		vmov	s15, r6	@ int
 911              		.loc 2 113 0
 912 006a 92B2     		uxth	r2, r2
ARM GAS  C:\Users\osour\AppData\Local\Temp\ccr12IjC.s 			page 17


 913              		.loc 2 114 0
 914 006c 03F1020C 		add	ip, r3, #2
 915              		.loc 2 111 0
 916 0070 07EB8306 		add	r6, r7, r3, lsl #2
 917 0074 F8EEE77A 		vcvt.f32.s32	s15, s15
 918              		.loc 2 113 0
 919 0078 07EB8202 		add	r2, r7, r2, lsl #2
 920              		.loc 2 114 0
 921 007c 1FFA8CF3 		uxth	r3, ip
 922              		.loc 2 115 0
 923 0080 B3F5005F 		cmp	r3, #8192
 924              		.loc 2 111 0
 925 0084 C6ED007A 		vstr.32	s15, [r6]
 926 0088 4FF00106 		mov	r6, #1
 927              		.loc 2 113 0
 928 008c C2F800E0 		str	lr, [r2]	@ float
 929              		.loc 2 115 0
 930 0090 11D2     		bcs	.L100
 931              	.L99:
 932              		.loc 2 109 0 discriminator 2
 933 0092 BDF80220 		ldrh	r2, [sp, #2]
 934 0096 0432     		adds	r2, r2, #4
 935 0098 92B2     		uxth	r2, r2
 936 009a ADF80220 		strh	r2, [sp, #2]	@ movhi
 937 009e BDF80220 		ldrh	r2, [sp, #2]
 938 00a2 9142     		cmp	r1, r2
 939 00a4 D9D8     		bhi	.L101
 940 00a6 002E     		cmp	r6, #0
 941 00a8 5FD1     		bne	.L115
 942              	.LVL71:
 943              	.L96:
 944              	.LBE67:
 945              		.loc 2 132 0
 946 00aa 019A     		ldr	r2, [sp, #4]
 947 00ac 2B68     		ldr	r3, [r5]
 948 00ae 9A42     		cmp	r2, r3
 949 00b0 5DD1     		bne	.L116
 950 00b2 03B0     		add	sp, sp, #12
 951              		.cfi_remember_state
 952              		.cfi_def_cfa_offset 20
 953              		@ sp needed
 954 00b4 F0BD     		pop	{r4, r5, r6, r7, pc}
 955              	.LVL72:
 956              	.L100:
 957              		.cfi_restore_state
 958 00b6 2380     		strh	r3, [r4]	@ movhi
 959              	.L98:
 960              		.loc 2 121 0
 961 00b8 3049     		ldr	r1, .L119+8
 962              	.LVL73:
 963 00ba 4FF48050 		mov	r0, #4096
 964              	.LVL74:
 965 00be FFF7FEFF 		bl	doFFT_optimized
 966              	.LVL75:
 967              		.loc 2 122 0
 968 00c2 4FF48052 		mov	r2, #4096
 969 00c6 2E49     		ldr	r1, .L119+12
ARM GAS  C:\Users\osour\AppData\Local\Temp\ccr12IjC.s 			page 18


 970 00c8 2C48     		ldr	r0, .L119+8
 971 00ca FFF7FEFF 		bl	arm_cmplx_mag_f32
 972              	.LVL76:
 973              		.loc 2 123 0
 974 00ce 4FF48052 		mov	r2, #4096
 975 00d2 2C49     		ldr	r1, .L119+16
 976 00d4 2A48     		ldr	r0, .L119+12
 977 00d6 FFF7FEFF 		bl	arm_copy_f32
 978              	.LVL77:
 979 00da 2B4A     		ldr	r2, .L119+20
 980              	.LBB68:
 981              	.LBB69:
 982              		.loc 2 47 0
 983 00dc 0121     		movs	r1, #1
 984              	.LVL78:
 985              	.L107:
 986 00de 07EE901A 		vmov	s15, r1	@ int
 987 00e2 274B     		ldr	r3, .L119+12
 988 00e4 F8EE676A 		vcvt.f32.u32	s13, s15
 989              	.LVL79:
 990              	.L103:
 991              	.LBB70:
 992              		.loc 2 49 0
 993 00e8 93ED007A 		vldr.32	s14, [r3]
 994 00ec C7EE267A 		vdiv.f32	s15, s14, s13
 995 00f0 77EE877A 		vadd.f32	s15, s15, s14
 996 00f4 E3EC017A 		vstmia.32	r3!, {s15}
 997              		.loc 2 48 0
 998 00f8 9342     		cmp	r3, r2
 999 00fa F5D1     		bne	.L103
 1000              	.LBE70:
 1001              		.loc 2 47 0
 1002 00fc 0131     		adds	r1, r1, #1
 1003              	.LVL80:
 1004 00fe C9B2     		uxtb	r1, r1
 1005              	.LVL81:
 1006 0100 0529     		cmp	r1, #5
 1007 0102 ECD1     		bne	.L107
 1008              	.LVL82:
 1009              	.LBE69:
 1010              	.LBE68:
 1011              		.loc 2 127 0
 1012 0104 1E48     		ldr	r0, .L119+12
 1013 0106 FFF7FEFF 		bl	frequency_to_note
 1014              	.LVL83:
 1015              		.loc 2 129 0
 1016 010a 0023     		movs	r3, #0
 1017 010c 2380     		strh	r3, [r4]	@ movhi
 1018              	.LVL84:
 1019              	.LBB71:
 1020              	.LBB72:
 1021              	.LBB73:
 1022              	.LBB74:
 1023              	.LBB75:
 1024              	.LBB76:
 1025              	.LBB77:
 1026              		.file 4 "../../lib/e-puck2_main-processor/ChibiOS//os/ext/CMSIS/include/core_cmFunc.h"
ARM GAS  C:\Users\osour\AppData\Local\Temp\ccr12IjC.s 			page 19


 1027              		.loc 4 546 0
 1028 010e 2023     		movs	r3, #32
 1029              		.syntax unified
 1030              	@ 546 "../../lib/e-puck2_main-processor/ChibiOS//os/ext/CMSIS/include/core_cmFunc.h" 1
 1031 0110 83F31188 		MSR basepri, r3
 1032              	@ 0 "" 2
 1033              	.LVL85:
 1034              		.thumb
 1035              		.syntax unified
 1036              	.LBE77:
 1037              	.LBE76:
 1038              	.LBE75:
 1039              		.file 5 "../../lib/e-puck2_main-processor/ChibiOS//os/rt/include/chsys.h"
 1040              		.loc 5 349 0
 1041 0114 FFF7FEFF 		bl	_stats_start_measure_crit_thd
 1042              	.LVL86:
 1043              		.loc 5 350 0
 1044 0118 FFF7FEFF 		bl	_dbg_check_lock
 1045              	.LVL87:
 1046              	.LBE74:
 1047              	.LBE73:
 1048              	.LBB78:
 1049              	.LBB79:
 1050              		.loc 3 268 0
 1051 011c FFF7FEFF 		bl	chDbgCheckClassI
 1052              	.LVL88:
 1053              		.loc 3 270 0
 1054 0120 1A48     		ldr	r0, .L119+24
 1055 0122 8368     		ldr	r3, [r0, #8]
 1056 0124 002B     		cmp	r3, #0
 1057 0126 19DD     		ble	.L117
 1058              	.L105:
 1059              	.LVL89:
 1060              	.LBE79:
 1061              	.LBE78:
 1062              		.loc 3 286 0
 1063 0128 FFF7FEFF 		bl	chSchRescheduleS
 1064              	.LVL90:
 1065              	.LBB81:
 1066              	.LBB82:
 1067              		.loc 5 360 0
 1068 012c FFF7FEFF 		bl	_dbg_check_unlock
 1069              	.LVL91:
 1070              		.loc 5 361 0
 1071 0130 FFF7FEFF 		bl	_stats_stop_measure_crit_thd
 1072              	.LVL92:
 1073              		.loc 5 367 0
 1074 0134 164B     		ldr	r3, .L119+28
 1075 0136 1A68     		ldr	r2, [r3]
 1076 0138 9A42     		cmp	r2, r3
 1077 013a 04D0     		beq	.L106
 1078 013c 9969     		ldr	r1, [r3, #24]
 1079 013e 9368     		ldr	r3, [r2, #8]
 1080 0140 8A68     		ldr	r2, [r1, #8]
 1081 0142 9A42     		cmp	r2, r3
 1082 0144 03D3     		bcc	.L118
 1083              	.L106:
ARM GAS  C:\Users\osour\AppData\Local\Temp\ccr12IjC.s 			page 20


 1084              	.LVL93:
 1085              	.LBB83:
 1086              	.LBB84:
 1087              	.LBB85:
 1088              		.loc 4 546 0
 1089 0146 0023     		movs	r3, #0
 1090              		.syntax unified
 1091              	@ 546 "../../lib/e-puck2_main-processor/ChibiOS//os/ext/CMSIS/include/core_cmFunc.h" 1
 1092 0148 83F31188 		MSR basepri, r3
 1093              	@ 0 "" 2
 1094              	.LVL94:
 1095              		.thumb
 1096              		.syntax unified
 1097              	.LBE85:
 1098              	.LBE84:
 1099              	.LBE83:
 1100              	.LBE82:
 1101              	.LBE81:
 1102              	.LBE72:
 1103              	.LBE71:
 1104              		.loc 2 132 0
 1105 014c ADE7     		b	.L96
 1106              	.L118:
 1107              	.LBB93:
 1108              	.LBB92:
 1109              	.LBB90:
 1110              	.LBB89:
 1111              		.loc 5 367 0
 1112 014e 1148     		ldr	r0, .L119+32
 1113 0150 FFF7FEFF 		bl	chSysHalt
 1114              	.LVL95:
 1115              	.LBB88:
 1116              	.LBB87:
 1117              	.LBB86:
 1118              		.loc 4 546 0
 1119 0154 0023     		movs	r3, #0
 1120              		.syntax unified
 1121              	@ 546 "../../lib/e-puck2_main-processor/ChibiOS//os/ext/CMSIS/include/core_cmFunc.h" 1
 1122 0156 83F31188 		MSR basepri, r3
 1123              	@ 0 "" 2
 1124              	.LVL96:
 1125              		.thumb
 1126              		.syntax unified
 1127 015a A6E7     		b	.L96
 1128              	.LVL97:
 1129              	.L117:
 1130              	.LBE86:
 1131              	.LBE87:
 1132              	.LBE88:
 1133              	.LBE89:
 1134              	.LBE90:
 1135              	.LBB91:
 1136              	.LBB80:
 1137              		.loc 3 271 0
 1138 015c FFF7FEFF 		bl	chSemSignalI
 1139              	.LVL98:
 1140 0160 E2E7     		b	.L105
ARM GAS  C:\Users\osour\AppData\Local\Temp\ccr12IjC.s 			page 21


 1141              	.LVL99:
 1142              	.L97:
 1143              	.LBE80:
 1144              	.LBE91:
 1145              	.LBE92:
 1146              	.LBE93:
 1147              		.loc 2 120 0
 1148 0162 B3F5005F 		cmp	r3, #8192
 1149 0166 A0D3     		bcc	.L96
 1150 0168 A6E7     		b	.L98
 1151              	.L115:
 1152 016a 2380     		strh	r3, [r4]	@ movhi
 1153 016c 9DE7     		b	.L96
 1154              	.LVL100:
 1155              	.L116:
 1156              		.loc 2 132 0
 1157 016e FFF7FEFF 		bl	__stack_chk_fail
 1158              	.LVL101:
 1159              	.L120:
 1160 0172 00BF     		.align	2
 1161              	.L119:
 1162 0174 00000000 		.word	__stack_chk_guard
 1163 0178 00000000 		.word	.LANCHOR2
 1164 017c 00000000 		.word	micLeft_cmplx_input
 1165 0180 00000000 		.word	micLeft_output
 1166 0184 00000000 		.word	send_tab
 1167 0188 00400000 		.word	micLeft_output+16384
 1168 018c 00000000 		.word	.LANCHOR0
 1169 0190 00000000 		.word	ch
 1170 0194 00000000 		.word	.LANCHOR3
 1171              		.cfi_endproc
 1172              	.LFE292:
 1173              		.size	processAudioData, .-processAudioData
 1174              		.section	.bss.micLeft_cmplx_input,"aw",%nobits
 1175              		.align	2
 1176              		.type	micLeft_cmplx_input, %object
 1177              		.size	micLeft_cmplx_input, 32768
 1178              	micLeft_cmplx_input:
 1179 0000 00000000 		.space	32768
 1179      00000000 
 1179      00000000 
 1179      00000000 
 1179      00000000 
 1180              		.section	.bss.micLeft_output,"aw",%nobits
 1181              		.align	2
 1182              		.type	micLeft_output, %object
 1183              		.size	micLeft_output, 16384
 1184              	micLeft_output:
 1185 0000 00000000 		.space	16384
 1185      00000000 
 1185      00000000 
 1185      00000000 
 1185      00000000 
 1186              		.section	.bss.nb_samples.14199,"aw",%nobits
 1187              		.align	1
 1188              		.set	.LANCHOR2,. + 0
 1189              		.type	nb_samples.14199, %object
ARM GAS  C:\Users\osour\AppData\Local\Temp\ccr12IjC.s 			page 22


 1190              		.size	nb_samples.14199, 2
 1191              	nb_samples.14199:
 1192 0000 0000     		.space	2
 1193              		.section	.bss.send_tab,"aw",%nobits
 1194              		.align	2
 1195              		.type	send_tab, %object
 1196              		.size	send_tab, 16384
 1197              	send_tab:
 1198 0000 00000000 		.space	16384
 1198      00000000 
 1198      00000000 
 1198      00000000 
 1198      00000000 
 1199              		.section	.data.sendToComputer_sem,"aw",%progbits
 1200              		.align	2
 1201              		.set	.LANCHOR0,. + 0
 1202              		.type	sendToComputer_sem, %object
 1203              		.size	sendToComputer_sem, 12
 1204              	sendToComputer_sem:
 1205 0000 00000000 		.word	sendToComputer_sem
 1206 0004 00000000 		.word	sendToComputer_sem
 1207 0008 00000000 		.word	0
 1208              		.section	.rodata.__func__.7153,"a",%progbits
 1209              		.align	2
 1210              		.set	.LANCHOR3,. + 0
 1211              		.type	__func__.7153, %object
 1212              		.size	__func__.7153, 12
 1213              	__func__.7153:
 1214 0000 63685379 		.ascii	"chSysUnlock\000"
 1214      73556E6C 
 1214      6F636B00 
 1215              		.section	.rodata.find_note.str1.4,"aMS",%progbits,1
 1216              		.align	2
 1217              	.LC0:
 1218 0000 45200D20 		.ascii	"E \015 \012\000"
 1218      0A00
 1219 0006 0000     		.space	2
 1220              	.LC1:
 1221 0008 46200D20 		.ascii	"F \015 \012\000"
 1221      0A00
 1222 000e 0000     		.space	2
 1223              	.LC2:
 1224 0010 4623200D 		.ascii	"F# \015 \012\000"
 1224      200A00
 1225 0017 00       		.space	1
 1226              	.LC3:
 1227 0018 47200D20 		.ascii	"G \015 \012\000"
 1227      0A00
 1228 001e 0000     		.space	2
 1229              	.LC4:
 1230 0020 4723200D 		.ascii	"G# \015 \012\000"
 1230      200A00
 1231 0027 00       		.space	1
 1232              	.LC5:
 1233 0028 41200D20 		.ascii	"A \015 \012\000"
 1233      0A00
 1234 002e 0000     		.space	2
ARM GAS  C:\Users\osour\AppData\Local\Temp\ccr12IjC.s 			page 23


 1235              	.LC6:
 1236 0030 4123200D 		.ascii	"A# \015 \012\000"
 1236      200A00
 1237 0037 00       		.space	1
 1238              	.LC7:
 1239 0038 42200D20 		.ascii	"B \015 \012\000"
 1239      0A00
 1240 003e 0000     		.space	2
 1241              	.LC8:
 1242 0040 43200D20 		.ascii	"C \015 \012\000"
 1242      0A00
 1243 0046 0000     		.space	2
 1244              	.LC9:
 1245 0048 4323200D 		.ascii	"C# \015 \012\000"
 1245      200A00
 1246 004f 00       		.space	1
 1247              	.LC10:
 1248 0050 44200D20 		.ascii	"D \015 \012\000"
 1248      0A00
 1249 0056 0000     		.space	2
 1250              	.LC11:
 1251 0058 4423200D 		.ascii	"D# \015 \012\000"
 1251      200A00
 1252 005f 00       		.space	1
 1253              	.LC12:
 1254 0060 6E6F6E65 		.ascii	"none \015 \012\000"
 1254      200D200A 
 1254      00
 1255              		.section	.rodata.note_frequency,"a",%progbits
 1256              		.align	2
 1257              		.set	.LANCHOR1,. + 0
 1258              		.type	note_frequency, %object
 1259              		.size	note_frequency, 72
 1260              	note_frequency:
 1261 0000 5200     		.short	82
 1262 0002 5700     		.short	87
 1263 0004 5C00     		.short	92
 1264 0006 6200     		.short	98
 1265 0008 6800     		.short	104
 1266 000a 6E00     		.short	110
 1267 000c 7500     		.short	117
 1268 000e 7B00     		.short	123
 1269 0010 8300     		.short	131
 1270 0012 8B00     		.short	139
 1271 0014 9300     		.short	147
 1272 0016 9C00     		.short	156
 1273 0018 A500     		.short	165
 1274 001a AF00     		.short	175
 1275 001c B900     		.short	185
 1276 001e C400     		.short	196
 1277 0020 D000     		.short	208
 1278 0022 DC00     		.short	220
 1279 0024 E900     		.short	233
 1280 0026 F700     		.short	247
 1281 0028 0601     		.short	262
 1282 002a 1501     		.short	277
 1283 002c 2601     		.short	294
ARM GAS  C:\Users\osour\AppData\Local\Temp\ccr12IjC.s 			page 24


 1284 002e 3701     		.short	311
 1285 0030 4A01     		.short	330
 1286 0032 5D01     		.short	349
 1287 0034 7201     		.short	370
 1288 0036 8801     		.short	392
 1289 0038 9F01     		.short	415
 1290 003a B801     		.short	440
 1291 003c D201     		.short	466
 1292 003e EE01     		.short	494
 1293 0040 2A02     		.short	554
 1294 0042 4B02     		.short	587
 1295 0044 6E02     		.short	622
 1296 0046 9302     		.short	659
 1297              		.text
 1298              	.Letext0:
 1299              		.file 6 "c:\\users\\osour\\desktop\\robotique\\eclipse_e-puck2\\tools\\gcc-arm-none-eabi-7-2017-q4
 1300              		.file 7 "c:\\users\\osour\\desktop\\robotique\\eclipse_e-puck2\\tools\\gcc-arm-none-eabi-7-2017-q4
 1301              		.file 8 "c:\\users\\osour\\desktop\\robotique\\eclipse_e-puck2\\tools\\gcc-arm-none-eabi-7-2017-q4
 1302              		.file 9 "../../lib/e-puck2_main-processor/ChibiOS//os/rt/ports/ARMCMx/compilers/GCC/chtypes.h"
 1303              		.file 10 "../../lib/e-puck2_main-processor/ChibiOS//os/rt/include/chsystypes.h"
 1304              		.file 11 "../../lib/e-puck2_main-processor/ChibiOS//os/rt/include/chschd.h"
 1305              		.file 12 "../../lib/e-puck2_main-processor/ChibiOS//os/ext/CMSIS/include/core_cm4.h"
 1306              		.file 13 "../../lib/e-puck2_main-processor/ChibiOS//os/ext/CMSIS/ST/system_stm32f4xx.h"
 1307              		.file 14 "../../lib/e-puck2_main-processor/ChibiOS//os/ext/CMSIS/ST/stm32f407xx.h"
 1308              		.file 15 "../../lib/e-puck2_main-processor/ChibiOS//os/rt/ports/ARMCMx/chcore.h"
 1309              		.file 16 "../../lib/e-puck2_main-processor/ChibiOS//os/rt/ports/ARMCMx/chcore_v7m.h"
 1310              		.file 17 "../../lib/e-puck2_main-processor/ChibiOS//os/rt/include/chdebug.h"
 1311              		.file 18 "../../lib/e-puck2_main-processor/ChibiOS//os/rt/include/chtm.h"
 1312              		.file 19 "../../lib/e-puck2_main-processor/ChibiOS//os/rt/include/chstats.h"
 1313              		.file 20 "../../lib/e-puck2_main-processor/ChibiOS//os/rt/include/chsem.h"
 1314              		.file 21 "../../lib/e-puck2_main-processor/ChibiOS//os/rt/include/chmtx.h"
 1315              		.file 22 "../../lib/e-puck2_main-processor/ChibiOS//os/rt/include/chregistry.h"
 1316              		.file 23 "../../lib/e-puck2_main-processor/ChibiOS//os/rt/include/chevents.h"
 1317              		.file 24 "../../lib/e-puck2_main-processor/ChibiOS//os/rt/include/chqueues.h"
 1318              		.file 25 "../../lib/e-puck2_main-processor/ChibiOS//os/rt/include/chstreams.h"
 1319              		.file 26 "../../lib/e-puck2_main-processor/ChibiOS//os/hal/ports/STM32/STM32F4xx/stm32_dma.h"
 1320              		.file 27 "../../lib/e-puck2_main-processor/ChibiOS//os/hal/include/hal_ioblock.h"
 1321              		.file 28 "../../lib/e-puck2_main-processor/ChibiOS//os/hal/ports/STM32/LLD/GPIOv2/pal_lld.h"
 1322              		.file 29 "../../lib/e-puck2_main-processor/ChibiOS//os/hal/include/adc.h"
 1323              		.file 30 "../../lib/e-puck2_main-processor/ChibiOS//os/hal/ports/STM32/STM32F4xx/adc_lld.h"
 1324              		.file 31 "../../lib/e-puck2_main-processor/ChibiOS//os/hal/include/can.h"
 1325              		.file 32 "../../lib/e-puck2_main-processor/ChibiOS//os/hal/ports/STM32/LLD/can_lld.h"
 1326              		.file 33 "../../lib/e-puck2_main-processor/ChibiOS//os/hal/include/dac.h"
 1327              		.file 34 "../../lib/e-puck2_main-processor/ChibiOS//os/hal/ports/STM32/LLD/DACv1/dac_lld.h"
 1328              		.file 35 "../../lib/e-puck2_main-processor/ChibiOS//os/hal/include/ext.h"
 1329              		.file 36 "../../lib/e-puck2_main-processor/ChibiOS//os/hal/ports/STM32/LLD/ext_lld.h"
 1330              		.file 37 "../../lib/e-puck2_main-processor/ChibiOS//os/hal/include/gpt.h"
 1331              		.file 38 "../../lib/e-puck2_main-processor/ChibiOS//os/hal/ports/STM32/LLD/TIMv1/gpt_lld.h"
 1332              		.file 39 "../../lib/e-puck2_main-processor/ChibiOS//os/hal/ports/STM32/LLD/TIMv1/stm32_tim.h"
 1333              		.file 40 "../../lib/e-puck2_main-processor/ChibiOS//os/hal/include/i2c.h"
 1334              		.file 41 "../../lib/e-puck2_main-processor/ChibiOS//os/hal/ports/STM32/LLD/I2Cv1/i2c_lld.h"
 1335              		.file 42 "../../lib/e-puck2_main-processor/ChibiOS//os/hal/include/i2s.h"
 1336              		.file 43 "../../lib/e-puck2_main-processor/ChibiOS//os/hal/ports/STM32/LLD/SPIv1/i2s_lld.h"
 1337              		.file 44 "../../lib/e-puck2_main-processor/ChibiOS//os/hal/include/pwm.h"
 1338              		.file 45 "../../lib/e-puck2_main-processor/ChibiOS//os/hal/ports/STM32/LLD/TIMv1/pwm_lld.h"
 1339              		.file 46 "../../lib/e-puck2_main-processor/ChibiOS//os/hal/include/serial.h"
 1340              		.file 47 "../../lib/e-puck2_main-processor/ChibiOS//os/hal/ports/STM32/LLD/USARTv1/serial_lld.h"
ARM GAS  C:\Users\osour\AppData\Local\Temp\ccr12IjC.s 			page 25


 1341              		.file 48 "../../lib/e-puck2_main-processor/ChibiOS//os/hal/include/sdc.h"
 1342              		.file 49 "../../lib/e-puck2_main-processor/ChibiOS//os/hal/ports/STM32/LLD/sdc_lld.h"
 1343              		.file 50 "../../lib/e-puck2_main-processor/ChibiOS//os/hal/include/spi.h"
 1344              		.file 51 "../../lib/e-puck2_main-processor/ChibiOS//os/hal/ports/STM32/LLD/SPIv1/spi_lld.h"
 1345              		.file 52 "../../lib/e-puck2_main-processor/ChibiOS//os/hal/include/usb.h"
 1346              		.file 53 "../../lib/e-puck2_main-processor/ChibiOS//os/hal/ports/STM32/LLD/OTGv1/usb_lld.h"
 1347              		.file 54 "../../lib/e-puck2_main-processor/ChibiOS//os/hal/ports/STM32/LLD/OTGv1/stm32_otg.h"
 1348              		.file 55 "../../lib/e-puck2_main-processor/ChibiOS//os/hal/include/serial_usb.h"
 1349              		.file 56 "../../lib/e-puck2_main-processor/ChibiOS_ext/os/hal/include/../ports/STM32/STM32F4xx/dcm
 1350              		.file 57 "c:\\users\\osour\\desktop\\robotique\\eclipse_e-puck2\\tools\\gcc-arm-none-eabi-7-2017-q
 1351              		.file 58 "c:\\users\\osour\\desktop\\robotique\\eclipse_e-puck2\\tools\\gcc-arm-none-eabi-7-2017-q
 1352              		.file 59 "<built-in>"
 1353              		.file 60 "c:\\users\\osour\\desktop\\robotique\\eclipse_e-puck2\\tools\\gcc-arm-none-eabi-7-2017-q
 1354              		.file 61 "../../lib/e-puck2_main-processor/src/msgbus/messagebus.h"
 1355              		.file 62 "c:\\users\\osour\\desktop\\robotique\\eclipse_e-puck2\\tools\\gcc-arm-none-eabi-7-2017-q
 1356              		.file 63 "c:\\users\\osour\\desktop\\robotique\\eclipse_e-puck2\\tools\\gcc-arm-none-eabi-7-2017-q
 1357              		.file 64 "../../lib/e-puck2_main-processor/src/parameter/parameter.h"
 1358              		.file 65 "./main.h"
 1359              		.file 66 "../../lib/e-puck2_main-processor/src/usbcfg.h"
 1360              		.file 67 "c:\\users\\osour\\desktop\\robotique\\eclipse_e-puck2\\tools\\gcc-arm-none-eabi-7-2017-q
 1361              		.file 68 "c:\\users\\osour\\desktop\\robotique\\eclipse_e-puck2\\tools\\gcc-arm-none-eabi-7-2017-q
 1362              		.file 69 "../../lib/e-puck2_main-processor/src/motors.h"
 1363              		.file 70 "./fft.h"
 1364              		.file 71 "../../lib/e-puck2_main-processor/ChibiOS//os/ext/CMSIS/include/arm_math.h"