ARM GAS  C:\Users\osour\AppData\Local\Temp\ccobrenF.s 			page 1


   1              		.cpu cortex-m4
   2              		.eabi_attribute 27, 1
   3              		.eabi_attribute 28, 1
   4              		.eabi_attribute 20, 1
   5              		.eabi_attribute 21, 1
   6              		.eabi_attribute 23, 3
   7              		.eabi_attribute 24, 1
   8              		.eabi_attribute 25, 1
   9              		.eabi_attribute 26, 1
  10              		.eabi_attribute 30, 2
  11              		.eabi_attribute 34, 1
  12              		.eabi_attribute 18, 4
  13              		.file	"custom_audio_processing.c"
  14              		.text
  15              	.Ltext0:
  16              		.cfi_sections	.debug_frame
  17              		.section	.text.chprintf.constprop.0,"ax",%progbits
  18              		.align	1
  19              		.p2align 4,,15
  20              		.syntax unified
  21              		.thumb
  22              		.thumb_func
  23              		.fpu fpv4-sp-d16
  24              		.type	chprintf.constprop.0, %function
  25              	chprintf.constprop.0:
  26              	.LFB297:
  27              		.file 1 "../../lib/e-puck2_main-processor/ChibiOS//os/hal/lib/streams/chprintf.h"
  28              		.loc 1 69 0
  29              		.cfi_startproc
  30              		@ args = 4, pretend = 12, frame = 8
  31              		@ frame_needed = 0, uses_anonymous_args = 1
  32              	.LVL0:
  33 0000 0EB4     		push	{r1, r2, r3}
  34              		.cfi_def_cfa_offset 12
  35              		.cfi_offset 1, -12
  36              		.cfi_offset 2, -8
  37              		.cfi_offset 3, -4
  38 0002 10B5     		push	{r4, lr}
  39              		.cfi_def_cfa_offset 20
  40              		.cfi_offset 4, -20
  41              		.cfi_offset 14, -16
  42 0004 83B0     		sub	sp, sp, #12
  43              		.cfi_def_cfa_offset 32
  44              		.loc 1 69 0
  45 0006 05AA     		add	r2, sp, #20
  46 0008 094C     		ldr	r4, .L6
  47 000a 52F8041B 		ldr	r1, [r2], #4
  48 000e 2368     		ldr	r3, [r4]
  49              		.loc 1 74 0
  50 0010 0848     		ldr	r0, .L6+4
  51              	.LVL1:
  52              		.loc 1 73 0
  53 0012 0092     		str	r2, [sp]
  54              		.loc 1 69 0
  55 0014 0193     		str	r3, [sp, #4]
  56              	.LVL2:
  57              		.loc 1 74 0
ARM GAS  C:\Users\osour\AppData\Local\Temp\ccobrenF.s 			page 2


  58 0016 FFF7FEFF 		bl	chvprintf
  59              	.LVL3:
  60              		.loc 1 78 0
  61 001a 019A     		ldr	r2, [sp, #4]
  62 001c 2368     		ldr	r3, [r4]
  63 001e 9A42     		cmp	r2, r3
  64 0020 04D1     		bne	.L5
  65 0022 03B0     		add	sp, sp, #12
  66              		.cfi_remember_state
  67              		.cfi_def_cfa_offset 20
  68              		@ sp needed
  69 0024 BDE81040 		pop	{r4, lr}
  70              		.cfi_restore 14
  71              		.cfi_restore 4
  72              		.cfi_def_cfa_offset 12
  73 0028 03B0     		add	sp, sp, #12
  74              		.cfi_restore 3
  75              		.cfi_restore 2
  76              		.cfi_restore 1
  77              		.cfi_def_cfa_offset 0
  78 002a 7047     		bx	lr
  79              	.L5:
  80              		.cfi_restore_state
  81 002c FFF7FEFF 		bl	__stack_chk_fail
  82              	.LVL4:
  83              	.L7:
  84              		.align	2
  85              	.L6:
  86 0030 00000000 		.word	__stack_chk_guard
  87 0034 00000000 		.word	SD3
  88              		.cfi_endproc
  89              	.LFE297:
  90              		.size	chprintf.constprop.0, .-chprintf.constprop.0
  91              		.section	.text.fundamental_frequency,"ax",%progbits
  92              		.align	1
  93              		.p2align 4,,15
  94              		.global	fundamental_frequency
  95              		.syntax unified
  96              		.thumb
  97              		.thumb_func
  98              		.fpu fpv4-sp-d16
  99              		.type	fundamental_frequency, %function
 100              	fundamental_frequency:
 101              	.LFB290:
 102              		.file 2 "custom_audio_processing.c"
 103              		.loc 2 48 0
 104              		.cfi_startproc
 105              		@ args = 0, pretend = 0, frame = 8
 106              		@ frame_needed = 0, uses_anonymous_args = 0
 107              	.LVL5:
 108 0000 10B5     		push	{r4, lr}
 109              		.cfi_def_cfa_offset 8
 110              		.cfi_offset 4, -8
 111              		.cfi_offset 14, -4
 112 0002 114C     		ldr	r4, .L20
 113 0004 82B0     		sub	sp, sp, #8
 114              		.cfi_def_cfa_offset 16
ARM GAS  C:\Users\osour\AppData\Local\Temp\ccobrenF.s 			page 3


 115              		.loc 2 48 0
 116 0006 2368     		ldr	r3, [r4]
 117 0008 0193     		str	r3, [sp, #4]
 118              	.LVL6:
 119              	.LBB30:
 120              		.loc 2 49 0
 121 000a A0B1     		cbz	r0, .L8
 122 000c 0F4A     		ldr	r2, .L20+4
 123 000e 0121     		movs	r1, #1
 124              	.LVL7:
 125              	.L11:
 126 0010 07EE901A 		vmov	s15, r1	@ int
 127 0014 0E4B     		ldr	r3, .L20+8
 128 0016 F8EE676A 		vcvt.f32.u32	s13, s15
 129              	.L10:
 130              	.LBB31:
 131              		.loc 2 51 0 discriminator 3
 132 001a 93ED007A 		vldr.32	s14, [r3]
 133 001e C7EE267A 		vdiv.f32	s15, s14, s13
 134 0022 77EE877A 		vadd.f32	s15, s15, s14
 135 0026 E3EC017A 		vstmia.32	r3!, {s15}
 136              	.LVL8:
 137              		.loc 2 50 0 discriminator 3
 138 002a 9A42     		cmp	r2, r3
 139 002c F5D1     		bne	.L10
 140              	.LBE31:
 141              		.loc 2 49 0 discriminator 2
 142 002e 0131     		adds	r1, r1, #1
 143              	.LVL9:
 144 0030 C9B2     		uxtb	r1, r1
 145              	.LVL10:
 146 0032 8842     		cmp	r0, r1
 147 0034 ECD2     		bcs	.L11
 148              	.LVL11:
 149              	.L8:
 150              	.LBE30:
 151              		.loc 2 54 0
 152 0036 019A     		ldr	r2, [sp, #4]
 153 0038 2368     		ldr	r3, [r4]
 154 003a 9A42     		cmp	r2, r3
 155 003c 01D1     		bne	.L19
 156 003e 02B0     		add	sp, sp, #8
 157              		.cfi_remember_state
 158              		.cfi_def_cfa_offset 8
 159              		@ sp needed
 160 0040 10BD     		pop	{r4, pc}
 161              	.L19:
 162              		.cfi_restore_state
 163 0042 FFF7FEFF 		bl	__stack_chk_fail
 164              	.LVL12:
 165              	.L21:
 166 0046 00BF     		.align	2
 167              	.L20:
 168 0048 00000000 		.word	__stack_chk_guard
 169 004c 00400000 		.word	micLeft_output+16384
 170 0050 00000000 		.word	micLeft_output
 171              		.cfi_endproc
ARM GAS  C:\Users\osour\AppData\Local\Temp\ccobrenF.s 			page 4


 172              	.LFE290:
 173              		.size	fundamental_frequency, .-fundamental_frequency
 174              		.section	.text.send_to_computer,"ax",%progbits
 175              		.align	1
 176              		.p2align 4,,15
 177              		.global	send_to_computer
 178              		.syntax unified
 179              		.thumb
 180              		.thumb_func
 181              		.fpu fpv4-sp-d16
 182              		.type	send_to_computer, %function
 183              	send_to_computer:
 184              	.LFB293:
 185              		.loc 2 134 0
 186              		.cfi_startproc
 187              		@ args = 0, pretend = 0, frame = 8
 188              		@ frame_needed = 0, uses_anonymous_args = 0
 189 0000 00B5     		push	{lr}
 190              		.cfi_def_cfa_offset 4
 191              		.cfi_offset 14, -4
 192 0002 064B     		ldr	r3, .L26
 193 0004 83B0     		sub	sp, sp, #12
 194              		.cfi_def_cfa_offset 16
 195              		.loc 2 134 0
 196 0006 1A68     		ldr	r2, [r3]
 197 0008 0192     		str	r2, [sp, #4]
 198              		.loc 2 136 0
 199 000a 019A     		ldr	r2, [sp, #4]
 200 000c 1B68     		ldr	r3, [r3]
 201 000e 9A42     		cmp	r2, r3
 202 0010 02D1     		bne	.L25
 203 0012 03B0     		add	sp, sp, #12
 204              		.cfi_remember_state
 205              		.cfi_def_cfa_offset 4
 206              		@ sp needed
 207 0014 5DF804FB 		ldr	pc, [sp], #4
 208              	.L25:
 209              		.cfi_restore_state
 210 0018 FFF7FEFF 		bl	__stack_chk_fail
 211              	.LVL13:
 212              	.L27:
 213              		.align	2
 214              	.L26:
 215 001c 00000000 		.word	__stack_chk_guard
 216              		.cfi_endproc
 217              	.LFE293:
 218              		.size	send_to_computer, .-send_to_computer
 219              		.section	.text.wait_send_to_computer,"ax",%progbits
 220              		.align	1
 221              		.p2align 4,,15
 222              		.global	wait_send_to_computer
 223              		.syntax unified
 224              		.thumb
 225              		.thumb_func
 226              		.fpu fpv4-sp-d16
 227              		.type	wait_send_to_computer, %function
 228              	wait_send_to_computer:
ARM GAS  C:\Users\osour\AppData\Local\Temp\ccobrenF.s 			page 5


 229              	.LFB294:
 230              		.loc 2 137 0
 231              		.cfi_startproc
 232              		@ args = 0, pretend = 0, frame = 8
 233              		@ frame_needed = 0, uses_anonymous_args = 0
 234 0000 00B5     		push	{lr}
 235              		.cfi_def_cfa_offset 4
 236              		.cfi_offset 14, -4
 237 0002 084B     		ldr	r3, .L33
 238 0004 83B0     		sub	sp, sp, #12
 239              		.cfi_def_cfa_offset 16
 240              		.loc 2 137 0
 241 0006 1A68     		ldr	r2, [r3]
 242 0008 0192     		str	r2, [sp, #4]
 243              	.LVL14:
 244              	.LBB32:
 245              	.LBB33:
 246              		.file 3 "../../lib/e-puck2_main-processor/ChibiOS//os/rt/include/chbsem.h"
 247              		.loc 3 143 0
 248 000a 019A     		ldr	r2, [sp, #4]
 249 000c 1B68     		ldr	r3, [r3]
 250 000e 9A42     		cmp	r2, r3
 251 0010 05D1     		bne	.L32
 252 0012 0548     		ldr	r0, .L33+4
 253              	.LBE33:
 254              	.LBE32:
 255              		.loc 2 139 0
 256 0014 03B0     		add	sp, sp, #12
 257              		.cfi_remember_state
 258              		.cfi_def_cfa_offset 4
 259              		@ sp needed
 260 0016 5DF804EB 		ldr	lr, [sp], #4
 261              		.cfi_restore 14
 262              		.cfi_def_cfa_offset 0
 263              	.LBB35:
 264              	.LBB34:
 265              		.loc 3 143 0
 266 001a FFF7FEBF 		b	chSemWait
 267              	.LVL15:
 268              	.L32:
 269              		.cfi_restore_state
 270 001e FFF7FEFF 		bl	__stack_chk_fail
 271              	.LVL16:
 272              	.L34:
 273 0022 00BF     		.align	2
 274              	.L33:
 275 0024 00000000 		.word	__stack_chk_guard
 276 0028 00000000 		.word	.LANCHOR0
 277              	.LBE34:
 278              	.LBE35:
 279              		.cfi_endproc
 280              	.LFE294:
 281              		.size	wait_send_to_computer, .-wait_send_to_computer
 282              		.section	.text.find_note,"ax",%progbits
 283              		.align	1
 284              		.p2align 4,,15
 285              		.global	find_note
ARM GAS  C:\Users\osour\AppData\Local\Temp\ccobrenF.s 			page 6


 286              		.syntax unified
 287              		.thumb
 288              		.thumb_func
 289              		.fpu fpv4-sp-d16
 290              		.type	find_note, %function
 291              	find_note:
 292              	.LFB295:
 293              		.loc 2 142 0
 294              		.cfi_startproc
 295              		@ args = 0, pretend = 0, frame = 8
 296              		@ frame_needed = 0, uses_anonymous_args = 0
 297              	.LVL17:
 298 0000 00B5     		push	{lr}
 299              		.cfi_def_cfa_offset 4
 300              		.cfi_offset 14, -4
 301 0002 354B     		ldr	r3, .L68
 302 0004 83B0     		sub	sp, sp, #12
 303              		.cfi_def_cfa_offset 16
 304              		.loc 2 142 0
 305 0006 1A68     		ldr	r2, [r3]
 306 0008 0192     		str	r2, [sp, #4]
 307              		.loc 2 143 0
 308 000a 0C28     		cmp	r0, #12
 309 000c 5BD8     		bhi	.L35
 310 000e DFE800F0 		tbb	[pc, r0]
 311              	.L38:
 312 0012 12       		.byte	(.L37-.L38)/2
 313 0013 18       		.byte	(.L39-.L38)/2
 314 0014 1E       		.byte	(.L40-.L38)/2
 315 0015 24       		.byte	(.L41-.L38)/2
 316 0016 2A       		.byte	(.L42-.L38)/2
 317 0017 30       		.byte	(.L43-.L38)/2
 318 0018 36       		.byte	(.L44-.L38)/2
 319 0019 3C       		.byte	(.L45-.L38)/2
 320 001a 42       		.byte	(.L46-.L38)/2
 321 001b 48       		.byte	(.L47-.L38)/2
 322 001c 4E       		.byte	(.L48-.L38)/2
 323 001d 54       		.byte	(.L49-.L38)/2
 324 001e 07       		.byte	(.L50-.L38)/2
 325 001f 00       		.p2align 1
 326              	.L50:
 327              		.loc 2 199 0
 328 0020 019A     		ldr	r2, [sp, #4]
 329 0022 1B68     		ldr	r3, [r3]
 330 0024 9A42     		cmp	r2, r3
 331 0026 55D1     		bne	.L67
 332 0028 2C49     		ldr	r1, .L68+4
 333              	.L66:
 334 002a 2D48     		ldr	r0, .L68+8
 335              	.LVL18:
 336              		.loc 2 205 0
 337 002c 03B0     		add	sp, sp, #12
 338              		.cfi_remember_state
 339              		.cfi_def_cfa_offset 4
 340              		@ sp needed
 341 002e 5DF804EB 		ldr	lr, [sp], #4
 342              		.cfi_restore 14
ARM GAS  C:\Users\osour\AppData\Local\Temp\ccobrenF.s 			page 7


 343              		.cfi_def_cfa_offset 0
 344              		.loc 2 199 0
 345 0032 FFF7FEBF 		b	chprintf.constprop.0
 346              	.LVL19:
 347              	.L37:
 348              		.cfi_restore_state
 349              		.loc 2 145 0
 350 0036 019A     		ldr	r2, [sp, #4]
 351 0038 1B68     		ldr	r3, [r3]
 352 003a 9A42     		cmp	r2, r3
 353 003c 4AD1     		bne	.L67
 354 003e 2949     		ldr	r1, .L68+12
 355 0040 F3E7     		b	.L66
 356              	.L39:
 357              		.loc 2 150 0
 358 0042 019A     		ldr	r2, [sp, #4]
 359 0044 1B68     		ldr	r3, [r3]
 360 0046 9A42     		cmp	r2, r3
 361 0048 44D1     		bne	.L67
 362 004a 2749     		ldr	r1, .L68+16
 363 004c EDE7     		b	.L66
 364              	.L40:
 365              		.loc 2 155 0
 366 004e 019A     		ldr	r2, [sp, #4]
 367 0050 1B68     		ldr	r3, [r3]
 368 0052 9A42     		cmp	r2, r3
 369 0054 3ED1     		bne	.L67
 370 0056 2549     		ldr	r1, .L68+20
 371 0058 E7E7     		b	.L66
 372              	.L41:
 373              		.loc 2 158 0
 374 005a 019A     		ldr	r2, [sp, #4]
 375 005c 1B68     		ldr	r3, [r3]
 376 005e 9A42     		cmp	r2, r3
 377 0060 38D1     		bne	.L67
 378 0062 2349     		ldr	r1, .L68+24
 379 0064 E1E7     		b	.L66
 380              	.L42:
 381              		.loc 2 163 0
 382 0066 019A     		ldr	r2, [sp, #4]
 383 0068 1B68     		ldr	r3, [r3]
 384 006a 9A42     		cmp	r2, r3
 385 006c 32D1     		bne	.L67
 386 006e 2149     		ldr	r1, .L68+28
 387 0070 DBE7     		b	.L66
 388              	.L43:
 389              		.loc 2 166 0
 390 0072 019A     		ldr	r2, [sp, #4]
 391 0074 1B68     		ldr	r3, [r3]
 392 0076 9A42     		cmp	r2, r3
 393 0078 2CD1     		bne	.L67
 394 007a 1F49     		ldr	r1, .L68+32
 395 007c D5E7     		b	.L66
 396              	.L44:
 397              		.loc 2 171 0
 398 007e 019A     		ldr	r2, [sp, #4]
 399 0080 1B68     		ldr	r3, [r3]
ARM GAS  C:\Users\osour\AppData\Local\Temp\ccobrenF.s 			page 8


 400 0082 9A42     		cmp	r2, r3
 401 0084 26D1     		bne	.L67
 402 0086 1D49     		ldr	r1, .L68+36
 403 0088 CFE7     		b	.L66
 404              	.L45:
 405              		.loc 2 174 0
 406 008a 019A     		ldr	r2, [sp, #4]
 407 008c 1B68     		ldr	r3, [r3]
 408 008e 9A42     		cmp	r2, r3
 409 0090 20D1     		bne	.L67
 410 0092 1B49     		ldr	r1, .L68+40
 411 0094 C9E7     		b	.L66
 412              	.L46:
 413              		.loc 2 179 0
 414 0096 019A     		ldr	r2, [sp, #4]
 415 0098 1B68     		ldr	r3, [r3]
 416 009a 9A42     		cmp	r2, r3
 417 009c 1AD1     		bne	.L67
 418 009e 1949     		ldr	r1, .L68+44
 419 00a0 C3E7     		b	.L66
 420              	.L47:
 421              		.loc 2 184 0
 422 00a2 019A     		ldr	r2, [sp, #4]
 423 00a4 1B68     		ldr	r3, [r3]
 424 00a6 9A42     		cmp	r2, r3
 425 00a8 14D1     		bne	.L67
 426 00aa 1749     		ldr	r1, .L68+48
 427 00ac BDE7     		b	.L66
 428              	.L48:
 429              		.loc 2 189 0
 430 00ae 019A     		ldr	r2, [sp, #4]
 431 00b0 1B68     		ldr	r3, [r3]
 432 00b2 9A42     		cmp	r2, r3
 433 00b4 0ED1     		bne	.L67
 434 00b6 1549     		ldr	r1, .L68+52
 435 00b8 B7E7     		b	.L66
 436              	.L49:
 437              		.loc 2 194 0
 438 00ba 019A     		ldr	r2, [sp, #4]
 439 00bc 1B68     		ldr	r3, [r3]
 440 00be 9A42     		cmp	r2, r3
 441 00c0 08D1     		bne	.L67
 442 00c2 1349     		ldr	r1, .L68+56
 443 00c4 B1E7     		b	.L66
 444              	.L35:
 445              		.loc 2 205 0
 446 00c6 019A     		ldr	r2, [sp, #4]
 447 00c8 1B68     		ldr	r3, [r3]
 448 00ca 9A42     		cmp	r2, r3
 449 00cc 02D1     		bne	.L67
 450 00ce 03B0     		add	sp, sp, #12
 451              		@ sp needed
 452 00d0 5DF804FB 		ldr	pc, [sp], #4
 453              	.L67:
 454 00d4 FFF7FEFF 		bl	__stack_chk_fail
 455              	.LVL20:
 456              	.L69:
ARM GAS  C:\Users\osour\AppData\Local\Temp\ccobrenF.s 			page 9


 457              		.align	2
 458              	.L68:
 459 00d8 00000000 		.word	__stack_chk_guard
 460 00dc 60000000 		.word	.LC12
 461 00e0 00000000 		.word	SD3
 462 00e4 00000000 		.word	.LC0
 463 00e8 08000000 		.word	.LC1
 464 00ec 10000000 		.word	.LC2
 465 00f0 18000000 		.word	.LC3
 466 00f4 20000000 		.word	.LC4
 467 00f8 28000000 		.word	.LC5
 468 00fc 30000000 		.word	.LC6
 469 0100 38000000 		.word	.LC7
 470 0104 40000000 		.word	.LC8
 471 0108 48000000 		.word	.LC9
 472 010c 50000000 		.word	.LC10
 473 0110 58000000 		.word	.LC11
 474              		.cfi_endproc
 475              	.LFE295:
 476              		.size	find_note, .-find_note
 477              		.global	__aeabi_f2d
 478              		.section	.text.frequency_to_note,"ax",%progbits
 479              		.align	1
 480              		.p2align 4,,15
 481              		.global	frequency_to_note
 482              		.syntax unified
 483              		.thumb
 484              		.thumb_func
 485              		.fpu fpv4-sp-d16
 486              		.type	frequency_to_note, %function
 487              	frequency_to_note:
 488              	.LFB291:
 489              		.loc 2 56 0
 490              		.cfi_startproc
 491              		@ args = 0, pretend = 0, frame = 32
 492              		@ frame_needed = 0, uses_anonymous_args = 0
 493              	.LVL21:
 494 0000 30B5     		push	{r4, r5, lr}
 495              		.cfi_def_cfa_offset 12
 496              		.cfi_offset 4, -12
 497              		.cfi_offset 5, -8
 498              		.cfi_offset 14, -4
 499 0002 594C     		ldr	r4, .L88
 500              		.loc 2 57 0
 501 0004 594D     		ldr	r5, .L88+4
 502              		.loc 2 56 0
 503 0006 2268     		ldr	r2, [r4]
 504 0008 8BB0     		sub	sp, sp, #44
 505              		.cfi_def_cfa_offset 56
 506              		.loc 2 58 0
 507 000a 0023     		movs	r3, #0
 508              		.loc 2 56 0
 509 000c 0992     		str	r2, [sp, #36]
 510              		.loc 2 59 0
 511 000e 4FF6FF71 		movw	r1, #65535
 512 0012 0022     		movs	r2, #0
 513              		.loc 2 57 0
ARM GAS  C:\Users\osour\AppData\Local\Temp\ccobrenF.s 			page 10


 514 0014 0595     		str	r5, [sp, #20]	@ float
 515 0016 1430     		adds	r0, r0, #20
 516              	.LVL22:
 517              		.loc 2 58 0
 518 0018 0693     		str	r3, [sp, #24]	@ float
 519 001a 0793     		str	r3, [sp, #28]	@ float
 520 001c 0893     		str	r3, [sp, #32]	@ float
 521              		.loc 2 59 0
 522 001e ADF80E10 		strh	r1, [sp, #14]	@ movhi
 523              	.LBB36:
 524              		.loc 2 63 0
 525 0022 0523     		movs	r3, #5
 526              	.LBE36:
 527              		.loc 2 59 0
 528 0024 ADF81020 		strh	r2, [sp, #16]	@ movhi
 529              	.LBB37:
 530              		.loc 2 63 0
 531 0028 40F60101 		movw	r1, #2049
 532              	.LBE37:
 533              		.loc 2 60 0
 534 002c ADF81220 		strh	r2, [sp, #18]	@ movhi
 535              	.LVL23:
 536              	.L73:
 537              	.LBB38:
 538              		.loc 2 64 0
 539 0030 F0EC017A 		vldmia.32	r0!, {s15}
 540 0034 9DED057A 		vldr.32	s14, [sp, #20]
 541 0038 F4EEC77A 		vcmpe.f32	s15, s14
 542 003c F1EE10FA 		vmrs	APSR_nzcv, FPSCR
 543 0040 04DD     		ble	.L71
 544              		.loc 2 66 0
 545 0042 1AB2     		sxth	r2, r3
 546              		.loc 2 65 0
 547 0044 CDED057A 		vstr.32	s15, [sp, #20]
 548              		.loc 2 66 0
 549 0048 ADF80E20 		strh	r2, [sp, #14]	@ movhi
 550              	.L71:
 551              		.loc 2 63 0 discriminator 2
 552 004c 0133     		adds	r3, r3, #1
 553              	.LVL24:
 554 004e 9BB2     		uxth	r3, r3
 555              	.LVL25:
 556 0050 8B42     		cmp	r3, r1
 557 0052 EDD1     		bne	.L73
 558              	.LBE38:
 559              		.loc 2 69 0
 560 0054 BDF80E30 		ldrh	r3, [sp, #14]
 561              	.LVL26:
 562 0058 1BB2     		sxth	r3, r3
 563 005a B3F5006F 		cmp	r3, #2048
 564 005e 68DA     		bge	.L74
 565              		.loc 2 69 0 is_stmt 0 discriminator 1
 566 0060 BDF80E30 		ldrh	r3, [sp, #14]
 567 0064 1BB2     		sxth	r3, r3
 568 0066 002B     		cmp	r3, #0
 569 0068 63DD     		ble	.L74
 570              	.LBB39:
ARM GAS  C:\Users\osour\AppData\Local\Temp\ccobrenF.s 			page 11


 571              		.loc 2 70 0 is_stmt 1
 572 006a BDF80E20 		ldrh	r2, [sp, #14]
 573              		.loc 2 71 0
 574 006e 9FED407A 		vldr.32	s14, .L88+8
 575 0072 404B     		ldr	r3, .L88+12
 576              		.loc 2 70 0
 577 0074 12B2     		sxth	r2, r2
 578 0076 013A     		subs	r2, r2, #1
 579 0078 07EE902A 		vmov	s15, r2	@ int
 580 007c F8EEE77A 		vcvt.f32.s32	s15, s15
 581 0080 03F14405 		add	r5, r3, #68
 582 0084 CDED067A 		vstr.32	s15, [sp, #24]
 583              		.loc 2 71 0
 584 0088 DDED067A 		vldr.32	s15, [sp, #24]
 585 008c 77EEC77A 		vsub.f32	s15, s15, s14
 586 0090 0122     		movs	r2, #1
 587 0092 FDEEE77A 		vcvt.s32.f32	s15, s15
 588 0096 5721     		movs	r1, #87
 589 0098 17EE900A 		vmov	r0, s15	@ int
 590 009c 0028     		cmp	r0, #0
 591 009e B8BF     		it	lt
 592 00a0 4042     		rsblt	r0, r0, #0
 593 00a2 07EE900A 		vmov	s15, r0	@ int
 594 00a6 F8EEE77A 		vcvt.f32.s32	s15, s15
 595 00aa CDED077A 		vstr.32	s15, [sp, #28]
 596              	.LVL27:
 597 00ae 01E0     		b	.L78
 598              	.LVL28:
 599              	.L86:
 600 00b0 33F8021F 		ldrh	r1, [r3, #2]!
 601              	.L78:
 602              	.LVL29:
 603              	.LBB40:
 604              		.loc 2 73 0
 605 00b4 DDED067A 		vldr.32	s15, [sp, #24]
 606 00b8 07EE101A 		vmov	s14, r1	@ int
 607 00bc B8EEC77A 		vcvt.f32.s32	s14, s14
 608 00c0 77EEC77A 		vsub.f32	s15, s15, s14
 609 00c4 FDEEE77A 		vcvt.s32.f32	s15, s15
 610 00c8 17EE900A 		vmov	r0, s15	@ int
 611 00cc 0028     		cmp	r0, #0
 612 00ce B8BF     		it	lt
 613 00d0 4042     		rsblt	r0, r0, #0
 614 00d2 07EE900A 		vmov	s15, r0	@ int
 615 00d6 F8EEE77A 		vcvt.f32.s32	s15, s15
 616 00da CDED087A 		vstr.32	s15, [sp, #32]
 617              		.loc 2 74 0
 618 00de 9DED087A 		vldr.32	s14, [sp, #32]
 619 00e2 DDED077A 		vldr.32	s15, [sp, #28]
 620 00e6 B4EEE77A 		vcmpe.f32	s14, s15
 621 00ea F1EE10FA 		vmrs	APSR_nzcv, FPSCR
 622 00ee 06D5     		bpl	.L75
 623              		.loc 2 75 0
 624 00f0 0898     		ldr	r0, [sp, #32]	@ float
 625 00f2 0790     		str	r0, [sp, #28]	@ float
 626              		.loc 2 77 0
 627 00f4 10B2     		sxth	r0, r2
ARM GAS  C:\Users\osour\AppData\Local\Temp\ccobrenF.s 			page 12


 628              		.loc 2 76 0
 629 00f6 ADF81210 		strh	r1, [sp, #18]	@ movhi
 630              		.loc 2 77 0
 631 00fa ADF81000 		strh	r0, [sp, #16]	@ movhi
 632              	.L75:
 633              	.LVL30:
 634              		.loc 2 72 0 discriminator 2
 635 00fe AB42     		cmp	r3, r5
 636 0100 02F10102 		add	r2, r2, #1
 637              	.LVL31:
 638 0104 D4D1     		bne	.L86
 639              	.LBE40:
 640              		.loc 2 80 0
 641 0106 BDF81030 		ldrh	r3, [sp, #16]
 642 010a 1B49     		ldr	r1, .L88+16
 643 010c 1BB2     		sxth	r3, r3
 644 010e 81FB0321 		smull	r2, r1, r1, r3
 645 0112 DA17     		asrs	r2, r3, #31
 646 0114 C2EB6102 		rsb	r2, r2, r1, asr #1
 647 0118 02EB4202 		add	r2, r2, r2, lsl #1
 648 011c A3EB8203 		sub	r3, r3, r2, lsl #2
 649 0120 1BB2     		sxth	r3, r3
 650 0122 ADF81030 		strh	r3, [sp, #16]	@ movhi
 651              		.loc 2 81 0
 652 0126 BDF81000 		ldrh	r0, [sp, #16]
 653 012a 00B2     		sxth	r0, r0
 654 012c FFF7FEFF 		bl	find_note
 655              	.LVL32:
 656              	.LBE39:
 657              		.loc 2 69 0
 658 0130 04E0     		b	.L79
 659              	.L74:
 660              	.LBB41:
 661              		.loc 2 83 0
 662 0132 0023     		movs	r3, #0
 663              		.loc 2 84 0
 664 0134 0C20     		movs	r0, #12
 665              		.loc 2 83 0
 666 0136 0693     		str	r3, [sp, #24]	@ float
 667              		.loc 2 84 0
 668 0138 FFF7FEFF 		bl	find_note
 669              	.LVL33:
 670              	.L79:
 671              	.LBE41:
 672              		.loc 2 87 0
 673 013c 0698     		ldr	r0, [sp, #24]	@ float
 674 013e BDF81250 		ldrh	r5, [sp, #18]
 675 0142 FFF7FEFF 		bl	__aeabi_f2d
 676              	.LVL34:
 677 0146 ADB2     		uxth	r5, r5
 678 0148 0246     		mov	r2, r0
 679 014a 0B46     		mov	r3, r1
 680 014c 0095     		str	r5, [sp]
 681 014e 0B49     		ldr	r1, .L88+20
 682 0150 0B48     		ldr	r0, .L88+24
 683 0152 FFF7FEFF 		bl	chprintf.constprop.0
 684              	.LVL35:
ARM GAS  C:\Users\osour\AppData\Local\Temp\ccobrenF.s 			page 13


 685              		.loc 2 88 0
 686 0156 099A     		ldr	r2, [sp, #36]
 687 0158 2368     		ldr	r3, [r4]
 688 015a 9A42     		cmp	r2, r3
 689 015c 01D1     		bne	.L87
 690 015e 0BB0     		add	sp, sp, #44
 691              		.cfi_remember_state
 692              		.cfi_def_cfa_offset 12
 693              		@ sp needed
 694 0160 30BD     		pop	{r4, r5, pc}
 695              	.L87:
 696              		.cfi_restore_state
 697 0162 FFF7FEFF 		bl	__stack_chk_fail
 698              	.LVL36:
 699              	.L89:
 700 0166 00BF     		.align	2
 701              	.L88:
 702 0168 00000000 		.word	__stack_chk_guard
 703 016c 00007A46 		.word	1182400512
 704 0170 0000A442 		.word	1118044160
 705 0174 02000000 		.word	.LANCHOR1+2
 706 0178 ABAAAA2A 		.word	715827883
 707 017c 00000000 		.word	.LC13
 708 0180 00000000 		.word	SD3
 709              		.cfi_endproc
 710              	.LFE291:
 711              		.size	frequency_to_note, .-frequency_to_note
 712              		.section	.text.processAudioData,"ax",%progbits
 713              		.align	1
 714              		.p2align 4,,15
 715              		.global	processAudioData
 716              		.syntax unified
 717              		.thumb
 718              		.thumb_func
 719              		.fpu fpv4-sp-d16
 720              		.type	processAudioData, %function
 721              	processAudioData:
 722              	.LFB292:
 723              		.loc 2 99 0
 724              		.cfi_startproc
 725              		@ args = 0, pretend = 0, frame = 8
 726              		@ frame_needed = 0, uses_anonymous_args = 0
 727              	.LVL37:
 728 0000 F0B5     		push	{r4, r5, r6, r7, lr}
 729              		.cfi_def_cfa_offset 20
 730              		.cfi_offset 4, -20
 731              		.cfi_offset 5, -16
 732              		.cfi_offset 6, -12
 733              		.cfi_offset 7, -8
 734              		.cfi_offset 14, -4
 735 0002 504D     		ldr	r5, .L110
 736 0004 504C     		ldr	r4, .L110+4
 737 0006 2B68     		ldr	r3, [r5]
 738 0008 83B0     		sub	sp, sp, #12
 739              		.cfi_def_cfa_offset 32
 740              	.LBB57:
 741              		.loc 2 109 0
ARM GAS  C:\Users\osour\AppData\Local\Temp\ccobrenF.s 			page 14


 742 000a 0026     		movs	r6, #0
 743              	.LBE57:
 744              		.loc 2 99 0
 745 000c 0193     		str	r3, [sp, #4]
 746              	.LBB58:
 747              		.loc 2 109 0
 748 000e ADF80260 		strh	r6, [sp, #2]	@ movhi
 749 0012 BDF80220 		ldrh	r2, [sp, #2]
 750 0016 2388     		ldrh	r3, [r4]
 751 0018 9142     		cmp	r1, r2
 752 001a 40F28A80 		bls	.L91
 753              		.loc 2 111 0
 754 001e BDF802C0 		ldrh	ip, [sp, #2]
 755 0022 4A4F     		ldr	r7, .L110+8
 756 0024 0CF1010C 		add	ip, ip, #1
 757              		.loc 2 112 0
 758 0028 5A1C     		adds	r2, r3, #1
 759              		.loc 2 111 0
 760 002a 30F91CC0 		ldrsh	ip, [r0, ip, lsl #1]
 761 002e 07EE90CA 		vmov	s15, ip	@ int
 762              		.loc 2 113 0
 763 0032 92B2     		uxth	r2, r2
 764              		.loc 2 111 0
 765 0034 07EB830C 		add	ip, r7, r3, lsl #2
 766              		.loc 2 114 0
 767 0038 0233     		adds	r3, r3, #2
 768 003a 9BB2     		uxth	r3, r3
 769              		.loc 2 111 0
 770 003c F8EEE77A 		vcvt.f32.s32	s15, s15
 771              		.loc 2 113 0
 772 0040 07EB8202 		add	r2, r7, r2, lsl #2
 773 0044 4FF0000E 		mov	lr, #0
 774              		.loc 2 115 0
 775 0048 B3F5005F 		cmp	r3, #8192
 776              		.loc 2 111 0
 777 004c CCED007A 		vstr.32	s15, [ip]
 778              		.loc 2 114 0
 779 0050 2380     		strh	r3, [r4]	@ movhi
 780              		.loc 2 113 0
 781 0052 C2F800E0 		str	lr, [r2]	@ float
 782              		.loc 2 115 0
 783 0056 1CD3     		bcc	.L93
 784 0058 2EE0     		b	.L92
 785              	.L95:
 786              		.loc 2 111 0
 787 005a BDF80260 		ldrh	r6, [sp, #2]
 788 005e 0136     		adds	r6, r6, #1
 789              		.loc 2 113 0
 790 0060 5A1C     		adds	r2, r3, #1
 791              		.loc 2 111 0
 792 0062 30F91660 		ldrsh	r6, [r0, r6, lsl #1]
 793 0066 07EE906A 		vmov	s15, r6	@ int
 794              		.loc 2 113 0
 795 006a 92B2     		uxth	r2, r2
 796              		.loc 2 114 0
 797 006c 03F1020C 		add	ip, r3, #2
 798              		.loc 2 111 0
ARM GAS  C:\Users\osour\AppData\Local\Temp\ccobrenF.s 			page 15


 799 0070 07EB8306 		add	r6, r7, r3, lsl #2
 800 0074 F8EEE77A 		vcvt.f32.s32	s15, s15
 801              		.loc 2 113 0
 802 0078 07EB8202 		add	r2, r7, r2, lsl #2
 803              		.loc 2 114 0
 804 007c 1FFA8CF3 		uxth	r3, ip
 805              		.loc 2 115 0
 806 0080 B3F5005F 		cmp	r3, #8192
 807              		.loc 2 111 0
 808 0084 C6ED007A 		vstr.32	s15, [r6]
 809 0088 4FF00106 		mov	r6, #1
 810              		.loc 2 113 0
 811 008c C2F800E0 		str	lr, [r2]	@ float
 812              		.loc 2 115 0
 813 0090 11D2     		bcs	.L94
 814              	.L93:
 815              		.loc 2 109 0 discriminator 2
 816 0092 BDF80220 		ldrh	r2, [sp, #2]
 817 0096 0432     		adds	r2, r2, #4
 818 0098 92B2     		uxth	r2, r2
 819 009a ADF80220 		strh	r2, [sp, #2]	@ movhi
 820 009e BDF80220 		ldrh	r2, [sp, #2]
 821 00a2 9142     		cmp	r1, r2
 822 00a4 D9D8     		bhi	.L95
 823 00a6 002E     		cmp	r6, #0
 824 00a8 49D1     		bne	.L106
 825              	.LVL38:
 826              	.L90:
 827              	.LBE58:
 828              		.loc 2 132 0
 829 00aa 019A     		ldr	r2, [sp, #4]
 830 00ac 2B68     		ldr	r3, [r5]
 831 00ae 9A42     		cmp	r2, r3
 832 00b0 43D1     		bne	.L107
 833 00b2 03B0     		add	sp, sp, #12
 834              		.cfi_remember_state
 835              		.cfi_def_cfa_offset 20
 836              		@ sp needed
 837 00b4 F0BD     		pop	{r4, r5, r6, r7, pc}
 838              	.LVL39:
 839              	.L94:
 840              		.cfi_restore_state
 841 00b6 2380     		strh	r3, [r4]	@ movhi
 842              	.L92:
 843              		.loc 2 121 0
 844 00b8 2449     		ldr	r1, .L110+8
 845              	.LVL40:
 846 00ba 4FF48050 		mov	r0, #4096
 847              	.LVL41:
 848 00be FFF7FEFF 		bl	doFFT_optimized
 849              	.LVL42:
 850              		.loc 2 122 0
 851 00c2 4FF48052 		mov	r2, #4096
 852 00c6 2249     		ldr	r1, .L110+12
 853 00c8 2048     		ldr	r0, .L110+8
 854 00ca FFF7FEFF 		bl	arm_cmplx_mag_f32
 855              	.LVL43:
ARM GAS  C:\Users\osour\AppData\Local\Temp\ccobrenF.s 			page 16


 856              		.loc 2 123 0
 857 00ce 4FF48052 		mov	r2, #4096
 858 00d2 2049     		ldr	r1, .L110+16
 859 00d4 1E48     		ldr	r0, .L110+12
 860 00d6 FFF7FEFF 		bl	arm_copy_f32
 861              	.LVL44:
 862              		.loc 2 127 0
 863 00da 1D48     		ldr	r0, .L110+12
 864 00dc FFF7FEFF 		bl	frequency_to_note
 865              	.LVL45:
 866              		.loc 2 129 0
 867 00e0 0023     		movs	r3, #0
 868 00e2 2380     		strh	r3, [r4]	@ movhi
 869              	.LVL46:
 870              	.LBB59:
 871              	.LBB60:
 872              	.LBB61:
 873              	.LBB62:
 874              	.LBB63:
 875              	.LBB64:
 876              	.LBB65:
 877              		.file 4 "../../lib/e-puck2_main-processor/ChibiOS//os/ext/CMSIS/include/core_cmFunc.h"
 878              		.loc 4 546 0
 879 00e4 2023     		movs	r3, #32
 880              		.syntax unified
 881              	@ 546 "../../lib/e-puck2_main-processor/ChibiOS//os/ext/CMSIS/include/core_cmFunc.h" 1
 882 00e6 83F31188 		MSR basepri, r3
 883              	@ 0 "" 2
 884              	.LVL47:
 885              		.thumb
 886              		.syntax unified
 887              	.LBE65:
 888              	.LBE64:
 889              	.LBE63:
 890              		.file 5 "../../lib/e-puck2_main-processor/ChibiOS//os/rt/include/chsys.h"
 891              		.loc 5 349 0
 892 00ea FFF7FEFF 		bl	_stats_start_measure_crit_thd
 893              	.LVL48:
 894              		.loc 5 350 0
 895 00ee FFF7FEFF 		bl	_dbg_check_lock
 896              	.LVL49:
 897              	.LBE62:
 898              	.LBE61:
 899              	.LBB66:
 900              	.LBB67:
 901              		.loc 3 268 0
 902 00f2 FFF7FEFF 		bl	chDbgCheckClassI
 903              	.LVL50:
 904              		.loc 3 270 0
 905 00f6 1848     		ldr	r0, .L110+20
 906 00f8 8368     		ldr	r3, [r0, #8]
 907 00fa 002B     		cmp	r3, #0
 908 00fc 16DD     		ble	.L108
 909              	.L99:
 910              	.LVL51:
 911              	.LBE67:
 912              	.LBE66:
ARM GAS  C:\Users\osour\AppData\Local\Temp\ccobrenF.s 			page 17


 913              		.loc 3 286 0
 914 00fe FFF7FEFF 		bl	chSchRescheduleS
 915              	.LVL52:
 916              	.LBB69:
 917              	.LBB70:
 918              		.loc 5 360 0
 919 0102 FFF7FEFF 		bl	_dbg_check_unlock
 920              	.LVL53:
 921              		.loc 5 361 0
 922 0106 FFF7FEFF 		bl	_stats_stop_measure_crit_thd
 923              	.LVL54:
 924              		.loc 5 367 0
 925 010a 144B     		ldr	r3, .L110+24
 926 010c 1A68     		ldr	r2, [r3]
 927 010e 9A42     		cmp	r2, r3
 928 0110 04D0     		beq	.L97
 929 0112 9969     		ldr	r1, [r3, #24]
 930 0114 9368     		ldr	r3, [r2, #8]
 931 0116 8A68     		ldr	r2, [r1, #8]
 932 0118 9A42     		cmp	r2, r3
 933 011a 03D3     		bcc	.L109
 934              	.L97:
 935              	.LVL55:
 936              	.LBB71:
 937              	.LBB72:
 938              	.LBB73:
 939              		.loc 4 546 0
 940 011c 0023     		movs	r3, #0
 941              		.syntax unified
 942              	@ 546 "../../lib/e-puck2_main-processor/ChibiOS//os/ext/CMSIS/include/core_cmFunc.h" 1
 943 011e 83F31188 		MSR basepri, r3
 944              	@ 0 "" 2
 945              	.LVL56:
 946              		.thumb
 947              		.syntax unified
 948              	.LBE73:
 949              	.LBE72:
 950              	.LBE71:
 951              	.LBE70:
 952              	.LBE69:
 953              	.LBE60:
 954              	.LBE59:
 955              		.loc 2 132 0
 956 0122 C2E7     		b	.L90
 957              	.L109:
 958              	.LBB78:
 959              	.LBB77:
 960              	.LBB75:
 961              	.LBB74:
 962              		.loc 5 367 0
 963 0124 0E48     		ldr	r0, .L110+28
 964 0126 FFF7FEFF 		bl	chSysHalt
 965              	.LVL57:
 966 012a F7E7     		b	.L97
 967              	.LVL58:
 968              	.L108:
 969              	.LBE74:
ARM GAS  C:\Users\osour\AppData\Local\Temp\ccobrenF.s 			page 18


 970              	.LBE75:
 971              	.LBB76:
 972              	.LBB68:
 973              		.loc 3 271 0
 974 012c FFF7FEFF 		bl	chSemSignalI
 975              	.LVL59:
 976 0130 E5E7     		b	.L99
 977              	.LVL60:
 978              	.L91:
 979              	.LBE68:
 980              	.LBE76:
 981              	.LBE77:
 982              	.LBE78:
 983              		.loc 2 120 0
 984 0132 B3F5005F 		cmp	r3, #8192
 985 0136 B8D3     		bcc	.L90
 986 0138 BEE7     		b	.L92
 987              	.LVL61:
 988              	.L107:
 989              		.loc 2 132 0
 990 013a FFF7FEFF 		bl	__stack_chk_fail
 991              	.LVL62:
 992              	.L106:
 993 013e 2380     		strh	r3, [r4]	@ movhi
 994 0140 B3E7     		b	.L90
 995              	.L111:
 996 0142 00BF     		.align	2
 997              	.L110:
 998 0144 00000000 		.word	__stack_chk_guard
 999 0148 00000000 		.word	.LANCHOR2
 1000 014c 00000000 		.word	micLeft_cmplx_input
 1001 0150 00000000 		.word	micLeft_output
 1002 0154 00000000 		.word	send_tab
 1003 0158 00000000 		.word	.LANCHOR0
 1004 015c 00000000 		.word	ch
 1005 0160 00000000 		.word	.LANCHOR3
 1006              		.cfi_endproc
 1007              	.LFE292:
 1008              		.size	processAudioData, .-processAudioData
 1009              		.section	.bss.micLeft_cmplx_input,"aw",%nobits
 1010              		.align	2
 1011              		.type	micLeft_cmplx_input, %object
 1012              		.size	micLeft_cmplx_input, 32768
 1013              	micLeft_cmplx_input:
 1014 0000 00000000 		.space	32768
 1014      00000000 
 1014      00000000 
 1014      00000000 
 1014      00000000 
 1015              		.section	.bss.micLeft_output,"aw",%nobits
 1016              		.align	2
 1017              		.type	micLeft_output, %object
 1018              		.size	micLeft_output, 16384
 1019              	micLeft_output:
 1020 0000 00000000 		.space	16384
 1020      00000000 
 1020      00000000 
ARM GAS  C:\Users\osour\AppData\Local\Temp\ccobrenF.s 			page 19


 1020      00000000 
 1020      00000000 
 1021              		.section	.bss.nb_samples.14199,"aw",%nobits
 1022              		.align	1
 1023              		.set	.LANCHOR2,. + 0
 1024              		.type	nb_samples.14199, %object
 1025              		.size	nb_samples.14199, 2
 1026              	nb_samples.14199:
 1027 0000 0000     		.space	2
 1028              		.section	.bss.send_tab,"aw",%nobits
 1029              		.align	2
 1030              		.type	send_tab, %object
 1031              		.size	send_tab, 16384
 1032              	send_tab:
 1033 0000 00000000 		.space	16384
 1033      00000000 
 1033      00000000 
 1033      00000000 
 1033      00000000 
 1034              		.section	.data.sendToComputer_sem,"aw",%progbits
 1035              		.align	2
 1036              		.set	.LANCHOR0,. + 0
 1037              		.type	sendToComputer_sem, %object
 1038              		.size	sendToComputer_sem, 12
 1039              	sendToComputer_sem:
 1040 0000 00000000 		.word	sendToComputer_sem
 1041 0004 00000000 		.word	sendToComputer_sem
 1042 0008 00000000 		.word	0
 1043              		.section	.rodata.__func__.7153,"a",%progbits
 1044              		.align	2
 1045              		.set	.LANCHOR3,. + 0
 1046              		.type	__func__.7153, %object
 1047              		.size	__func__.7153, 12
 1048              	__func__.7153:
 1049 0000 63685379 		.ascii	"chSysUnlock\000"
 1049      73556E6C 
 1049      6F636B00 
 1050              		.section	.rodata.find_note.str1.4,"aMS",%progbits,1
 1051              		.align	2
 1052              	.LC0:
 1053 0000 45200D20 		.ascii	"E \015 \012\000"
 1053      0A00
 1054 0006 0000     		.space	2
 1055              	.LC1:
 1056 0008 46200D20 		.ascii	"F \015 \012\000"
 1056      0A00
 1057 000e 0000     		.space	2
 1058              	.LC2:
 1059 0010 4623200D 		.ascii	"F# \015 \012\000"
 1059      200A00
 1060 0017 00       		.space	1
 1061              	.LC3:
 1062 0018 47200D20 		.ascii	"G \015 \012\000"
 1062      0A00
 1063 001e 0000     		.space	2
 1064              	.LC4:
 1065 0020 4723200D 		.ascii	"G# \015 \012\000"
ARM GAS  C:\Users\osour\AppData\Local\Temp\ccobrenF.s 			page 20


 1065      200A00
 1066 0027 00       		.space	1
 1067              	.LC5:
 1068 0028 41200D20 		.ascii	"A \015 \012\000"
 1068      0A00
 1069 002e 0000     		.space	2
 1070              	.LC6:
 1071 0030 4123200D 		.ascii	"A# \015 \012\000"
 1071      200A00
 1072 0037 00       		.space	1
 1073              	.LC7:
 1074 0038 42200D20 		.ascii	"B \015 \012\000"
 1074      0A00
 1075 003e 0000     		.space	2
 1076              	.LC8:
 1077 0040 43200D20 		.ascii	"C \015 \012\000"
 1077      0A00
 1078 0046 0000     		.space	2
 1079              	.LC9:
 1080 0048 4323200D 		.ascii	"C# \015 \012\000"
 1080      200A00
 1081 004f 00       		.space	1
 1082              	.LC10:
 1083 0050 44200D20 		.ascii	"D \015 \012\000"
 1083      0A00
 1084 0056 0000     		.space	2
 1085              	.LC11:
 1086 0058 4423200D 		.ascii	"D# \015 \012\000"
 1086      200A00
 1087 005f 00       		.space	1
 1088              	.LC12:
 1089 0060 6E6F6E65 		.ascii	"none \015 \012\000"
 1089      200D200A 
 1089      00
 1090              		.section	.rodata.frequency_to_note.str1.4,"aMS",%progbits,1
 1091              		.align	2
 1092              	.LC13:
 1093 0000 2566200D 		.ascii	"%f \015  %d \015  \000"
 1093      20202564 
 1093      200D2020 
 1093      00
 1094              		.section	.rodata.note_frequency,"a",%progbits
 1095              		.align	2
 1096              		.set	.LANCHOR1,. + 0
 1097              		.type	note_frequency, %object
 1098              		.size	note_frequency, 72
 1099              	note_frequency:
 1100 0000 5200     		.short	82
 1101 0002 5700     		.short	87
 1102 0004 5C00     		.short	92
 1103 0006 6200     		.short	98
 1104 0008 6800     		.short	104
 1105 000a 6E00     		.short	110
 1106 000c 7500     		.short	117
 1107 000e 7B00     		.short	123
 1108 0010 8300     		.short	131
 1109 0012 8B00     		.short	139
ARM GAS  C:\Users\osour\AppData\Local\Temp\ccobrenF.s 			page 21


 1110 0014 9300     		.short	147
 1111 0016 9C00     		.short	156
 1112 0018 A500     		.short	165
 1113 001a AF00     		.short	175
 1114 001c B900     		.short	185
 1115 001e C400     		.short	196
 1116 0020 D000     		.short	208
 1117 0022 DC00     		.short	220
 1118 0024 E900     		.short	233
 1119 0026 F700     		.short	247
 1120 0028 0601     		.short	262
 1121 002a 1501     		.short	277
 1122 002c 2601     		.short	294
 1123 002e 3701     		.short	311
 1124 0030 4A01     		.short	330
 1125 0032 5D01     		.short	349
 1126 0034 7201     		.short	370
 1127 0036 8801     		.short	392
 1128 0038 9F01     		.short	415
 1129 003a B801     		.short	440
 1130 003c D201     		.short	466
 1131 003e EE01     		.short	494
 1132 0040 2A02     		.short	554
 1133 0042 4B02     		.short	587
 1134 0044 6E02     		.short	622
 1135 0046 9302     		.short	659
 1136              		.text
 1137              	.Letext0:
 1138              		.file 6 "c:\\users\\osour\\desktop\\robotique\\eclipse_e-puck2\\tools\\gcc-arm-none-eabi-7-2017-q4
 1139              		.file 7 "c:\\users\\osour\\desktop\\robotique\\eclipse_e-puck2\\tools\\gcc-arm-none-eabi-7-2017-q4
 1140              		.file 8 "c:\\users\\osour\\desktop\\robotique\\eclipse_e-puck2\\tools\\gcc-arm-none-eabi-7-2017-q4
 1141              		.file 9 "../../lib/e-puck2_main-processor/ChibiOS//os/rt/ports/ARMCMx/compilers/GCC/chtypes.h"
 1142              		.file 10 "../../lib/e-puck2_main-processor/ChibiOS//os/rt/include/chsystypes.h"
 1143              		.file 11 "../../lib/e-puck2_main-processor/ChibiOS//os/rt/include/chschd.h"
 1144              		.file 12 "../../lib/e-puck2_main-processor/ChibiOS//os/ext/CMSIS/include/core_cm4.h"
 1145              		.file 13 "../../lib/e-puck2_main-processor/ChibiOS//os/ext/CMSIS/ST/system_stm32f4xx.h"
 1146              		.file 14 "../../lib/e-puck2_main-processor/ChibiOS//os/ext/CMSIS/ST/stm32f407xx.h"
 1147              		.file 15 "../../lib/e-puck2_main-processor/ChibiOS//os/rt/ports/ARMCMx/chcore.h"
 1148              		.file 16 "../../lib/e-puck2_main-processor/ChibiOS//os/rt/ports/ARMCMx/chcore_v7m.h"
 1149              		.file 17 "../../lib/e-puck2_main-processor/ChibiOS//os/rt/include/chdebug.h"
 1150              		.file 18 "../../lib/e-puck2_main-processor/ChibiOS//os/rt/include/chtm.h"
 1151              		.file 19 "../../lib/e-puck2_main-processor/ChibiOS//os/rt/include/chstats.h"
 1152              		.file 20 "../../lib/e-puck2_main-processor/ChibiOS//os/rt/include/chsem.h"
 1153              		.file 21 "../../lib/e-puck2_main-processor/ChibiOS//os/rt/include/chmtx.h"
 1154              		.file 22 "../../lib/e-puck2_main-processor/ChibiOS//os/rt/include/chregistry.h"
 1155              		.file 23 "../../lib/e-puck2_main-processor/ChibiOS//os/rt/include/chevents.h"
 1156              		.file 24 "../../lib/e-puck2_main-processor/ChibiOS//os/rt/include/chqueues.h"
 1157              		.file 25 "../../lib/e-puck2_main-processor/ChibiOS//os/rt/include/chstreams.h"
 1158              		.file 26 "../../lib/e-puck2_main-processor/ChibiOS//os/hal/ports/STM32/STM32F4xx/stm32_dma.h"
 1159              		.file 27 "../../lib/e-puck2_main-processor/ChibiOS//os/hal/include/hal_ioblock.h"
 1160              		.file 28 "../../lib/e-puck2_main-processor/ChibiOS//os/hal/ports/STM32/LLD/GPIOv2/pal_lld.h"
 1161              		.file 29 "../../lib/e-puck2_main-processor/ChibiOS//os/hal/include/adc.h"
 1162              		.file 30 "../../lib/e-puck2_main-processor/ChibiOS//os/hal/ports/STM32/STM32F4xx/adc_lld.h"
 1163              		.file 31 "../../lib/e-puck2_main-processor/ChibiOS//os/hal/include/can.h"
 1164              		.file 32 "../../lib/e-puck2_main-processor/ChibiOS//os/hal/ports/STM32/LLD/can_lld.h"
 1165              		.file 33 "../../lib/e-puck2_main-processor/ChibiOS//os/hal/include/dac.h"
 1166              		.file 34 "../../lib/e-puck2_main-processor/ChibiOS//os/hal/ports/STM32/LLD/DACv1/dac_lld.h"
ARM GAS  C:\Users\osour\AppData\Local\Temp\ccobrenF.s 			page 22


 1167              		.file 35 "../../lib/e-puck2_main-processor/ChibiOS//os/hal/include/ext.h"
 1168              		.file 36 "../../lib/e-puck2_main-processor/ChibiOS//os/hal/ports/STM32/LLD/ext_lld.h"
 1169              		.file 37 "../../lib/e-puck2_main-processor/ChibiOS//os/hal/include/gpt.h"
 1170              		.file 38 "../../lib/e-puck2_main-processor/ChibiOS//os/hal/ports/STM32/LLD/TIMv1/gpt_lld.h"
 1171              		.file 39 "../../lib/e-puck2_main-processor/ChibiOS//os/hal/ports/STM32/LLD/TIMv1/stm32_tim.h"
 1172              		.file 40 "../../lib/e-puck2_main-processor/ChibiOS//os/hal/include/i2c.h"
 1173              		.file 41 "../../lib/e-puck2_main-processor/ChibiOS//os/hal/ports/STM32/LLD/I2Cv1/i2c_lld.h"
 1174              		.file 42 "../../lib/e-puck2_main-processor/ChibiOS//os/hal/include/i2s.h"
 1175              		.file 43 "../../lib/e-puck2_main-processor/ChibiOS//os/hal/ports/STM32/LLD/SPIv1/i2s_lld.h"
 1176              		.file 44 "../../lib/e-puck2_main-processor/ChibiOS//os/hal/include/pwm.h"
 1177              		.file 45 "../../lib/e-puck2_main-processor/ChibiOS//os/hal/ports/STM32/LLD/TIMv1/pwm_lld.h"
 1178              		.file 46 "../../lib/e-puck2_main-processor/ChibiOS//os/hal/include/serial.h"
 1179              		.file 47 "../../lib/e-puck2_main-processor/ChibiOS//os/hal/ports/STM32/LLD/USARTv1/serial_lld.h"
 1180              		.file 48 "../../lib/e-puck2_main-processor/ChibiOS//os/hal/include/sdc.h"
 1181              		.file 49 "../../lib/e-puck2_main-processor/ChibiOS//os/hal/ports/STM32/LLD/sdc_lld.h"
 1182              		.file 50 "../../lib/e-puck2_main-processor/ChibiOS//os/hal/include/spi.h"
 1183              		.file 51 "../../lib/e-puck2_main-processor/ChibiOS//os/hal/ports/STM32/LLD/SPIv1/spi_lld.h"
 1184              		.file 52 "../../lib/e-puck2_main-processor/ChibiOS//os/hal/include/usb.h"
 1185              		.file 53 "../../lib/e-puck2_main-processor/ChibiOS//os/hal/ports/STM32/LLD/OTGv1/usb_lld.h"
 1186              		.file 54 "../../lib/e-puck2_main-processor/ChibiOS//os/hal/ports/STM32/LLD/OTGv1/stm32_otg.h"
 1187              		.file 55 "../../lib/e-puck2_main-processor/ChibiOS//os/hal/include/serial_usb.h"
 1188              		.file 56 "../../lib/e-puck2_main-processor/ChibiOS_ext/os/hal/include/../ports/STM32/STM32F4xx/dcm
 1189              		.file 57 "c:\\users\\osour\\desktop\\robotique\\eclipse_e-puck2\\tools\\gcc-arm-none-eabi-7-2017-q
 1190              		.file 58 "c:\\users\\osour\\desktop\\robotique\\eclipse_e-puck2\\tools\\gcc-arm-none-eabi-7-2017-q
 1191              		.file 59 "<built-in>"
 1192              		.file 60 "c:\\users\\osour\\desktop\\robotique\\eclipse_e-puck2\\tools\\gcc-arm-none-eabi-7-2017-q
 1193              		.file 61 "../../lib/e-puck2_main-processor/src/msgbus/messagebus.h"
 1194              		.file 62 "c:\\users\\osour\\desktop\\robotique\\eclipse_e-puck2\\tools\\gcc-arm-none-eabi-7-2017-q
 1195              		.file 63 "c:\\users\\osour\\desktop\\robotique\\eclipse_e-puck2\\tools\\gcc-arm-none-eabi-7-2017-q
 1196              		.file 64 "../../lib/e-puck2_main-processor/src/parameter/parameter.h"
 1197              		.file 65 "./main.h"
 1198              		.file 66 "../../lib/e-puck2_main-processor/src/usbcfg.h"
 1199              		.file 67 "c:\\users\\osour\\desktop\\robotique\\eclipse_e-puck2\\tools\\gcc-arm-none-eabi-7-2017-q
 1200              		.file 68 "c:\\users\\osour\\desktop\\robotique\\eclipse_e-puck2\\tools\\gcc-arm-none-eabi-7-2017-q
 1201              		.file 69 "./fft.h"
 1202              		.file 70 "../../lib/e-puck2_main-processor/ChibiOS//os/ext/CMSIS/include/arm_math.h"