ARM GAS  C:\Users\osour\AppData\Local\Temp\cc5WlC9V.s 			page 1


   1              		.cpu cortex-m4
   2              		.eabi_attribute 27, 1
   3              		.eabi_attribute 28, 1
   4              		.eabi_attribute 20, 1
   5              		.eabi_attribute 21, 1
   6              		.eabi_attribute 23, 3
   7              		.eabi_attribute 24, 1
   8              		.eabi_attribute 25, 1
   9              		.eabi_attribute 26, 1
  10              		.eabi_attribute 30, 2
  11              		.eabi_attribute 34, 1
  12              		.eabi_attribute 18, 4
  13              		.file	"e_acc.c"
  14              		.text
  15              	.Ltext0:
  16              		.cfi_sections	.debug_frame
  17              		.section	.text.e_get_acc,"ax",%progbits
  18              		.align	1
  19              		.p2align 4,,15
  20              		.global	e_get_acc
  21              		.syntax unified
  22              		.thumb
  23              		.thumb_func
  24              		.fpu fpv4-sp-d16
  25              		.type	e_get_acc, %function
  26              	e_get_acc:
  27              	.LFB256:
  28              		.file 1 "../../lib/e-puck2_main-processor/src/epuck1x/a_d/advance_ad_scan/e_acc.c"
  29              		.loc 1 17 0
  30              		.cfi_startproc
  31              		@ args = 0, pretend = 0, frame = 8
  32              		@ frame_needed = 0, uses_anonymous_args = 0
  33              	.LVL0:
  34 0000 70B5     		push	{r4, r5, r6, lr}
  35              		.cfi_def_cfa_offset 16
  36              		.cfi_offset 4, -16
  37              		.cfi_offset 5, -12
  38              		.cfi_offset 6, -8
  39              		.cfi_offset 14, -4
  40 0002 174E     		ldr	r6, .L11
  41 0004 82B0     		sub	sp, sp, #8
  42              		.cfi_def_cfa_offset 24
  43              		.loc 1 17 0
  44 0006 3368     		ldr	r3, [r6]
  45 0008 0193     		str	r3, [sp, #4]
  46              	.LVL1:
  47              		.loc 1 22 0
  48 000a 0546     		mov	r5, r0
  49 000c E8B1     		cbz	r0, .L8
  50              		.loc 1 24 0
  51 000e 0128     		cmp	r0, #1
  52 0010 13D0     		beq	.L9
  53              		.loc 1 27 0
  54 0012 C5B2     		uxtb	r5, r0
  55 0014 2846     		mov	r0, r5
  56              	.LVL2:
  57 0016 FFF7FEFF 		bl	get_acc
ARM GAS  C:\Users\osour\AppData\Local\Temp\cc5WlC9V.s 			page 2


  58              	.LVL3:
  59 001a 0446     		mov	r4, r0
  60 001c 2846     		mov	r0, r5
  61 001e FFF7FEFF 		bl	get_acc_offset
  62              	.LVL4:
  63 0022 201A     		subs	r0, r4, r0
  64 0024 A0F58040 		sub	r0, r0, #16384
  65              	.LVL5:
  66              	.L3:
  67              		.loc 1 32 0
  68 0028 019A     		ldr	r2, [sp, #4]
  69 002a 3368     		ldr	r3, [r6]
  70              		.loc 1 29 0
  71 002c 8111     		asrs	r1, r0, #6
  72              	.LVL6:
  73              		.loc 1 32 0
  74 002e 9A42     		cmp	r2, r3
  75 0030 A1EB2010 		sub	r0, r1, r0, asr #4
  76              	.LVL7:
  77 0034 11D1     		bne	.L10
  78 0036 02B0     		add	sp, sp, #8
  79              		.cfi_remember_state
  80              		.cfi_def_cfa_offset 16
  81              		@ sp needed
  82 0038 70BD     		pop	{r4, r5, r6, pc}
  83              	.LVL8:
  84              	.L9:
  85              		.cfi_restore_state
  86              		.loc 1 25 0
  87 003a FFF7FEFF 		bl	get_acc_offset
  88              	.LVL9:
  89 003e 0446     		mov	r4, r0
  90 0040 2846     		mov	r0, r5
  91 0042 FFF7FEFF 		bl	get_acc
  92              	.LVL10:
  93 0046 201A     		subs	r0, r4, r0
  94              	.LVL11:
  95 0048 EEE7     		b	.L3
  96              	.LVL12:
  97              	.L8:
  98              		.loc 1 23 0
  99 004a FFF7FEFF 		bl	get_acc
 100              	.LVL13:
 101 004e 0446     		mov	r4, r0
 102 0050 2846     		mov	r0, r5
 103 0052 FFF7FEFF 		bl	get_acc_offset
 104              	.LVL14:
 105 0056 201A     		subs	r0, r4, r0
 106              	.LVL15:
 107 0058 E6E7     		b	.L3
 108              	.LVL16:
 109              	.L10:
 110              		.loc 1 32 0
 111 005a FFF7FEFF 		bl	__stack_chk_fail
 112              	.LVL17:
 113              	.L12:
 114 005e 00BF     		.align	2
ARM GAS  C:\Users\osour\AppData\Local\Temp\cc5WlC9V.s 			page 3


 115              	.L11:
 116 0060 00000000 		.word	__stack_chk_guard
 117              		.cfi_endproc
 118              	.LFE256:
 119              		.size	e_get_acc, .-e_get_acc
 120              		.section	.text.e_get_acc_filtered,"ax",%progbits
 121              		.align	1
 122              		.p2align 4,,15
 123              		.global	e_get_acc_filtered
 124              		.syntax unified
 125              		.thumb
 126              		.thumb_func
 127              		.fpu fpv4-sp-d16
 128              		.type	e_get_acc_filtered, %function
 129              	e_get_acc_filtered:
 130              	.LFB257:
 131              		.loc 1 35 0
 132              		.cfi_startproc
 133              		@ args = 0, pretend = 0, frame = 8
 134              		@ frame_needed = 0, uses_anonymous_args = 0
 135              	.LVL18:
 136 0000 10B5     		push	{r4, lr}
 137              		.cfi_def_cfa_offset 8
 138              		.cfi_offset 4, -8
 139              		.cfi_offset 14, -4
 140 0002 0E4C     		ldr	r4, .L22
 141 0004 82B0     		sub	sp, sp, #8
 142              		.cfi_def_cfa_offset 16
 143              		.loc 1 35 0
 144 0006 2368     		ldr	r3, [r4]
 145 0008 0193     		str	r3, [sp, #4]
 146              	.LVL19:
 147 000a C9B2     		uxtb	r1, r1
 148              	.LVL20:
 149              		.loc 1 41 0
 150 000c 10B1     		cbz	r0, .L19
 151              		.loc 1 43 0
 152 000e 0128     		cmp	r0, #1
 153 0010 0ED0     		beq	.L20
 154              		.loc 1 46 0
 155 0012 C0B2     		uxtb	r0, r0
 156              	.LVL21:
 157              	.L19:
 158 0014 FFF7FEFF 		bl	get_acc_filtered
 159              	.LVL22:
 160 0018 4042     		negs	r0, r0
 161              	.LVL23:
 162              	.L15:
 163              		.loc 1 50 0
 164 001a 0199     		ldr	r1, [sp, #4]
 165 001c 2268     		ldr	r2, [r4]
 166              		.loc 1 48 0
 167 001e 8311     		asrs	r3, r0, #6
 168 0020 C3EB2010 		rsb	r0, r3, r0, asr #4
 169              	.LVL24:
 170              		.loc 1 50 0
 171 0024 9142     		cmp	r1, r2
ARM GAS  C:\Users\osour\AppData\Local\Temp\cc5WlC9V.s 			page 4


 172 0026 00F50060 		add	r0, r0, #2048
 173              	.LVL25:
 174 002a 04D1     		bne	.L21
 175 002c 02B0     		add	sp, sp, #8
 176              		.cfi_remember_state
 177              		.cfi_def_cfa_offset 8
 178              		@ sp needed
 179 002e 10BD     		pop	{r4, pc}
 180              	.LVL26:
 181              	.L20:
 182              		.cfi_restore_state
 183              		.loc 1 44 0
 184 0030 FFF7FEFF 		bl	get_acc_filtered
 185              	.LVL27:
 186 0034 F1E7     		b	.L15
 187              	.L21:
 188              		.loc 1 50 0
 189 0036 FFF7FEFF 		bl	__stack_chk_fail
 190              	.LVL28:
 191              	.L23:
 192 003a 00BF     		.align	2
 193              	.L22:
 194 003c 00000000 		.word	__stack_chk_guard
 195              		.cfi_endproc
 196              	.LFE257:
 197              		.size	e_get_acc_filtered, .-e_get_acc_filtered
 198              		.section	.text.e_acc_calibr,"ax",%progbits
 199              		.align	1
 200              		.p2align 4,,15
 201              		.global	e_acc_calibr
 202              		.syntax unified
 203              		.thumb
 204              		.thumb_func
 205              		.fpu fpv4-sp-d16
 206              		.type	e_acc_calibr, %function
 207              	e_acc_calibr:
 208              	.LFB258:
 209              		.loc 1 53 0
 210              		.cfi_startproc
 211              		@ args = 0, pretend = 0, frame = 8
 212              		@ frame_needed = 0, uses_anonymous_args = 0
 213 0000 00B5     		push	{lr}
 214              		.cfi_def_cfa_offset 4
 215              		.cfi_offset 14, -4
 216 0002 074B     		ldr	r3, .L29
 217 0004 83B0     		sub	sp, sp, #12
 218              		.cfi_def_cfa_offset 16
 219              		.loc 1 53 0
 220 0006 1A68     		ldr	r2, [r3]
 221 0008 0192     		str	r2, [sp, #4]
 222              		.loc 1 54 0
 223 000a 019A     		ldr	r2, [sp, #4]
 224 000c 1B68     		ldr	r3, [r3]
 225 000e 9A42     		cmp	r2, r3
 226 0010 04D1     		bne	.L28
 227              		.loc 1 55 0
 228 0012 03B0     		add	sp, sp, #12
ARM GAS  C:\Users\osour\AppData\Local\Temp\cc5WlC9V.s 			page 5


 229              		.cfi_remember_state
 230              		.cfi_def_cfa_offset 4
 231              		@ sp needed
 232 0014 5DF804EB 		ldr	lr, [sp], #4
 233              		.cfi_restore 14
 234              		.cfi_def_cfa_offset 0
 235              		.loc 1 54 0
 236 0018 FFF7FEBF 		b	calibrate_acc
 237              	.LVL29:
 238              	.L28:
 239              		.cfi_restore_state
 240 001c FFF7FEFF 		bl	__stack_chk_fail
 241              	.LVL30:
 242              	.L30:
 243              		.align	2
 244              	.L29:
 245 0020 00000000 		.word	__stack_chk_guard
 246              		.cfi_endproc
 247              	.LFE258:
 248              		.size	e_acc_calibr, .-e_acc_calibr
 249              		.section	.text.e_read_acc_spheric,"ax",%progbits
 250              		.align	1
 251              		.p2align 4,,15
 252              		.global	e_read_acc_spheric
 253              		.syntax unified
 254              		.thumb
 255              		.thumb_func
 256              		.fpu fpv4-sp-d16
 257              		.type	e_read_acc_spheric, %function
 258              	e_read_acc_spheric:
 259              	.LFB259:
 260              		.loc 1 58 0
 261              		.cfi_startproc
 262              		@ args = 0, pretend = 0, frame = 40
 263              		@ frame_needed = 0, uses_anonymous_args = 0
 264 0000 F0B5     		push	{r4, r5, r6, r7, lr}
 265              		.cfi_def_cfa_offset 20
 266              		.cfi_offset 4, -20
 267              		.cfi_offset 5, -16
 268              		.cfi_offset 6, -12
 269              		.cfi_offset 7, -8
 270              		.cfi_offset 14, -4
 271 0002 2DED028B 		vpush.64	{d8}
 272              		.cfi_def_cfa_offset 28
 273              		.cfi_offset 80, -28
 274              		.cfi_offset 81, -24
 275 0006 3D4F     		ldr	r7, .L43
 276 0008 8BB0     		sub	sp, sp, #44
 277              		.cfi_def_cfa_offset 72
 278              		.loc 1 58 0
 279 000a 3B68     		ldr	r3, [r7]
 280 000c 0993     		str	r3, [sp, #36]
 281              		.loc 1 61 0
 282 000e 0020     		movs	r0, #0
 283 0010 FFF7FEFF 		bl	e_get_acc
 284              	.LVL31:
 285 0014 0546     		mov	r5, r0
ARM GAS  C:\Users\osour\AppData\Local\Temp\cc5WlC9V.s 			page 6


 286              	.LVL32:
 287              		.loc 1 62 0
 288 0016 0120     		movs	r0, #1
 289              	.LVL33:
 290 0018 FFF7FEFF 		bl	e_get_acc
 291              	.LVL34:
 292 001c 0646     		mov	r6, r0
 293              	.LVL35:
 294              		.loc 1 63 0
 295 001e 0220     		movs	r0, #2
 296              	.LVL36:
 297 0020 FFF7FEFF 		bl	e_get_acc
 298              	.LVL37:
 299              		.loc 1 66 0
 300 0024 06FB06F4 		mul	r4, r6, r6
 301 0028 05FB0544 		mla	r4, r5, r5, r4
 302 002c 00FB0043 		mla	r3, r0, r0, r4
 303 0030 00EE103A 		vmov	s0, r3	@ int
 304 0034 B8EEC00A 		vcvt.f32.s32	s0, s0
 305 0038 B5EE400A 		vcmp.f32	s0, #0
 306 003c F1EE10FA 		vmrs	APSR_nzcv, FPSCR
 307 0040 F1EEC08A 		vsqrt.f32	s17, s0
 308 0044 4BD4     		bmi	.L39
 309              	.LVL38:
 310              	.L32:
 311              		.loc 1 67 0
 312 0046 07EE904A 		vmov	s15, r4	@ int
 313 004a B8EEE70A 		vcvt.f32.s32	s0, s15
 314 004e 07EE900A 		vmov	s15, r0	@ int
 315 0052 B5EE400A 		vcmp.f32	s0, #0
 316 0056 F1EE10FA 		vmrs	APSR_nzcv, FPSCR
 317 005a B8EEE78A 		vcvt.f32.s32	s16, s15
 318 005e F1EEC00A 		vsqrt.f32	s1, s0
 319 0062 41D4     		bmi	.L40
 320              	.L33:
 321 0064 B0EE480A 		vmov.f32	s0, s16
 322 0068 FFF7FEFF 		bl	atan2f
 323              	.LVL39:
 324 006c 9FED248A 		vldr.32	s16, .L43+4
 325 0070 9FED241A 		vldr.32	s2, .L43+8
 326 0074 A0EE481A 		vfms.f32	s2, s0, s16
 327              	.LVL40:
 328              		.loc 1 68 0
 329 0078 F1EE047A 		vmov.f32	s15, #5.0e+0
 330 007c B4EEE71A 		vcmpe.f32	s2, s15
 331 0080 F1EE10FA 		vmrs	APSR_nzcv, FPSCR
 332 0084 06D4     		bmi	.L37
 333              		.loc 1 68 0 is_stmt 0 discriminator 1
 334 0086 DFED207A 		vldr.32	s15, .L43+12
 335 008a B4EEE71A 		vcmpe.f32	s2, s15
 336 008e F1EE10FA 		vmrs	APSR_nzcv, FPSCR
 337 0092 11DD     		ble	.L41
 338              	.L37:
 339              		.loc 1 69 0 is_stmt 1
 340 0094 DFED1D0A 		vldr.32	s1, .L43+16
 341              	.LVL41:
 342              	.L34:
ARM GAS  C:\Users\osour\AppData\Local\Temp\cc5WlC9V.s 			page 7


 343              		.loc 1 74 0
 344 0098 099A     		ldr	r2, [sp, #36]
 345 009a 3B68     		ldr	r3, [r7]
 346              		.loc 1 73 0
 347 009c CDED068A 		vstr.32	s17, [sp, #24]
 348              		.loc 1 74 0
 349 00a0 9A42     		cmp	r2, r3
 350              		.loc 1 73 0
 351 00a2 CDED070A 		vstr.32	s1, [sp, #28]
 352 00a6 8DED081A 		vstr.32	s2, [sp, #32]
 353              	.LVL42:
 354              		.loc 1 74 0
 355 00aa B0EE680A 		vmov.f32	s0, s17
 356 00ae 22D1     		bne	.L42
 357 00b0 0BB0     		add	sp, sp, #44
 358              		.cfi_remember_state
 359              		.cfi_def_cfa_offset 28
 360              		@ sp needed
 361 00b2 BDEC028B 		vldm	sp!, {d8}
 362              		.cfi_restore 80
 363              		.cfi_restore 81
 364              		.cfi_def_cfa_offset 20
 365 00b6 F0BD     		pop	{r4, r5, r6, r7, pc}
 366              	.LVL43:
 367              	.L41:
 368              		.cfi_restore_state
 369              		.loc 1 71 0
 370 00b8 07EE906A 		vmov	s15, r6	@ int
 371 00bc F8EEE70A 		vcvt.f32.s32	s1, s15
 372 00c0 07EE905A 		vmov	s15, r5	@ int
 373 00c4 B8EEE70A 		vcvt.f32.s32	s0, s15
 374 00c8 8DED011A 		vstr.32	s2, [sp, #4]	@ int
 375 00cc FFF7FEFF 		bl	atan2f
 376              	.LVL44:
 377 00d0 DFED0F0A 		vldr.32	s1, .L43+20
 378 00d4 9DED011A 		vldr.32	s2, [sp, #4]	@ int
 379 00d8 E0EE080A 		vfma.f32	s1, s0, s16
 380              	.LVL45:
 381 00dc DCE7     		b	.L34
 382              	.LVL46:
 383              	.L39:
 384 00de 0190     		str	r0, [sp, #4]
 385              		.loc 1 66 0
 386 00e0 FFF7FEFF 		bl	sqrtf
 387              	.LVL47:
 388 00e4 0198     		ldr	r0, [sp, #4]
 389 00e6 AEE7     		b	.L32
 390              	.LVL48:
 391              	.L40:
 392 00e8 CDED010A 		vstr.32	s1, [sp, #4]	@ int
 393              		.loc 1 67 0
 394 00ec FFF7FEFF 		bl	sqrtf
 395              	.LVL49:
 396 00f0 DDED010A 		vldr.32	s1, [sp, #4]	@ int
 397 00f4 B6E7     		b	.L33
 398              	.LVL50:
 399              	.L42:
ARM GAS  C:\Users\osour\AppData\Local\Temp\cc5WlC9V.s 			page 8


 400              		.loc 1 74 0
 401 00f6 FFF7FEFF 		bl	__stack_chk_fail
 402              	.LVL51:
 403              	.L44:
 404 00fa 00BF     		.align	2
 405              	.L43:
 406 00fc 00000000 		.word	__stack_chk_guard
 407 0100 9C306542 		.word	1113927836
 408 0104 0000B442 		.word	1119092736
 409 0108 00002043 		.word	1126170624
 410 010c 00000000 		.word	0
 411 0110 00003443 		.word	1127481344
 412              		.cfi_endproc
 413              	.LFE259:
 414              		.size	e_read_acc_spheric, .-e_read_acc_spheric
 415              		.section	.text.e_read_inclination,"ax",%progbits
 416              		.align	1
 417              		.p2align 4,,15
 418              		.global	e_read_inclination
 419              		.syntax unified
 420              		.thumb
 421              		.thumb_func
 422              		.fpu fpv4-sp-d16
 423              		.type	e_read_inclination, %function
 424              	e_read_inclination:
 425              	.LFB260:
 426              		.loc 1 77 0
 427              		.cfi_startproc
 428              		@ args = 0, pretend = 0, frame = 16
 429              		@ frame_needed = 0, uses_anonymous_args = 0
 430 0000 70B5     		push	{r4, r5, r6, lr}
 431              		.cfi_def_cfa_offset 16
 432              		.cfi_offset 4, -16
 433              		.cfi_offset 5, -12
 434              		.cfi_offset 6, -8
 435              		.cfi_offset 14, -4
 436 0002 2DED028B 		vpush.64	{d8}
 437              		.cfi_def_cfa_offset 24
 438              		.cfi_offset 80, -24
 439              		.cfi_offset 81, -20
 440 0006 1F4E     		ldr	r6, .L51
 441 0008 84B0     		sub	sp, sp, #16
 442              		.cfi_def_cfa_offset 40
 443              		.loc 1 77 0
 444 000a 3368     		ldr	r3, [r6]
 445 000c 0393     		str	r3, [sp, #12]
 446              		.loc 1 80 0
 447 000e 0020     		movs	r0, #0
 448 0010 FFF7FEFF 		bl	e_get_acc
 449              	.LVL52:
 450 0014 0446     		mov	r4, r0
 451              	.LVL53:
 452              		.loc 1 81 0
 453 0016 0120     		movs	r0, #1
 454              	.LVL54:
 455 0018 FFF7FEFF 		bl	e_get_acc
 456              	.LVL55:
ARM GAS  C:\Users\osour\AppData\Local\Temp\cc5WlC9V.s 			page 9


 457 001c 0546     		mov	r5, r0
 458              	.LVL56:
 459              		.loc 1 84 0
 460 001e 05FB05F5 		mul	r5, r5, r5
 461              		.loc 1 82 0
 462 0022 0220     		movs	r0, #2
 463              	.LVL57:
 464              		.loc 1 84 0
 465 0024 04FB0454 		mla	r4, r4, r4, r5
 466              	.LVL58:
 467              		.loc 1 82 0
 468 0028 FFF7FEFF 		bl	e_get_acc
 469              	.LVL59:
 470              		.loc 1 84 0
 471 002c 07EE904A 		vmov	s15, r4	@ int
 472 0030 B8EEE70A 		vcvt.f32.s32	s0, s15
 473 0034 07EE900A 		vmov	s15, r0	@ int
 474 0038 B5EE400A 		vcmp.f32	s0, #0
 475 003c F1EE10FA 		vmrs	APSR_nzcv, FPSCR
 476 0040 B8EEE78A 		vcvt.f32.s32	s16, s15
 477 0044 F1EEC00A 		vsqrt.f32	s1, s0
 478 0048 13D4     		bmi	.L49
 479              	.LVL60:
 480              	.L46:
 481 004a B0EE480A 		vmov.f32	s0, s16
 482 004e FFF7FEFF 		bl	atan2f
 483              	.LVL61:
 484 0052 9FED0D7A 		vldr.32	s14, .L51+4
 485 0056 DFED0D7A 		vldr.32	s15, .L51+8
 486              		.loc 1 86 0
 487 005a 039A     		ldr	r2, [sp, #12]
 488 005c 3368     		ldr	r3, [r6]
 489 005e E0EE477A 		vfms.f32	s15, s0, s14
 490 0062 9A42     		cmp	r2, r3
 491 0064 B0EE670A 		vmov.f32	s0, s15
 492              	.LVL62:
 493 0068 0AD1     		bne	.L50
 494 006a 04B0     		add	sp, sp, #16
 495              		.cfi_remember_state
 496              		.cfi_def_cfa_offset 24
 497              		@ sp needed
 498 006c BDEC028B 		vldm	sp!, {d8}
 499              		.cfi_restore 80
 500              		.cfi_restore 81
 501              		.cfi_def_cfa_offset 16
 502 0070 70BD     		pop	{r4, r5, r6, pc}
 503              	.LVL63:
 504              	.L49:
 505              		.cfi_restore_state
 506 0072 CDED010A 		vstr.32	s1, [sp, #4]	@ int
 507              		.loc 1 84 0
 508 0076 FFF7FEFF 		bl	sqrtf
 509              	.LVL64:
 510 007a DDED010A 		vldr.32	s1, [sp, #4]	@ int
 511 007e E4E7     		b	.L46
 512              	.L50:
 513              		.loc 1 86 0
ARM GAS  C:\Users\osour\AppData\Local\Temp\cc5WlC9V.s 			page 10


 514 0080 FFF7FEFF 		bl	__stack_chk_fail
 515              	.LVL65:
 516              	.L52:
 517              		.align	2
 518              	.L51:
 519 0084 00000000 		.word	__stack_chk_guard
 520 0088 9C306542 		.word	1113927836
 521 008c 0000B442 		.word	1119092736
 522              		.cfi_endproc
 523              	.LFE260:
 524              		.size	e_read_inclination, .-e_read_inclination
 525              		.section	.text.e_read_orientation,"ax",%progbits
 526              		.align	1
 527              		.p2align 4,,15
 528              		.global	e_read_orientation
 529              		.syntax unified
 530              		.thumb
 531              		.thumb_func
 532              		.fpu fpv4-sp-d16
 533              		.type	e_read_orientation, %function
 534              	e_read_orientation:
 535              	.LFB261:
 536              		.loc 1 89 0
 537              		.cfi_startproc
 538              		@ args = 0, pretend = 0, frame = 16
 539              		@ frame_needed = 0, uses_anonymous_args = 0
 540 0000 70B5     		push	{r4, r5, r6, lr}
 541              		.cfi_def_cfa_offset 16
 542              		.cfi_offset 4, -16
 543              		.cfi_offset 5, -12
 544              		.cfi_offset 6, -8
 545              		.cfi_offset 14, -4
 546 0002 2DED028B 		vpush.64	{d8}
 547              		.cfi_def_cfa_offset 24
 548              		.cfi_offset 80, -24
 549              		.cfi_offset 81, -20
 550 0006 2F4E     		ldr	r6, .L63
 551 0008 84B0     		sub	sp, sp, #16
 552              		.cfi_def_cfa_offset 40
 553              		.loc 1 89 0
 554 000a 3368     		ldr	r3, [r6]
 555 000c 0393     		str	r3, [sp, #12]
 556              		.loc 1 92 0
 557 000e 0020     		movs	r0, #0
 558 0010 FFF7FEFF 		bl	e_get_acc
 559              	.LVL66:
 560 0014 0446     		mov	r4, r0
 561              	.LVL67:
 562              		.loc 1 93 0
 563 0016 0120     		movs	r0, #1
 564              	.LVL68:
 565 0018 FFF7FEFF 		bl	e_get_acc
 566              	.LVL69:
 567 001c 0546     		mov	r5, r0
 568              	.LVL70:
 569              		.loc 1 94 0
 570 001e 0220     		movs	r0, #2
ARM GAS  C:\Users\osour\AppData\Local\Temp\cc5WlC9V.s 			page 11


 571              	.LVL71:
 572 0020 FFF7FEFF 		bl	e_get_acc
 573              	.LVL72:
 574              		.loc 1 96 0
 575 0024 05FB05F3 		mul	r3, r5, r5
 576 0028 04FB0433 		mla	r3, r4, r4, r3
 577 002c 00EE103A 		vmov	s0, r3	@ int
 578 0030 B8EEC00A 		vcvt.f32.s32	s0, s0
 579 0034 07EE900A 		vmov	s15, r0	@ int
 580 0038 B5EE400A 		vcmp.f32	s0, #0
 581 003c F1EE10FA 		vmrs	APSR_nzcv, FPSCR
 582 0040 B8EEE78A 		vcvt.f32.s32	s16, s15
 583 0044 F1EEC00A 		vsqrt.f32	s1, s0
 584 0048 32D4     		bmi	.L60
 585              	.LVL73:
 586              	.L54:
 587 004a B0EE480A 		vmov.f32	s0, s16
 588 004e FFF7FEFF 		bl	atan2f
 589              	.LVL74:
 590 0052 9FED1D8A 		vldr.32	s16, .L63+4
 591 0056 DFED1D7A 		vldr.32	s15, .L63+8
 592 005a E0EE487A 		vfms.f32	s15, s0, s16
 593              	.LVL75:
 594              		.loc 1 97 0
 595 005e B1EE047A 		vmov.f32	s14, #5.0e+0
 596 0062 F4EEC77A 		vcmpe.f32	s15, s14
 597 0066 F1EE10FA 		vmrs	APSR_nzcv, FPSCR
 598 006a 06D4     		bmi	.L58
 599              		.loc 1 97 0 is_stmt 0 discriminator 1
 600 006c 9FED187A 		vldr.32	s14, .L63+12
 601 0070 F4EEC77A 		vcmpe.f32	s15, s14
 602 0074 F1EE10FA 		vmrs	APSR_nzcv, FPSCR
 603 0078 09DD     		ble	.L61
 604              	.L58:
 605              		.loc 1 98 0 is_stmt 1
 606 007a 9FED160A 		vldr.32	s0, .L63+16
 607              	.LVL76:
 608              	.L53:
 609              		.loc 1 103 0
 610 007e 039A     		ldr	r2, [sp, #12]
 611 0080 3368     		ldr	r3, [r6]
 612 0082 9A42     		cmp	r2, r3
 613 0084 1BD1     		bne	.L62
 614 0086 04B0     		add	sp, sp, #16
 615              		.cfi_remember_state
 616              		.cfi_def_cfa_offset 24
 617              		@ sp needed
 618 0088 BDEC028B 		vldm	sp!, {d8}
 619              		.cfi_restore 80
 620              		.cfi_restore 81
 621              		.cfi_def_cfa_offset 16
 622 008c 70BD     		pop	{r4, r5, r6, pc}
 623              	.LVL77:
 624              	.L61:
 625              		.cfi_restore_state
 626              		.loc 1 100 0
 627 008e 07EE905A 		vmov	s15, r5	@ int
ARM GAS  C:\Users\osour\AppData\Local\Temp\cc5WlC9V.s 			page 12


 628              	.LVL78:
 629 0092 F8EEE70A 		vcvt.f32.s32	s1, s15
 630 0096 07EE904A 		vmov	s15, r4	@ int
 631 009a B8EEE70A 		vcvt.f32.s32	s0, s15
 632              	.LVL79:
 633 009e FFF7FEFF 		bl	atan2f
 634              	.LVL80:
 635 00a2 DFED0D7A 		vldr.32	s15, .L63+20
 636 00a6 E0EE087A 		vfma.f32	s15, s0, s16
 637 00aa B0EE670A 		vmov.f32	s0, s15
 638              	.LVL81:
 639 00ae E6E7     		b	.L53
 640              	.LVL82:
 641              	.L60:
 642 00b0 CDED010A 		vstr.32	s1, [sp, #4]	@ int
 643              		.loc 1 96 0
 644 00b4 FFF7FEFF 		bl	sqrtf
 645              	.LVL83:
 646 00b8 DDED010A 		vldr.32	s1, [sp, #4]	@ int
 647 00bc C5E7     		b	.L54
 648              	.L62:
 649              		.loc 1 103 0
 650 00be FFF7FEFF 		bl	__stack_chk_fail
 651              	.LVL84:
 652              	.L64:
 653 00c2 00BF     		.align	2
 654              	.L63:
 655 00c4 00000000 		.word	__stack_chk_guard
 656 00c8 9C306542 		.word	1113927836
 657 00cc 0000B442 		.word	1119092736
 658 00d0 00002043 		.word	1126170624
 659 00d4 00000000 		.word	0
 660 00d8 00003443 		.word	1127481344
 661              		.cfi_endproc
 662              	.LFE261:
 663              		.size	e_read_orientation, .-e_read_orientation
 664              		.section	.text.e_read_acc,"ax",%progbits
 665              		.align	1
 666              		.p2align 4,,15
 667              		.global	e_read_acc
 668              		.syntax unified
 669              		.thumb
 670              		.thumb_func
 671              		.fpu fpv4-sp-d16
 672              		.type	e_read_acc, %function
 673              	e_read_acc:
 674              	.LFB262:
 675              		.loc 1 106 0
 676              		.cfi_startproc
 677              		@ args = 0, pretend = 0, frame = 8
 678              		@ frame_needed = 0, uses_anonymous_args = 0
 679 0000 70B5     		push	{r4, r5, r6, lr}
 680              		.cfi_def_cfa_offset 16
 681              		.cfi_offset 4, -16
 682              		.cfi_offset 5, -12
 683              		.cfi_offset 6, -8
 684              		.cfi_offset 14, -4
ARM GAS  C:\Users\osour\AppData\Local\Temp\cc5WlC9V.s 			page 13


 685 0002 2DED028B 		vpush.64	{d8}
 686              		.cfi_def_cfa_offset 24
 687              		.cfi_offset 80, -24
 688              		.cfi_offset 81, -20
 689 0006 174E     		ldr	r6, .L71
 690 0008 82B0     		sub	sp, sp, #8
 691              		.cfi_def_cfa_offset 32
 692              		.loc 1 106 0
 693 000a 3368     		ldr	r3, [r6]
 694 000c 0193     		str	r3, [sp, #4]
 695              		.loc 1 109 0
 696 000e 0020     		movs	r0, #0
 697 0010 FFF7FEFF 		bl	e_get_acc
 698              	.LVL85:
 699 0014 0446     		mov	r4, r0
 700              	.LVL86:
 701              		.loc 1 110 0
 702 0016 0120     		movs	r0, #1
 703              	.LVL87:
 704 0018 FFF7FEFF 		bl	e_get_acc
 705              	.LVL88:
 706 001c 0546     		mov	r5, r0
 707              	.LVL89:
 708              		.loc 1 111 0
 709 001e 0220     		movs	r0, #2
 710              	.LVL90:
 711 0020 FFF7FEFF 		bl	e_get_acc
 712              	.LVL91:
 713              		.loc 1 113 0
 714 0024 05FB05F5 		mul	r5, r5, r5
 715              	.LVL92:
 716 0028 04FB0454 		mla	r4, r4, r4, r5
 717              	.LVL93:
 718 002c 00FB0040 		mla	r0, r0, r0, r4
 719              	.LVL94:
 720 0030 07EE900A 		vmov	s15, r0	@ int
 721 0034 B8EEE70A 		vcvt.f32.s32	s0, s15
 722 0038 B5EE400A 		vcmp.f32	s0, #0
 723 003c F1EE10FA 		vmrs	APSR_nzcv, FPSCR
 724 0040 B1EEC08A 		vsqrt.f32	s16, s0
 725 0044 09D4     		bmi	.L69
 726              	.L65:
 727              		.loc 1 115 0
 728 0046 019A     		ldr	r2, [sp, #4]
 729 0048 3368     		ldr	r3, [r6]
 730 004a 9A42     		cmp	r2, r3
 731 004c B0EE480A 		vmov.f32	s0, s16
 732 0050 06D1     		bne	.L70
 733 0052 02B0     		add	sp, sp, #8
 734              		.cfi_remember_state
 735              		.cfi_def_cfa_offset 24
 736              		@ sp needed
 737 0054 BDEC028B 		vldm	sp!, {d8}
 738              		.cfi_restore 80
 739              		.cfi_restore 81
 740              		.cfi_def_cfa_offset 16
 741 0058 70BD     		pop	{r4, r5, r6, pc}
ARM GAS  C:\Users\osour\AppData\Local\Temp\cc5WlC9V.s 			page 14


 742              	.L69:
 743              		.cfi_restore_state
 744              		.loc 1 113 0
 745 005a FFF7FEFF 		bl	sqrtf
 746              	.LVL95:
 747              		.loc 1 114 0
 748 005e F2E7     		b	.L65
 749              	.LVL96:
 750              	.L70:
 751              		.loc 1 115 0
 752 0060 FFF7FEFF 		bl	__stack_chk_fail
 753              	.LVL97:
 754              	.L72:
 755              		.align	2
 756              	.L71:
 757 0064 00000000 		.word	__stack_chk_guard
 758              		.cfi_endproc
 759              	.LFE262:
 760              		.size	e_read_acc, .-e_read_acc
 761              		.section	.text.e_read_acc_xyz,"ax",%progbits
 762              		.align	1
 763              		.p2align 4,,15
 764              		.global	e_read_acc_xyz
 765              		.syntax unified
 766              		.thumb
 767              		.thumb_func
 768              		.fpu fpv4-sp-d16
 769              		.type	e_read_acc_xyz, %function
 770              	e_read_acc_xyz:
 771              	.LFB263:
 772              		.loc 1 118 0
 773              		.cfi_startproc
 774              		@ args = 0, pretend = 0, frame = 8
 775              		@ frame_needed = 0, uses_anonymous_args = 0
 776              	.LVL98:
 777 0000 F0B5     		push	{r4, r5, r6, r7, lr}
 778              		.cfi_def_cfa_offset 20
 779              		.cfi_offset 4, -20
 780              		.cfi_offset 5, -16
 781              		.cfi_offset 6, -12
 782              		.cfi_offset 7, -8
 783              		.cfi_offset 14, -4
 784 0002 0E4D     		ldr	r5, .L77
 785 0004 83B0     		sub	sp, sp, #12
 786              		.cfi_def_cfa_offset 32
 787              		.loc 1 118 0
 788 0006 2B68     		ldr	r3, [r5]
 789 0008 0193     		str	r3, [sp, #4]
 790 000a 0446     		mov	r4, r0
 791              		.loc 1 120 0
 792 000c 0020     		movs	r0, #0
 793              	.LVL99:
 794 000e FFF7FEFF 		bl	e_get_acc
 795              	.LVL100:
 796 0012 0746     		mov	r7, r0
 797              	.LVL101:
 798              		.loc 1 121 0
ARM GAS  C:\Users\osour\AppData\Local\Temp\cc5WlC9V.s 			page 15


 799 0014 0120     		movs	r0, #1
 800              	.LVL102:
 801 0016 FFF7FEFF 		bl	e_get_acc
 802              	.LVL103:
 803 001a 0646     		mov	r6, r0
 804              	.LVL104:
 805              		.loc 1 122 0
 806 001c 0220     		movs	r0, #2
 807              	.LVL105:
 808 001e FFF7FEFF 		bl	e_get_acc
 809              	.LVL106:
 810              		.loc 1 124 0
 811 0022 019A     		ldr	r2, [sp, #4]
 812 0024 2B68     		ldr	r3, [r5]
 813              		.loc 1 123 0
 814 0026 A060     		str	r0, [r4, #8]
 815              	.LVL107:
 816              		.loc 1 124 0
 817 0028 9A42     		cmp	r2, r3
 818              		.loc 1 123 0
 819 002a C4E90076 		strd	r7, r6, [r4]
 820              		.loc 1 124 0
 821 002e 02D1     		bne	.L76
 822 0030 2046     		mov	r0, r4
 823 0032 03B0     		add	sp, sp, #12
 824              		.cfi_remember_state
 825              		.cfi_def_cfa_offset 20
 826              		@ sp needed
 827 0034 F0BD     		pop	{r4, r5, r6, r7, pc}
 828              	.LVL108:
 829              	.L76:
 830              		.cfi_restore_state
 831 0036 FFF7FEFF 		bl	__stack_chk_fail
 832              	.LVL109:
 833              	.L78:
 834 003a 00BF     		.align	2
 835              	.L77:
 836 003c 00000000 		.word	__stack_chk_guard
 837              		.cfi_endproc
 838              	.LFE263:
 839              		.size	e_read_acc_xyz, .-e_read_acc_xyz
 840              		.section	.text.e_read_acc_x,"ax",%progbits
 841              		.align	1
 842              		.p2align 4,,15
 843              		.global	e_read_acc_x
 844              		.syntax unified
 845              		.thumb
 846              		.thumb_func
 847              		.fpu fpv4-sp-d16
 848              		.type	e_read_acc_x, %function
 849              	e_read_acc_x:
 850              	.LFB264:
 851              		.loc 1 127 0
 852              		.cfi_startproc
 853              		@ args = 0, pretend = 0, frame = 8
 854              		@ frame_needed = 0, uses_anonymous_args = 0
 855 0000 00B5     		push	{lr}
ARM GAS  C:\Users\osour\AppData\Local\Temp\cc5WlC9V.s 			page 16


 856              		.cfi_def_cfa_offset 4
 857              		.cfi_offset 14, -4
 858 0002 084B     		ldr	r3, .L84
 859 0004 83B0     		sub	sp, sp, #12
 860              		.cfi_def_cfa_offset 16
 861              		.loc 1 127 0
 862 0006 1A68     		ldr	r2, [r3]
 863 0008 0192     		str	r2, [sp, #4]
 864              		.loc 1 128 0
 865 000a 019A     		ldr	r2, [sp, #4]
 866 000c 1B68     		ldr	r3, [r3]
 867 000e 9A42     		cmp	r2, r3
 868 0010 05D1     		bne	.L83
 869 0012 0020     		movs	r0, #0
 870              		.loc 1 129 0
 871 0014 03B0     		add	sp, sp, #12
 872              		.cfi_remember_state
 873              		.cfi_def_cfa_offset 4
 874              		@ sp needed
 875 0016 5DF804EB 		ldr	lr, [sp], #4
 876              		.cfi_restore 14
 877              		.cfi_def_cfa_offset 0
 878              		.loc 1 128 0
 879 001a FFF7FEBF 		b	e_get_acc
 880              	.LVL110:
 881              	.L83:
 882              		.cfi_restore_state
 883 001e FFF7FEFF 		bl	__stack_chk_fail
 884              	.LVL111:
 885              	.L85:
 886 0022 00BF     		.align	2
 887              	.L84:
 888 0024 00000000 		.word	__stack_chk_guard
 889              		.cfi_endproc
 890              	.LFE264:
 891              		.size	e_read_acc_x, .-e_read_acc_x
 892              		.section	.text.e_read_acc_y,"ax",%progbits
 893              		.align	1
 894              		.p2align 4,,15
 895              		.global	e_read_acc_y
 896              		.syntax unified
 897              		.thumb
 898              		.thumb_func
 899              		.fpu fpv4-sp-d16
 900              		.type	e_read_acc_y, %function
 901              	e_read_acc_y:
 902              	.LFB265:
 903              		.loc 1 132 0
 904              		.cfi_startproc
 905              		@ args = 0, pretend = 0, frame = 8
 906              		@ frame_needed = 0, uses_anonymous_args = 0
 907 0000 00B5     		push	{lr}
 908              		.cfi_def_cfa_offset 4
 909              		.cfi_offset 14, -4
 910 0002 084B     		ldr	r3, .L91
 911 0004 83B0     		sub	sp, sp, #12
 912              		.cfi_def_cfa_offset 16
ARM GAS  C:\Users\osour\AppData\Local\Temp\cc5WlC9V.s 			page 17


 913              		.loc 1 132 0
 914 0006 1A68     		ldr	r2, [r3]
 915 0008 0192     		str	r2, [sp, #4]
 916              		.loc 1 133 0
 917 000a 019A     		ldr	r2, [sp, #4]
 918 000c 1B68     		ldr	r3, [r3]
 919 000e 9A42     		cmp	r2, r3
 920 0010 05D1     		bne	.L90
 921 0012 0120     		movs	r0, #1
 922              		.loc 1 134 0
 923 0014 03B0     		add	sp, sp, #12
 924              		.cfi_remember_state
 925              		.cfi_def_cfa_offset 4
 926              		@ sp needed
 927 0016 5DF804EB 		ldr	lr, [sp], #4
 928              		.cfi_restore 14
 929              		.cfi_def_cfa_offset 0
 930              		.loc 1 133 0
 931 001a FFF7FEBF 		b	e_get_acc
 932              	.LVL112:
 933              	.L90:
 934              		.cfi_restore_state
 935 001e FFF7FEFF 		bl	__stack_chk_fail
 936              	.LVL113:
 937              	.L92:
 938 0022 00BF     		.align	2
 939              	.L91:
 940 0024 00000000 		.word	__stack_chk_guard
 941              		.cfi_endproc
 942              	.LFE265:
 943              		.size	e_read_acc_y, .-e_read_acc_y
 944              		.section	.text.e_read_acc_z,"ax",%progbits
 945              		.align	1
 946              		.p2align 4,,15
 947              		.global	e_read_acc_z
 948              		.syntax unified
 949              		.thumb
 950              		.thumb_func
 951              		.fpu fpv4-sp-d16
 952              		.type	e_read_acc_z, %function
 953              	e_read_acc_z:
 954              	.LFB266:
 955              		.loc 1 137 0
 956              		.cfi_startproc
 957              		@ args = 0, pretend = 0, frame = 8
 958              		@ frame_needed = 0, uses_anonymous_args = 0
 959 0000 00B5     		push	{lr}
 960              		.cfi_def_cfa_offset 4
 961              		.cfi_offset 14, -4
 962 0002 084B     		ldr	r3, .L98
 963 0004 83B0     		sub	sp, sp, #12
 964              		.cfi_def_cfa_offset 16
 965              		.loc 1 137 0
 966 0006 1A68     		ldr	r2, [r3]
 967 0008 0192     		str	r2, [sp, #4]
 968              		.loc 1 138 0
 969 000a 019A     		ldr	r2, [sp, #4]
ARM GAS  C:\Users\osour\AppData\Local\Temp\cc5WlC9V.s 			page 18


 970 000c 1B68     		ldr	r3, [r3]
 971 000e 9A42     		cmp	r2, r3
 972 0010 05D1     		bne	.L97
 973 0012 0220     		movs	r0, #2
 974              		.loc 1 139 0
 975 0014 03B0     		add	sp, sp, #12
 976              		.cfi_remember_state
 977              		.cfi_def_cfa_offset 4
 978              		@ sp needed
 979 0016 5DF804EB 		ldr	lr, [sp], #4
 980              		.cfi_restore 14
 981              		.cfi_def_cfa_offset 0
 982              		.loc 1 138 0
 983 001a FFF7FEBF 		b	e_get_acc
 984              	.LVL114:
 985              	.L97:
 986              		.cfi_restore_state
 987 001e FFF7FEFF 		bl	__stack_chk_fail
 988              	.LVL115:
 989              	.L99:
 990 0022 00BF     		.align	2
 991              	.L98:
 992 0024 00000000 		.word	__stack_chk_guard
 993              		.cfi_endproc
 994              	.LFE266:
 995              		.size	e_read_acc_z, .-e_read_acc_z
 996              		.section	.text.e_display_angle,"ax",%progbits
 997              		.align	1
 998              		.p2align 4,,15
 999              		.global	e_display_angle
 1000              		.syntax unified
 1001              		.thumb
 1002              		.thumb_func
 1003              		.fpu fpv4-sp-d16
 1004              		.type	e_display_angle, %function
 1005              	e_display_angle:
 1006              	.LFB267:
 1007              		.loc 1 142 0
 1008              		.cfi_startproc
 1009              		@ args = 0, pretend = 0, frame = 8
 1010              		@ frame_needed = 0, uses_anonymous_args = 0
 1011 0000 30B5     		push	{r4, r5, lr}
 1012              		.cfi_def_cfa_offset 12
 1013              		.cfi_offset 4, -12
 1014              		.cfi_offset 5, -8
 1015              		.cfi_offset 14, -4
 1016 0002 2DED028B 		vpush.64	{d8}
 1017              		.cfi_def_cfa_offset 20
 1018              		.cfi_offset 80, -20
 1019              		.cfi_offset 81, -16
 1020 0006 684C     		ldr	r4, .L153
 1021              		.loc 1 148 0
 1022 0008 684D     		ldr	r5, .L153+4
 1023              		.loc 1 142 0
 1024 000a 2368     		ldr	r3, [r4]
 1025 000c 83B0     		sub	sp, sp, #12
 1026              		.cfi_def_cfa_offset 32
ARM GAS  C:\Users\osour\AppData\Local\Temp\cc5WlC9V.s 			page 19


 1027              		.loc 1 142 0
 1028 000e 0193     		str	r3, [sp, #4]
 1029              	.LVL116:
 1030              		.loc 1 147 0
 1031 0010 FFF7FEFF 		bl	e_read_orientation
 1032              	.LVL117:
 1033              		.loc 1 148 0
 1034 0014 D5ED007A 		vldr.32	s15, [r5]	@ int
 1035 0018 F8EEE77A 		vcvt.f32.s32	s15, s15
 1036 001c B1EE047A 		vmov.f32	s14, #5.0e+0
 1037 0020 77EEC07A 		vsub.f32	s15, s15, s0
 1038 0024 FDEEE77A 		vcvt.s32.f32	s15, s15
 1039 0028 17EE903A 		vmov	r3, s15	@ int
 1040 002c 002B     		cmp	r3, #0
 1041 002e B8BF     		it	lt
 1042 0030 5B42     		rsblt	r3, r3, #0
 1043 0032 07EE903A 		vmov	s15, r3	@ int
 1044 0036 F8EEE77A 		vcvt.f32.s32	s15, s15
 1045 003a F4EEC77A 		vcmpe.f32	s15, s14
 1046 003e F1EE10FA 		vmrs	APSR_nzcv, FPSCR
 1047 0042 08DC     		bgt	.L144
 1048              	.LVL118:
 1049              	.L100:
 1050              		.loc 1 170 0
 1051 0044 019A     		ldr	r2, [sp, #4]
 1052 0046 2368     		ldr	r3, [r4]
 1053 0048 9A42     		cmp	r2, r3
 1054 004a 40F08680 		bne	.L145
 1055 004e 03B0     		add	sp, sp, #12
 1056              		.cfi_remember_state
 1057              		.cfi_def_cfa_offset 20
 1058              		@ sp needed
 1059 0050 BDEC028B 		vldm	sp!, {d8}
 1060              		.cfi_restore 80
 1061              		.cfi_restore 81
 1062              		.cfi_def_cfa_offset 12
 1063 0054 30BD     		pop	{r4, r5, pc}
 1064              	.LVL119:
 1065              	.L144:
 1066              		.cfi_restore_state
 1067 0056 B0EE408A 		vmov.f32	s16, s0
 1068              		.loc 1 150 0
 1069 005a FFF7FEFF 		bl	e_led_clear
 1070              	.LVL120:
 1071              		.loc 1 152 0
 1072 005e DFED547A 		vldr.32	s15, .L153+8
 1073 0062 B4EEE78A 		vcmpe.f32	s16, s15
 1074 0066 F1EE10FA 		vmrs	APSR_nzcv, FPSCR
 1075 006a 41DC     		bgt	.L128
 1076 006c DFED517A 		vldr.32	s15, .L153+12
 1077 0070 B4EE678A 		vcmp.f32	s16, s15
 1078 0074 F1EE10FA 		vmrs	APSR_nzcv, FPSCR
 1079 0078 3AD9     		bls	.L128
 1080              		.loc 1 154 0
 1081 007a B4EEE78A 		vcmpe.f32	s16, s15
 1082 007e F1EE10FA 		vmrs	APSR_nzcv, FPSCR
 1083 0082 52DC     		bgt	.L146
ARM GAS  C:\Users\osour\AppData\Local\Temp\cc5WlC9V.s 			page 20


 1084              	.L106:
 1085              		.loc 1 156 0
 1086 0084 DFED4C7A 		vldr.32	s15, .L153+16
 1087 0088 B4EEE78A 		vcmpe.f32	s16, s15
 1088 008c F1EE10FA 		vmrs	APSR_nzcv, FPSCR
 1089 0090 57DC     		bgt	.L147
 1090              	.L109:
 1091              		.loc 1 158 0
 1092 0092 DFED4A7A 		vldr.32	s15, .L153+20
 1093 0096 B4EEE78A 		vcmpe.f32	s16, s15
 1094 009a F1EE10FA 		vmrs	APSR_nzcv, FPSCR
 1095 009e 5EDC     		bgt	.L148
 1096              	.L112:
 1097              		.loc 1 160 0
 1098 00a0 DFED477A 		vldr.32	s15, .L153+24
 1099 00a4 B4EEE78A 		vcmpe.f32	s16, s15
 1100 00a8 F1EE10FA 		vmrs	APSR_nzcv, FPSCR
 1101 00ac 31DC     		bgt	.L149
 1102              	.L115:
 1103              		.loc 1 162 0
 1104 00ae DFED457A 		vldr.32	s15, .L153+28
 1105 00b2 B4EEE78A 		vcmpe.f32	s16, s15
 1106 00b6 F1EE10FA 		vmrs	APSR_nzcv, FPSCR
 1107 00ba 68DC     		bgt	.L150
 1108              	.L118:
 1109              		.loc 1 164 0
 1110 00bc DFED427A 		vldr.32	s15, .L153+32
 1111 00c0 B4EEE78A 		vcmpe.f32	s16, s15
 1112 00c4 F1EE10FA 		vmrs	APSR_nzcv, FPSCR
 1113 00c8 55DC     		bgt	.L151
 1114              	.L121:
 1115              		.loc 1 166 0
 1116 00ca DFED407A 		vldr.32	s15, .L153+36
 1117 00ce B4EEE78A 		vcmpe.f32	s16, s15
 1118 00d2 F1EE10FA 		vmrs	APSR_nzcv, FPSCR
 1119 00d6 12DD     		ble	.L105
 1120              		.loc 1 166 0 is_stmt 0 discriminator 1
 1121 00d8 DFED357A 		vldr.32	s15, .L153+8
 1122 00dc B4EEE78A 		vcmpe.f32	s16, s15
 1123 00e0 F1EE10FA 		vmrs	APSR_nzcv, FPSCR
 1124 00e4 0BD8     		bhi	.L105
 1125              		.loc 1 167 0 is_stmt 1
 1126 00e6 0121     		movs	r1, #1
 1127 00e8 0846     		mov	r0, r1
 1128 00ea FFF7FEFF 		bl	e_set_led
 1129              	.LVL121:
 1130 00ee 06E0     		b	.L105
 1131              	.L128:
 1132              		.loc 1 152 0 discriminator 1
 1133 00f0 DFED377A 		vldr.32	s15, .L153+40
 1134 00f4 B4EE678A 		vcmp.f32	s16, s15
 1135 00f8 F1EE10FA 		vmrs	APSR_nzcv, FPSCR
 1136 00fc 04D1     		bne	.L152
 1137              	.L105:
 1138              		.loc 1 168 0
 1139 00fe BDEEC88A 		vcvt.s32.f32	s16, s16
 1140              	.LVL122:
ARM GAS  C:\Users\osour\AppData\Local\Temp\cc5WlC9V.s 			page 21


 1141 0102 85ED008A 		vstr.32	s16, [r5]	@ int
 1142              		.loc 1 170 0
 1143 0106 9DE7     		b	.L100
 1144              	.LVL123:
 1145              	.L152:
 1146              		.loc 1 153 0
 1147 0108 0121     		movs	r1, #1
 1148 010a 0020     		movs	r0, #0
 1149 010c FFF7FEFF 		bl	e_set_led
 1150              	.LVL124:
 1151 0110 F5E7     		b	.L105
 1152              	.L149:
 1153              		.loc 1 160 0 discriminator 1
 1154 0112 DFED2C7A 		vldr.32	s15, .L153+28
 1155 0116 B4EEE78A 		vcmpe.f32	s16, s15
 1156 011a F1EE10FA 		vmrs	APSR_nzcv, FPSCR
 1157 011e C6D8     		bhi	.L115
 1158              		.loc 1 161 0
 1159 0120 0121     		movs	r1, #1
 1160 0122 0420     		movs	r0, #4
 1161 0124 FFF7FEFF 		bl	e_set_led
 1162              	.LVL125:
 1163 0128 E9E7     		b	.L105
 1164              	.L146:
 1165              		.loc 1 154 0 discriminator 1
 1166 012a DFED237A 		vldr.32	s15, .L153+16
 1167 012e B4EEE78A 		vcmpe.f32	s16, s15
 1168 0132 F1EE10FA 		vmrs	APSR_nzcv, FPSCR
 1169 0136 A5D8     		bhi	.L106
 1170              		.loc 1 155 0
 1171 0138 0121     		movs	r1, #1
 1172 013a 0720     		movs	r0, #7
 1173 013c FFF7FEFF 		bl	e_set_led
 1174              	.LVL126:
 1175 0140 DDE7     		b	.L105
 1176              	.L147:
 1177              		.loc 1 156 0 discriminator 1
 1178 0142 DFED1E7A 		vldr.32	s15, .L153+20
 1179 0146 B4EEE78A 		vcmpe.f32	s16, s15
 1180 014a F1EE10FA 		vmrs	APSR_nzcv, FPSCR
 1181 014e A0D8     		bhi	.L109
 1182              		.loc 1 157 0
 1183 0150 0121     		movs	r1, #1
 1184 0152 0620     		movs	r0, #6
 1185 0154 FFF7FEFF 		bl	e_set_led
 1186              	.LVL127:
 1187 0158 D1E7     		b	.L105
 1188              	.LVL128:
 1189              	.L145:
 1190              		.loc 1 170 0
 1191 015a FFF7FEFF 		bl	__stack_chk_fail
 1192              	.LVL129:
 1193              	.L148:
 1194              		.loc 1 158 0 discriminator 1
 1195 015e DFED187A 		vldr.32	s15, .L153+24
 1196 0162 B4EEE78A 		vcmpe.f32	s16, s15
 1197 0166 F1EE10FA 		vmrs	APSR_nzcv, FPSCR
ARM GAS  C:\Users\osour\AppData\Local\Temp\cc5WlC9V.s 			page 22


 1198 016a 99D8     		bhi	.L112
 1199              		.loc 1 159 0
 1200 016c 0121     		movs	r1, #1
 1201 016e 0520     		movs	r0, #5
 1202 0170 FFF7FEFF 		bl	e_set_led
 1203              	.LVL130:
 1204 0174 C3E7     		b	.L105
 1205              	.L151:
 1206              		.loc 1 164 0 discriminator 1
 1207 0176 DFED157A 		vldr.32	s15, .L153+36
 1208 017a B4EEE78A 		vcmpe.f32	s16, s15
 1209 017e F1EE10FA 		vmrs	APSR_nzcv, FPSCR
 1210 0182 A2D8     		bhi	.L121
 1211              		.loc 1 165 0
 1212 0184 0121     		movs	r1, #1
 1213 0186 0220     		movs	r0, #2
 1214 0188 FFF7FEFF 		bl	e_set_led
 1215              	.LVL131:
 1216 018c B7E7     		b	.L105
 1217              	.L150:
 1218              		.loc 1 162 0 discriminator 1
 1219 018e DFED0E7A 		vldr.32	s15, .L153+32
 1220 0192 B4EEE78A 		vcmpe.f32	s16, s15
 1221 0196 F1EE10FA 		vmrs	APSR_nzcv, FPSCR
 1222 019a 8FD8     		bhi	.L118
 1223              		.loc 1 163 0
 1224 019c 0121     		movs	r1, #1
 1225 019e 0320     		movs	r0, #3
 1226 01a0 FFF7FEFF 		bl	e_set_led
 1227              	.LVL132:
 1228 01a4 ABE7     		b	.L105
 1229              	.L154:
 1230 01a6 00BF     		.align	2
 1231              	.L153:
 1232 01a8 00000000 		.word	__stack_chk_guard
 1233 01ac 00000000 		.word	.LANCHOR0
 1234 01b0 00C0A843 		.word	1135132672
 1235 01b4 0000B441 		.word	1102315520
 1236 01b8 00008742 		.word	1116143616
 1237 01bc 0000E142 		.word	1122041856
 1238 01c0 00801D43 		.word	1126006784
 1239 01c4 00804A43 		.word	1128955904
 1240 01c8 00807743 		.word	1131905024
 1241 01cc 00409243 		.word	1133658112
 1242 01d0 00802644 		.word	1143373824
 1243              		.cfi_endproc
 1244              	.LFE267:
 1245              		.size	e_display_angle, .-e_display_angle
 1246              		.section	.bss.angle_mem,"aw",%nobits
 1247              		.align	2
 1248              		.set	.LANCHOR0,. + 0
 1249              		.type	angle_mem, %object
 1250              		.size	angle_mem, 4
 1251              	angle_mem:
 1252 0000 00000000 		.space	4
 1253              		.text
 1254              	.Letext0:
ARM GAS  C:\Users\osour\AppData\Local\Temp\cc5WlC9V.s 			page 23


 1255              		.file 2 "c:\\users\\osour\\desktop\\robotique\\eclipse_e-puck2\\tools\\gcc-arm-none-eabi-7-2017-q4
 1256              		.file 3 "c:\\users\\osour\\desktop\\robotique\\eclipse_e-puck2\\tools\\gcc-arm-none-eabi-7-2017-q4
 1257              		.file 4 "c:\\users\\osour\\desktop\\robotique\\eclipse_e-puck2\\tools\\gcc-arm-none-eabi-7-2017-q4
 1258              		.file 5 "c:\\users\\osour\\desktop\\robotique\\eclipse_e-puck2\\tools\\gcc-arm-none-eabi-7-2017-q4
 1259              		.file 6 "c:\\users\\osour\\desktop\\robotique\\eclipse_e-puck2\\tools\\gcc-arm-none-eabi-7-2017-q4
 1260              		.file 7 "c:\\users\\osour\\desktop\\robotique\\eclipse_e-puck2\\tools\\gcc-arm-none-eabi-7-2017-q4
 1261              		.file 8 "../../lib/e-puck2_main-processor/src/epuck1x/a_d/advance_ad_scan/e_acc.h"
 1262              		.file 9 "c:\\users\\osour\\desktop\\robotique\\eclipse_e-puck2\\tools\\gcc-arm-none-eabi-7-2017-q4
 1263              		.file 10 "../../lib/e-puck2_main-processor/ChibiOS//os/rt/ports/ARMCMx/compilers/GCC/chtypes.h"
 1264              		.file 11 "../../lib/e-puck2_main-processor/ChibiOS//os/rt/include/chsystypes.h"
 1265              		.file 12 "../../lib/e-puck2_main-processor/ChibiOS//os/rt/include/chschd.h"
 1266              		.file 13 "../../lib/e-puck2_main-processor/ChibiOS//os/ext/CMSIS/include/core_cm4.h"
 1267              		.file 14 "../../lib/e-puck2_main-processor/ChibiOS//os/ext/CMSIS/ST/system_stm32f4xx.h"
 1268              		.file 15 "../../lib/e-puck2_main-processor/ChibiOS//os/ext/CMSIS/ST/stm32f407xx.h"
 1269              		.file 16 "../../lib/e-puck2_main-processor/ChibiOS//os/rt/ports/ARMCMx/chcore.h"
 1270              		.file 17 "../../lib/e-puck2_main-processor/ChibiOS//os/rt/ports/ARMCMx/chcore_v7m.h"
 1271              		.file 18 "../../lib/e-puck2_main-processor/ChibiOS//os/rt/include/chdebug.h"
 1272              		.file 19 "../../lib/e-puck2_main-processor/ChibiOS//os/rt/include/chtm.h"
 1273              		.file 20 "../../lib/e-puck2_main-processor/ChibiOS//os/rt/include/chstats.h"
 1274              		.file 21 "../../lib/e-puck2_main-processor/ChibiOS//os/rt/include/chsem.h"
 1275              		.file 22 "../../lib/e-puck2_main-processor/ChibiOS//os/rt/include/chmtx.h"
 1276              		.file 23 "../../lib/e-puck2_main-processor/ChibiOS//os/rt/include/chregistry.h"
 1277              		.file 24 "../../lib/e-puck2_main-processor/ChibiOS//os/rt/include/chevents.h"
 1278              		.file 25 "../../lib/e-puck2_main-processor/ChibiOS//os/rt/include/chqueues.h"
 1279              		.file 26 "../../lib/e-puck2_main-processor/ChibiOS//os/hal/ports/STM32/STM32F4xx/stm32_dma.h"
 1280              		.file 27 "../../lib/e-puck2_main-processor/ChibiOS//os/hal/include/hal_ioblock.h"
 1281              		.file 28 "../../lib/e-puck2_main-processor/ChibiOS//os/hal/ports/STM32/LLD/GPIOv2/pal_lld.h"
 1282              		.file 29 "../../lib/e-puck2_main-processor/ChibiOS//os/hal/include/adc.h"
 1283              		.file 30 "../../lib/e-puck2_main-processor/ChibiOS//os/hal/ports/STM32/STM32F4xx/adc_lld.h"
 1284              		.file 31 "../../lib/e-puck2_main-processor/ChibiOS//os/hal/include/can.h"
 1285              		.file 32 "../../lib/e-puck2_main-processor/ChibiOS//os/hal/ports/STM32/LLD/can_lld.h"
 1286              		.file 33 "../../lib/e-puck2_main-processor/ChibiOS//os/hal/include/dac.h"
 1287              		.file 34 "../../lib/e-puck2_main-processor/ChibiOS//os/hal/ports/STM32/LLD/DACv1/dac_lld.h"
 1288              		.file 35 "../../lib/e-puck2_main-processor/ChibiOS//os/hal/include/ext.h"
 1289              		.file 36 "../../lib/e-puck2_main-processor/ChibiOS//os/hal/ports/STM32/LLD/ext_lld.h"
 1290              		.file 37 "../../lib/e-puck2_main-processor/ChibiOS//os/hal/include/gpt.h"
 1291              		.file 38 "../../lib/e-puck2_main-processor/ChibiOS//os/hal/ports/STM32/LLD/TIMv1/gpt_lld.h"
 1292              		.file 39 "../../lib/e-puck2_main-processor/ChibiOS//os/hal/ports/STM32/LLD/TIMv1/stm32_tim.h"
 1293              		.file 40 "../../lib/e-puck2_main-processor/ChibiOS//os/hal/include/i2c.h"
 1294              		.file 41 "../../lib/e-puck2_main-processor/ChibiOS//os/hal/ports/STM32/LLD/I2Cv1/i2c_lld.h"
 1295              		.file 42 "../../lib/e-puck2_main-processor/ChibiOS//os/hal/include/i2s.h"
 1296              		.file 43 "../../lib/e-puck2_main-processor/ChibiOS//os/hal/ports/STM32/LLD/SPIv1/i2s_lld.h"
 1297              		.file 44 "../../lib/e-puck2_main-processor/ChibiOS//os/hal/include/pwm.h"
 1298              		.file 45 "../../lib/e-puck2_main-processor/ChibiOS//os/hal/ports/STM32/LLD/TIMv1/pwm_lld.h"
 1299              		.file 46 "../../lib/e-puck2_main-processor/ChibiOS//os/hal/include/serial.h"
 1300              		.file 47 "../../lib/e-puck2_main-processor/ChibiOS//os/hal/ports/STM32/LLD/USARTv1/serial_lld.h"
 1301              		.file 48 "../../lib/e-puck2_main-processor/ChibiOS//os/hal/include/sdc.h"
 1302              		.file 49 "../../lib/e-puck2_main-processor/ChibiOS//os/hal/ports/STM32/LLD/sdc_lld.h"
 1303              		.file 50 "../../lib/e-puck2_main-processor/ChibiOS//os/hal/include/spi.h"
 1304              		.file 51 "../../lib/e-puck2_main-processor/ChibiOS//os/hal/ports/STM32/LLD/SPIv1/spi_lld.h"
 1305              		.file 52 "../../lib/e-puck2_main-processor/ChibiOS//os/hal/include/usb.h"
 1306              		.file 53 "../../lib/e-puck2_main-processor/ChibiOS//os/hal/ports/STM32/LLD/OTGv1/usb_lld.h"
 1307              		.file 54 "../../lib/e-puck2_main-processor/ChibiOS//os/hal/ports/STM32/LLD/OTGv1/stm32_otg.h"
 1308              		.file 55 "c:\\users\\osour\\desktop\\robotique\\eclipse_e-puck2\\tools\\gcc-arm-none-eabi-7-2017-q
 1309              		.file 56 "../../lib/e-puck2_main-processor/src/epuck1x/motor_led/advance_one_timer/e_led.h"
 1310              		.file 57 "../../lib/e-puck2_main-processor/src/sensors/imu.h"