ARM GAS  C:\Users\osour\AppData\Local\Temp\ccydQDYh.s 			page 1


   1              		.cpu cortex-m4
   2              		.eabi_attribute 27, 1
   3              		.eabi_attribute 28, 1
   4              		.eabi_attribute 20, 1
   5              		.eabi_attribute 21, 1
   6              		.eabi_attribute 23, 3
   7              		.eabi_attribute 24, 1
   8              		.eabi_attribute 25, 1
   9              		.eabi_attribute 26, 1
  10              		.eabi_attribute 30, 2
  11              		.eabi_attribute 34, 1
  12              		.eabi_attribute 18, 4
  13              		.file	"ext.c"
  14              		.text
  15              	.Ltext0:
  16              		.cfi_sections	.debug_frame
  17              		.section	.text.extInit,"ax",%progbits
  18              		.align	1
  19              		.p2align 4,,15
  20              		.global	extInit
  21              		.syntax unified
  22              		.thumb
  23              		.thumb_func
  24              		.fpu fpv4-sp-d16
  25              		.type	extInit, %function
  26              	extInit:
  27              	.LFB256:
  28              		.file 1 "../../lib/e-puck2_main-processor/ChibiOS//os/hal/src/ext.c"
  29              		.loc 1 56 0
  30              		.cfi_startproc
  31              		@ args = 0, pretend = 0, frame = 8
  32              		@ frame_needed = 0, uses_anonymous_args = 0
  33 0000 00B5     		push	{lr}
  34              		.cfi_def_cfa_offset 4
  35              		.cfi_offset 14, -4
  36 0002 074B     		ldr	r3, .L7
  37 0004 83B0     		sub	sp, sp, #12
  38              		.cfi_def_cfa_offset 16
  39              		.loc 1 56 0
  40 0006 1A68     		ldr	r2, [r3]
  41 0008 0192     		str	r2, [sp, #4]
  42              		.loc 1 58 0
  43 000a 019A     		ldr	r2, [sp, #4]
  44 000c 1B68     		ldr	r3, [r3]
  45 000e 9A42     		cmp	r2, r3
  46 0010 04D1     		bne	.L6
  47              		.loc 1 59 0
  48 0012 03B0     		add	sp, sp, #12
  49              		.cfi_remember_state
  50              		.cfi_def_cfa_offset 4
  51              		@ sp needed
  52 0014 5DF804EB 		ldr	lr, [sp], #4
  53              		.cfi_restore 14
  54              		.cfi_def_cfa_offset 0
  55              		.loc 1 58 0
  56 0018 FFF7FEBF 		b	ext_lld_init
  57              	.LVL0:
ARM GAS  C:\Users\osour\AppData\Local\Temp\ccydQDYh.s 			page 2


  58              	.L6:
  59              		.cfi_restore_state
  60 001c FFF7FEFF 		bl	__stack_chk_fail
  61              	.LVL1:
  62              	.L8:
  63              		.align	2
  64              	.L7:
  65 0020 00000000 		.word	__stack_chk_guard
  66              		.cfi_endproc
  67              	.LFE256:
  68              		.size	extInit, .-extInit
  69              		.section	.text.extObjectInit,"ax",%progbits
  70              		.align	1
  71              		.p2align 4,,15
  72              		.global	extObjectInit
  73              		.syntax unified
  74              		.thumb
  75              		.thumb_func
  76              		.fpu fpv4-sp-d16
  77              		.type	extObjectInit, %function
  78              	extObjectInit:
  79              	.LFB257:
  80              		.loc 1 68 0
  81              		.cfi_startproc
  82              		@ args = 0, pretend = 0, frame = 8
  83              		@ frame_needed = 0, uses_anonymous_args = 0
  84              	.LVL2:
  85 0000 00B5     		push	{lr}
  86              		.cfi_def_cfa_offset 4
  87              		.cfi_offset 14, -4
  88 0002 084B     		ldr	r3, .L13
  89 0004 83B0     		sub	sp, sp, #12
  90              		.cfi_def_cfa_offset 16
  91              		.loc 1 68 0
  92 0006 1A68     		ldr	r2, [r3]
  93 0008 0192     		str	r2, [sp, #4]
  94              		.loc 1 70 0
  95 000a 0122     		movs	r2, #1
  96 000c 0270     		strb	r2, [r0]
  97              		.loc 1 72 0
  98 000e 019A     		ldr	r2, [sp, #4]
  99 0010 1B68     		ldr	r3, [r3]
 100              		.loc 1 71 0
 101 0012 0021     		movs	r1, #0
 102              		.loc 1 72 0
 103 0014 9A42     		cmp	r2, r3
 104              		.loc 1 71 0
 105 0016 4160     		str	r1, [r0, #4]
 106              		.loc 1 72 0
 107 0018 02D1     		bne	.L12
 108 001a 03B0     		add	sp, sp, #12
 109              		.cfi_remember_state
 110              		.cfi_def_cfa_offset 4
 111              		@ sp needed
 112 001c 5DF804FB 		ldr	pc, [sp], #4
 113              	.L12:
 114              		.cfi_restore_state
ARM GAS  C:\Users\osour\AppData\Local\Temp\ccydQDYh.s 			page 3


 115 0020 FFF7FEFF 		bl	__stack_chk_fail
 116              	.LVL3:
 117              	.L14:
 118              		.align	2
 119              	.L13:
 120 0024 00000000 		.word	__stack_chk_guard
 121              		.cfi_endproc
 122              	.LFE257:
 123              		.size	extObjectInit, .-extObjectInit
 124              		.section	.text.extStart,"ax",%progbits
 125              		.align	1
 126              		.p2align 4,,15
 127              		.global	extStart
 128              		.syntax unified
 129              		.thumb
 130              		.thumb_func
 131              		.fpu fpv4-sp-d16
 132              		.type	extStart, %function
 133              	extStart:
 134              	.LFB258:
 135              		.loc 1 84 0
 136              		.cfi_startproc
 137              		@ args = 0, pretend = 0, frame = 8
 138              		@ frame_needed = 0, uses_anonymous_args = 0
 139              	.LVL4:
 140 0000 70B5     		push	{r4, r5, r6, lr}
 141              		.cfi_def_cfa_offset 16
 142              		.cfi_offset 4, -16
 143              		.cfi_offset 5, -12
 144              		.cfi_offset 6, -8
 145              		.cfi_offset 14, -4
 146 0002 1E4D     		ldr	r5, .L27
 147 0004 82B0     		sub	sp, sp, #8
 148              		.cfi_def_cfa_offset 24
 149              		.loc 1 84 0
 150 0006 2B68     		ldr	r3, [r5]
 151 0008 0193     		str	r3, [sp, #4]
 152 000a 0E46     		mov	r6, r1
 153              		.loc 1 86 0
 154 000c 0446     		mov	r4, r0
 155 000e 70B3     		cbz	r0, .L16
 156              		.loc 1 86 0 is_stmt 0 discriminator 3
 157 0010 69B3     		cbz	r1, .L16
 158              	.LVL5:
 159              	.L17:
 160              	.LBB68:
 161              	.LBB69:
 162              	.LBB70:
 163              	.LBB71:
 164              	.LBB72:
 165              	.LBB73:
 166              		.file 2 "../../lib/e-puck2_main-processor/ChibiOS//os/ext/CMSIS/include/core_cmFunc.h"
 167              		.loc 2 546 0 is_stmt 1
 168 0012 2023     		movs	r3, #32
 169              		.syntax unified
 170              	@ 546 "../../lib/e-puck2_main-processor/ChibiOS//os/ext/CMSIS/include/core_cmFunc.h" 1
 171 0014 83F31188 		MSR basepri, r3
ARM GAS  C:\Users\osour\AppData\Local\Temp\ccydQDYh.s 			page 4


 172              	@ 0 "" 2
 173              	.LVL6:
 174              		.thumb
 175              		.syntax unified
 176              	.LBE73:
 177              	.LBE72:
 178              	.LBE71:
 179              		.file 3 "../../lib/e-puck2_main-processor/ChibiOS//os/rt/include/chsys.h"
 180              		.loc 3 349 0
 181 0018 FFF7FEFF 		bl	_stats_start_measure_crit_thd
 182              	.LVL7:
 183              		.loc 3 350 0
 184 001c FFF7FEFF 		bl	_dbg_check_lock
 185              	.LVL8:
 186              	.LBE70:
 187              	.LBE69:
 188              	.LBE68:
 189              		.loc 1 89 0
 190 0020 2378     		ldrb	r3, [r4]	@ zero_extendqisi2
 191 0022 013B     		subs	r3, r3, #1
 192 0024 012B     		cmp	r3, #1
 193 0026 02D9     		bls	.L18
 194              		.loc 1 89 0 is_stmt 0 discriminator 2
 195 0028 1548     		ldr	r0, .L27+4
 196 002a FFF7FEFF 		bl	chSysHalt
 197              	.LVL9:
 198              	.L18:
 199              		.loc 1 92 0 is_stmt 1
 200 002e 2046     		mov	r0, r4
 201              		.loc 1 91 0
 202 0030 6660     		str	r6, [r4, #4]
 203              		.loc 1 92 0
 204 0032 FFF7FEFF 		bl	ext_lld_start
 205              	.LVL10:
 206              		.loc 1 93 0
 207 0036 0223     		movs	r3, #2
 208 0038 2370     		strb	r3, [r4]
 209              	.LBB74:
 210              	.LBB75:
 211              	.LBB76:
 212              		.loc 3 360 0
 213 003a FFF7FEFF 		bl	_dbg_check_unlock
 214              	.LVL11:
 215              		.loc 3 361 0
 216 003e FFF7FEFF 		bl	_stats_stop_measure_crit_thd
 217              	.LVL12:
 218              		.loc 3 367 0
 219 0042 104B     		ldr	r3, .L27+8
 220 0044 1A68     		ldr	r2, [r3]
 221 0046 9A42     		cmp	r2, r3
 222 0048 04D0     		beq	.L19
 223 004a 9969     		ldr	r1, [r3, #24]
 224 004c 9368     		ldr	r3, [r2, #8]
 225 004e 8A68     		ldr	r2, [r1, #8]
 226 0050 9A42     		cmp	r2, r3
 227 0052 08D3     		bcc	.L25
 228              	.L19:
ARM GAS  C:\Users\osour\AppData\Local\Temp\ccydQDYh.s 			page 5


 229              	.LVL13:
 230              	.LBB77:
 231              	.LBB78:
 232              	.LBB79:
 233              		.loc 2 546 0
 234 0054 0023     		movs	r3, #0
 235              		.syntax unified
 236              	@ 546 "../../lib/e-puck2_main-processor/ChibiOS//os/ext/CMSIS/include/core_cmFunc.h" 1
 237 0056 83F31188 		MSR basepri, r3
 238              	@ 0 "" 2
 239              	.LVL14:
 240              		.thumb
 241              		.syntax unified
 242              	.LBE79:
 243              	.LBE78:
 244              	.LBE77:
 245              	.LBE76:
 246              	.LBE75:
 247              	.LBE74:
 248              		.loc 1 95 0
 249 005a 019A     		ldr	r2, [sp, #4]
 250 005c 2B68     		ldr	r3, [r5]
 251 005e 9A42     		cmp	r2, r3
 252 0060 09D1     		bne	.L26
 253 0062 02B0     		add	sp, sp, #8
 254              		.cfi_remember_state
 255              		.cfi_def_cfa_offset 16
 256              		@ sp needed
 257 0064 70BD     		pop	{r4, r5, r6, pc}
 258              	.LVL15:
 259              	.L25:
 260              		.cfi_restore_state
 261              	.LBB82:
 262              	.LBB81:
 263              	.LBB80:
 264              		.loc 3 367 0
 265 0066 0848     		ldr	r0, .L27+12
 266 0068 FFF7FEFF 		bl	chSysHalt
 267              	.LVL16:
 268 006c F2E7     		b	.L19
 269              	.LVL17:
 270              	.L16:
 271              	.LBE80:
 272              	.LBE81:
 273              	.LBE82:
 274              		.loc 1 86 0 discriminator 4
 275 006e 0448     		ldr	r0, .L27+4
 276              	.LVL18:
 277 0070 FFF7FEFF 		bl	chSysHalt
 278              	.LVL19:
 279 0074 CDE7     		b	.L17
 280              	.L26:
 281              		.loc 1 95 0
 282 0076 FFF7FEFF 		bl	__stack_chk_fail
 283              	.LVL20:
 284              	.L28:
 285 007a 00BF     		.align	2
ARM GAS  C:\Users\osour\AppData\Local\Temp\ccydQDYh.s 			page 6


 286              	.L27:
 287 007c 00000000 		.word	__stack_chk_guard
 288 0080 00000000 		.word	.LANCHOR0
 289 0084 00000000 		.word	ch
 290 0088 00000000 		.word	.LANCHOR1
 291              		.cfi_endproc
 292              	.LFE258:
 293              		.size	extStart, .-extStart
 294              		.section	.text.extStop,"ax",%progbits
 295              		.align	1
 296              		.p2align 4,,15
 297              		.global	extStop
 298              		.syntax unified
 299              		.thumb
 300              		.thumb_func
 301              		.fpu fpv4-sp-d16
 302              		.type	extStop, %function
 303              	extStop:
 304              	.LFB259:
 305              		.loc 1 104 0
 306              		.cfi_startproc
 307              		@ args = 0, pretend = 0, frame = 8
 308              		@ frame_needed = 0, uses_anonymous_args = 0
 309              	.LVL21:
 310 0000 30B5     		push	{r4, r5, lr}
 311              		.cfi_def_cfa_offset 12
 312              		.cfi_offset 4, -12
 313              		.cfi_offset 5, -8
 314              		.cfi_offset 14, -4
 315 0002 1C4D     		ldr	r5, .L38
 316 0004 83B0     		sub	sp, sp, #12
 317              		.cfi_def_cfa_offset 24
 318              		.loc 1 104 0
 319 0006 2B68     		ldr	r3, [r5]
 320 0008 0193     		str	r3, [sp, #4]
 321              		.loc 1 106 0
 322 000a 0446     		mov	r4, r0
 323 000c 60B3     		cbz	r0, .L35
 324              	.LVL22:
 325              	.L30:
 326              	.LBB96:
 327              	.LBB97:
 328              	.LBB98:
 329              	.LBB99:
 330              	.LBB100:
 331              	.LBB101:
 332              		.loc 2 546 0
 333 000e 2023     		movs	r3, #32
 334              		.syntax unified
 335              	@ 546 "../../lib/e-puck2_main-processor/ChibiOS//os/ext/CMSIS/include/core_cmFunc.h" 1
 336 0010 83F31188 		MSR basepri, r3
 337              	@ 0 "" 2
 338              	.LVL23:
 339              		.thumb
 340              		.syntax unified
 341              	.LBE101:
 342              	.LBE100:
ARM GAS  C:\Users\osour\AppData\Local\Temp\ccydQDYh.s 			page 7


 343              	.LBE99:
 344              		.loc 3 349 0
 345 0014 FFF7FEFF 		bl	_stats_start_measure_crit_thd
 346              	.LVL24:
 347              		.loc 3 350 0
 348 0018 FFF7FEFF 		bl	_dbg_check_lock
 349              	.LVL25:
 350              	.LBE98:
 351              	.LBE97:
 352              	.LBE96:
 353              		.loc 1 109 0
 354 001c 2378     		ldrb	r3, [r4]	@ zero_extendqisi2
 355 001e 013B     		subs	r3, r3, #1
 356 0020 012B     		cmp	r3, #1
 357 0022 02D9     		bls	.L31
 358              		.loc 1 109 0 is_stmt 0 discriminator 2
 359 0024 1448     		ldr	r0, .L38+4
 360 0026 FFF7FEFF 		bl	chSysHalt
 361              	.LVL26:
 362              	.L31:
 363              		.loc 1 111 0 is_stmt 1
 364 002a 2046     		mov	r0, r4
 365 002c FFF7FEFF 		bl	ext_lld_stop
 366              	.LVL27:
 367              		.loc 1 112 0
 368 0030 0123     		movs	r3, #1
 369 0032 2370     		strb	r3, [r4]
 370              	.LBB102:
 371              	.LBB103:
 372              	.LBB104:
 373              		.loc 3 360 0
 374 0034 FFF7FEFF 		bl	_dbg_check_unlock
 375              	.LVL28:
 376              		.loc 3 361 0
 377 0038 FFF7FEFF 		bl	_stats_stop_measure_crit_thd
 378              	.LVL29:
 379              		.loc 3 367 0
 380 003c 0F4B     		ldr	r3, .L38+8
 381 003e 1A68     		ldr	r2, [r3]
 382 0040 9A42     		cmp	r2, r3
 383 0042 04D0     		beq	.L32
 384 0044 9969     		ldr	r1, [r3, #24]
 385 0046 9368     		ldr	r3, [r2, #8]
 386 0048 8A68     		ldr	r2, [r1, #8]
 387 004a 9A42     		cmp	r2, r3
 388 004c 08D3     		bcc	.L36
 389              	.L32:
 390              	.LVL30:
 391              	.LBB105:
 392              	.LBB106:
 393              	.LBB107:
 394              		.loc 2 546 0
 395 004e 0023     		movs	r3, #0
 396              		.syntax unified
 397              	@ 546 "../../lib/e-puck2_main-processor/ChibiOS//os/ext/CMSIS/include/core_cmFunc.h" 1
 398 0050 83F31188 		MSR basepri, r3
 399              	@ 0 "" 2
ARM GAS  C:\Users\osour\AppData\Local\Temp\ccydQDYh.s 			page 8


 400              	.LVL31:
 401              		.thumb
 402              		.syntax unified
 403              	.LBE107:
 404              	.LBE106:
 405              	.LBE105:
 406              	.LBE104:
 407              	.LBE103:
 408              	.LBE102:
 409              		.loc 1 114 0
 410 0054 019A     		ldr	r2, [sp, #4]
 411 0056 2B68     		ldr	r3, [r5]
 412 0058 9A42     		cmp	r2, r3
 413 005a 09D1     		bne	.L37
 414 005c 03B0     		add	sp, sp, #12
 415              		.cfi_remember_state
 416              		.cfi_def_cfa_offset 12
 417              		@ sp needed
 418 005e 30BD     		pop	{r4, r5, pc}
 419              	.LVL32:
 420              	.L36:
 421              		.cfi_restore_state
 422              	.LBB110:
 423              	.LBB109:
 424              	.LBB108:
 425              		.loc 3 367 0
 426 0060 0748     		ldr	r0, .L38+12
 427 0062 FFF7FEFF 		bl	chSysHalt
 428              	.LVL33:
 429 0066 F2E7     		b	.L32
 430              	.LVL34:
 431              	.L35:
 432              	.LBE108:
 433              	.LBE109:
 434              	.LBE110:
 435              		.loc 1 106 0 discriminator 2
 436 0068 0348     		ldr	r0, .L38+4
 437              	.LVL35:
 438 006a FFF7FEFF 		bl	chSysHalt
 439              	.LVL36:
 440 006e CEE7     		b	.L30
 441              	.L37:
 442              		.loc 1 114 0
 443 0070 FFF7FEFF 		bl	__stack_chk_fail
 444              	.LVL37:
 445              	.L39:
 446              		.align	2
 447              	.L38:
 448 0074 00000000 		.word	__stack_chk_guard
 449 0078 00000000 		.word	.LANCHOR2
 450 007c 00000000 		.word	ch
 451 0080 00000000 		.word	.LANCHOR1
 452              		.cfi_endproc
 453              	.LFE259:
 454              		.size	extStop, .-extStop
 455              		.section	.text.extChannelEnable,"ax",%progbits
 456              		.align	1
ARM GAS  C:\Users\osour\AppData\Local\Temp\ccydQDYh.s 			page 9


 457              		.p2align 4,,15
 458              		.global	extChannelEnable
 459              		.syntax unified
 460              		.thumb
 461              		.thumb_func
 462              		.fpu fpv4-sp-d16
 463              		.type	extChannelEnable, %function
 464              	extChannelEnable:
 465              	.LFB260:
 466              		.loc 1 125 0
 467              		.cfi_startproc
 468              		@ args = 0, pretend = 0, frame = 8
 469              		@ frame_needed = 0, uses_anonymous_args = 0
 470              	.LVL38:
 471 0000 70B5     		push	{r4, r5, r6, lr}
 472              		.cfi_def_cfa_offset 16
 473              		.cfi_offset 4, -16
 474              		.cfi_offset 5, -12
 475              		.cfi_offset 6, -8
 476              		.cfi_offset 14, -4
 477 0002 1F4E     		ldr	r6, .L53
 478 0004 82B0     		sub	sp, sp, #8
 479              		.cfi_def_cfa_offset 24
 480              		.loc 1 125 0
 481 0006 3368     		ldr	r3, [r6]
 482 0008 0193     		str	r3, [sp, #4]
 483 000a 0D46     		mov	r5, r1
 484              		.loc 1 127 0
 485 000c 0446     		mov	r4, r0
 486 000e 68B3     		cbz	r0, .L41
 487              		.loc 1 127 0 is_stmt 0 discriminator 3
 488 0010 1629     		cmp	r1, #22
 489 0012 2BD8     		bhi	.L41
 490              	.LVL39:
 491              	.L42:
 492              	.LBB124:
 493              	.LBB125:
 494              	.LBB126:
 495              	.LBB127:
 496              	.LBB128:
 497              	.LBB129:
 498              		.loc 2 546 0 is_stmt 1
 499 0014 2023     		movs	r3, #32
 500              		.syntax unified
 501              	@ 546 "../../lib/e-puck2_main-processor/ChibiOS//os/ext/CMSIS/include/core_cmFunc.h" 1
 502 0016 83F31188 		MSR basepri, r3
 503              	@ 0 "" 2
 504              	.LVL40:
 505              		.thumb
 506              		.syntax unified
 507              	.LBE129:
 508              	.LBE128:
 509              	.LBE127:
 510              		.loc 3 349 0
 511 001a FFF7FEFF 		bl	_stats_start_measure_crit_thd
 512              	.LVL41:
 513              		.loc 3 350 0
ARM GAS  C:\Users\osour\AppData\Local\Temp\ccydQDYh.s 			page 10


 514 001e FFF7FEFF 		bl	_dbg_check_lock
 515              	.LVL42:
 516              	.LBE126:
 517              	.LBE125:
 518              	.LBE124:
 519              		.loc 1 130 0
 520 0022 2378     		ldrb	r3, [r4]	@ zero_extendqisi2
 521 0024 022B     		cmp	r3, #2
 522 0026 04D1     		bne	.L43
 523              		.loc 1 130 0 is_stmt 0 discriminator 3
 524 0028 6368     		ldr	r3, [r4, #4]
 525 002a 53F83530 		ldr	r3, [r3, r5, lsl #3]
 526 002e 9B07     		lsls	r3, r3, #30
 527 0030 02D1     		bne	.L44
 528              	.L43:
 529              		.loc 1 130 0 discriminator 4
 530 0032 1448     		ldr	r0, .L53+4
 531 0034 FFF7FEFF 		bl	chSysHalt
 532              	.LVL43:
 533              	.L44:
 534              		.loc 1 134 0 is_stmt 1
 535 0038 2946     		mov	r1, r5
 536 003a 2046     		mov	r0, r4
 537 003c FFF7FEFF 		bl	ext_lld_channel_enable
 538              	.LVL44:
 539              	.LBB130:
 540              	.LBB131:
 541              	.LBB132:
 542              		.loc 3 360 0
 543 0040 FFF7FEFF 		bl	_dbg_check_unlock
 544              	.LVL45:
 545              		.loc 3 361 0
 546 0044 FFF7FEFF 		bl	_stats_stop_measure_crit_thd
 547              	.LVL46:
 548              		.loc 3 367 0
 549 0048 0F4B     		ldr	r3, .L53+8
 550 004a 1A68     		ldr	r2, [r3]
 551 004c 9A42     		cmp	r2, r3
 552 004e 04D0     		beq	.L45
 553 0050 9969     		ldr	r1, [r3, #24]
 554 0052 9368     		ldr	r3, [r2, #8]
 555 0054 8A68     		ldr	r2, [r1, #8]
 556 0056 9A42     		cmp	r2, r3
 557 0058 0CD3     		bcc	.L51
 558              	.L45:
 559              	.LVL47:
 560              	.LBB133:
 561              	.LBB134:
 562              	.LBB135:
 563              		.loc 2 546 0
 564 005a 0023     		movs	r3, #0
 565              		.syntax unified
 566              	@ 546 "../../lib/e-puck2_main-processor/ChibiOS//os/ext/CMSIS/include/core_cmFunc.h" 1
 567 005c 83F31188 		MSR basepri, r3
 568              	@ 0 "" 2
 569              	.LVL48:
 570              		.thumb
ARM GAS  C:\Users\osour\AppData\Local\Temp\ccydQDYh.s 			page 11


 571              		.syntax unified
 572              	.LBE135:
 573              	.LBE134:
 574              	.LBE133:
 575              	.LBE132:
 576              	.LBE131:
 577              	.LBE130:
 578              		.loc 1 136 0
 579 0060 019A     		ldr	r2, [sp, #4]
 580 0062 3368     		ldr	r3, [r6]
 581 0064 9A42     		cmp	r2, r3
 582 0066 09D1     		bne	.L52
 583 0068 02B0     		add	sp, sp, #8
 584              		.cfi_remember_state
 585              		.cfi_def_cfa_offset 16
 586              		@ sp needed
 587 006a 70BD     		pop	{r4, r5, r6, pc}
 588              	.LVL49:
 589              	.L41:
 590              		.cfi_restore_state
 591              		.loc 1 127 0 discriminator 4
 592 006c 0548     		ldr	r0, .L53+4
 593              	.LVL50:
 594 006e FFF7FEFF 		bl	chSysHalt
 595              	.LVL51:
 596 0072 CFE7     		b	.L42
 597              	.L51:
 598              	.LBB138:
 599              	.LBB137:
 600              	.LBB136:
 601              		.loc 3 367 0
 602 0074 0548     		ldr	r0, .L53+12
 603 0076 FFF7FEFF 		bl	chSysHalt
 604              	.LVL52:
 605 007a EEE7     		b	.L45
 606              	.L52:
 607              	.LBE136:
 608              	.LBE137:
 609              	.LBE138:
 610              		.loc 1 136 0
 611 007c FFF7FEFF 		bl	__stack_chk_fail
 612              	.LVL53:
 613              	.L54:
 614              		.align	2
 615              	.L53:
 616 0080 00000000 		.word	__stack_chk_guard
 617 0084 00000000 		.word	.LANCHOR3
 618 0088 00000000 		.word	ch
 619 008c 00000000 		.word	.LANCHOR1
 620              		.cfi_endproc
 621              	.LFE260:
 622              		.size	extChannelEnable, .-extChannelEnable
 623              		.section	.text.extChannelDisable,"ax",%progbits
 624              		.align	1
 625              		.p2align 4,,15
 626              		.global	extChannelDisable
 627              		.syntax unified
ARM GAS  C:\Users\osour\AppData\Local\Temp\ccydQDYh.s 			page 12


 628              		.thumb
 629              		.thumb_func
 630              		.fpu fpv4-sp-d16
 631              		.type	extChannelDisable, %function
 632              	extChannelDisable:
 633              	.LFB261:
 634              		.loc 1 147 0
 635              		.cfi_startproc
 636              		@ args = 0, pretend = 0, frame = 8
 637              		@ frame_needed = 0, uses_anonymous_args = 0
 638              	.LVL54:
 639 0000 70B5     		push	{r4, r5, r6, lr}
 640              		.cfi_def_cfa_offset 16
 641              		.cfi_offset 4, -16
 642              		.cfi_offset 5, -12
 643              		.cfi_offset 6, -8
 644              		.cfi_offset 14, -4
 645 0002 1F4E     		ldr	r6, .L68
 646 0004 82B0     		sub	sp, sp, #8
 647              		.cfi_def_cfa_offset 24
 648              		.loc 1 147 0
 649 0006 3368     		ldr	r3, [r6]
 650 0008 0193     		str	r3, [sp, #4]
 651 000a 0D46     		mov	r5, r1
 652              		.loc 1 149 0
 653 000c 0446     		mov	r4, r0
 654 000e 68B3     		cbz	r0, .L56
 655              		.loc 1 149 0 is_stmt 0 discriminator 3
 656 0010 1629     		cmp	r1, #22
 657 0012 2BD8     		bhi	.L56
 658              	.LVL55:
 659              	.L57:
 660              	.LBB152:
 661              	.LBB153:
 662              	.LBB154:
 663              	.LBB155:
 664              	.LBB156:
 665              	.LBB157:
 666              		.loc 2 546 0 is_stmt 1
 667 0014 2023     		movs	r3, #32
 668              		.syntax unified
 669              	@ 546 "../../lib/e-puck2_main-processor/ChibiOS//os/ext/CMSIS/include/core_cmFunc.h" 1
 670 0016 83F31188 		MSR basepri, r3
 671              	@ 0 "" 2
 672              	.LVL56:
 673              		.thumb
 674              		.syntax unified
 675              	.LBE157:
 676              	.LBE156:
 677              	.LBE155:
 678              		.loc 3 349 0
 679 001a FFF7FEFF 		bl	_stats_start_measure_crit_thd
 680              	.LVL57:
 681              		.loc 3 350 0
 682 001e FFF7FEFF 		bl	_dbg_check_lock
 683              	.LVL58:
 684              	.LBE154:
ARM GAS  C:\Users\osour\AppData\Local\Temp\ccydQDYh.s 			page 13


 685              	.LBE153:
 686              	.LBE152:
 687              		.loc 1 152 0
 688 0022 2378     		ldrb	r3, [r4]	@ zero_extendqisi2
 689 0024 022B     		cmp	r3, #2
 690 0026 04D1     		bne	.L58
 691              		.loc 1 152 0 is_stmt 0 discriminator 3
 692 0028 6368     		ldr	r3, [r4, #4]
 693 002a 53F83530 		ldr	r3, [r3, r5, lsl #3]
 694 002e 9B07     		lsls	r3, r3, #30
 695 0030 02D1     		bne	.L59
 696              	.L58:
 697              		.loc 1 152 0 discriminator 4
 698 0032 1448     		ldr	r0, .L68+4
 699 0034 FFF7FEFF 		bl	chSysHalt
 700              	.LVL59:
 701              	.L59:
 702              		.loc 1 156 0 is_stmt 1
 703 0038 2946     		mov	r1, r5
 704 003a 2046     		mov	r0, r4
 705 003c FFF7FEFF 		bl	ext_lld_channel_disable
 706              	.LVL60:
 707              	.LBB158:
 708              	.LBB159:
 709              	.LBB160:
 710              		.loc 3 360 0
 711 0040 FFF7FEFF 		bl	_dbg_check_unlock
 712              	.LVL61:
 713              		.loc 3 361 0
 714 0044 FFF7FEFF 		bl	_stats_stop_measure_crit_thd
 715              	.LVL62:
 716              		.loc 3 367 0
 717 0048 0F4B     		ldr	r3, .L68+8
 718 004a 1A68     		ldr	r2, [r3]
 719 004c 9A42     		cmp	r2, r3
 720 004e 04D0     		beq	.L60
 721 0050 9969     		ldr	r1, [r3, #24]
 722 0052 9368     		ldr	r3, [r2, #8]
 723 0054 8A68     		ldr	r2, [r1, #8]
 724 0056 9A42     		cmp	r2, r3
 725 0058 0CD3     		bcc	.L66
 726              	.L60:
 727              	.LVL63:
 728              	.LBB161:
 729              	.LBB162:
 730              	.LBB163:
 731              		.loc 2 546 0
 732 005a 0023     		movs	r3, #0
 733              		.syntax unified
 734              	@ 546 "../../lib/e-puck2_main-processor/ChibiOS//os/ext/CMSIS/include/core_cmFunc.h" 1
 735 005c 83F31188 		MSR basepri, r3
 736              	@ 0 "" 2
 737              	.LVL64:
 738              		.thumb
 739              		.syntax unified
 740              	.LBE163:
 741              	.LBE162:
ARM GAS  C:\Users\osour\AppData\Local\Temp\ccydQDYh.s 			page 14


 742              	.LBE161:
 743              	.LBE160:
 744              	.LBE159:
 745              	.LBE158:
 746              		.loc 1 158 0
 747 0060 019A     		ldr	r2, [sp, #4]
 748 0062 3368     		ldr	r3, [r6]
 749 0064 9A42     		cmp	r2, r3
 750 0066 09D1     		bne	.L67
 751 0068 02B0     		add	sp, sp, #8
 752              		.cfi_remember_state
 753              		.cfi_def_cfa_offset 16
 754              		@ sp needed
 755 006a 70BD     		pop	{r4, r5, r6, pc}
 756              	.LVL65:
 757              	.L56:
 758              		.cfi_restore_state
 759              		.loc 1 149 0 discriminator 4
 760 006c 0548     		ldr	r0, .L68+4
 761              	.LVL66:
 762 006e FFF7FEFF 		bl	chSysHalt
 763              	.LVL67:
 764 0072 CFE7     		b	.L57
 765              	.L66:
 766              	.LBB166:
 767              	.LBB165:
 768              	.LBB164:
 769              		.loc 3 367 0
 770 0074 0548     		ldr	r0, .L68+12
 771 0076 FFF7FEFF 		bl	chSysHalt
 772              	.LVL68:
 773 007a EEE7     		b	.L60
 774              	.L67:
 775              	.LBE164:
 776              	.LBE165:
 777              	.LBE166:
 778              		.loc 1 158 0
 779 007c FFF7FEFF 		bl	__stack_chk_fail
 780              	.LVL69:
 781              	.L69:
 782              		.align	2
 783              	.L68:
 784 0080 00000000 		.word	__stack_chk_guard
 785 0084 00000000 		.word	.LANCHOR4
 786 0088 00000000 		.word	ch
 787 008c 00000000 		.word	.LANCHOR1
 788              		.cfi_endproc
 789              	.LFE261:
 790              		.size	extChannelDisable, .-extChannelDisable
 791              		.section	.text.extSetChannelModeI,"ax",%progbits
 792              		.align	1
 793              		.p2align 4,,15
 794              		.global	extSetChannelModeI
 795              		.syntax unified
 796              		.thumb
 797              		.thumb_func
 798              		.fpu fpv4-sp-d16
ARM GAS  C:\Users\osour\AppData\Local\Temp\ccydQDYh.s 			page 15


 799              		.type	extSetChannelModeI, %function
 800              	extSetChannelModeI:
 801              	.LFB262:
 802              		.loc 1 179 0
 803              		.cfi_startproc
 804              		@ args = 0, pretend = 0, frame = 8
 805              		@ frame_needed = 0, uses_anonymous_args = 0
 806              	.LVL70:
 807 0000 F0B5     		push	{r4, r5, r6, r7, lr}
 808              		.cfi_def_cfa_offset 20
 809              		.cfi_offset 4, -20
 810              		.cfi_offset 5, -16
 811              		.cfi_offset 6, -12
 812              		.cfi_offset 7, -8
 813              		.cfi_offset 14, -4
 814 0002 154F     		ldr	r7, .L85
 815 0004 83B0     		sub	sp, sp, #12
 816              		.cfi_def_cfa_offset 32
 817              		.loc 1 179 0
 818 0006 3B68     		ldr	r3, [r7]
 819 0008 0193     		str	r3, [sp, #4]
 820 000a 0D46     		mov	r5, r1
 821 000c 1646     		mov	r6, r2
 822              		.loc 1 182 0
 823 000e 0446     		mov	r4, r0
 824 0010 08B1     		cbz	r0, .L71
 825              		.loc 1 182 0 is_stmt 0 discriminator 3
 826 0012 1629     		cmp	r1, #22
 827 0014 1AD9     		bls	.L83
 828              	.L71:
 829              		.loc 1 182 0 discriminator 6
 830 0016 1148     		ldr	r0, .L85+4
 831              	.LVL71:
 832 0018 FFF7FEFF 		bl	chSysHalt
 833              	.LVL72:
 834              	.L72:
 835              		.loc 1 186 0 is_stmt 1 discriminator 1
 836 001c 2378     		ldrb	r3, [r4]	@ zero_extendqisi2
 837 001e 022B     		cmp	r3, #2
 838 0020 02D0     		beq	.L73
 839              		.loc 1 186 0 is_stmt 0 discriminator 2
 840 0022 0E48     		ldr	r0, .L85+4
 841 0024 FFF7FEFF 		bl	chSysHalt
 842              	.LVL73:
 843              	.L73:
 844              		.loc 1 191 0 is_stmt 1
 845 0028 6368     		ldr	r3, [r4, #4]
 846              	.LVL74:
 847              		.loc 1 197 0
 848 002a 019A     		ldr	r2, [sp, #4]
 849              		.loc 1 196 0
 850 002c 96E80300 		ldm	r6, {r0, r1}
 851 0030 03EBC503 		add	r3, r3, r5, lsl #3
 852              	.LVL75:
 853 0034 83E80300 		stm	r3, {r0, r1}
 854              		.loc 1 197 0
 855 0038 3B68     		ldr	r3, [r7]
ARM GAS  C:\Users\osour\AppData\Local\Temp\ccydQDYh.s 			page 16


 856              	.LVL76:
 857 003a 9A42     		cmp	r2, r3
 858 003c 09D1     		bne	.L84
 859 003e 2946     		mov	r1, r5
 860 0040 2046     		mov	r0, r4
 861              		.loc 1 198 0
 862 0042 03B0     		add	sp, sp, #12
 863              		.cfi_remember_state
 864              		.cfi_def_cfa_offset 20
 865              		@ sp needed
 866 0044 BDE8F040 		pop	{r4, r5, r6, r7, lr}
 867              		.cfi_restore 14
 868              		.cfi_restore 7
 869              		.cfi_restore 6
 870              		.cfi_restore 5
 871              		.cfi_restore 4
 872              		.cfi_def_cfa_offset 0
 873              	.LVL77:
 874              		.loc 1 197 0
 875 0048 FFF7FEBF 		b	ext_lld_channel_enable
 876              	.LVL78:
 877              	.L83:
 878              		.cfi_restore_state
 879              		.loc 1 182 0 discriminator 5
 880 004c 002A     		cmp	r2, #0
 881 004e E5D1     		bne	.L72
 882 0050 E1E7     		b	.L71
 883              	.LVL79:
 884              	.L84:
 885              		.loc 1 197 0
 886 0052 FFF7FEFF 		bl	__stack_chk_fail
 887              	.LVL80:
 888              	.L86:
 889 0056 00BF     		.align	2
 890              	.L85:
 891 0058 00000000 		.word	__stack_chk_guard
 892 005c 00000000 		.word	.LANCHOR5
 893              		.cfi_endproc
 894              	.LFE262:
 895              		.size	extSetChannelModeI, .-extSetChannelModeI
 896              		.section	.rodata.__func__.7153,"a",%progbits
 897              		.align	2
 898              		.set	.LANCHOR1,. + 0
 899              		.type	__func__.7153, %object
 900              		.size	__func__.7153, 12
 901              	__func__.7153:
 902 0000 63685379 		.ascii	"chSysUnlock\000"
 902      73556E6C 
 902      6F636B00 
 903              		.section	.rodata.__func__.9849,"a",%progbits
 904              		.align	2
 905              		.set	.LANCHOR0,. + 0
 906              		.type	__func__.9849, %object
 907              		.size	__func__.9849, 9
 908              	__func__.9849:
 909 0000 65787453 		.ascii	"extStart\000"
 909      74617274 
ARM GAS  C:\Users\osour\AppData\Local\Temp\ccydQDYh.s 			page 17


 909      00
 910              		.section	.rodata.__func__.9853,"a",%progbits
 911              		.align	2
 912              		.set	.LANCHOR2,. + 0
 913              		.type	__func__.9853, %object
 914              		.size	__func__.9853, 8
 915              	__func__.9853:
 916 0000 65787453 		.ascii	"extStop\000"
 916      746F7000 
 917              		.section	.rodata.__func__.9858,"a",%progbits
 918              		.align	2
 919              		.set	.LANCHOR3,. + 0
 920              		.type	__func__.9858, %object
 921              		.size	__func__.9858, 17
 922              	__func__.9858:
 923 0000 65787443 		.ascii	"extChannelEnable\000"
 923      68616E6E 
 923      656C456E 
 923      61626C65 
 923      00
 924              		.section	.rodata.__func__.9863,"a",%progbits
 925              		.align	2
 926              		.set	.LANCHOR4,. + 0
 927              		.type	__func__.9863, %object
 928              		.size	__func__.9863, 18
 929              	__func__.9863:
 930 0000 65787443 		.ascii	"extChannelDisable\000"
 930      68616E6E 
 930      656C4469 
 930      7361626C 
 930      6500
 931              		.section	.rodata.__func__.9870,"a",%progbits
 932              		.align	2
 933              		.set	.LANCHOR5,. + 0
 934              		.type	__func__.9870, %object
 935              		.size	__func__.9870, 19
 936              	__func__.9870:
 937 0000 65787453 		.ascii	"extSetChannelModeI\000"
 937      65744368 
 937      616E6E65 
 937      6C4D6F64 
 937      654900
 938              		.text
 939              	.Letext0:
 940              		.file 4 "c:\\users\\osour\\desktop\\robotique\\eclipse_e-puck2\\tools\\gcc-arm-none-eabi-7-2017-q4
 941              		.file 5 "c:\\users\\osour\\desktop\\robotique\\eclipse_e-puck2\\tools\\gcc-arm-none-eabi-7-2017-q4
 942              		.file 6 "c:\\users\\osour\\desktop\\robotique\\eclipse_e-puck2\\tools\\gcc-arm-none-eabi-7-2017-q4
 943              		.file 7 "../../lib/e-puck2_main-processor/ChibiOS//os/rt/ports/ARMCMx/compilers/GCC/chtypes.h"
 944              		.file 8 "../../lib/e-puck2_main-processor/ChibiOS//os/rt/include/chsystypes.h"
 945              		.file 9 "../../lib/e-puck2_main-processor/ChibiOS//os/rt/include/chschd.h"
 946              		.file 10 "../../lib/e-puck2_main-processor/ChibiOS//os/ext/CMSIS/include/core_cm4.h"
 947              		.file 11 "../../lib/e-puck2_main-processor/ChibiOS//os/ext/CMSIS/ST/system_stm32f4xx.h"
 948              		.file 12 "../../lib/e-puck2_main-processor/ChibiOS//os/ext/CMSIS/ST/stm32f407xx.h"
 949              		.file 13 "../../lib/e-puck2_main-processor/ChibiOS//os/rt/ports/ARMCMx/chcore.h"
 950              		.file 14 "../../lib/e-puck2_main-processor/ChibiOS//os/rt/ports/ARMCMx/chcore_v7m.h"
 951              		.file 15 "../../lib/e-puck2_main-processor/ChibiOS//os/rt/include/chdebug.h"
 952              		.file 16 "../../lib/e-puck2_main-processor/ChibiOS//os/rt/include/chtm.h"
ARM GAS  C:\Users\osour\AppData\Local\Temp\ccydQDYh.s 			page 18


 953              		.file 17 "../../lib/e-puck2_main-processor/ChibiOS//os/rt/include/chstats.h"
 954              		.file 18 "../../lib/e-puck2_main-processor/ChibiOS//os/rt/include/chsem.h"
 955              		.file 19 "../../lib/e-puck2_main-processor/ChibiOS//os/rt/include/chmtx.h"
 956              		.file 20 "../../lib/e-puck2_main-processor/ChibiOS//os/rt/include/chregistry.h"
 957              		.file 21 "../../lib/e-puck2_main-processor/ChibiOS//os/rt/include/chevents.h"
 958              		.file 22 "../../lib/e-puck2_main-processor/ChibiOS//os/rt/include/chqueues.h"
 959              		.file 23 "../../lib/e-puck2_main-processor/ChibiOS//os/hal/ports/STM32/STM32F4xx/stm32_dma.h"
 960              		.file 24 "../../lib/e-puck2_main-processor/ChibiOS//os/hal/include/hal_ioblock.h"
 961              		.file 25 "../../lib/e-puck2_main-processor/ChibiOS//os/hal/ports/STM32/LLD/GPIOv2/pal_lld.h"
 962              		.file 26 "../../lib/e-puck2_main-processor/ChibiOS//os/hal/include/adc.h"
 963              		.file 27 "../../lib/e-puck2_main-processor/ChibiOS//os/hal/ports/STM32/STM32F4xx/adc_lld.h"
 964              		.file 28 "../../lib/e-puck2_main-processor/ChibiOS//os/hal/include/can.h"
 965              		.file 29 "../../lib/e-puck2_main-processor/ChibiOS//os/hal/ports/STM32/LLD/can_lld.h"
 966              		.file 30 "../../lib/e-puck2_main-processor/ChibiOS//os/hal/include/dac.h"
 967              		.file 31 "../../lib/e-puck2_main-processor/ChibiOS//os/hal/ports/STM32/LLD/DACv1/dac_lld.h"
 968              		.file 32 "../../lib/e-puck2_main-processor/ChibiOS//os/hal/include/ext.h"
 969              		.file 33 "../../lib/e-puck2_main-processor/ChibiOS//os/hal/ports/STM32/LLD/ext_lld.h"
 970              		.file 34 "../../lib/e-puck2_main-processor/ChibiOS//os/hal/include/gpt.h"
 971              		.file 35 "../../lib/e-puck2_main-processor/ChibiOS//os/hal/ports/STM32/LLD/TIMv1/gpt_lld.h"
 972              		.file 36 "../../lib/e-puck2_main-processor/ChibiOS//os/hal/ports/STM32/LLD/TIMv1/stm32_tim.h"
 973              		.file 37 "../../lib/e-puck2_main-processor/ChibiOS//os/hal/include/i2c.h"
 974              		.file 38 "../../lib/e-puck2_main-processor/ChibiOS//os/hal/ports/STM32/LLD/I2Cv1/i2c_lld.h"
 975              		.file 39 "../../lib/e-puck2_main-processor/ChibiOS//os/hal/include/i2s.h"
 976              		.file 40 "../../lib/e-puck2_main-processor/ChibiOS//os/hal/ports/STM32/LLD/SPIv1/i2s_lld.h"
 977              		.file 41 "../../lib/e-puck2_main-processor/ChibiOS//os/hal/include/pwm.h"
 978              		.file 42 "../../lib/e-puck2_main-processor/ChibiOS//os/hal/ports/STM32/LLD/TIMv1/pwm_lld.h"
 979              		.file 43 "../../lib/e-puck2_main-processor/ChibiOS//os/hal/include/serial.h"
 980              		.file 44 "../../lib/e-puck2_main-processor/ChibiOS//os/hal/ports/STM32/LLD/USARTv1/serial_lld.h"
 981              		.file 45 "../../lib/e-puck2_main-processor/ChibiOS//os/hal/include/sdc.h"
 982              		.file 46 "../../lib/e-puck2_main-processor/ChibiOS//os/hal/ports/STM32/LLD/sdc_lld.h"
 983              		.file 47 "../../lib/e-puck2_main-processor/ChibiOS//os/hal/include/spi.h"
 984              		.file 48 "../../lib/e-puck2_main-processor/ChibiOS//os/hal/ports/STM32/LLD/SPIv1/spi_lld.h"
 985              		.file 49 "../../lib/e-puck2_main-processor/ChibiOS//os/hal/include/usb.h"
 986              		.file 50 "../../lib/e-puck2_main-processor/ChibiOS//os/hal/ports/STM32/LLD/OTGv1/usb_lld.h"
 987              		.file 51 "../../lib/e-puck2_main-processor/ChibiOS//os/hal/ports/STM32/LLD/OTGv1/stm32_otg.h"
 988              		.file 52 "../../lib/e-puck2_main-processor/ChibiOS//os/hal/osal/rt/osal.h"