ARM GAS  C:\Users\osour\AppData\Local\Temp\ccj7cKu1.s 			page 1


   1              		.cpu cortex-m4
   2              		.eabi_attribute 27, 1
   3              		.eabi_attribute 28, 1
   4              		.eabi_attribute 20, 1
   5              		.eabi_attribute 21, 1
   6              		.eabi_attribute 23, 3
   7              		.eabi_attribute 24, 1
   8              		.eabi_attribute 25, 1
   9              		.eabi_attribute 26, 1
  10              		.eabi_attribute 30, 2
  11              		.eabi_attribute 34, 1
  12              		.eabi_attribute 18, 4
  13              		.file	"i2c_lld.c"
  14              		.text
  15              	.Ltext0:
  16              		.cfi_sections	.debug_frame
  17              		.section	.text.i2c_lld_serve_tx_end_irq,"ax",%progbits
  18              		.align	1
  19              		.p2align 4,,15
  20              		.syntax unified
  21              		.thumb
  22              		.thumb_func
  23              		.fpu fpv4-sp-d16
  24              		.type	i2c_lld_serve_tx_end_irq, %function
  25              	i2c_lld_serve_tx_end_irq:
  26              	.LFB261:
  27              		.file 1 "../../lib/e-puck2_main-processor/ChibiOS//os/hal/ports/STM32/LLD/I2Cv1/i2c_lld.c"
  28              		.loc 1 332 0
  29              		.cfi_startproc
  30              		@ args = 0, pretend = 0, frame = 8
  31              		@ frame_needed = 0, uses_anonymous_args = 0
  32              	.LVL0:
  33 0000 70B5     		push	{r4, r5, r6, lr}
  34              		.cfi_def_cfa_offset 16
  35              		.cfi_offset 4, -16
  36              		.cfi_offset 5, -12
  37              		.cfi_offset 6, -8
  38              		.cfi_offset 14, -4
  39 0002 144D     		ldr	r5, .L13
  40              		.loc 1 333 0
  41 0004 866B     		ldr	r6, [r0, #56]
  42              	.LVL1:
  43              		.loc 1 332 0
  44 0006 2B68     		ldr	r3, [r5]
  45 0008 82B0     		sub	sp, sp, #8
  46              		.cfi_def_cfa_offset 24
  47              		.loc 1 337 0
  48 000a 11F00C0F 		tst	r1, #12
  49              		.loc 1 332 0
  50 000e 0446     		mov	r4, r0
  51 0010 0193     		str	r3, [sp, #4]
  52              		.loc 1 337 0
  53 0012 19D1     		bne	.L11
  54              	.LVL2:
  55              	.L2:
  56              		.loc 1 344 0
  57 0014 636B     		ldr	r3, [r4, #52]
ARM GAS  C:\Users\osour\AppData\Local\Temp\ccj7cKu1.s 			page 2


  58 0016 1A68     		ldr	r2, [r3]
  59 0018 1368     		ldr	r3, [r2]
  60 001a 23F01F03 		bic	r3, r3, #31
  61 001e 1360     		str	r3, [r2]
  62 0020 616B     		ldr	r1, [r4, #52]
  63 0022 0A68     		ldr	r2, [r1]
  64              	.L3:
  65              		.loc 1 344 0 is_stmt 0 discriminator 2
  66 0024 1368     		ldr	r3, [r2]
  67 0026 DB07     		lsls	r3, r3, #31
  68 0028 FCD4     		bmi	.L3
  69              		.loc 1 344 0 discriminator 3
  70 002a 087A     		ldrb	r0, [r1, #8]	@ zero_extendqisi2
  71 002c 4A68     		ldr	r2, [r1, #4]
  72 002e 3D23     		movs	r3, #61
  73 0030 8340     		lsls	r3, r3, r0
  74 0032 1360     		str	r3, [r2]
  75              		.loc 1 348 0 is_stmt 1 discriminator 3
  76 0034 7368     		ldr	r3, [r6, #4]
  77 0036 43F40073 		orr	r3, r3, #512
  78 003a 7360     		str	r3, [r6, #4]
  79              		.loc 1 349 0 discriminator 3
  80 003c 019A     		ldr	r2, [sp, #4]
  81 003e 2B68     		ldr	r3, [r5]
  82 0040 9A42     		cmp	r2, r3
  83 0042 05D1     		bne	.L12
  84              		.loc 1 349 0 is_stmt 0
  85 0044 02B0     		add	sp, sp, #8
  86              		.cfi_remember_state
  87              		.cfi_def_cfa_offset 16
  88              		@ sp needed
  89 0046 70BD     		pop	{r4, r5, r6, pc}
  90              	.LVL3:
  91              	.L11:
  92              		.cfi_restore_state
  93              	.LBB196:
  94              	.LBB197:
  95              		.file 2 "../../lib/e-puck2_main-processor/ChibiOS//os/hal/osal/rt/osal.h"
  96              		.loc 2 416 0 is_stmt 1
  97 0048 0348     		ldr	r0, .L13+4
  98              	.LVL4:
  99 004a FFF7FEFF 		bl	chSysHalt
 100              	.LVL5:
 101 004e E1E7     		b	.L2
 102              	.LVL6:
 103              	.L12:
 104              	.LBE197:
 105              	.LBE196:
 106              		.loc 1 349 0
 107 0050 FFF7FEFF 		bl	__stack_chk_fail
 108              	.LVL7:
 109              	.L14:
 110              		.align	2
 111              	.L13:
 112 0054 00000000 		.word	__stack_chk_guard
 113 0058 00000000 		.word	.LC0
 114              		.cfi_endproc
ARM GAS  C:\Users\osour\AppData\Local\Temp\ccj7cKu1.s 			page 3


 115              	.LFE261:
 116              		.size	i2c_lld_serve_tx_end_irq, .-i2c_lld_serve_tx_end_irq
 117              		.section	.text.i2c_lld_serve_rx_end_irq,"ax",%progbits
 118              		.align	1
 119              		.p2align 4,,15
 120              		.syntax unified
 121              		.thumb
 122              		.thumb_func
 123              		.fpu fpv4-sp-d16
 124              		.type	i2c_lld_serve_rx_end_irq, %function
 125              	i2c_lld_serve_rx_end_irq:
 126              	.LFB260:
 127              		.loc 1 305 0
 128              		.cfi_startproc
 129              		@ args = 0, pretend = 0, frame = 8
 130              		@ frame_needed = 0, uses_anonymous_args = 0
 131              	.LVL8:
 132 0000 F0B5     		push	{r4, r5, r6, r7, lr}
 133              		.cfi_def_cfa_offset 20
 134              		.cfi_offset 4, -20
 135              		.cfi_offset 5, -16
 136              		.cfi_offset 6, -12
 137              		.cfi_offset 7, -8
 138              		.cfi_offset 14, -4
 139 0002 224F     		ldr	r7, .L26
 140              		.loc 1 306 0
 141 0004 856B     		ldr	r5, [r0, #56]
 142              	.LVL9:
 143              		.loc 1 305 0
 144 0006 3B68     		ldr	r3, [r7]
 145 0008 83B0     		sub	sp, sp, #12
 146              		.cfi_def_cfa_offset 32
 147              		.loc 1 310 0
 148 000a 11F00C0F 		tst	r1, #12
 149              		.loc 1 305 0
 150 000e 0646     		mov	r6, r0
 151 0010 0193     		str	r3, [sp, #4]
 152              		.loc 1 310 0
 153 0012 34D1     		bne	.L24
 154              	.LVL10:
 155              	.L16:
 156              		.loc 1 317 0
 157 0014 336B     		ldr	r3, [r6, #48]
 158 0016 1A68     		ldr	r2, [r3]
 159 0018 1368     		ldr	r3, [r2]
 160 001a 23F01F03 		bic	r3, r3, #31
 161 001e 1360     		str	r3, [r2]
 162 0020 326B     		ldr	r2, [r6, #48]
 163 0022 1368     		ldr	r3, [r2]
 164              	.L17:
 165              		.loc 1 317 0 is_stmt 0 discriminator 2
 166 0024 1C68     		ldr	r4, [r3]
 167 0026 14F00104 		ands	r4, r4, #1
 168 002a FBD1     		bne	.L17
 169              		.loc 1 317 0 discriminator 3
 170 002c 117A     		ldrb	r1, [r2, #8]	@ zero_extendqisi2
 171 002e 5268     		ldr	r2, [r2, #4]
ARM GAS  C:\Users\osour\AppData\Local\Temp\ccj7cKu1.s 			page 4


 172 0030 3D23     		movs	r3, #61
 173 0032 8B40     		lsls	r3, r3, r1
 174 0034 1360     		str	r3, [r2]
 175              		.loc 1 319 0 is_stmt 1 discriminator 3
 176 0036 6B68     		ldr	r3, [r5, #4]
 177 0038 23F48053 		bic	r3, r3, #4096
 178 003c 6B60     		str	r3, [r5, #4]
 179              		.loc 1 320 0 discriminator 3
 180 003e 2B68     		ldr	r3, [r5]
 181 0040 23F48063 		bic	r3, r3, #1024
 182 0044 2B60     		str	r3, [r5]
 183              		.loc 1 321 0 discriminator 3
 184 0046 2B68     		ldr	r3, [r5]
 185 0048 43F40073 		orr	r3, r3, #512
 186 004c 2B60     		str	r3, [r5]
 187              	.LVL11:
 188              	.LBB198:
 189              	.LBB199:
 190              	.LBB200:
 191              	.LBB201:
 192              	.LBB202:
 193              	.LBB203:
 194              	.LBB204:
 195              		.file 3 "../../lib/e-puck2_main-processor/ChibiOS//os/ext/CMSIS/include/core_cmFunc.h"
 196              		.loc 3 546 0 discriminator 3
 197 004e 2023     		movs	r3, #32
 198              		.syntax unified
 199              	@ 546 "../../lib/e-puck2_main-processor/ChibiOS//os/ext/CMSIS/include/core_cmFunc.h" 1
 200 0050 83F31188 		MSR basepri, r3
 201              	@ 0 "" 2
 202              	.LVL12:
 203              		.thumb
 204              		.syntax unified
 205              	.LBE204:
 206              	.LBE203:
 207              	.LBE202:
 208              	.LBE201:
 209              		.file 4 "../../lib/e-puck2_main-processor/ChibiOS//os/rt/include/chsys.h"
 210              		.loc 4 389 0 discriminator 3
 211 0054 FFF7FEFF 		bl	_stats_start_measure_crit_isr
 212              	.LVL13:
 213              		.loc 4 390 0 discriminator 3
 214 0058 FFF7FEFF 		bl	_dbg_check_lock_from_isr
 215              	.LVL14:
 216              	.LBE200:
 217              	.LBE199:
 218              	.LBE198:
 219              	.LBB205:
 220              	.LBB206:
 221              		.loc 2 682 0 discriminator 3
 222 005c 2146     		mov	r1, r4
 223 005e 06F12000 		add	r0, r6, #32
 224              	.LVL15:
 225 0062 FFF7FEFF 		bl	chThdResumeI
 226              	.LVL16:
 227              	.LBE206:
 228              	.LBE205:
ARM GAS  C:\Users\osour\AppData\Local\Temp\ccj7cKu1.s 			page 5


 229              	.LBB207:
 230              	.LBB208:
 231              	.LBB209:
 232              		.loc 4 408 0 discriminator 3
 233 0066 FFF7FEFF 		bl	_dbg_check_unlock_from_isr
 234              	.LVL17:
 235              		.loc 4 409 0 discriminator 3
 236 006a FFF7FEFF 		bl	_stats_stop_measure_crit_isr
 237              	.LVL18:
 238              	.LBB210:
 239              	.LBB211:
 240              	.LBB212:
 241              	.LBB213:
 242              		.loc 3 546 0 discriminator 3
 243              		.syntax unified
 244              	@ 546 "../../lib/e-puck2_main-processor/ChibiOS//os/ext/CMSIS/include/core_cmFunc.h" 1
 245 006e 84F31188 		MSR basepri, r4
 246              	@ 0 "" 2
 247              	.LVL19:
 248              		.thumb
 249              		.syntax unified
 250              	.LBE213:
 251              	.LBE212:
 252              	.LBE211:
 253              	.LBE210:
 254              	.LBE209:
 255              	.LBE208:
 256              	.LBE207:
 257              		.loc 1 323 0 discriminator 3
 258 0072 019A     		ldr	r2, [sp, #4]
 259 0074 3B68     		ldr	r3, [r7]
 260 0076 9A42     		cmp	r2, r3
 261 0078 05D1     		bne	.L25
 262              		.loc 1 323 0 is_stmt 0
 263 007a 03B0     		add	sp, sp, #12
 264              		.cfi_remember_state
 265              		.cfi_def_cfa_offset 20
 266              		@ sp needed
 267 007c F0BD     		pop	{r4, r5, r6, r7, pc}
 268              	.LVL20:
 269              	.L24:
 270              		.cfi_restore_state
 271              	.LBB214:
 272              	.LBB215:
 273              		.loc 2 416 0 is_stmt 1
 274 007e 0448     		ldr	r0, .L26+4
 275              	.LVL21:
 276 0080 FFF7FEFF 		bl	chSysHalt
 277              	.LVL22:
 278 0084 C6E7     		b	.L16
 279              	.LVL23:
 280              	.L25:
 281              	.LBE215:
 282              	.LBE214:
 283              		.loc 1 323 0
 284 0086 FFF7FEFF 		bl	__stack_chk_fail
 285              	.LVL24:
ARM GAS  C:\Users\osour\AppData\Local\Temp\ccj7cKu1.s 			page 6


 286              	.L27:
 287 008a 00BF     		.align	2
 288              	.L26:
 289 008c 00000000 		.word	__stack_chk_guard
 290 0090 00000000 		.word	.LC0
 291              		.cfi_endproc
 292              	.LFE260:
 293              		.size	i2c_lld_serve_rx_end_irq, .-i2c_lld_serve_rx_end_irq
 294              		.section	.text.VectorBC,"ax",%progbits
 295              		.align	1
 296              		.p2align 4,,15
 297              		.global	VectorBC
 298              		.syntax unified
 299              		.thumb
 300              		.thumb_func
 301              		.fpu fpv4-sp-d16
 302              		.type	VectorBC, %function
 303              	VectorBC:
 304              	.LFB263:
 305              		.loc 1 406 0
 306              		.cfi_startproc
 307              		@ args = 0, pretend = 0, frame = 8
 308              		@ frame_needed = 0, uses_anonymous_args = 0
 309 0000 2DE9F041 		push	{r4, r5, r6, r7, r8, lr}
 310              		.cfi_def_cfa_offset 24
 311              		.cfi_offset 4, -24
 312              		.cfi_offset 5, -20
 313              		.cfi_offset 6, -16
 314              		.cfi_offset 7, -12
 315              		.cfi_offset 8, -8
 316              		.cfi_offset 14, -4
 317 0004 474E     		ldr	r6, .L47
 318              	.LBB234:
 319              	.LBB235:
 320              		.loc 1 246 0
 321 0006 484D     		ldr	r5, .L47+4
 322              	.LBE235:
 323              	.LBE234:
 324              		.loc 1 406 0
 325 0008 3368     		ldr	r3, [r6]
 326 000a 82B0     		sub	sp, sp, #8
 327              		.cfi_def_cfa_offset 32
 328              		.loc 1 406 0
 329 000c 0193     		str	r3, [sp, #4]
 330              		.loc 1 408 0
 331 000e FFF7FEFF 		bl	_stats_increase_irq
 332              	.LVL25:
 333 0012 FFF7FEFF 		bl	_dbg_check_enter_isr
 334              	.LVL26:
 335              	.LBB254:
 336              	.LBB252:
 337              		.loc 1 246 0
 338 0016 AC6B     		ldr	r4, [r5, #56]
 339              	.LVL27:
 340              		.loc 1 253 0
 341 0018 444A     		ldr	r2, .L47+8
 342              		.loc 1 247 0
ARM GAS  C:\Users\osour\AppData\Local\Temp\ccj7cKu1.s 			page 7


 343 001a A369     		ldr	r3, [r4, #24]
 344              	.LVL28:
 345              		.loc 1 248 0
 346 001c 6769     		ldr	r7, [r4, #20]
 347              	.LVL29:
 348              		.loc 1 253 0
 349 001e 47EA0343 		orr	r3, r7, r3, lsl #16
 350              	.LVL30:
 351 0022 23F07F43 		bic	r3, r3, #-16777216
 352 0026 9342     		cmp	r3, r2
 353 0028 4ED0     		beq	.L30
 354 002a 2BD8     		bhi	.L31
 355 002c 073A     		subs	r2, r2, #7
 356 002e 9342     		cmp	r3, r2
 357 0030 3ED0     		beq	.L32
 358 0032 0132     		adds	r2, r2, #1
 359 0034 9342     		cmp	r3, r2
 360 0036 16D1     		bne	.L29
 361              		.loc 1 267 0
 362 0038 6368     		ldr	r3, [r4, #4]
 363 003a 23F40073 		bic	r3, r3, #512
 364 003e 6360     		str	r3, [r4, #4]
 365              		.loc 1 268 0
 366 0040 2B6B     		ldr	r3, [r5, #48]
 367 0042 1A68     		ldr	r2, [r3]
 368 0044 1368     		ldr	r3, [r2]
 369 0046 43F00103 		orr	r3, r3, #1
 370 004a 1360     		str	r3, [r2]
 371              		.loc 1 269 0
 372 004c 6368     		ldr	r3, [r4, #4]
 373 004e 43F48053 		orr	r3, r3, #4096
 374 0052 6360     		str	r3, [r4, #4]
 375              		.loc 1 270 0
 376 0054 2B6B     		ldr	r3, [r5, #48]
 377 0056 1B68     		ldr	r3, [r3]
 378 0058 5B68     		ldr	r3, [r3, #4]
 379 005a 012B     		cmp	r3, #1
 380 005c 03D8     		bhi	.L29
 381              		.loc 1 271 0
 382 005e 2368     		ldr	r3, [r4]
 383 0060 23F48063 		bic	r3, r3, #1024
 384 0064 2360     		str	r3, [r4]
 385              	.L29:
 386              		.loc 1 293 0
 387 0066 17F00A0F 		tst	r7, #10
 388              		.loc 1 294 0
 389 006a 18BF     		it	ne
 390 006c A369     		ldrne	r3, [r4, #24]
 391              	.L38:
 392              	.LVL31:
 393              	.LBE252:
 394              	.LBE254:
 395              		.loc 1 412 0
 396 006e FFF7FEFF 		bl	_dbg_check_leave_isr
 397              	.LVL32:
 398 0072 019A     		ldr	r2, [sp, #4]
 399 0074 3368     		ldr	r3, [r6]
ARM GAS  C:\Users\osour\AppData\Local\Temp\ccj7cKu1.s 			page 8


 400 0076 9A42     		cmp	r2, r3
 401 0078 51D1     		bne	.L46
 402              		.loc 1 413 0
 403 007a 02B0     		add	sp, sp, #8
 404              		.cfi_remember_state
 405              		.cfi_def_cfa_offset 24
 406              		@ sp needed
 407 007c BDE8F041 		pop	{r4, r5, r6, r7, r8, lr}
 408              		.cfi_restore 14
 409              		.cfi_restore 8
 410              		.cfi_restore 7
 411              		.cfi_restore 6
 412              		.cfi_restore 5
 413              		.cfi_restore 4
 414              		.cfi_def_cfa_offset 0
 415              		.loc 1 412 0
 416 0080 FFF7FEBF 		b	_port_irq_epilogue
 417              	.LVL33:
 418              	.L31:
 419              		.cfi_restore_state
 420              	.LBB255:
 421              	.LBB253:
 422              		.loc 1 253 0
 423 0084 2A4A     		ldr	r2, .L47+12
 424 0086 9342     		cmp	r3, r2
 425 0088 23D0     		beq	.L34
 426 008a 0232     		adds	r2, r2, #2
 427 008c 9342     		cmp	r3, r2
 428 008e EAD1     		bne	.L29
 429              		.loc 1 279 0
 430 0090 2B6B     		ldr	r3, [r5, #48]
 431 0092 1B68     		ldr	r3, [r3]
 432 0094 D3F80480 		ldr	r8, [r3, #4]
 433 0098 B8F1000F 		cmp	r8, #0
 434 009c 24D0     		beq	.L37
 435              		.loc 1 281 0
 436 009e AB8C     		ldrh	r3, [r5, #36]
 437 00a0 43F00103 		orr	r3, r3, #1
 438 00a4 AB84     		strh	r3, [r5, #36]	@ movhi
 439              		.loc 1 282 0
 440 00a6 2368     		ldr	r3, [r4]
 441 00a8 43F4A063 		orr	r3, r3, #1280
 442 00ac 2360     		str	r3, [r4]
 443 00ae DEE7     		b	.L38
 444              	.L32:
 445              		.loc 1 255 0
 446 00b0 AB8C     		ldrh	r3, [r5, #36]
 447 00b2 1A0A     		lsrs	r2, r3, #8
 448 00b4 0BD0     		beq	.L45
 449              		.loc 1 257 0
 450 00b6 03F00103 		and	r3, r3, #1
 451 00ba 43F0F003 		orr	r3, r3, #240
 452 00be 02F00602 		and	r2, r2, #6
 453 00c2 1343     		orrs	r3, r3, r2
 454 00c4 2361     		str	r3, [r4, #16]
 455 00c6 CEE7     		b	.L29
 456              	.L30:
ARM GAS  C:\Users\osour\AppData\Local\Temp\ccj7cKu1.s 			page 9


 457              		.loc 1 264 0
 458 00c8 AB8C     		ldrh	r3, [r5, #36]
 459 00ca C3F34703 		ubfx	r3, r3, #1, #8
 460              	.L45:
 461 00ce 2361     		str	r3, [r4, #16]
 462 00d0 C9E7     		b	.L29
 463              	.L34:
 464              		.loc 1 274 0
 465 00d2 6368     		ldr	r3, [r4, #4]
 466 00d4 23F40073 		bic	r3, r3, #512
 467 00d8 6360     		str	r3, [r4, #4]
 468              		.loc 1 275 0
 469 00da 6B6B     		ldr	r3, [r5, #52]
 470 00dc 1A68     		ldr	r2, [r3]
 471 00de 1368     		ldr	r3, [r2]
 472 00e0 43F00103 		orr	r3, r3, #1
 473 00e4 1360     		str	r3, [r2]
 474 00e6 BEE7     		b	.L29
 475              	.L37:
 476              		.loc 1 285 0
 477 00e8 6368     		ldr	r3, [r4, #4]
 478 00ea 23F40073 		bic	r3, r3, #512
 479 00ee 6360     		str	r3, [r4, #4]
 480              		.loc 1 286 0
 481 00f0 2368     		ldr	r3, [r4]
 482 00f2 43F40073 		orr	r3, r3, #512
 483 00f6 2360     		str	r3, [r4]
 484              	.LVL34:
 485              	.LBB236:
 486              	.LBB237:
 487              	.LBB238:
 488              	.LBB239:
 489              	.LBB240:
 490              	.LBB241:
 491              	.LBB242:
 492              		.loc 3 546 0
 493 00f8 2023     		movs	r3, #32
 494              		.syntax unified
 495              	@ 546 "../../lib/e-puck2_main-processor/ChibiOS//os/ext/CMSIS/include/core_cmFunc.h" 1
 496 00fa 83F31188 		MSR basepri, r3
 497              	@ 0 "" 2
 498              	.LVL35:
 499              		.thumb
 500              		.syntax unified
 501              	.LBE242:
 502              	.LBE241:
 503              	.LBE240:
 504              	.LBE239:
 505              		.loc 4 389 0
 506 00fe FFF7FEFF 		bl	_stats_start_measure_crit_isr
 507              	.LVL36:
 508              		.loc 4 390 0
 509 0102 FFF7FEFF 		bl	_dbg_check_lock_from_isr
 510              	.LVL37:
 511              	.LBE238:
 512              	.LBE237:
 513              	.LBE236:
ARM GAS  C:\Users\osour\AppData\Local\Temp\ccj7cKu1.s 			page 10


 514              	.LBB243:
 515              	.LBB244:
 516              		.loc 2 682 0
 517 0106 4146     		mov	r1, r8
 518 0108 05F12000 		add	r0, r5, #32
 519 010c FFF7FEFF 		bl	chThdResumeI
 520              	.LVL38:
 521              	.LBE244:
 522              	.LBE243:
 523              	.LBB245:
 524              	.LBB246:
 525              	.LBB247:
 526              		.loc 4 408 0
 527 0110 FFF7FEFF 		bl	_dbg_check_unlock_from_isr
 528              	.LVL39:
 529              		.loc 4 409 0
 530 0114 FFF7FEFF 		bl	_stats_stop_measure_crit_isr
 531              	.LVL40:
 532              	.LBB248:
 533              	.LBB249:
 534              	.LBB250:
 535              	.LBB251:
 536              		.loc 3 546 0
 537              		.syntax unified
 538              	@ 546 "../../lib/e-puck2_main-processor/ChibiOS//os/ext/CMSIS/include/core_cmFunc.h" 1
 539 0118 88F31188 		MSR basepri, r8
 540              	@ 0 "" 2
 541              	.LVL41:
 542              		.thumb
 543              		.syntax unified
 544 011c A3E7     		b	.L29
 545              	.LVL42:
 546              	.L46:
 547              	.LBE251:
 548              	.LBE250:
 549              	.LBE249:
 550              	.LBE248:
 551              	.LBE247:
 552              	.LBE246:
 553              	.LBE245:
 554              	.LBE253:
 555              	.LBE255:
 556              		.loc 1 412 0
 557 011e FFF7FEFF 		bl	__stack_chk_fail
 558              	.LVL43:
 559              	.L48:
 560 0122 00BF     		.align	2
 561              	.L47:
 562 0124 00000000 		.word	__stack_chk_guard
 563 0128 00000000 		.word	.LANCHOR0
 564 012c 08000300 		.word	196616
 565 0130 82000700 		.word	458882
 566              		.cfi_endproc
 567              	.LFE263:
 568              		.size	VectorBC, .-VectorBC
 569              		.section	.text.VectorC0,"ax",%progbits
 570              		.align	1
ARM GAS  C:\Users\osour\AppData\Local\Temp\ccj7cKu1.s 			page 11


 571              		.p2align 4,,15
 572              		.global	VectorC0
 573              		.syntax unified
 574              		.thumb
 575              		.thumb_func
 576              		.fpu fpv4-sp-d16
 577              		.type	VectorC0, %function
 578              	VectorC0:
 579              	.LFB264:
 580              		.loc 1 418 0
 581              		.cfi_startproc
 582              		@ args = 0, pretend = 0, frame = 8
 583              		@ frame_needed = 0, uses_anonymous_args = 0
 584 0000 F0B5     		push	{r4, r5, r6, r7, lr}
 585              		.cfi_def_cfa_offset 20
 586              		.cfi_offset 4, -20
 587              		.cfi_offset 5, -16
 588              		.cfi_offset 6, -12
 589              		.cfi_offset 7, -8
 590              		.cfi_offset 14, -4
 591              		.loc 1 419 0
 592 0002 444C     		ldr	r4, .L81
 593              		.loc 1 418 0
 594 0004 444D     		ldr	r5, .L81+4
 595              		.loc 1 419 0
 596 0006 A36B     		ldr	r3, [r4, #56]
 597              		.loc 1 418 0
 598 0008 2A68     		ldr	r2, [r5]
 599 000a 83B0     		sub	sp, sp, #12
 600              		.cfi_def_cfa_offset 32
 601              		.loc 1 418 0
 602 000c 0192     		str	r2, [sp, #4]
 603              		.loc 1 419 0
 604 000e 5E69     		ldr	r6, [r3, #20]
 605              		.loc 1 421 0
 606 0010 FFF7FEFF 		bl	_stats_increase_irq
 607              	.LVL44:
 608 0014 FFF7FEFF 		bl	_dbg_check_enter_isr
 609              	.LVL45:
 610              		.loc 1 423 0
 611 0018 A26B     		ldr	r2, [r4, #56]
 612 001a 06F45F43 		and	r3, r6, #57088
 613 001e DB43     		mvns	r3, r3
 614 0020 5361     		str	r3, [r2, #20]
 615              	.LBB274:
 616              	.LBB275:
 617              		.loc 1 362 0
 618 0022 636B     		ldr	r3, [r4, #52]
 619 0024 1A68     		ldr	r2, [r3]
 620 0026 1368     		ldr	r3, [r2]
 621 0028 23F01F03 		bic	r3, r3, #31
 622 002c 1360     		str	r3, [r2]
 623 002e 606B     		ldr	r0, [r4, #52]
 624 0030 0168     		ldr	r1, [r0]
 625              	.LBE275:
 626              	.LBE274:
 627              		.loc 1 419 0
ARM GAS  C:\Users\osour\AppData\Local\Temp\ccj7cKu1.s 			page 12


 628 0032 B2B2     		uxth	r2, r6
 629              	.LVL46:
 630              	.L50:
 631              	.LBB294:
 632              	.LBB292:
 633              		.loc 1 362 0
 634 0034 0B68     		ldr	r3, [r1]
 635 0036 DB07     		lsls	r3, r3, #31
 636 0038 FCD4     		bmi	.L50
 637 003a 077A     		ldrb	r7, [r0, #8]	@ zero_extendqisi2
 638 003c 4168     		ldr	r1, [r0, #4]
 639 003e 3D23     		movs	r3, #61
 640 0040 BB40     		lsls	r3, r3, r7
 641 0042 0B60     		str	r3, [r1]
 642              		.loc 1 363 0
 643 0044 236B     		ldr	r3, [r4, #48]
 644 0046 1968     		ldr	r1, [r3]
 645 0048 0B68     		ldr	r3, [r1]
 646 004a 23F01F03 		bic	r3, r3, #31
 647 004e 0B60     		str	r3, [r1]
 648 0050 206B     		ldr	r0, [r4, #48]
 649 0052 0168     		ldr	r1, [r0]
 650              	.L51:
 651 0054 0B68     		ldr	r3, [r1]
 652 0056 DF07     		lsls	r7, r3, #31
 653 0058 FCD4     		bmi	.L51
 654 005a 077A     		ldrb	r7, [r0, #8]	@ zero_extendqisi2
 655 005c 4168     		ldr	r1, [r0, #4]
 656 005e 3D23     		movs	r3, #61
 657 0060 BB40     		lsls	r3, r3, r7
 658 0062 0B60     		str	r3, [r1]
 659              		.loc 1 367 0
 660 0064 12F48073 		ands	r3, r2, #256
 661              		.loc 1 368 0
 662 0068 18BF     		it	ne
 663 006a 0123     		movne	r3, #1
 664 006c A360     		str	r3, [r4, #8]
 665              		.loc 1 370 0
 666 006e 9305     		lsls	r3, r2, #22
 667 0070 03D5     		bpl	.L54
 668              		.loc 1 371 0
 669 0072 A368     		ldr	r3, [r4, #8]
 670 0074 43F00203 		orr	r3, r3, #2
 671 0078 A360     		str	r3, [r4, #8]
 672              	.L54:
 673              		.loc 1 373 0
 674 007a 5705     		lsls	r7, r2, #21
 675 007c 30D4     		bmi	.L55
 676 007e A368     		ldr	r3, [r4, #8]
 677              	.L56:
 678              		.loc 1 379 0
 679 0080 1005     		lsls	r0, r2, #20
 680              		.loc 1 380 0
 681 0082 44BF     		itt	mi
 682 0084 43F00803 		orrmi	r3, r3, #8
 683 0088 A360     		strmi	r3, [r4, #8]
 684              		.loc 1 382 0
ARM GAS  C:\Users\osour\AppData\Local\Temp\ccj7cKu1.s 			page 13


 685 008a 5104     		lsls	r1, r2, #17
 686              		.loc 1 383 0
 687 008c 44BF     		itt	mi
 688 008e 43F02003 		orrmi	r3, r3, #32
 689 0092 A360     		strmi	r3, [r4, #8]
 690              		.loc 1 385 0
 691 0094 D204     		lsls	r2, r2, #19
 692              	.LVL47:
 693 0096 36B2     		sxth	r6, r6
 694 0098 31D5     		bpl	.L59
 695              		.loc 1 386 0
 696 009a 43F01003 		orr	r3, r3, #16
 697              		.loc 1 388 0
 698 009e 002E     		cmp	r6, #0
 699              		.loc 1 386 0
 700 00a0 A360     		str	r3, [r4, #8]
 701              		.loc 1 388 0
 702 00a2 31DB     		blt	.L60
 703              	.L61:
 704              	.LVL48:
 705              	.LBB276:
 706              	.LBB277:
 707              	.LBB278:
 708              	.LBB279:
 709              	.LBB280:
 710              	.LBB281:
 711              	.LBB282:
 712              		.loc 3 546 0
 713 00a4 2023     		movs	r3, #32
 714              		.syntax unified
 715              	@ 546 "../../lib/e-puck2_main-processor/ChibiOS//os/ext/CMSIS/include/core_cmFunc.h" 1
 716 00a6 83F31188 		MSR basepri, r3
 717              	@ 0 "" 2
 718              	.LVL49:
 719              		.thumb
 720              		.syntax unified
 721              	.LBE282:
 722              	.LBE281:
 723              	.LBE280:
 724              	.LBE279:
 725              		.loc 4 389 0
 726 00aa FFF7FEFF 		bl	_stats_start_measure_crit_isr
 727              	.LVL50:
 728              		.loc 4 390 0
 729 00ae FFF7FEFF 		bl	_dbg_check_lock_from_isr
 730              	.LVL51:
 731              	.LBE278:
 732              	.LBE277:
 733              	.LBE276:
 734              	.LBB283:
 735              	.LBB284:
 736              		.loc 2 682 0
 737 00b2 6FF00101 		mvn	r1, #1
 738 00b6 1948     		ldr	r0, .L81+8
 739 00b8 FFF7FEFF 		bl	chThdResumeI
 740              	.LVL52:
 741              	.LBE284:
ARM GAS  C:\Users\osour\AppData\Local\Temp\ccj7cKu1.s 			page 14


 742              	.LBE283:
 743              	.LBB285:
 744              	.LBB286:
 745              	.LBB287:
 746              		.loc 4 408 0
 747 00bc FFF7FEFF 		bl	_dbg_check_unlock_from_isr
 748              	.LVL53:
 749              		.loc 4 409 0
 750 00c0 FFF7FEFF 		bl	_stats_stop_measure_crit_isr
 751              	.LVL54:
 752              	.LBB288:
 753              	.LBB289:
 754              	.LBB290:
 755              	.LBB291:
 756              		.loc 3 546 0
 757 00c4 0023     		movs	r3, #0
 758              		.syntax unified
 759              	@ 546 "../../lib/e-puck2_main-processor/ChibiOS//os/ext/CMSIS/include/core_cmFunc.h" 1
 760 00c6 83F31188 		MSR basepri, r3
 761              	@ 0 "" 2
 762              	.LVL55:
 763              		.thumb
 764              		.syntax unified
 765              	.L64:
 766              	.LBE291:
 767              	.LBE290:
 768              	.LBE289:
 769              	.LBE288:
 770              	.LBE287:
 771              	.LBE286:
 772              	.LBE285:
 773              	.LBE292:
 774              	.LBE294:
 775              		.loc 1 426 0
 776 00ca FFF7FEFF 		bl	_dbg_check_leave_isr
 777              	.LVL56:
 778 00ce 019A     		ldr	r2, [sp, #4]
 779 00d0 2B68     		ldr	r3, [r5]
 780 00d2 9A42     		cmp	r2, r3
 781 00d4 1CD1     		bne	.L80
 782              		.loc 1 427 0
 783 00d6 03B0     		add	sp, sp, #12
 784              		.cfi_remember_state
 785              		.cfi_def_cfa_offset 20
 786              		@ sp needed
 787 00d8 BDE8F040 		pop	{r4, r5, r6, r7, lr}
 788              		.cfi_restore 14
 789              		.cfi_restore 7
 790              		.cfi_restore 6
 791              		.cfi_restore 5
 792              		.cfi_restore 4
 793              		.cfi_def_cfa_offset 0
 794              	.LVL57:
 795              		.loc 1 426 0
 796 00dc FFF7FEBF 		b	_port_irq_epilogue
 797              	.LVL58:
 798              	.L55:
ARM GAS  C:\Users\osour\AppData\Local\Temp\ccj7cKu1.s 			page 15


 799              		.cfi_restore_state
 800              	.LBB295:
 801              	.LBB293:
 802              		.loc 1 374 0
 803 00e0 A16B     		ldr	r1, [r4, #56]
 804 00e2 4B68     		ldr	r3, [r1, #4]
 805 00e4 23F40073 		bic	r3, r3, #512
 806 00e8 4B60     		str	r3, [r1, #4]
 807              		.loc 1 375 0
 808 00ea A16B     		ldr	r1, [r4, #56]
 809 00ec 0B68     		ldr	r3, [r1]
 810 00ee 43F40073 		orr	r3, r3, #512
 811 00f2 0B60     		str	r3, [r1]
 812              		.loc 1 376 0
 813 00f4 A368     		ldr	r3, [r4, #8]
 814 00f6 43F00403 		orr	r3, r3, #4
 815 00fa A360     		str	r3, [r4, #8]
 816 00fc C0E7     		b	.L56
 817              	.LVL59:
 818              	.L59:
 819              		.loc 1 388 0
 820 00fe 002E     		cmp	r6, #0
 821 0100 02DB     		blt	.L60
 822              		.loc 1 392 0
 823 0102 002B     		cmp	r3, #0
 824 0104 E1D0     		beq	.L64
 825 0106 CDE7     		b	.L61
 826              	.L60:
 827              		.loc 1 389 0
 828 0108 43F04003 		orr	r3, r3, #64
 829 010c A360     		str	r3, [r4, #8]
 830 010e C9E7     		b	.L61
 831              	.LVL60:
 832              	.L80:
 833              	.LBE293:
 834              	.LBE295:
 835              		.loc 1 426 0
 836 0110 FFF7FEFF 		bl	__stack_chk_fail
 837              	.LVL61:
 838              	.L82:
 839              		.align	2
 840              	.L81:
 841 0114 00000000 		.word	.LANCHOR0
 842 0118 00000000 		.word	__stack_chk_guard
 843 011c 20000000 		.word	.LANCHOR0+32
 844              		.cfi_endproc
 845              	.LFE264:
 846              		.size	VectorC0, .-VectorC0
 847              		.section	.text.i2c_lld_init,"ax",%progbits
 848              		.align	1
 849              		.p2align 4,,15
 850              		.global	i2c_lld_init
 851              		.syntax unified
 852              		.thumb
 853              		.thumb_func
 854              		.fpu fpv4-sp-d16
 855              		.type	i2c_lld_init, %function
ARM GAS  C:\Users\osour\AppData\Local\Temp\ccj7cKu1.s 			page 16


 856              	i2c_lld_init:
 857              	.LFB265:
 858              		.loc 1 503 0
 859              		.cfi_startproc
 860              		@ args = 0, pretend = 0, frame = 8
 861              		@ frame_needed = 0, uses_anonymous_args = 0
 862 0000 30B5     		push	{r4, r5, lr}
 863              		.cfi_def_cfa_offset 12
 864              		.cfi_offset 4, -12
 865              		.cfi_offset 5, -8
 866              		.cfi_offset 14, -4
 867              		.loc 1 506 0
 868 0002 0C4C     		ldr	r4, .L87
 869              		.loc 1 503 0
 870 0004 0C4D     		ldr	r5, .L87+4
 871 0006 83B0     		sub	sp, sp, #12
 872              		.cfi_def_cfa_offset 24
 873              		.loc 1 503 0
 874 0008 2B68     		ldr	r3, [r5]
 875 000a 0193     		str	r3, [sp, #4]
 876              		.loc 1 506 0
 877 000c 2046     		mov	r0, r4
 878 000e FFF7FEFF 		bl	i2cObjectInit
 879              	.LVL62:
 880              		.loc 1 509 0
 881 0012 0A4B     		ldr	r3, .L87+8
 882              		.loc 1 528 0
 883 0014 0199     		ldr	r1, [sp, #4]
 884 0016 2A68     		ldr	r2, [r5]
 885              		.loc 1 508 0
 886 0018 0948     		ldr	r0, .L87+12
 887 001a A063     		str	r0, [r4, #56]
 888              		.loc 1 507 0
 889 001c 0025     		movs	r5, #0
 890              		.loc 1 510 0
 891 001e 03F15400 		add	r0, r3, #84
 892              		.loc 1 528 0
 893 0022 9142     		cmp	r1, r2
 894              		.loc 1 507 0
 895 0024 2562     		str	r5, [r4, #32]
 896              		.loc 1 510 0
 897 0026 C4E90C30 		strd	r3, r0, [r4, #48]
 898              		.loc 1 528 0
 899 002a 01D1     		bne	.L86
 900 002c 03B0     		add	sp, sp, #12
 901              		.cfi_remember_state
 902              		.cfi_def_cfa_offset 12
 903              		@ sp needed
 904 002e 30BD     		pop	{r4, r5, pc}
 905              	.L86:
 906              		.cfi_restore_state
 907 0030 FFF7FEFF 		bl	__stack_chk_fail
 908              	.LVL63:
 909              	.L88:
 910              		.align	2
 911              	.L87:
 912 0034 00000000 		.word	.LANCHOR0
ARM GAS  C:\Users\osour\AppData\Local\Temp\ccj7cKu1.s 			page 17


 913 0038 00000000 		.word	__stack_chk_guard
 914 003c 00000000 		.word	_stm32_dma_streams
 915 0040 00540040 		.word	1073763328
 916              		.cfi_endproc
 917              	.LFE265:
 918              		.size	i2c_lld_init, .-i2c_lld_init
 919              		.section	.text.i2c_lld_start,"ax",%progbits
 920              		.align	1
 921              		.p2align 4,,15
 922              		.global	i2c_lld_start
 923              		.syntax unified
 924              		.thumb
 925              		.thumb_func
 926              		.fpu fpv4-sp-d16
 927              		.type	i2c_lld_start, %function
 928              	i2c_lld_start:
 929              	.LFB266:
 930              		.loc 1 537 0
 931              		.cfi_startproc
 932              		@ args = 0, pretend = 0, frame = 8
 933              		@ frame_needed = 0, uses_anonymous_args = 0
 934              	.LVL64:
 935 0000 2DE9F043 		push	{r4, r5, r6, r7, r8, r9, lr}
 936              		.cfi_def_cfa_offset 28
 937              		.cfi_offset 4, -28
 938              		.cfi_offset 5, -24
 939              		.cfi_offset 6, -20
 940              		.cfi_offset 7, -16
 941              		.cfi_offset 8, -12
 942              		.cfi_offset 9, -8
 943              		.cfi_offset 14, -4
 944 0004 904F     		ldr	r7, .L142
 945              		.loc 1 550 0
 946 0006 0378     		ldrb	r3, [r0]	@ zero_extendqisi2
 947              		.loc 1 537 0
 948 0008 3A68     		ldr	r2, [r7]
 949              		.loc 1 538 0
 950 000a 866B     		ldr	r6, [r0, #56]
 951              	.LVL65:
 952              		.loc 1 537 0
 953 000c 83B0     		sub	sp, sp, #12
 954              		.cfi_def_cfa_offset 40
 955              		.loc 1 544 0
 956 000e 40F25641 		movw	r1, #1110
 957              		.loc 1 537 0
 958 0012 0192     		str	r2, [sp, #4]
 959              		.loc 1 550 0
 960 0014 012B     		cmp	r3, #1
 961              		.loc 1 544 0
 962 0016 40F21642 		movw	r2, #1046
 963              		.loc 1 537 0
 964 001a 0446     		mov	r4, r0
 965              		.loc 1 544 0
 966 001c C0E90A21 		strd	r2, r1, [r0, #40]
 967              		.loc 1 550 0
 968 0020 00F09480 		beq	.L132
 969              	.LVL66:
ARM GAS  C:\Users\osour\AppData\Local\Temp\ccj7cKu1.s 			page 18


 970              	.L90:
 971              		.loc 1 632 0
 972 0024 236B     		ldr	r3, [r4, #48]
 973              	.LBB301:
 974              	.LBB302:
 975              		.loc 1 149 0
 976 0026 894A     		ldr	r2, .L142+4
 977              	.LBE302:
 978              	.LBE301:
 979              		.loc 1 632 0
 980 0028 1968     		ldr	r1, [r3]
 981 002a 06F11003 		add	r3, r6, #16
 982 002e 8B60     		str	r3, [r1, #8]
 983              		.loc 1 633 0
 984 0030 616B     		ldr	r1, [r4, #52]
 985 0032 D1F800C0 		ldr	ip, [r1]
 986              		.loc 1 636 0
 987 0036 4FF40045 		mov	r5, #32768
 988              		.loc 1 637 0
 989 003a 0020     		movs	r0, #0
 990              		.loc 1 638 0
 991 003c 4FF41061 		mov	r1, #2304
 992              		.loc 1 633 0
 993 0040 CCF80830 		str	r3, [ip, #8]
 994              		.loc 1 636 0
 995 0044 3560     		str	r5, [r6]
 996              		.loc 1 637 0
 997 0046 3060     		str	r0, [r6]
 998              		.loc 1 638 0
 999 0048 7160     		str	r1, [r6, #4]
 1000 004a 6368     		ldr	r3, [r4, #4]
 1001 004c D4F83880 		ldr	r8, [r4, #56]
 1002              	.LVL67:
 1003              	.LBB307:
 1004              	.LBB303:
 1005              		.loc 1 146 0
 1006 0050 5D68     		ldr	r5, [r3, #4]
 1007              	.LVL68:
 1008              		.loc 1 147 0
 1009 0052 93F80890 		ldrb	r9, [r3, #8]	@ zero_extendqisi2
 1010              	.LVL69:
 1011              		.loc 1 149 0
 1012 0056 6B1E     		subs	r3, r5, #1
 1013 0058 9342     		cmp	r3, r2
 1014 005a 02D9     		bls	.L93
 1015 005c 7C48     		ldr	r0, .L142+8
 1016 005e FFF7FEFF 		bl	chSysHalt
 1017              	.LVL70:
 1018              	.L93:
 1019              		.loc 1 154 0
 1020 0062 D8F80430 		ldr	r3, [r8, #4]
 1021              		.loc 1 161 0
 1022 0066 7B4A     		ldr	r2, .L142+12
 1023              		.loc 1 154 0
 1024 0068 4FF6C071 		movw	r1, #65472
 1025 006c 0B40     		ands	r3, r3, r1
 1026 006e C8F80430 		str	r3, [r8, #4]
ARM GAS  C:\Users\osour\AppData\Local\Temp\ccj7cKu1.s 			page 19


 1027              		.loc 1 155 0
 1028 0072 D8F80430 		ldr	r3, [r8, #4]
 1029              		.loc 1 161 0
 1030 0076 9542     		cmp	r5, r2
 1031              		.loc 1 155 0
 1032 0078 43F02A03 		orr	r3, r3, #42
 1033 007c C8F80430 		str	r3, [r8, #4]
 1034              	.LVL71:
 1035              		.loc 1 161 0
 1036 0080 3BDC     		bgt	.L94
 1037              		.loc 1 163 0
 1038 0082 B9F1010F 		cmp	r9, #1
 1039 0086 5AD1     		bne	.L133
 1040              	.L95:
 1041              		.loc 1 166 0
 1042 0088 734A     		ldr	r2, .L142+16
 1043 008a 4FEA4509 		lsl	r9, r5, #1
 1044              	.LVL72:
 1045 008e B2FBF9F3 		udiv	r3, r2, r9
 1046 0092 09FB1323 		mls	r3, r9, r3, r2
 1047 0096 002B     		cmp	r3, #0
 1048 0098 40F09A80 		bne	.L134
 1049              		.loc 1 168 0
 1050 009c 6E4D     		ldr	r5, .L142+16
 1051              	.LVL73:
 1052 009e B5FBF9F5 		udiv	r5, r5, r9
 1053 00a2 ADB2     		uxth	r5, r5
 1054              	.LVL74:
 1055              		.loc 1 170 0
 1056 00a4 032D     		cmp	r5, #3
 1057 00a6 40F28A80 		bls	.L135
 1058              	.L97:
 1059              	.LVL75:
 1060              		.loc 1 175 0
 1061 00aa 2B23     		movs	r3, #43
 1062              		.loc 1 205 0
 1063 00ac B5F5805F 		cmp	r5, #4096
 1064              		.loc 1 175 0
 1065 00b0 C8F82030 		str	r3, [r8, #32]
 1066 00b4 C5F30B09 		ubfx	r9, r5, #0, #12
 1067              		.loc 1 205 0
 1068 00b8 02D3     		bcc	.L98
 1069 00ba 6548     		ldr	r0, .L142+8
 1070 00bc FFF7FEFF 		bl	chSysHalt
 1071              	.LVL76:
 1072              	.L98:
 1073              		.loc 1 207 0
 1074 00c0 C8F81C90 		str	r9, [r8, #28]
 1075              	.LVL77:
 1076              	.LBE303:
 1077              	.LBE307:
 1078              	.LBB308:
 1079              	.LBB309:
 1080              		.loc 1 219 0
 1081 00c4 6268     		ldr	r2, [r4, #4]
 1082 00c6 A16B     		ldr	r1, [r4, #56]
 1083              	.LVL78:
ARM GAS  C:\Users\osour\AppData\Local\Temp\ccj7cKu1.s 			page 20


 1084              		.loc 1 223 0
 1085 00c8 1278     		ldrb	r2, [r2]	@ zero_extendqisi2
 1086              	.LVL79:
 1087              		.loc 1 222 0
 1088 00ca 0B68     		ldr	r3, [r1]
 1089              		.loc 1 223 0
 1090 00cc 022A     		cmp	r2, #2
 1091              		.loc 1 222 0
 1092 00ce 9BB2     		uxth	r3, r3
 1093              	.LVL80:
 1094              		.loc 1 223 0
 1095 00d0 6FD0     		beq	.L108
 1096 00d2 032A     		cmp	r2, #3
 1097 00d4 6AD0     		beq	.L109
 1098 00d6 012A     		cmp	r2, #1
 1099 00d8 02D1     		bne	.L107
 1100              		.loc 1 225 0
 1101 00da 23F00A03 		bic	r3, r3, #10
 1102              	.LVL81:
 1103 00de 9BB2     		uxth	r3, r3
 1104              	.LVL82:
 1105              	.L107:
 1106              		.loc 1 235 0
 1107 00e0 0B60     		str	r3, [r1]
 1108              	.LVL83:
 1109              	.LBE309:
 1110              	.LBE308:
 1111              		.loc 1 645 0
 1112 00e2 3368     		ldr	r3, [r6]
 1113 00e4 43F00103 		orr	r3, r3, #1
 1114 00e8 3360     		str	r3, [r6]
 1115              		.loc 1 646 0
 1116 00ea 019A     		ldr	r2, [sp, #4]
 1117 00ec 3B68     		ldr	r3, [r7]
 1118 00ee 9A42     		cmp	r2, r3
 1119 00f0 40F0A780 		bne	.L136
 1120 00f4 03B0     		add	sp, sp, #12
 1121              		.cfi_remember_state
 1122              		.cfi_def_cfa_offset 28
 1123              		@ sp needed
 1124 00f6 BDE8F083 		pop	{r4, r5, r6, r7, r8, r9, pc}
 1125              	.LVL84:
 1126              	.L94:
 1127              		.cfi_restore_state
 1128              	.LBB311:
 1129              	.LBB304:
 1130              		.loc 1 177 0
 1131 00fa 584B     		ldr	r3, .L142+20
 1132 00fc 9D42     		cmp	r5, r3
 1133 00fe 22DC     		bgt	.L112
 1134              		.loc 1 179 0
 1135 0100 A9F10203 		sub	r3, r9, #2
 1136 0104 012B     		cmp	r3, #1
 1137 0106 6ED8     		bhi	.L137
 1138              		.loc 1 183 0
 1139 0108 B9F1020F 		cmp	r9, #2
 1140 010c 74D1     		bne	.L102
ARM GAS  C:\Users\osour\AppData\Local\Temp\ccj7cKu1.s 			page 21


 1141              		.loc 1 185 0
 1142 010e 524A     		ldr	r2, .L142+16
 1143 0110 05EB4505 		add	r5, r5, r5, lsl #1
 1144              	.LVL85:
 1145 0114 B2FBF5F3 		udiv	r3, r2, r5
 1146 0118 05FB1323 		mls	r3, r5, r3, r2
 1147 011c 002B     		cmp	r3, #0
 1148 011e 40F08C80 		bne	.L138
 1149              	.L103:
 1150              		.loc 1 187 0
 1151 0122 4D4B     		ldr	r3, .L142+16
 1152 0124 B3FBF5F9 		udiv	r9, r3, r5
 1153              	.LVL86:
 1154              		.loc 1 158 0
 1155 0128 0023     		movs	r3, #0
 1156              		.loc 1 187 0
 1157 012a 1FFA89F9 		uxth	r9, r9
 1158              	.LVL87:
 1159              	.L104:
 1160              		.loc 1 199 0
 1161 012e 49EA0309 		orr	r9, r9, r3
 1162              	.LVL88:
 1163              		.loc 1 202 0
 1164 0132 0D23     		movs	r3, #13
 1165 0134 49F40049 		orr	r9, r9, #32768
 1166              	.LVL89:
 1167 0138 C8F82030 		str	r3, [r8, #32]
 1168 013c C0E7     		b	.L98
 1169              	.LVL90:
 1170              	.L133:
 1171              		.loc 1 163 0
 1172 013e 4448     		ldr	r0, .L142+8
 1173 0140 FFF7FEFF 		bl	chSysHalt
 1174              	.LVL91:
 1175 0144 A0E7     		b	.L95
 1176              	.L112:
 1177              		.loc 1 177 0
 1178 0146 4FF00009 		mov	r9, #0
 1179              	.LVL92:
 1180 014a B9E7     		b	.L98
 1181              	.LVL93:
 1182              	.L132:
 1183              	.LBE304:
 1184              	.LBE311:
 1185              		.loc 1 553 0
 1186 014c 444D     		ldr	r5, .L142+24
 1187 014e A842     		cmp	r0, r5
 1188 0150 7FF468AF 		bne	.L90
 1189              	.LBB312:
 1190              		.loc 1 556 0
 1191 0154 434B     		ldr	r3, .L142+28
 1192              		.loc 1 557 0
 1193 0156 444A     		ldr	r2, .L142+32
 1194              		.loc 1 556 0
 1195 0158 196A     		ldr	r1, [r3, #32]
 1196 015a 0020     		movs	r0, #0
 1197              	.LVL94:
ARM GAS  C:\Users\osour\AppData\Local\Temp\ccj7cKu1.s 			page 22


 1198 015c 41F40011 		orr	r1, r1, #2097152
 1199 0160 1962     		str	r1, [r3, #32]
 1200 0162 1862     		str	r0, [r3, #32]
 1201              		.loc 1 557 0
 1202 0164 206B     		ldr	r0, [r4, #48]
 1203 0166 2346     		mov	r3, r4
 1204 0168 0521     		movs	r1, #5
 1205 016a FFF7FEFF 		bl	dmaStreamAllocate
 1206              	.LVL95:
 1207              		.loc 1 561 0
 1208 016e 0028     		cmp	r0, #0
 1209 0170 5FD1     		bne	.L139
 1210              	.LVL96:
 1211              	.L91:
 1212              		.loc 1 562 0
 1213 0172 3B4B     		ldr	r3, .L142+24
 1214 0174 3D4A     		ldr	r2, .L142+36
 1215 0176 686B     		ldr	r0, [r5, #52]
 1216 0178 0521     		movs	r1, #5
 1217 017a FFF7FEFF 		bl	dmaStreamAllocate
 1218              	.LVL97:
 1219              		.loc 1 566 0
 1220 017e 0028     		cmp	r0, #0
 1221 0180 53D1     		bne	.L140
 1222              	.LVL98:
 1223              	.L92:
 1224              		.loc 1 567 0
 1225 0182 384A     		ldr	r2, .L142+28
 1226 0184 136C     		ldr	r3, [r2, #64]
 1227 0186 43F40013 		orr	r3, r3, #2097152
 1228 018a 1364     		str	r3, [r2, #64]
 1229              		.loc 1 568 0
 1230 018c 0521     		movs	r1, #5
 1231 018e 1F20     		movs	r0, #31
 1232 0190 FFF7FEFF 		bl	nvicEnableVector
 1233              	.LVL99:
 1234              		.loc 1 569 0
 1235 0194 0521     		movs	r1, #5
 1236 0196 2020     		movs	r0, #32
 1237 0198 FFF7FEFF 		bl	nvicEnableVector
 1238              	.LVL100:
 1239              		.loc 1 571 0
 1240 019c AA6A     		ldr	r2, [r5, #40]
 1241 019e 3449     		ldr	r1, .L142+40
 1242              		.loc 1 573 0
 1243 01a0 EB6A     		ldr	r3, [r5, #44]
 1244              		.loc 1 571 0
 1245 01a2 0A43     		orrs	r2, r2, r1
 1246              		.loc 1 573 0
 1247 01a4 0B43     		orrs	r3, r3, r1
 1248 01a6 C5E90A23 		strd	r2, r3, [r5, #40]
 1249 01aa 3BE7     		b	.L90
 1250              	.LVL101:
 1251              	.L109:
 1252              	.LBE312:
 1253              	.LBB313:
 1254              	.LBB310:
ARM GAS  C:\Users\osour\AppData\Local\Temp\ccj7cKu1.s 			page 23


 1255              		.loc 1 232 0
 1256 01ac 43F00A03 		orr	r3, r3, #10
 1257              	.LVL102:
 1258 01b0 96E7     		b	.L107
 1259              	.L108:
 1260              	.LVL103:
 1261 01b2 23F00803 		bic	r3, r3, #8
 1262              	.LVL104:
 1263 01b6 9BB2     		uxth	r3, r3
 1264              		.loc 1 229 0
 1265 01b8 43F00203 		orr	r3, r3, #2
 1266              	.LVL105:
 1267 01bc 90E7     		b	.L107
 1268              	.LVL106:
 1269              	.L135:
 1270              	.LBE310:
 1271              	.LBE313:
 1272              	.LBB314:
 1273              	.LBB305:
 1274              		.loc 1 170 0
 1275 01be 2448     		ldr	r0, .L142+8
 1276 01c0 FFF7FEFF 		bl	chSysHalt
 1277              	.LVL107:
 1278              		.loc 1 175 0
 1279 01c4 2B23     		movs	r3, #43
 1280 01c6 C5F30B09 		ubfx	r9, r5, #0, #12
 1281 01ca C8F82030 		str	r3, [r8, #32]
 1282 01ce 77E7     		b	.L98
 1283              	.LVL108:
 1284              	.L134:
 1285              		.loc 1 166 0
 1286 01d0 1F48     		ldr	r0, .L142+8
 1287              		.loc 1 168 0
 1288 01d2 214D     		ldr	r5, .L142+16
 1289              	.LVL109:
 1290              		.loc 1 166 0
 1291 01d4 FFF7FEFF 		bl	chSysHalt
 1292              	.LVL110:
 1293              		.loc 1 168 0
 1294 01d8 B5FBF9F5 		udiv	r5, r5, r9
 1295 01dc ADB2     		uxth	r5, r5
 1296              	.LVL111:
 1297              		.loc 1 170 0
 1298 01de 032D     		cmp	r5, #3
 1299 01e0 3FF663AF 		bhi	.L97
 1300 01e4 EBE7     		b	.L135
 1301              	.LVL112:
 1302              	.L137:
 1303              		.loc 1 179 0
 1304 01e6 1A48     		ldr	r0, .L142+8
 1305 01e8 FFF7FEFF 		bl	chSysHalt
 1306              	.LVL113:
 1307              	.L101:
 1308              		.loc 1 202 0
 1309 01ec 0D23     		movs	r3, #13
 1310 01ee C8F82030 		str	r3, [r8, #32]
 1311 01f2 48F6FF79 		movw	r9, #36863
ARM GAS  C:\Users\osour\AppData\Local\Temp\ccj7cKu1.s 			page 24


 1312              	.LVL114:
 1313 01f6 63E7     		b	.L98
 1314              	.LVL115:
 1315              	.L102:
 1316              		.loc 1 189 0
 1317 01f8 B9F1030F 		cmp	r9, #3
 1318 01fc F6D1     		bne	.L101
 1319              		.loc 1 191 0
 1320 01fe 164A     		ldr	r2, .L142+16
 1321 0200 05EB8505 		add	r5, r5, r5, lsl #2
 1322              	.LVL116:
 1323 0204 05EB8505 		add	r5, r5, r5, lsl #2
 1324 0208 B2FBF5F3 		udiv	r3, r2, r5
 1325 020c 05FB1323 		mls	r3, r5, r3, r2
 1326 0210 3BB9     		cbnz	r3, .L141
 1327              	.L106:
 1328              		.loc 1 193 0
 1329 0212 114B     		ldr	r3, .L142+16
 1330 0214 B3FBF5F5 		udiv	r5, r3, r5
 1331              		.loc 1 194 0
 1332 0218 4FF48043 		mov	r3, #16384
 1333              		.loc 1 193 0
 1334 021c 1FFA85F9 		uxth	r9, r5
 1335              	.LVL117:
 1336 0220 85E7     		b	.L104
 1337              	.LVL118:
 1338              	.L141:
 1339              		.loc 1 191 0
 1340 0222 0B48     		ldr	r0, .L142+8
 1341 0224 FFF7FEFF 		bl	chSysHalt
 1342              	.LVL119:
 1343 0228 F3E7     		b	.L106
 1344              	.LVL120:
 1345              	.L140:
 1346              	.LBE305:
 1347              	.LBE314:
 1348              	.LBB315:
 1349              		.loc 1 566 0 discriminator 2
 1350 022a 1248     		ldr	r0, .L142+44
 1351              	.LVL121:
 1352 022c FFF7FEFF 		bl	chSysHalt
 1353              	.LVL122:
 1354 0230 A7E7     		b	.L92
 1355              	.LVL123:
 1356              	.L139:
 1357              		.loc 1 561 0 discriminator 2
 1358 0232 1048     		ldr	r0, .L142+44
 1359              	.LVL124:
 1360 0234 FFF7FEFF 		bl	chSysHalt
 1361              	.LVL125:
 1362 0238 9BE7     		b	.L91
 1363              	.LVL126:
 1364              	.L138:
 1365              	.LBE315:
 1366              	.LBB316:
 1367              	.LBB306:
 1368              		.loc 1 185 0
ARM GAS  C:\Users\osour\AppData\Local\Temp\ccj7cKu1.s 			page 25


 1369 023a 0548     		ldr	r0, .L142+8
 1370 023c FFF7FEFF 		bl	chSysHalt
 1371              	.LVL127:
 1372 0240 6FE7     		b	.L103
 1373              	.LVL128:
 1374              	.L136:
 1375              	.LBE306:
 1376              	.LBE316:
 1377              		.loc 1 646 0
 1378 0242 FFF7FEFF 		bl	__stack_chk_fail
 1379              	.LVL129:
 1380              	.L143:
 1381 0246 00BF     		.align	2
 1382              	.L142:
 1383 0248 00000000 		.word	__stack_chk_guard
 1384 024c FF083D00 		.word	3999999
 1385 0250 00000000 		.word	.LANCHOR2
 1386 0254 A0860100 		.word	100000
 1387 0258 80DE8002 		.word	42000000
 1388 025c 801A0600 		.word	400000
 1389 0260 00000000 		.word	.LANCHOR0
 1390 0264 00380240 		.word	1073887232
 1391 0268 00000000 		.word	i2c_lld_serve_rx_end_irq
 1392 026c 00000000 		.word	i2c_lld_serve_tx_end_irq
 1393 0270 00000302 		.word	33751040
 1394 0274 00000000 		.word	.LANCHOR1
 1395              		.cfi_endproc
 1396              	.LFE266:
 1397              		.size	i2c_lld_start, .-i2c_lld_start
 1398              		.section	.text.i2c_lld_stop,"ax",%progbits
 1399              		.align	1
 1400              		.p2align 4,,15
 1401              		.global	i2c_lld_stop
 1402              		.syntax unified
 1403              		.thumb
 1404              		.thumb_func
 1405              		.fpu fpv4-sp-d16
 1406              		.type	i2c_lld_stop, %function
 1407              	i2c_lld_stop:
 1408              	.LFB267:
 1409              		.loc 1 655 0
 1410              		.cfi_startproc
 1411              		@ args = 0, pretend = 0, frame = 8
 1412              		@ frame_needed = 0, uses_anonymous_args = 0
 1413              	.LVL130:
 1414 0000 30B5     		push	{r4, r5, lr}
 1415              		.cfi_def_cfa_offset 12
 1416              		.cfi_offset 4, -12
 1417              		.cfi_offset 5, -8
 1418              		.cfi_offset 14, -4
 1419 0002 264D     		ldr	r5, .L156
 1420              		.loc 1 658 0
 1421 0004 0378     		ldrb	r3, [r0]	@ zero_extendqisi2
 1422              		.loc 1 655 0
 1423 0006 2A68     		ldr	r2, [r5]
 1424 0008 83B0     		sub	sp, sp, #12
 1425              		.cfi_def_cfa_offset 24
ARM GAS  C:\Users\osour\AppData\Local\Temp\ccj7cKu1.s 			page 26


 1426              		.loc 1 658 0
 1427 000a 012B     		cmp	r3, #1
 1428              		.loc 1 655 0
 1429 000c 0192     		str	r2, [sp, #4]
 1430              		.loc 1 658 0
 1431 000e 31D0     		beq	.L144
 1432              	.LBB319:
 1433              	.LBB320:
 1434              		.loc 1 123 0
 1435 0010 836B     		ldr	r3, [r0, #56]
 1436              		.loc 1 127 0
 1437 0012 0022     		movs	r2, #0
 1438              		.loc 1 126 0
 1439 0014 4FF40041 		mov	r1, #32768
 1440 0018 1960     		str	r1, [r3]
 1441              		.loc 1 127 0
 1442 001a 1A60     		str	r2, [r3]
 1443              		.loc 1 128 0
 1444 001c 5A60     		str	r2, [r3, #4]
 1445              		.loc 1 129 0
 1446 001e 5A61     		str	r2, [r3, #20]
 1447              		.loc 1 132 0
 1448 0020 436B     		ldr	r3, [r0, #52]
 1449 0022 1A68     		ldr	r2, [r3]
 1450 0024 1368     		ldr	r3, [r2]
 1451 0026 23F01F03 		bic	r3, r3, #31
 1452 002a 1360     		str	r3, [r2]
 1453 002c 416B     		ldr	r1, [r0, #52]
 1454 002e 0A68     		ldr	r2, [r1]
 1455 0030 0446     		mov	r4, r0
 1456              	.LVL131:
 1457              	.L147:
 1458 0032 1368     		ldr	r3, [r2]
 1459 0034 D807     		lsls	r0, r3, #31
 1460 0036 FCD4     		bmi	.L147
 1461 0038 087A     		ldrb	r0, [r1, #8]	@ zero_extendqisi2
 1462 003a 4A68     		ldr	r2, [r1, #4]
 1463 003c 3D23     		movs	r3, #61
 1464 003e 8340     		lsls	r3, r3, r0
 1465 0040 1360     		str	r3, [r2]
 1466              		.loc 1 133 0
 1467 0042 236B     		ldr	r3, [r4, #48]
 1468 0044 1A68     		ldr	r2, [r3]
 1469 0046 1368     		ldr	r3, [r2]
 1470 0048 23F01F03 		bic	r3, r3, #31
 1471 004c 1360     		str	r3, [r2]
 1472 004e 216B     		ldr	r1, [r4, #48]
 1473 0050 0A68     		ldr	r2, [r1]
 1474              	.L148:
 1475 0052 1368     		ldr	r3, [r2]
 1476 0054 DB07     		lsls	r3, r3, #31
 1477 0056 FCD4     		bmi	.L148
 1478 0058 087A     		ldrb	r0, [r1, #8]	@ zero_extendqisi2
 1479 005a 4A68     		ldr	r2, [r1, #4]
 1480 005c 3D23     		movs	r3, #61
 1481 005e 8340     		lsls	r3, r3, r0
 1482 0060 1360     		str	r3, [r2]
ARM GAS  C:\Users\osour\AppData\Local\Temp\ccj7cKu1.s 			page 27


 1483              	.LVL132:
 1484              	.LBE320:
 1485              	.LBE319:
 1486              		.loc 1 662 0
 1487 0062 606B     		ldr	r0, [r4, #52]
 1488 0064 FFF7FEFF 		bl	dmaStreamRelease
 1489              	.LVL133:
 1490              		.loc 1 663 0
 1491 0068 206B     		ldr	r0, [r4, #48]
 1492 006a FFF7FEFF 		bl	dmaStreamRelease
 1493              	.LVL134:
 1494              		.loc 1 666 0
 1495 006e 0C4B     		ldr	r3, .L156+4
 1496 0070 9C42     		cmp	r4, r3
 1497 0072 05D0     		beq	.L154
 1498              	.LVL135:
 1499              	.L144:
 1500              		.loc 1 689 0
 1501 0074 019A     		ldr	r2, [sp, #4]
 1502 0076 2B68     		ldr	r3, [r5]
 1503 0078 9A42     		cmp	r2, r3
 1504 007a 0DD1     		bne	.L155
 1505 007c 03B0     		add	sp, sp, #12
 1506              		.cfi_remember_state
 1507              		.cfi_def_cfa_offset 12
 1508              		@ sp needed
 1509 007e 30BD     		pop	{r4, r5, pc}
 1510              	.LVL136:
 1511              	.L154:
 1512              		.cfi_restore_state
 1513              		.loc 1 667 0
 1514 0080 1F20     		movs	r0, #31
 1515 0082 FFF7FEFF 		bl	nvicDisableVector
 1516              	.LVL137:
 1517              		.loc 1 668 0
 1518 0086 2020     		movs	r0, #32
 1519 0088 FFF7FEFF 		bl	nvicDisableVector
 1520              	.LVL138:
 1521              		.loc 1 669 0
 1522 008c 054A     		ldr	r2, .L156+8
 1523 008e 136C     		ldr	r3, [r2, #64]
 1524 0090 23F40013 		bic	r3, r3, #2097152
 1525 0094 1364     		str	r3, [r2, #64]
 1526              		.loc 1 689 0
 1527 0096 EDE7     		b	.L144
 1528              	.LVL139:
 1529              	.L155:
 1530 0098 FFF7FEFF 		bl	__stack_chk_fail
 1531              	.LVL140:
 1532              	.L157:
 1533              		.align	2
 1534              	.L156:
 1535 009c 00000000 		.word	__stack_chk_guard
 1536 00a0 00000000 		.word	.LANCHOR0
 1537 00a4 00380240 		.word	1073887232
 1538              		.cfi_endproc
 1539              	.LFE267:
ARM GAS  C:\Users\osour\AppData\Local\Temp\ccj7cKu1.s 			page 28


 1540              		.size	i2c_lld_stop, .-i2c_lld_stop
 1541              		.section	.text.i2c_lld_master_receive_timeout,"ax",%progbits
 1542              		.align	1
 1543              		.p2align 4,,15
 1544              		.global	i2c_lld_master_receive_timeout
 1545              		.syntax unified
 1546              		.thumb
 1547              		.thumb_func
 1548              		.fpu fpv4-sp-d16
 1549              		.type	i2c_lld_master_receive_timeout, %function
 1550              	i2c_lld_master_receive_timeout:
 1551              	.LFB268:
 1552              		.loc 1 716 0
 1553              		.cfi_startproc
 1554              		@ args = 4, pretend = 0, frame = 16
 1555              		@ frame_needed = 0, uses_anonymous_args = 0
 1556              	.LVL141:
 1557 0000 2DE9F04F 		push	{r4, r5, r6, r7, r8, r9, r10, fp, lr}
 1558              		.cfi_def_cfa_offset 36
 1559              		.cfi_offset 4, -36
 1560              		.cfi_offset 5, -32
 1561              		.cfi_offset 6, -28
 1562              		.cfi_offset 7, -24
 1563              		.cfi_offset 8, -20
 1564              		.cfi_offset 9, -16
 1565              		.cfi_offset 10, -12
 1566              		.cfi_offset 11, -8
 1567              		.cfi_offset 14, -4
 1568 0004 DFF80CA1 		ldr	r10, .L171+4
 1569              	.LBB352:
 1570              	.LBB353:
 1571              	.LBB354:
 1572              		.loc 4 367 0
 1573 0008 DFF80CB1 		ldr	fp, .L171+8
 1574              	.LBE354:
 1575              	.LBE353:
 1576              	.LBE352:
 1577              		.loc 1 716 0
 1578 000c 85B0     		sub	sp, sp, #20
 1579              		.cfi_def_cfa_offset 56
 1580              		.loc 1 716 0
 1581 000e 8046     		mov	r8, r0
 1582              		.loc 1 728 0
 1583 0010 4C00     		lsls	r4, r1, #1
 1584              		.loc 1 716 0
 1585 0012 DAF80000 		ldr	r0, [r10]
 1586              	.LVL142:
 1587 0016 0390     		str	r0, [sp, #12]
 1588              		.loc 1 728 0
 1589 0018 44F00104 		orr	r4, r4, #1
 1590              		.loc 1 725 0
 1591 001c 0020     		movs	r0, #0
 1592              		.loc 1 728 0
 1593 001e A8F82440 		strh	r4, [r8, #36]	@ movhi
 1594              		.loc 1 725 0
 1595 0022 C8F80800 		str	r0, [r8, #8]
 1596              		.loc 1 716 0
ARM GAS  C:\Users\osour\AppData\Local\Temp\ccj7cKu1.s 			page 29


 1597 0026 1E46     		mov	r6, r3
 1598 0028 0E9B     		ldr	r3, [sp, #56]
 1599              	.LVL143:
 1600 002a 0193     		str	r3, [sp, #4]
 1601 002c 1746     		mov	r7, r2
 1602              		.loc 1 717 0
 1603 002e D8F83840 		ldr	r4, [r8, #56]
 1604              	.LVL144:
 1605              	.LBB362:
 1606              	.LBB360:
 1607              	.LBB358:
 1608              		.loc 4 360 0
 1609 0032 FFF7FEFF 		bl	_dbg_check_unlock
 1610              	.LVL145:
 1611              		.loc 4 361 0
 1612 0036 FFF7FEFF 		bl	_stats_stop_measure_crit_thd
 1613              	.LVL146:
 1614              		.loc 4 367 0
 1615 003a DBF80030 		ldr	r3, [fp]
 1616 003e 5B45     		cmp	r3, fp
 1617 0040 05D0     		beq	.L159
 1618 0042 DBF81820 		ldr	r2, [fp, #24]
 1619 0046 9B68     		ldr	r3, [r3, #8]
 1620 0048 9268     		ldr	r2, [r2, #8]
 1621 004a 9A42     		cmp	r2, r3
 1622 004c 44D3     		bcc	.L169
 1623              	.L159:
 1624              	.LVL147:
 1625              	.LBB355:
 1626              	.LBB356:
 1627              	.LBB357:
 1628              		.loc 3 546 0
 1629 004e 0025     		movs	r5, #0
 1630              		.syntax unified
 1631              	@ 546 "../../lib/e-puck2_main-processor/ChibiOS//os/ext/CMSIS/include/core_cmFunc.h" 1
 1632 0050 85F31188 		MSR basepri, r5
 1633              	@ 0 "" 2
 1634              	.LVL148:
 1635              		.thumb
 1636              		.syntax unified
 1637              	.LBE357:
 1638              	.LBE356:
 1639              	.LBE355:
 1640              	.LBE358:
 1641              	.LBE360:
 1642              	.LBE362:
 1643              		.loc 1 734 0
 1644 0054 D8F83030 		ldr	r3, [r8, #48]
 1645 0058 D8F82820 		ldr	r2, [r8, #40]
 1646 005c 1B68     		ldr	r3, [r3]
 1647              	.LBB363:
 1648              	.LBB364:
 1649              	.LBB365:
 1650              		.loc 4 367 0
 1651 005e DFF8B090 		ldr	r9, .L171
 1652              	.LBE365:
 1653              	.LBE364:
ARM GAS  C:\Users\osour\AppData\Local\Temp\ccj7cKu1.s 			page 30


 1654              	.LBE363:
 1655              		.loc 1 734 0
 1656 0062 1A60     		str	r2, [r3]
 1657              		.loc 1 735 0
 1658 0064 D8F83030 		ldr	r3, [r8, #48]
 1659 0068 1B68     		ldr	r3, [r3]
 1660 006a DF60     		str	r7, [r3, #12]
 1661              		.loc 1 736 0
 1662 006c D8F83030 		ldr	r3, [r8, #48]
 1663 0070 1B68     		ldr	r3, [r3]
 1664 0072 5E60     		str	r6, [r3, #4]
 1665              	.LBB371:
 1666              	.LBB372:
 1667              	.LBB373:
 1668              		.file 5 "../../lib/e-puck2_main-processor/ChibiOS//os/rt/include/chvt.h"
 1669              		.loc 5 231 0
 1670 0074 DBF82870 		ldr	r7, [fp, #40]
 1671              	.LVL149:
 1672              	.LBE373:
 1673              	.LBE372:
 1674              	.LBE371:
 1675              	.LBB374:
 1676              	.LBB375:
 1677              	.LBB376:
 1678              	.LBB377:
 1679              	.LBB378:
 1680              	.LBB379:
 1681              		.loc 3 546 0
 1682 0078 2026     		movs	r6, #32
 1683              	.LVL150:
 1684 007a 12E0     		b	.L164
 1685              	.LVL151:
 1686              	.L170:
 1687              	.LBE379:
 1688              	.LBE378:
 1689              	.LBE377:
 1690              	.LBE376:
 1691              	.LBE375:
 1692              	.LBE374:
 1693              	.LBB385:
 1694              	.LBB370:
 1695              	.LBB369:
 1696              		.loc 4 360 0
 1697 007c FFF7FEFF 		bl	_dbg_check_unlock
 1698              	.LVL152:
 1699              		.loc 4 361 0
 1700 0080 FFF7FEFF 		bl	_stats_stop_measure_crit_thd
 1701              	.LVL153:
 1702              		.loc 4 367 0
 1703 0084 DBF80030 		ldr	r3, [fp]
 1704 0088 5B45     		cmp	r3, fp
 1705 008a 08D0     		beq	.L163
 1706 008c DBF81820 		ldr	r2, [fp, #24]
 1707 0090 9B68     		ldr	r3, [r3, #8]
 1708 0092 9268     		ldr	r2, [r2, #8]
 1709 0094 9A42     		cmp	r2, r3
 1710 0096 02D2     		bcs	.L163
ARM GAS  C:\Users\osour\AppData\Local\Temp\ccj7cKu1.s 			page 31


 1711 0098 4846     		mov	r0, r9
 1712 009a FFF7FEFF 		bl	chSysHalt
 1713              	.LVL154:
 1714              	.L163:
 1715              	.LBB366:
 1716              	.LBB367:
 1717              	.LBB368:
 1718              		.loc 3 546 0
 1719              		.syntax unified
 1720              	@ 546 "../../lib/e-puck2_main-processor/ChibiOS//os/ext/CMSIS/include/core_cmFunc.h" 1
 1721 009e 85F31188 		MSR basepri, r5
 1722              	@ 0 "" 2
 1723              	.LVL155:
 1724              		.thumb
 1725              		.syntax unified
 1726              	.L164:
 1727              	.LBE368:
 1728              	.LBE367:
 1729              	.LBE366:
 1730              	.LBE369:
 1731              	.LBE370:
 1732              	.LBE385:
 1733              	.LBB386:
 1734              	.LBB384:
 1735              	.LBB383:
 1736              	.LBB382:
 1737              	.LBB381:
 1738              	.LBB380:
 1739              		.syntax unified
 1740              	@ 546 "../../lib/e-puck2_main-processor/ChibiOS//os/ext/CMSIS/include/core_cmFunc.h" 1
 1741 00a2 86F31188 		MSR basepri, r6
 1742              	@ 0 "" 2
 1743              	.LVL156:
 1744              		.thumb
 1745              		.syntax unified
 1746              	.LBE380:
 1747              	.LBE381:
 1748              	.LBE382:
 1749              		.loc 4 349 0
 1750 00a6 FFF7FEFF 		bl	_stats_start_measure_crit_thd
 1751              	.LVL157:
 1752              		.loc 4 350 0
 1753 00aa FFF7FEFF 		bl	_dbg_check_lock
 1754              	.LVL158:
 1755              	.LBE383:
 1756              	.LBE384:
 1757              	.LBE386:
 1758              		.loc 1 749 0
 1759 00ae A369     		ldr	r3, [r4, #24]
 1760 00b0 9A07     		lsls	r2, r3, #30
 1761 00b2 02D4     		bmi	.L160
 1762              		.loc 1 749 0 is_stmt 0 discriminator 1
 1763 00b4 2368     		ldr	r3, [r4]
 1764 00b6 9B05     		lsls	r3, r3, #22
 1765 00b8 12D5     		bpl	.L161
 1766              	.L160:
 1767              	.LBB387:
ARM GAS  C:\Users\osour\AppData\Local\Temp\ccj7cKu1.s 			page 32


 1768              	.LBB388:
 1769              	.LBB389:
 1770              		.loc 5 231 0 is_stmt 1
 1771 00ba DBF82830 		ldr	r3, [fp, #40]
 1772              	.LBE389:
 1773              	.LBE388:
 1774              	.LBE387:
 1775              	.LBB390:
 1776              	.LBB391:
 1777              	.LBB392:
 1778              		.loc 5 288 0
 1779 00be DB1B     		subs	r3, r3, r7
 1780              	.LBE392:
 1781              	.LBE391:
 1782              	.LBE390:
 1783              		.loc 1 754 0
 1784 00c0 312B     		cmp	r3, #49
 1785 00c2 DBD9     		bls	.L170
 1786              		.loc 1 766 0
 1787 00c4 039A     		ldr	r2, [sp, #12]
 1788 00c6 DAF80030 		ldr	r3, [r10]
 1789 00ca 9A42     		cmp	r2, r3
 1790 00cc 4FF0FF30 		mov	r0, #-1
 1791 00d0 1BD1     		bne	.L168
 1792 00d2 05B0     		add	sp, sp, #20
 1793              		.cfi_remember_state
 1794              		.cfi_def_cfa_offset 36
 1795              		@ sp needed
 1796 00d4 BDE8F08F 		pop	{r4, r5, r6, r7, r8, r9, r10, fp, pc}
 1797              	.LVL159:
 1798              	.L169:
 1799              		.cfi_restore_state
 1800              	.LBB393:
 1801              	.LBB361:
 1802              	.LBB359:
 1803              		.loc 4 367 0
 1804 00d8 0D48     		ldr	r0, .L171
 1805 00da FFF7FEFF 		bl	chSysHalt
 1806              	.LVL160:
 1807 00de B6E7     		b	.L159
 1808              	.LVL161:
 1809              	.L161:
 1810              	.LBE359:
 1811              	.LBE361:
 1812              	.LBE393:
 1813              		.loc 1 761 0
 1814 00e0 6368     		ldr	r3, [r4, #4]
 1815 00e2 43F40073 		orr	r3, r3, #512
 1816 00e6 6360     		str	r3, [r4, #4]
 1817              		.loc 1 762 0
 1818 00e8 2368     		ldr	r3, [r4]
 1819 00ea 43F4A063 		orr	r3, r3, #1280
 1820 00ee 2360     		str	r3, [r4]
 1821              	.LVL162:
 1822              	.LBB394:
 1823              	.LBB395:
 1824              		.loc 2 667 0
ARM GAS  C:\Users\osour\AppData\Local\Temp\ccj7cKu1.s 			page 33


 1825 00f0 039A     		ldr	r2, [sp, #12]
 1826 00f2 DAF80030 		ldr	r3, [r10]
 1827 00f6 9A42     		cmp	r2, r3
 1828 00f8 07D1     		bne	.L168
 1829 00fa 0199     		ldr	r1, [sp, #4]
 1830 00fc 08F12000 		add	r0, r8, #32
 1831              	.LVL163:
 1832              	.LBE395:
 1833              	.LBE394:
 1834              		.loc 1 766 0
 1835 0100 05B0     		add	sp, sp, #20
 1836              		.cfi_remember_state
 1837              		.cfi_def_cfa_offset 36
 1838              		@ sp needed
 1839 0102 BDE8F04F 		pop	{r4, r5, r6, r7, r8, r9, r10, fp, lr}
 1840              		.cfi_restore 14
 1841              		.cfi_restore 11
 1842              		.cfi_restore 10
 1843              		.cfi_restore 9
 1844              		.cfi_restore 8
 1845              		.cfi_restore 7
 1846              		.cfi_restore 6
 1847              		.cfi_restore 5
 1848              		.cfi_restore 4
 1849              		.cfi_def_cfa_offset 0
 1850              	.LVL164:
 1851              	.LBB397:
 1852              	.LBB396:
 1853              		.loc 2 667 0
 1854 0106 FFF7FEBF 		b	chThdSuspendTimeoutS
 1855              	.LVL165:
 1856              	.L168:
 1857              		.cfi_restore_state
 1858              	.LBE396:
 1859              	.LBE397:
 1860              		.loc 1 766 0
 1861 010a FFF7FEFF 		bl	__stack_chk_fail
 1862              	.LVL166:
 1863              	.L172:
 1864 010e 00BF     		.align	2
 1865              	.L171:
 1866 0110 00000000 		.word	.LANCHOR3
 1867 0114 00000000 		.word	__stack_chk_guard
 1868 0118 00000000 		.word	ch
 1869              		.cfi_endproc
 1870              	.LFE268:
 1871              		.size	i2c_lld_master_receive_timeout, .-i2c_lld_master_receive_timeout
 1872              		.section	.text.i2c_lld_master_transmit_timeout,"ax",%progbits
 1873              		.align	1
 1874              		.p2align 4,,15
 1875              		.global	i2c_lld_master_transmit_timeout
 1876              		.syntax unified
 1877              		.thumb
 1878              		.thumb_func
 1879              		.fpu fpv4-sp-d16
 1880              		.type	i2c_lld_master_transmit_timeout, %function
 1881              	i2c_lld_master_transmit_timeout:
ARM GAS  C:\Users\osour\AppData\Local\Temp\ccj7cKu1.s 			page 34


 1882              	.LFB269:
 1883              		.loc 1 796 0
 1884              		.cfi_startproc
 1885              		@ args = 12, pretend = 0, frame = 16
 1886              		@ frame_needed = 0, uses_anonymous_args = 0
 1887              	.LVL167:
 1888 0000 2DE9F04F 		push	{r4, r5, r6, r7, r8, r9, r10, fp, lr}
 1889              		.cfi_def_cfa_offset 36
 1890              		.cfi_offset 4, -36
 1891              		.cfi_offset 5, -32
 1892              		.cfi_offset 6, -28
 1893              		.cfi_offset 7, -24
 1894              		.cfi_offset 8, -20
 1895              		.cfi_offset 9, -16
 1896              		.cfi_offset 10, -12
 1897              		.cfi_offset 11, -8
 1898              		.cfi_offset 14, -4
 1899 0004 DFF81881 		ldr	r8, .L186+8
 1900              	.LBB429:
 1901              	.LBB430:
 1902              	.LBB431:
 1903              		.loc 4 367 0
 1904 0008 434C     		ldr	r4, .L186
 1905              	.LBE431:
 1906              	.LBE430:
 1907              	.LBE429:
 1908              		.loc 1 796 0
 1909 000a 85B0     		sub	sp, sp, #20
 1910              		.cfi_def_cfa_offset 56
 1911              		.loc 1 796 0
 1912 000c 9A46     		mov	r10, r3
 1913 000e DDE90E93 		ldrd	r9, r3, [sp, #56]
 1914              	.LVL168:
 1915 0012 0646     		mov	r6, r0
 1916 0014 D8F80000 		ldr	r0, [r8]
 1917              	.LVL169:
 1918 0018 0390     		str	r0, [sp, #12]
 1919              		.loc 1 808 0
 1920 001a 4900     		lsls	r1, r1, #1
 1921              	.LVL170:
 1922              		.loc 1 805 0
 1923 001c 0020     		movs	r0, #0
 1924              		.loc 1 808 0
 1925 001e B184     		strh	r1, [r6, #36]	@ movhi
 1926              		.loc 1 805 0
 1927 0020 B060     		str	r0, [r6, #8]
 1928              		.loc 1 796 0
 1929 0022 0093     		str	r3, [sp]
 1930 0024 109B     		ldr	r3, [sp, #64]
 1931 0026 0193     		str	r3, [sp, #4]
 1932 0028 9346     		mov	fp, r2
 1933              		.loc 1 797 0
 1934 002a B56B     		ldr	r5, [r6, #56]
 1935              	.LVL171:
 1936              	.LBB439:
 1937              	.LBB437:
 1938              	.LBB435:
ARM GAS  C:\Users\osour\AppData\Local\Temp\ccj7cKu1.s 			page 35


 1939              		.loc 4 360 0
 1940 002c FFF7FEFF 		bl	_dbg_check_unlock
 1941              	.LVL172:
 1942              		.loc 4 361 0
 1943 0030 FFF7FEFF 		bl	_stats_stop_measure_crit_thd
 1944              	.LVL173:
 1945              		.loc 4 367 0
 1946 0034 2368     		ldr	r3, [r4]
 1947 0036 A342     		cmp	r3, r4
 1948 0038 04D0     		beq	.L174
 1949 003a A269     		ldr	r2, [r4, #24]
 1950 003c 9B68     		ldr	r3, [r3, #8]
 1951 003e 9268     		ldr	r2, [r2, #8]
 1952 0040 9A42     		cmp	r2, r3
 1953 0042 4DD3     		bcc	.L184
 1954              	.L174:
 1955              	.LVL174:
 1956              	.LBB432:
 1957              	.LBB433:
 1958              	.LBB434:
 1959              		.loc 3 546 0
 1960 0044 0023     		movs	r3, #0
 1961              		.syntax unified
 1962              	@ 546 "../../lib/e-puck2_main-processor/ChibiOS//os/ext/CMSIS/include/core_cmFunc.h" 1
 1963 0046 83F31188 		MSR basepri, r3
 1964              	@ 0 "" 2
 1965              	.LVL175:
 1966              		.thumb
 1967              		.syntax unified
 1968              	.LBE434:
 1969              	.LBE433:
 1970              	.LBE432:
 1971              	.LBE435:
 1972              	.LBE437:
 1973              	.LBE439:
 1974              		.loc 1 814 0
 1975 004a 726B     		ldr	r2, [r6, #52]
 1976 004c F16A     		ldr	r1, [r6, #44]
 1977 004e 1268     		ldr	r2, [r2]
 1978              	.LBB440:
 1979              	.LBB441:
 1980              	.LBB442:
 1981              		.loc 4 367 0
 1982 0050 324F     		ldr	r7, .L186+4
 1983              	.LBE442:
 1984              	.LBE441:
 1985              	.LBE440:
 1986              		.loc 1 814 0
 1987 0052 1160     		str	r1, [r2]
 1988              		.loc 1 815 0
 1989 0054 726B     		ldr	r2, [r6, #52]
 1990 0056 1268     		ldr	r2, [r2]
 1991 0058 C2F80CB0 		str	fp, [r2, #12]
 1992              		.loc 1 816 0
 1993 005c 726B     		ldr	r2, [r6, #52]
 1994 005e 1268     		ldr	r2, [r2]
 1995 0060 C2F804A0 		str	r10, [r2, #4]
ARM GAS  C:\Users\osour\AppData\Local\Temp\ccj7cKu1.s 			page 36


 1996              		.loc 1 819 0
 1997 0064 326B     		ldr	r2, [r6, #48]
 1998 0066 B16A     		ldr	r1, [r6, #40]
 1999 0068 1268     		ldr	r2, [r2]
 2000 006a 1160     		str	r1, [r2]
 2001              		.loc 1 820 0
 2002 006c 326B     		ldr	r2, [r6, #48]
 2003              		.loc 1 821 0
 2004 006e 0099     		ldr	r1, [sp]
 2005              		.loc 1 820 0
 2006 0070 1268     		ldr	r2, [r2]
 2007 0072 C2F80C90 		str	r9, [r2, #12]
 2008              		.loc 1 821 0
 2009 0076 326B     		ldr	r2, [r6, #48]
 2010 0078 1268     		ldr	r2, [r2]
 2011 007a 5160     		str	r1, [r2, #4]
 2012              	.LBB453:
 2013              	.LBB454:
 2014              	.LBB455:
 2015              		.loc 5 231 0
 2016 007c D4F828B0 		ldr	fp, [r4, #40]
 2017              	.LVL176:
 2018              	.LBE455:
 2019              	.LBE454:
 2020              	.LBE453:
 2021              	.LBB456:
 2022              	.LBB451:
 2023              	.LBB449:
 2024              	.LBB443:
 2025              	.LBB444:
 2026              	.LBB445:
 2027              		.loc 3 546 0
 2028 0080 9946     		mov	r9, r3
 2029              	.LBE445:
 2030              	.LBE444:
 2031              	.LBE443:
 2032              	.LBE449:
 2033              	.LBE451:
 2034              	.LBE456:
 2035              	.LBB457:
 2036              	.LBB458:
 2037              	.LBB459:
 2038              	.LBB460:
 2039              	.LBB461:
 2040              	.LBB462:
 2041 0082 4FF0200A 		mov	r10, #32
 2042              	.LVL177:
 2043 0086 10E0     		b	.L179
 2044              	.L185:
 2045              	.LBE462:
 2046              	.LBE461:
 2047              	.LBE460:
 2048              	.LBE459:
 2049              	.LBE458:
 2050              	.LBE457:
 2051              	.LBB468:
 2052              	.LBB452:
ARM GAS  C:\Users\osour\AppData\Local\Temp\ccj7cKu1.s 			page 37


 2053              	.LBB450:
 2054              		.loc 4 360 0
 2055 0088 FFF7FEFF 		bl	_dbg_check_unlock
 2056              	.LVL178:
 2057              		.loc 4 361 0
 2058 008c FFF7FEFF 		bl	_stats_stop_measure_crit_thd
 2059              	.LVL179:
 2060              		.loc 4 367 0
 2061 0090 2368     		ldr	r3, [r4]
 2062 0092 A342     		cmp	r3, r4
 2063 0094 07D0     		beq	.L178
 2064 0096 A269     		ldr	r2, [r4, #24]
 2065 0098 9B68     		ldr	r3, [r3, #8]
 2066 009a 9268     		ldr	r2, [r2, #8]
 2067 009c 9A42     		cmp	r2, r3
 2068 009e 02D2     		bcs	.L178
 2069 00a0 3846     		mov	r0, r7
 2070 00a2 FFF7FEFF 		bl	chSysHalt
 2071              	.LVL180:
 2072              	.L178:
 2073              	.LBB448:
 2074              	.LBB447:
 2075              	.LBB446:
 2076              		.loc 3 546 0
 2077              		.syntax unified
 2078              	@ 546 "../../lib/e-puck2_main-processor/ChibiOS//os/ext/CMSIS/include/core_cmFunc.h" 1
 2079 00a6 89F31188 		MSR basepri, r9
 2080              	@ 0 "" 2
 2081              	.LVL181:
 2082              		.thumb
 2083              		.syntax unified
 2084              	.L179:
 2085              	.LBE446:
 2086              	.LBE447:
 2087              	.LBE448:
 2088              	.LBE450:
 2089              	.LBE452:
 2090              	.LBE468:
 2091              	.LBB469:
 2092              	.LBB467:
 2093              	.LBB466:
 2094              	.LBB465:
 2095              	.LBB464:
 2096              	.LBB463:
 2097              		.syntax unified
 2098              	@ 546 "../../lib/e-puck2_main-processor/ChibiOS//os/ext/CMSIS/include/core_cmFunc.h" 1
 2099 00aa 8AF31188 		MSR basepri, r10
 2100              	@ 0 "" 2
 2101              	.LVL182:
 2102              		.thumb
 2103              		.syntax unified
 2104              	.LBE463:
 2105              	.LBE464:
 2106              	.LBE465:
 2107              		.loc 4 349 0
 2108 00ae FFF7FEFF 		bl	_stats_start_measure_crit_thd
 2109              	.LVL183:
ARM GAS  C:\Users\osour\AppData\Local\Temp\ccj7cKu1.s 			page 38


 2110              		.loc 4 350 0
 2111 00b2 FFF7FEFF 		bl	_dbg_check_lock
 2112              	.LVL184:
 2113              	.LBE466:
 2114              	.LBE467:
 2115              	.LBE469:
 2116              		.loc 1 834 0
 2117 00b6 AB69     		ldr	r3, [r5, #24]
 2118 00b8 9A07     		lsls	r2, r3, #30
 2119 00ba 02D4     		bmi	.L175
 2120              		.loc 1 834 0 is_stmt 0 discriminator 1
 2121 00bc 2B68     		ldr	r3, [r5]
 2122 00be 9B05     		lsls	r3, r3, #22
 2123 00c0 12D5     		bpl	.L176
 2124              	.L175:
 2125              	.LBB470:
 2126              	.LBB471:
 2127              	.LBB472:
 2128              		.loc 5 231 0 is_stmt 1
 2129 00c2 A36A     		ldr	r3, [r4, #40]
 2130              	.LBE472:
 2131              	.LBE471:
 2132              	.LBE470:
 2133              	.LBB473:
 2134              	.LBB474:
 2135              	.LBB475:
 2136              		.loc 5 288 0
 2137 00c4 A3EB0B03 		sub	r3, r3, fp
 2138              	.LBE475:
 2139              	.LBE474:
 2140              	.LBE473:
 2141              		.loc 1 839 0
 2142 00c8 312B     		cmp	r3, #49
 2143 00ca DDD9     		bls	.L185
 2144              		.loc 1 851 0
 2145 00cc 039A     		ldr	r2, [sp, #12]
 2146 00ce D8F80030 		ldr	r3, [r8]
 2147 00d2 9A42     		cmp	r2, r3
 2148 00d4 4FF0FF30 		mov	r0, #-1
 2149 00d8 1BD1     		bne	.L183
 2150 00da 05B0     		add	sp, sp, #20
 2151              		.cfi_remember_state
 2152              		.cfi_def_cfa_offset 36
 2153              		@ sp needed
 2154 00dc BDE8F08F 		pop	{r4, r5, r6, r7, r8, r9, r10, fp, pc}
 2155              	.LVL185:
 2156              	.L184:
 2157              		.cfi_restore_state
 2158              	.LBB476:
 2159              	.LBB438:
 2160              	.LBB436:
 2161              		.loc 4 367 0
 2162 00e0 0E48     		ldr	r0, .L186+4
 2163 00e2 FFF7FEFF 		bl	chSysHalt
 2164              	.LVL186:
 2165 00e6 ADE7     		b	.L174
 2166              	.LVL187:
ARM GAS  C:\Users\osour\AppData\Local\Temp\ccj7cKu1.s 			page 39


 2167              	.L176:
 2168              	.LBE436:
 2169              	.LBE438:
 2170              	.LBE476:
 2171              		.loc 1 846 0
 2172 00e8 6B68     		ldr	r3, [r5, #4]
 2173 00ea 43F40073 		orr	r3, r3, #512
 2174 00ee 6B60     		str	r3, [r5, #4]
 2175              		.loc 1 847 0
 2176 00f0 2B68     		ldr	r3, [r5]
 2177 00f2 43F48073 		orr	r3, r3, #256
 2178 00f6 2B60     		str	r3, [r5]
 2179              	.LVL188:
 2180              	.LBB477:
 2181              	.LBB478:
 2182              		.loc 2 667 0
 2183 00f8 039A     		ldr	r2, [sp, #12]
 2184 00fa D8F80030 		ldr	r3, [r8]
 2185 00fe 9A42     		cmp	r2, r3
 2186 0100 07D1     		bne	.L183
 2187 0102 0199     		ldr	r1, [sp, #4]
 2188 0104 06F12000 		add	r0, r6, #32
 2189              	.LVL189:
 2190              	.LBE478:
 2191              	.LBE477:
 2192              		.loc 1 851 0
 2193 0108 05B0     		add	sp, sp, #20
 2194              		.cfi_remember_state
 2195              		.cfi_def_cfa_offset 36
 2196              		@ sp needed
 2197 010a BDE8F04F 		pop	{r4, r5, r6, r7, r8, r9, r10, fp, lr}
 2198              		.cfi_restore 14
 2199              		.cfi_restore 11
 2200              		.cfi_restore 10
 2201              		.cfi_restore 9
 2202              		.cfi_restore 8
 2203              		.cfi_restore 7
 2204              		.cfi_restore 6
 2205              		.cfi_restore 5
 2206              		.cfi_restore 4
 2207              		.cfi_def_cfa_offset 0
 2208              	.LVL190:
 2209              	.LBB480:
 2210              	.LBB479:
 2211              		.loc 2 667 0
 2212 010e FFF7FEBF 		b	chThdSuspendTimeoutS
 2213              	.LVL191:
 2214              	.L183:
 2215              		.cfi_restore_state
 2216              	.LBE479:
 2217              	.LBE480:
 2218              		.loc 1 851 0
 2219 0112 FFF7FEFF 		bl	__stack_chk_fail
 2220              	.LVL192:
 2221              	.L187:
 2222 0116 00BF     		.align	2
 2223              	.L186:
ARM GAS  C:\Users\osour\AppData\Local\Temp\ccj7cKu1.s 			page 40


 2224 0118 00000000 		.word	ch
 2225 011c 00000000 		.word	.LANCHOR3
 2226 0120 00000000 		.word	__stack_chk_guard
 2227              		.cfi_endproc
 2228              	.LFE269:
 2229              		.size	i2c_lld_master_transmit_timeout, .-i2c_lld_master_transmit_timeout
 2230              		.global	I2CD1
 2231              		.section	.bss.I2CD1,"aw",%nobits
 2232              		.align	2
 2233              		.set	.LANCHOR0,. + 0
 2234              		.type	I2CD1, %object
 2235              		.size	I2CD1, 60
 2236              	I2CD1:
 2237 0000 00000000 		.space	60
 2237      00000000 
 2237      00000000 
 2237      00000000 
 2237      00000000 
 2238              		.section	.rodata.__func__.7153,"a",%progbits
 2239              		.align	2
 2240              		.set	.LANCHOR3,. + 0
 2241              		.type	__func__.7153, %object
 2242              		.size	__func__.7153, 12
 2243              	__func__.7153:
 2244 0000 63685379 		.ascii	"chSysUnlock\000"
 2244      73556E6C 
 2244      6F636B00 
 2245              		.section	.rodata.__func__.9858,"a",%progbits
 2246              		.align	2
 2247              		.set	.LANCHOR2,. + 0
 2248              		.type	__func__.9858, %object
 2249              		.size	__func__.9858, 18
 2250              	__func__.9858:
 2251 0000 6932635F 		.ascii	"i2c_lld_set_clock\000"
 2251      6C6C645F 
 2251      7365745F 
 2251      636C6F63 
 2251      6B00
 2252              		.section	.rodata.__func__.9923,"a",%progbits
 2253              		.align	2
 2254              		.set	.LANCHOR1,. + 0
 2255              		.type	__func__.9923, %object
 2256              		.size	__func__.9923, 14
 2257              	__func__.9923:
 2258 0000 6932635F 		.ascii	"i2c_lld_start\000"
 2258      6C6C645F 
 2258      73746172 
 2258      7400
 2259              		.section	.rodata.i2c_lld_serve_tx_end_irq.str1.4,"aMS",%progbits,1
 2260              		.align	2
 2261              	.LC0:
 2262 0000 444D4120 		.ascii	"DMA failure\000"
 2262      6661696C 
 2262      75726500 
 2263              		.text
 2264              	.Letext0:
 2265              		.file 6 "c:\\users\\osour\\desktop\\robotique\\eclipse_e-puck2\\tools\\gcc-arm-none-eabi-7-2017-q4
ARM GAS  C:\Users\osour\AppData\Local\Temp\ccj7cKu1.s 			page 41


 2266              		.file 7 "c:\\users\\osour\\desktop\\robotique\\eclipse_e-puck2\\tools\\gcc-arm-none-eabi-7-2017-q4
 2267              		.file 8 "c:\\users\\osour\\desktop\\robotique\\eclipse_e-puck2\\tools\\gcc-arm-none-eabi-7-2017-q4
 2268              		.file 9 "../../lib/e-puck2_main-processor/ChibiOS//os/rt/ports/ARMCMx/compilers/GCC/chtypes.h"
 2269              		.file 10 "../../lib/e-puck2_main-processor/ChibiOS//os/rt/include/chsystypes.h"
 2270              		.file 11 "../../lib/e-puck2_main-processor/ChibiOS//os/rt/include/chschd.h"
 2271              		.file 12 "../../lib/e-puck2_main-processor/ChibiOS//os/ext/CMSIS/include/core_cm4.h"
 2272              		.file 13 "../../lib/e-puck2_main-processor/ChibiOS//os/ext/CMSIS/ST/system_stm32f4xx.h"
 2273              		.file 14 "../../lib/e-puck2_main-processor/ChibiOS//os/ext/CMSIS/ST/stm32f407xx.h"
 2274              		.file 15 "../../lib/e-puck2_main-processor/ChibiOS//os/rt/ports/ARMCMx/chcore.h"
 2275              		.file 16 "../../lib/e-puck2_main-processor/ChibiOS//os/rt/ports/ARMCMx/chcore_v7m.h"
 2276              		.file 17 "../../lib/e-puck2_main-processor/ChibiOS//os/rt/include/chdebug.h"
 2277              		.file 18 "../../lib/e-puck2_main-processor/ChibiOS//os/rt/include/chtm.h"
 2278              		.file 19 "../../lib/e-puck2_main-processor/ChibiOS//os/rt/include/chstats.h"
 2279              		.file 20 "../../lib/e-puck2_main-processor/ChibiOS//os/rt/include/chsem.h"
 2280              		.file 21 "../../lib/e-puck2_main-processor/ChibiOS//os/rt/include/chmtx.h"
 2281              		.file 22 "../../lib/e-puck2_main-processor/ChibiOS//os/rt/include/chregistry.h"
 2282              		.file 23 "../../lib/e-puck2_main-processor/ChibiOS//os/rt/include/chevents.h"
 2283              		.file 24 "../../lib/e-puck2_main-processor/ChibiOS//os/rt/include/chqueues.h"
 2284              		.file 25 "../../lib/e-puck2_main-processor/ChibiOS//os/hal/ports/STM32/STM32F4xx/stm32_dma.h"
 2285              		.file 26 "../../lib/e-puck2_main-processor/ChibiOS//os/hal/include/hal_ioblock.h"
 2286              		.file 27 "../../lib/e-puck2_main-processor/ChibiOS//os/hal/ports/STM32/LLD/GPIOv2/pal_lld.h"
 2287              		.file 28 "../../lib/e-puck2_main-processor/ChibiOS//os/hal/include/adc.h"
 2288              		.file 29 "../../lib/e-puck2_main-processor/ChibiOS//os/hal/ports/STM32/STM32F4xx/adc_lld.h"
 2289              		.file 30 "../../lib/e-puck2_main-processor/ChibiOS//os/hal/include/can.h"
 2290              		.file 31 "../../lib/e-puck2_main-processor/ChibiOS//os/hal/ports/STM32/LLD/can_lld.h"
 2291              		.file 32 "../../lib/e-puck2_main-processor/ChibiOS//os/hal/include/dac.h"
 2292              		.file 33 "../../lib/e-puck2_main-processor/ChibiOS//os/hal/ports/STM32/LLD/DACv1/dac_lld.h"
 2293              		.file 34 "../../lib/e-puck2_main-processor/ChibiOS//os/hal/include/ext.h"
 2294              		.file 35 "../../lib/e-puck2_main-processor/ChibiOS//os/hal/ports/STM32/LLD/ext_lld.h"
 2295              		.file 36 "../../lib/e-puck2_main-processor/ChibiOS//os/hal/include/gpt.h"
 2296              		.file 37 "../../lib/e-puck2_main-processor/ChibiOS//os/hal/ports/STM32/LLD/TIMv1/gpt_lld.h"
 2297              		.file 38 "../../lib/e-puck2_main-processor/ChibiOS//os/hal/ports/STM32/LLD/TIMv1/stm32_tim.h"
 2298              		.file 39 "../../lib/e-puck2_main-processor/ChibiOS//os/hal/include/i2c.h"
 2299              		.file 40 "../../lib/e-puck2_main-processor/ChibiOS//os/hal/ports/STM32/LLD/I2Cv1/i2c_lld.h"
 2300              		.file 41 "../../lib/e-puck2_main-processor/ChibiOS//os/hal/include/i2s.h"
 2301              		.file 42 "../../lib/e-puck2_main-processor/ChibiOS//os/hal/ports/STM32/LLD/SPIv1/i2s_lld.h"
 2302              		.file 43 "../../lib/e-puck2_main-processor/ChibiOS//os/hal/include/pwm.h"
 2303              		.file 44 "../../lib/e-puck2_main-processor/ChibiOS//os/hal/ports/STM32/LLD/TIMv1/pwm_lld.h"
 2304              		.file 45 "../../lib/e-puck2_main-processor/ChibiOS//os/hal/include/serial.h"
 2305              		.file 46 "../../lib/e-puck2_main-processor/ChibiOS//os/hal/ports/STM32/LLD/USARTv1/serial_lld.h"
 2306              		.file 47 "../../lib/e-puck2_main-processor/ChibiOS//os/hal/include/sdc.h"
 2307              		.file 48 "../../lib/e-puck2_main-processor/ChibiOS//os/hal/ports/STM32/LLD/sdc_lld.h"
 2308              		.file 49 "../../lib/e-puck2_main-processor/ChibiOS//os/hal/include/spi.h"
 2309              		.file 50 "../../lib/e-puck2_main-processor/ChibiOS//os/hal/ports/STM32/LLD/SPIv1/spi_lld.h"
 2310              		.file 51 "../../lib/e-puck2_main-processor/ChibiOS//os/hal/include/usb.h"
 2311              		.file 52 "../../lib/e-puck2_main-processor/ChibiOS//os/hal/ports/STM32/LLD/OTGv1/usb_lld.h"
 2312              		.file 53 "../../lib/e-puck2_main-processor/ChibiOS//os/hal/ports/STM32/LLD/OTGv1/stm32_otg.h"
 2313              		.file 54 "../../lib/e-puck2_main-processor/ChibiOS//os/rt/include/chthreads.h"
 2314              		.file 55 "../../lib/e-puck2_main-processor/ChibiOS//os/hal/ports/common/ARMCMx/nvic.h"