ARM GAS  C:\Users\osour\AppData\Local\Temp\ccbHWuAa.s 			page 1


   1              		.cpu cortex-m4
   2              		.eabi_attribute 27, 1
   3              		.eabi_attribute 28, 1
   4              		.eabi_attribute 20, 1
   5              		.eabi_attribute 21, 1
   6              		.eabi_attribute 23, 3
   7              		.eabi_attribute 24, 1
   8              		.eabi_attribute 25, 1
   9              		.eabi_attribute 26, 1
  10              		.eabi_attribute 30, 2
  11              		.eabi_attribute 34, 1
  12              		.eabi_attribute 18, 4
  13              		.file	"mp45dt02_processing.c"
  14              		.text
  15              	.Ltext0:
  16              		.cfi_sections	.debug_frame
  17              		.section	.text.mp45dt02SPICb,"ax",%progbits
  18              		.align	1
  19              		.p2align 4,,15
  20              		.global	mp45dt02SPICb
  21              		.syntax unified
  22              		.thumb
  23              		.thumb_func
  24              		.fpu fpv4-sp-d16
  25              		.type	mp45dt02SPICb, %function
  26              	mp45dt02SPICb:
  27              	.LFB259:
  28              		.file 1 "../../lib/e-puck2_main-processor/src/audio/mp45dt02_processing.c"
  29              		.loc 1 344 0
  30              		.cfi_startproc
  31              		@ args = 0, pretend = 0, frame = 8
  32              		@ frame_needed = 0, uses_anonymous_args = 0
  33              	.LVL0:
  34 0000 70B5     		push	{r4, r5, r6, lr}
  35              		.cfi_def_cfa_offset 16
  36              		.cfi_offset 4, -16
  37              		.cfi_offset 5, -12
  38              		.cfi_offset 6, -8
  39              		.cfi_offset 14, -4
  40 0002 114C     		ldr	r4, .L6
  41 0004 82B0     		sub	sp, sp, #8
  42              		.cfi_def_cfa_offset 24
  43              		.loc 1 344 0
  44 0006 2368     		ldr	r3, [r4]
  45 0008 0193     		str	r3, [sp, #4]
  46              	.LVL1:
  47 000a 0E46     		mov	r6, r1
  48 000c 1546     		mov	r5, r2
  49              	.LBB62:
  50              	.LBB63:
  51              	.LBB64:
  52              	.LBB65:
  53              	.LBB66:
  54              	.LBB67:
  55              		.file 2 "../../lib/e-puck2_main-processor/ChibiOS//os/ext/CMSIS/include/core_cmFunc.h"
  56              		.loc 2 546 0
  57 000e 2023     		movs	r3, #32
ARM GAS  C:\Users\osour\AppData\Local\Temp\ccbHWuAa.s 			page 2


  58              		.syntax unified
  59              	@ 546 "../../lib/e-puck2_main-processor/ChibiOS//os/ext/CMSIS/include/core_cmFunc.h" 1
  60 0010 83F31188 		MSR basepri, r3
  61              	@ 0 "" 2
  62              	.LVL2:
  63              		.thumb
  64              		.syntax unified
  65              	.LBE67:
  66              	.LBE66:
  67              	.LBE65:
  68              	.LBE64:
  69              		.file 3 "../../lib/e-puck2_main-processor/ChibiOS//os/rt/include/chsys.h"
  70              		.loc 3 389 0
  71 0014 FFF7FEFF 		bl	_stats_start_measure_crit_isr
  72              	.LVL3:
  73              		.loc 3 390 0
  74 0018 FFF7FEFF 		bl	_dbg_check_lock_from_isr
  75              	.LVL4:
  76              	.LBE63:
  77              	.LBE62:
  78              		.loc 1 348 0
  79 001c 0B4B     		ldr	r3, .L6+4
  80              		.loc 1 350 0
  81 001e 0C48     		ldr	r0, .L6+8
  82              		.loc 1 349 0
  83 0020 C3E90065 		strd	r6, r5, [r3]
  84              		.loc 1 350 0
  85 0024 FFF7FEFF 		bl	chSemSignalI
  86              	.LVL5:
  87              	.LBB68:
  88              	.LBB69:
  89              		.loc 3 408 0
  90 0028 FFF7FEFF 		bl	_dbg_check_unlock_from_isr
  91              	.LVL6:
  92              		.loc 3 409 0
  93 002c FFF7FEFF 		bl	_stats_stop_measure_crit_isr
  94              	.LVL7:
  95              	.LBB70:
  96              	.LBB71:
  97              	.LBB72:
  98              	.LBB73:
  99              		.loc 2 546 0
 100 0030 0023     		movs	r3, #0
 101              		.syntax unified
 102              	@ 546 "../../lib/e-puck2_main-processor/ChibiOS//os/ext/CMSIS/include/core_cmFunc.h" 1
 103 0032 83F31188 		MSR basepri, r3
 104              	@ 0 "" 2
 105              	.LVL8:
 106              		.thumb
 107              		.syntax unified
 108              	.LBE73:
 109              	.LBE72:
 110              	.LBE71:
 111              	.LBE70:
 112              	.LBE69:
 113              	.LBE68:
 114              		.loc 1 352 0
ARM GAS  C:\Users\osour\AppData\Local\Temp\ccbHWuAa.s 			page 3


 115 0036 019A     		ldr	r2, [sp, #4]
 116 0038 2368     		ldr	r3, [r4]
 117 003a 9A42     		cmp	r2, r3
 118 003c 01D1     		bne	.L5
 119 003e 02B0     		add	sp, sp, #8
 120              		.cfi_remember_state
 121              		.cfi_def_cfa_offset 16
 122              		@ sp needed
 123 0040 70BD     		pop	{r4, r5, r6, pc}
 124              	.LVL9:
 125              	.L5:
 126              		.cfi_restore_state
 127 0042 FFF7FEFF 		bl	__stack_chk_fail
 128              	.LVL10:
 129              	.L7:
 130 0046 00BF     		.align	2
 131              	.L6:
 132 0048 00000000 		.word	__stack_chk_guard
 133 004c 00000000 		.word	.LANCHOR0
 134 0050 00000000 		.word	.LANCHOR1
 135              		.cfi_endproc
 136              	.LFE259:
 137              		.size	mp45dt02SPICb, .-mp45dt02SPICb
 138              		.section	.text.mp45dt02I2SCb,"ax",%progbits
 139              		.align	1
 140              		.p2align 4,,15
 141              		.syntax unified
 142              		.thumb
 143              		.thumb_func
 144              		.fpu fpv4-sp-d16
 145              		.type	mp45dt02I2SCb, %function
 146              	mp45dt02I2SCb:
 147              	.LFB258:
 148              		.loc 1 335 0
 149              		.cfi_startproc
 150              		@ args = 0, pretend = 0, frame = 8
 151              		@ frame_needed = 0, uses_anonymous_args = 0
 152              	.LVL11:
 153 0000 70B5     		push	{r4, r5, r6, lr}
 154              		.cfi_def_cfa_offset 16
 155              		.cfi_offset 4, -16
 156              		.cfi_offset 5, -12
 157              		.cfi_offset 6, -8
 158              		.cfi_offset 14, -4
 159 0002 114C     		ldr	r4, .L12
 160 0004 82B0     		sub	sp, sp, #8
 161              		.cfi_def_cfa_offset 24
 162              		.loc 1 335 0
 163 0006 2368     		ldr	r3, [r4]
 164 0008 0193     		str	r3, [sp, #4]
 165              	.LVL12:
 166 000a 0E46     		mov	r6, r1
 167 000c 1546     		mov	r5, r2
 168              	.LBB74:
 169              	.LBB75:
 170              	.LBB76:
 171              	.LBB77:
ARM GAS  C:\Users\osour\AppData\Local\Temp\ccbHWuAa.s 			page 4


 172              	.LBB78:
 173              	.LBB79:
 174              		.loc 2 546 0
 175 000e 2023     		movs	r3, #32
 176              		.syntax unified
 177              	@ 546 "../../lib/e-puck2_main-processor/ChibiOS//os/ext/CMSIS/include/core_cmFunc.h" 1
 178 0010 83F31188 		MSR basepri, r3
 179              	@ 0 "" 2
 180              	.LVL13:
 181              		.thumb
 182              		.syntax unified
 183              	.LBE79:
 184              	.LBE78:
 185              	.LBE77:
 186              	.LBE76:
 187              		.loc 3 389 0
 188 0014 FFF7FEFF 		bl	_stats_start_measure_crit_isr
 189              	.LVL14:
 190              		.loc 3 390 0
 191 0018 FFF7FEFF 		bl	_dbg_check_lock_from_isr
 192              	.LVL15:
 193              	.LBE75:
 194              	.LBE74:
 195              		.loc 1 338 0
 196 001c 0B4B     		ldr	r3, .L12+4
 197              		.loc 1 340 0
 198 001e 0C48     		ldr	r0, .L12+8
 199              		.loc 1 339 0
 200 0020 C3E90065 		strd	r6, r5, [r3]
 201              		.loc 1 340 0
 202 0024 FFF7FEFF 		bl	chSemSignalI
 203              	.LVL16:
 204              	.LBB80:
 205              	.LBB81:
 206              		.loc 3 408 0
 207 0028 FFF7FEFF 		bl	_dbg_check_unlock_from_isr
 208              	.LVL17:
 209              		.loc 3 409 0
 210 002c FFF7FEFF 		bl	_stats_stop_measure_crit_isr
 211              	.LVL18:
 212              	.LBB82:
 213              	.LBB83:
 214              	.LBB84:
 215              	.LBB85:
 216              		.loc 2 546 0
 217 0030 0023     		movs	r3, #0
 218              		.syntax unified
 219              	@ 546 "../../lib/e-puck2_main-processor/ChibiOS//os/ext/CMSIS/include/core_cmFunc.h" 1
 220 0032 83F31188 		MSR basepri, r3
 221              	@ 0 "" 2
 222              	.LVL19:
 223              		.thumb
 224              		.syntax unified
 225              	.LBE85:
 226              	.LBE84:
 227              	.LBE83:
 228              	.LBE82:
ARM GAS  C:\Users\osour\AppData\Local\Temp\ccbHWuAa.s 			page 5


 229              	.LBE81:
 230              	.LBE80:
 231              		.loc 1 342 0
 232 0036 019A     		ldr	r2, [sp, #4]
 233 0038 2368     		ldr	r3, [r4]
 234 003a 9A42     		cmp	r2, r3
 235 003c 01D1     		bne	.L11
 236 003e 02B0     		add	sp, sp, #8
 237              		.cfi_remember_state
 238              		.cfi_def_cfa_offset 16
 239              		@ sp needed
 240 0040 70BD     		pop	{r4, r5, r6, pc}
 241              	.LVL20:
 242              	.L11:
 243              		.cfi_restore_state
 244 0042 FFF7FEFF 		bl	__stack_chk_fail
 245              	.LVL21:
 246              	.L13:
 247 0046 00BF     		.align	2
 248              	.L12:
 249 0048 00000000 		.word	__stack_chk_guard
 250 004c 00000000 		.word	.LANCHOR2
 251 0050 00000000 		.word	.LANCHOR1
 252              		.cfi_endproc
 253              	.LFE258:
 254              		.size	mp45dt02I2SCb, .-mp45dt02I2SCb
 255              		.section	.text.DataProcessing,"ax",%progbits
 256              		.align	1
 257              		.p2align 4,,15
 258              		.syntax unified
 259              		.thumb
 260              		.thumb_func
 261              		.fpu fpv4-sp-d16
 262              		.type	DataProcessing, %function
 263              	DataProcessing:
 264              	.LFB257:
 265              		.loc 1 217 0
 266              		.cfi_startproc
 267              		@ args = 0, pretend = 0, frame = 16
 268              		@ frame_needed = 0, uses_anonymous_args = 0
 269              	.LVL22:
 270 0000 2DE9F04F 		push	{r4, r5, r6, r7, r8, r9, r10, fp, lr}
 271              		.cfi_def_cfa_offset 36
 272              		.cfi_offset 4, -36
 273              		.cfi_offset 5, -32
 274              		.cfi_offset 6, -28
 275              		.cfi_offset 7, -24
 276              		.cfi_offset 8, -20
 277              		.cfi_offset 9, -16
 278              		.cfi_offset 10, -12
 279              		.cfi_offset 11, -8
 280              		.cfi_offset 14, -4
 281              	.LBB86:
 282              	.LBB87:
 283              		.file 4 "../../lib/e-puck2_main-processor/ChibiOS//os/rt/include/chregistry.h"
 284              		.loc 4 135 0
 285 0004 624B     		ldr	r3, .L33
ARM GAS  C:\Users\osour\AppData\Local\Temp\ccbHWuAa.s 			page 6


 286 0006 6349     		ldr	r1, .L33+4
 287 0008 9A69     		ldr	r2, [r3, #24]
 288              	.LBE87:
 289              	.LBE86:
 290              		.loc 1 217 0
 291 000a 634B     		ldr	r3, .L33+8
 292              	.LBB89:
 293              	.LBB88:
 294              		.loc 4 135 0
 295 000c 9161     		str	r1, [r2, #24]
 296              	.LBE88:
 297              	.LBE89:
 298              		.loc 1 217 0
 299 000e 85B0     		sub	sp, sp, #20
 300              		.cfi_def_cfa_offset 56
 301              		.loc 1 217 0
 302 0010 1B68     		ldr	r3, [r3]
 303 0012 0393     		str	r3, [sp, #12]
 304              	.LVL23:
 305              	.L15:
 306              	.LBB90:
 307              	.LBB91:
 308              		.file 5 "../../lib/e-puck2_main-processor/ChibiOS//os/rt/include/chthreads.h"
 309              		.loc 5 233 0
 310 0014 5E4B     		ldr	r3, .L33
 311 0016 9B69     		ldr	r3, [r3, #24]
 312              	.LBE91:
 313              	.LBE90:
 314              		.loc 1 227 0
 315 0018 93F82130 		ldrb	r3, [r3, #33]	@ zero_extendqisi2
 316 001c 5B07     		lsls	r3, r3, #29
 317 001e 00F1AD80 		bmi	.L14
 318              		.loc 1 230 0
 319 0022 5E48     		ldr	r0, .L33+12
 320 0024 FFF7FEFF 		bl	chSemWait
 321              	.LVL24:
 322              		.loc 1 231 0
 323 0028 5C48     		ldr	r0, .L33+12
 324 002a FFF7FEFF 		bl	chSemWait
 325              	.LVL25:
 326              	.LBB92:
 327              	.LBB93:
 328              		.loc 5 233 0
 329 002e 584B     		ldr	r3, .L33
 330 0030 9B69     		ldr	r3, [r3, #24]
 331              	.LBE93:
 332              	.LBE92:
 333              		.loc 1 233 0
 334 0032 93F82120 		ldrb	r2, [r3, #33]	@ zero_extendqisi2
 335 0036 12F00402 		ands	r2, r2, #4
 336 003a 40F09F80 		bne	.L14
 337              		.loc 1 241 0
 338 003e 584D     		ldr	r5, .L33+16
 339              		.loc 1 240 0
 340 0040 5848     		ldr	r0, .L33+20
 341              		.loc 1 241 0
 342 0042 2B68     		ldr	r3, [r5]
ARM GAS  C:\Users\osour\AppData\Local\Temp\ccbHWuAa.s 			page 7


 343              		.loc 1 240 0
 344 0044 0168     		ldr	r1, [r0]
 345              		.loc 1 248 0
 346 0046 0446     		mov	r4, r0
 347 0048 4068     		ldr	r0, [r0, #4]
 348              		.loc 1 241 0
 349 004a 05EB8303 		add	r3, r5, r3, lsl #2
 350              		.loc 1 240 0
 351 004e 04EB8101 		add	r1, r4, r1, lsl #2
 352              		.loc 1 241 0
 353 0052 03F50279 		add	r9, r3, #520
 354              		.loc 1 248 0
 355 0056 4300     		lsls	r3, r0, #1
 356              		.loc 1 240 0
 357 0058 01F10808 		add	r8, r1, #8
 358              	.LVL26:
 359              		.loc 1 248 0
 360 005c 0193     		str	r3, [sp, #4]
 361 005e 43D0     		beq	.L17
 362 0060 DFF850B1 		ldr	fp, .L33+36
 363 0064 504B     		ldr	r3, .L33+24
 364 0066 DFF85CA1 		ldr	r10, .L33+52
 365 006a 0120     		movs	r0, #1
 366              	.LVL27:
 367              	.L18:
 368              		.loc 1 249 0 discriminator 3
 369 006c 18F81250 		ldrb	r5, [r8, r2, lsl #1]	@ zero_extendqisi2
 370              	.LVL28:
 371              		.loc 1 250 0 discriminator 3
 372 0070 18F80060 		ldrb	r6, [r8, r0]	@ zero_extendqisi2
 373              	.LVL29:
 374              		.loc 1 254 0 discriminator 3
 375 0074 19F81210 		ldrb	r1, [r9, r2, lsl #1]	@ zero_extendqisi2
 376              	.LVL30:
 377              		.loc 1 255 0 discriminator 3
 378 0078 19F80040 		ldrb	r4, [r9, r0]	@ zero_extendqisi2
 379              	.LVL31:
 380              		.loc 1 251 0 discriminator 3
 381 007c 05F0550C 		and	ip, r5, #85
 382              		.loc 1 252 0 discriminator 3
 383 0080 7708     		lsrs	r7, r6, #1
 384              		.loc 1 251 0 discriminator 3
 385 0082 06F05506 		and	r6, r6, #85
 386 0086 13F80CC0 		ldrb	ip, [r3, ip]	@ zero_extendqisi2
 387 008a 9E5D     		ldrb	r6, [r3, r6]	@ zero_extendqisi2
 388              		.loc 1 256 0 discriminator 3
 389 008c 01F0550E 		and	lr, r1, #85
 390              		.loc 1 251 0 discriminator 3
 391 0090 4CEA0616 		orr	r6, ip, r6, lsl #4
 392              		.loc 1 257 0 discriminator 3
 393 0094 4908     		lsrs	r1, r1, #1
 394              	.LVL32:
 395 0096 4FEA540C 		lsr	ip, r4, #1
 396 009a 01F05501 		and	r1, r1, #85
 397              		.loc 1 256 0 discriminator 3
 398 009e 04F05504 		and	r4, r4, #85
 399              	.LVL33:
ARM GAS  C:\Users\osour\AppData\Local\Temp\ccbHWuAa.s 			page 8


 400              		.loc 1 257 0 discriminator 3
 401 00a2 0CF0550C 		and	ip, ip, #85
 402              		.loc 1 252 0 discriminator 3
 403 00a6 6D08     		lsrs	r5, r5, #1
 404              		.loc 1 256 0 discriminator 3
 405 00a8 13F80EE0 		ldrb	lr, [r3, lr]	@ zero_extendqisi2
 406              		.loc 1 257 0 discriminator 3
 407 00ac 595C     		ldrb	r1, [r3, r1]	@ zero_extendqisi2
 408              		.loc 1 256 0 discriminator 3
 409 00ae 1C5D     		ldrb	r4, [r3, r4]	@ zero_extendqisi2
 410              		.loc 1 257 0 discriminator 3
 411 00b0 13F80CC0 		ldrb	ip, [r3, ip]	@ zero_extendqisi2
 412              		.loc 1 251 0 discriminator 3
 413 00b4 0BF81260 		strb	r6, [fp, r2, lsl #1]
 414              		.loc 1 252 0 discriminator 3
 415 00b8 05F05505 		and	r5, r5, #85
 416 00bc 07F05507 		and	r7, r7, #85
 417              		.loc 1 257 0 discriminator 3
 418 00c0 41EA0C11 		orr	r1, r1, ip, lsl #4
 419              		.loc 1 256 0 discriminator 3
 420 00c4 4EEA041E 		orr	lr, lr, r4, lsl #4
 421 00c8 0AF812E0 		strb	lr, [r10, r2, lsl #1]
 422              		.loc 1 252 0 discriminator 3
 423 00cc 5D5D     		ldrb	r5, [r3, r5]	@ zero_extendqisi2
 424              		.loc 1 257 0 discriminator 3
 425 00ce 0AF80010 		strb	r1, [r10, r0]
 426              		.loc 1 252 0 discriminator 3
 427 00d2 DF5D     		ldrb	r7, [r3, r7]	@ zero_extendqisi2
 428              		.loc 1 248 0 discriminator 3
 429 00d4 0199     		ldr	r1, [sp, #4]
 430 00d6 0132     		adds	r2, r2, #1
 431              	.LVL34:
 432              		.loc 1 252 0 discriminator 3
 433 00d8 45EA0715 		orr	r5, r5, r7, lsl #4
 434              		.loc 1 248 0 discriminator 3
 435 00dc 9142     		cmp	r1, r2
 436              		.loc 1 252 0 discriminator 3
 437 00de 0BF80050 		strb	r5, [fp, r0]
 438 00e2 00F10200 		add	r0, r0, #2
 439              	.LVL35:
 440              		.loc 1 248 0 discriminator 3
 441 00e6 C1D1     		bne	.L18
 442              	.LVL36:
 443              	.L17:
 444              		.loc 1 303 0
 445 00e8 304B     		ldr	r3, .L33+28
 446 00ea 3149     		ldr	r1, .L33+32
 447 00ec 3148     		ldr	r0, .L33+36
 448              		.loc 1 310 0
 449 00ee 324D     		ldr	r5, .L33+40
 450              		.loc 1 303 0
 451 00f0 0422     		movs	r2, #4
 452 00f2 FFF7FEFF 		bl	PDM_Filter_64_LSB
 453              	.LVL37:
 454              		.loc 1 305 0
 455 00f6 314B     		ldr	r3, .L33+44
 456 00f8 3149     		ldr	r1, .L33+48
ARM GAS  C:\Users\osour\AppData\Local\Temp\ccbHWuAa.s 			page 9


 457 00fa 3248     		ldr	r0, .L33+52
 458 00fc 0422     		movs	r2, #4
 459 00fe FFF7FEFF 		bl	PDM_Filter_64_LSB
 460              	.LVL38:
 461              		.loc 1 303 0
 462 0102 314B     		ldr	r3, .L33+56
 463 0104 3149     		ldr	r1, .L33+60
 464 0106 3248     		ldr	r0, .L33+64
 465 0108 0422     		movs	r2, #4
 466 010a FFF7FEFF 		bl	PDM_Filter_64_LSB
 467              	.LVL39:
 468              		.loc 1 305 0
 469 010e 314B     		ldr	r3, .L33+68
 470 0110 3149     		ldr	r1, .L33+72
 471 0112 3248     		ldr	r0, .L33+76
 472 0114 0422     		movs	r2, #4
 473 0116 FFF7FEFF 		bl	PDM_Filter_64_LSB
 474              	.LVL40:
 475              		.loc 1 310 0
 476 011a DFF8D4C0 		ldr	ip, .L33+96
 477 011e 2868     		ldr	r0, [r5]
 478 0120 9CF80070 		ldrb	r7, [ip]	@ zero_extendqisi2
 479 0124 224A     		ldr	r2, .L33+32
 480 0126 2649     		ldr	r1, .L33+48
 481 0128 00EBC713 		add	r3, r0, r7, lsl #7
 482 012c 02F14006 		add	r6, r2, #64
 483              	.LVL41:
 484              	.L19:
 485              		.loc 1 310 0 is_stmt 0 discriminator 3
 486 0130 1488     		ldrh	r4, [r2]
 487 0132 1C80     		strh	r4, [r3]	@ movhi
 488              		.loc 1 311 0 is_stmt 1 discriminator 3
 489 0134 5488     		ldrh	r4, [r2, #2]
 490 0136 5C80     		strh	r4, [r3, #2]	@ movhi
 491              		.loc 1 312 0 discriminator 3
 492 0138 4C88     		ldrh	r4, [r1, #2]
 493 013a 9C80     		strh	r4, [r3, #4]	@ movhi
 494 013c 0432     		adds	r2, r2, #4
 495              		.loc 1 313 0 discriminator 3
 496 013e 31F8044B 		ldrh	r4, [r1], #4
 497 0142 DC80     		strh	r4, [r3, #6]	@ movhi
 498              		.loc 1 309 0 discriminator 3
 499 0144 9642     		cmp	r6, r2
 500 0146 03F10803 		add	r3, r3, #8
 501 014a F1D1     		bne	.L19
 502              		.loc 1 316 0
 503 014c 092F     		cmp	r7, #9
 504 014e 11D1     		bne	.L20
 505              		.loc 1 319 0
 506 0150 234B     		ldr	r3, .L33+80
 507              		.loc 1 317 0
 508 0152 0022     		movs	r2, #0
 509              		.loc 1 319 0
 510 0154 1B68     		ldr	r3, [r3]
 511              		.loc 1 317 0
 512 0156 8CF80020 		strb	r2, [ip]
 513              		.loc 1 319 0
ARM GAS  C:\Users\osour\AppData\Local\Temp\ccbHWuAa.s 			page 10


 514 015a 4FF42071 		mov	r1, #640
 515 015e 9847     		blx	r3
 516              	.LVL42:
 517              		.loc 1 321 0
 518 0160 2B68     		ldr	r3, [r5]
 519              		.loc 1 322 0
 520 0162 204A     		ldr	r2, .L33+84
 521              		.loc 1 321 0
 522 0164 2049     		ldr	r1, .L33+88
 523              		.loc 1 322 0
 524 0166 9342     		cmp	r3, r2
 525              		.loc 1 321 0
 526 0168 0B60     		str	r3, [r1]
 527              		.loc 1 323 0
 528 016a 06BF     		itte	eq
 529 016c 1F4B     		ldreq	r3, .L33+92
 530 016e 2B60     		streq	r3, [r5]
 531              		.loc 1 325 0
 532 0170 2A60     		strne	r2, [r5]
 533 0172 4FE7     		b	.L15
 534              	.L20:
 535              		.loc 1 328 0
 536 0174 0137     		adds	r7, r7, #1
 537 0176 8CF80070 		strb	r7, [ip]
 538 017a 4BE7     		b	.L15
 539              	.LVL43:
 540              	.L14:
 541              		.loc 1 331 0
 542 017c 064B     		ldr	r3, .L33+8
 543 017e 039A     		ldr	r2, [sp, #12]
 544 0180 1B68     		ldr	r3, [r3]
 545 0182 9A42     		cmp	r2, r3
 546 0184 02D1     		bne	.L32
 547 0186 05B0     		add	sp, sp, #20
 548              		.cfi_remember_state
 549              		.cfi_def_cfa_offset 36
 550              		@ sp needed
 551 0188 BDE8F08F 		pop	{r4, r5, r6, r7, r8, r9, r10, fp, pc}
 552              	.L32:
 553              		.cfi_restore_state
 554 018c FFF7FEFF 		bl	__stack_chk_fail
 555              	.LVL44:
 556              	.L34:
 557              		.align	2
 558              	.L33:
 559 0190 00000000 		.word	ch
 560 0194 00000000 		.word	.LANCHOR3
 561 0198 00000000 		.word	__stack_chk_guard
 562 019c 00000000 		.word	.LANCHOR1
 563 01a0 00000000 		.word	.LANCHOR0
 564 01a4 00000000 		.word	.LANCHOR2
 565 01a8 00000000 		.word	.LANCHOR5
 566 01ac 00000000 		.word	.LANCHOR7
 567 01b0 00000000 		.word	.LANCHOR8
 568 01b4 00000000 		.word	.LANCHOR4
 569 01b8 00000000 		.word	.LANCHOR11
 570 01bc 00000000 		.word	.LANCHOR9
ARM GAS  C:\Users\osour\AppData\Local\Temp\ccbHWuAa.s 			page 11


 571 01c0 00000000 		.word	.LANCHOR10
 572 01c4 00000000 		.word	.LANCHOR6
 573 01c8 34000000 		.word	.LANCHOR7+52
 574 01cc 02000000 		.word	.LANCHOR8+2
 575 01d0 01000000 		.word	.LANCHOR4+1
 576 01d4 34000000 		.word	.LANCHOR9+52
 577 01d8 02000000 		.word	.LANCHOR10+2
 578 01dc 01000000 		.word	.LANCHOR6+1
 579 01e0 00000000 		.word	.LANCHOR13
 580 01e4 00000000 		.word	.LANCHOR15
 581 01e8 00000000 		.word	.LANCHOR14
 582 01ec 00000000 		.word	.LANCHOR16
 583 01f0 00000000 		.word	.LANCHOR12
 584              		.cfi_endproc
 585              	.LFE257:
 586              		.size	DataProcessing, .-DataProcessing
 587              		.section	.text.mp45dt02Init,"ax",%progbits
 588              		.align	1
 589              		.p2align 4,,15
 590              		.global	mp45dt02Init
 591              		.syntax unified
 592              		.thumb
 593              		.thumb_func
 594              		.fpu fpv4-sp-d16
 595              		.type	mp45dt02Init, %function
 596              	mp45dt02Init:
 597              	.LFB261:
 598              		.loc 1 374 0
 599              		.cfi_startproc
 600              		@ args = 0, pretend = 0, frame = 8
 601              		@ frame_needed = 0, uses_anonymous_args = 0
 602              	.LVL45:
 603 0000 2DE9F04F 		push	{r4, r5, r6, r7, r8, r9, r10, fp, lr}
 604              		.cfi_def_cfa_offset 36
 605              		.cfi_offset 4, -36
 606              		.cfi_offset 5, -32
 607              		.cfi_offset 6, -28
 608              		.cfi_offset 7, -24
 609              		.cfi_offset 8, -20
 610              		.cfi_offset 9, -16
 611              		.cfi_offset 10, -12
 612              		.cfi_offset 11, -8
 613              		.cfi_offset 14, -4
 614 0004 2DED028B 		vpush.64	{d8}
 615              		.cfi_def_cfa_offset 44
 616              		.cfi_offset 80, -44
 617              		.cfi_offset 81, -40
 618              		.loc 1 376 0
 619 0008 514A     		ldr	r2, .L40
 620 000a 0168     		ldr	r1, [r0]
 621              		.loc 1 374 0
 622 000c DFF894A1 		ldr	r10, .L40+84
 623              		.loc 1 376 0
 624 0010 1160     		str	r1, [r2]
 625              		.loc 1 374 0
 626 0012 85B0     		sub	sp, sp, #20
 627              		.cfi_def_cfa_offset 64
ARM GAS  C:\Users\osour\AppData\Local\Temp\ccbHWuAa.s 			page 12


 628              		.loc 1 378 0
 629 0014 0021     		movs	r1, #0
 630              		.loc 1 380 0
 631 0016 0D46     		mov	r5, r1
 632              		.loc 1 374 0
 633 0018 DAF80030 		ldr	r3, [r10]
 634              		.loc 1 378 0
 635 001c 4D48     		ldr	r0, .L40+4
 636              	.LVL46:
 637              		.loc 1 374 0
 638 001e 0393     		str	r3, [sp, #12]
 639              		.loc 1 378 0
 640 0020 FFF7FEFF 		bl	chSemObjectInit
 641              	.LVL47:
 642              		.loc 1 380 0
 643 0024 4FF4AF61 		mov	r1, #1400
 644 0028 4B4B     		ldr	r3, .L40+8
 645 002a 0095     		str	r5, [sp]
 646 002c 4122     		movs	r2, #65
 647 002e 4B48     		ldr	r0, .L40+12
 648              	.LBB96:
 649              	.LBB97:
 650              		.loc 1 160 0
 651 0030 4B4C     		ldr	r4, .L40+16
 652              		.loc 1 159 0
 653 0032 4C4E     		ldr	r6, .L40+20
 654 0034 DFED4C8A 		vldr.32	s17, .L40+24
 655              		.loc 1 160 0
 656 0038 9FED4C8A 		vldr.32	s16, .L40+28
 657              	.LBE97:
 658              	.LBE96:
 659              		.loc 1 392 0
 660 003c 4C4F     		ldr	r7, .L40+32
 661              		.loc 1 395 0
 662 003e DFF868B1 		ldr	fp, .L40+88
 663              		.loc 1 380 0
 664 0042 FFF7FEFF 		bl	chThdCreateStatic
 665              	.LVL48:
 666 0046 4B4B     		ldr	r3, .L40+36
 667              	.LBB100:
 668              	.LBB98:
 669              		.loc 1 155 0
 670 0048 4B4A     		ldr	r2, .L40+40
 671              	.LBE98:
 672              	.LBE100:
 673              		.loc 1 380 0
 674 004a 1860     		str	r0, [r3]
 675              	.LVL49:
 676              	.LBB101:
 677              	.LBB99:
 678              		.loc 1 155 0
 679 004c 136B     		ldr	r3, [r2, #48]
 680              		.loc 1 159 0
 681 004e C6ED018A 		vstr.32	s17, [r6, #4]
 682              		.loc 1 161 0
 683 0052 4FF47A59 		mov	r9, #16000
 684              		.loc 1 163 0
ARM GAS  C:\Users\osour\AppData\Local\Temp\ccbHWuAa.s 			page 13


 685 0056 4FF00218 		mov	r8, #131074
 686              		.loc 1 155 0
 687 005a 43F48053 		orr	r3, r3, #4096
 688 005e 1363     		str	r3, [r2, #48]
 689              		.loc 1 164 0
 690 0060 3046     		mov	r0, r6
 691              		.loc 1 161 0
 692 0062 A6F80090 		strh	r9, [r6]	@ movhi
 693              		.loc 1 163 0
 694 0066 C6F80C80 		str	r8, [r6, #12]
 695              		.loc 1 160 0
 696 006a 84ED028A 		vstr.32	s16, [r4, #8]
 697              		.loc 1 164 0
 698 006e FFF7FEFF 		bl	PDM_Filter_Init
 699              	.LVL50:
 700              		.loc 1 166 0
 701 0072 424B     		ldr	r3, .L40+44
 702 0074 424A     		ldr	r2, .L40+48
 703              		.loc 1 168 0
 704 0076 A4F80090 		strh	r9, [r4]	@ movhi
 705              		.loc 1 166 0
 706 007a C4E90132 		strd	r3, r2, [r4, #4]
 707              		.loc 1 171 0
 708 007e 2046     		mov	r0, r4
 709              		.loc 1 167 0
 710 0080 C4F80C80 		str	r8, [r4, #12]
 711              		.loc 1 171 0
 712 0084 FFF7FEFF 		bl	PDM_Filter_Init
 713              	.LVL51:
 714              		.loc 1 164 0
 715 0088 06F13400 		add	r0, r6, #52
 716              		.loc 1 159 0
 717 008c C6ED0E8A 		vstr.32	s17, [r6, #56]
 718              		.loc 1 160 0
 719 0090 84ED0F8A 		vstr.32	s16, [r4, #60]
 720              		.loc 1 161 0
 721 0094 A6F83490 		strh	r9, [r6, #52]	@ movhi
 722              		.loc 1 163 0
 723 0098 C6F84080 		str	r8, [r6, #64]
 724              		.loc 1 164 0
 725 009c FFF7FEFF 		bl	PDM_Filter_Init
 726              	.LVL52:
 727              		.loc 1 166 0
 728 00a0 364B     		ldr	r3, .L40+44
 729 00a2 374A     		ldr	r2, .L40+48
 730              		.loc 1 168 0
 731 00a4 A4F83490 		strh	r9, [r4, #52]	@ movhi
 732              		.loc 1 166 0
 733 00a8 C4E90E32 		strd	r3, r2, [r4, #56]
 734              		.loc 1 171 0
 735 00ac 04F13400 		add	r0, r4, #52
 736              		.loc 1 167 0
 737 00b0 C4F84080 		str	r8, [r4, #64]
 738              		.loc 1 171 0
 739 00b4 FFF7FEFF 		bl	PDM_Filter_Init
 740              	.LVL53:
 741              	.LBE99:
ARM GAS  C:\Users\osour\AppData\Local\Temp\ccbHWuAa.s 			page 14


 742              	.LBE101:
 743              		.loc 1 392 0
 744 00b8 2946     		mov	r1, r5
 745 00ba 3846     		mov	r0, r7
 746 00bc 40F20C42 		movw	r2, #1036
 747 00c0 FFF7FEFF 		bl	memset
 748              	.LVL54:
 749              		.loc 1 399 0
 750 00c4 8024     		movs	r4, #128
 751              		.loc 1 400 0
 752 00c6 4FF40062 		mov	r2, #2048
 753              		.loc 1 393 0
 754 00ca 2E4B     		ldr	r3, .L40+52
 755              		.loc 1 396 0
 756 00cc 2E49     		ldr	r1, .L40+56
 757              		.loc 1 393 0
 758 00ce C7F80834 		str	r3, [r7, #1032]
 759              		.loc 1 409 0
 760 00d2 2E4E     		ldr	r6, .L40+60
 761              		.loc 1 400 0
 762 00d4 ABF80A20 		strh	r2, [fp, #10]	@ movhi
 763              		.loc 1 396 0
 764 00d8 CBF80010 		str	r1, [fp]
 765              		.loc 1 395 0
 766 00dc CBF80450 		str	r5, [fp, #4]
 767 00e0 ABF80850 		strh	r5, [fp, #8]	@ movhi
 768              		.loc 1 399 0
 769 00e4 CBF80C40 		str	r4, [fp, #12]
 770              		.loc 1 402 0
 771 00e8 FFF7FEFF 		bl	spi3SlaveInit
 772              	.LVL55:
 773              		.loc 1 403 0
 774 00ec 5946     		mov	r1, fp
 775 00ee 2848     		ldr	r0, .L40+64
 776 00f0 FFF7FEFF 		bl	spi3SlaveStart
 777              	.LVL56:
 778              		.loc 1 404 0
 779 00f4 07F50273 		add	r3, r7, #520
 780 00f8 07F10802 		add	r2, r7, #8
 781 00fc 4FF48071 		mov	r1, #256
 782 0100 2348     		ldr	r0, .L40+64
 783              		.loc 1 416 0
 784 0102 244F     		ldr	r7, .L40+68
 785              		.loc 1 404 0
 786 0104 FFF7FEFF 		bl	spi3SlaveStartExchange
 787              	.LVL57:
 788              		.loc 1 409 0
 789 0108 2946     		mov	r1, r5
 790 010a 3046     		mov	r0, r6
 791 010c 4FF40372 		mov	r2, #524
 792 0110 FFF7FEFF 		bl	memset
 793              	.LVL58:
 794              		.loc 1 412 0
 795 0114 204B     		ldr	r3, .L40+72
 796              		.loc 1 410 0
 797 0116 1B49     		ldr	r1, .L40+52
 798 0118 C6F80812 		str	r1, [r6, #520]
ARM GAS  C:\Users\osour\AppData\Local\Temp\ccbHWuAa.s 			page 15


 799              		.loc 1 418 0
 800 011c 1F4A     		ldr	r2, .L40+76
 801 011e 1A61     		str	r2, [r3, #16]
 802              		.loc 1 414 0
 803 0120 0836     		adds	r6, r6, #8
 804              		.loc 1 426 0
 805 0122 1946     		mov	r1, r3
 806              		.loc 1 412 0
 807 0124 C3E90056 		strd	r5, r6, [r3]
 808              		.loc 1 426 0
 809 0128 1D48     		ldr	r0, .L40+80
 810              		.loc 1 416 0
 811 012a C3E90247 		strd	r4, r7, [r3, #8]
 812              		.loc 1 426 0
 813 012e FFF7FEFF 		bl	i2sStart
 814              	.LVL59:
 815              		.loc 1 427 0
 816 0132 039A     		ldr	r2, [sp, #12]
 817 0134 DAF80030 		ldr	r3, [r10]
 818 0138 9A42     		cmp	r2, r3
 819 013a 07D1     		bne	.L39
 820 013c 1848     		ldr	r0, .L40+80
 821              		.loc 1 428 0
 822 013e 05B0     		add	sp, sp, #20
 823              		.cfi_remember_state
 824              		.cfi_def_cfa_offset 44
 825              		@ sp needed
 826 0140 BDEC028B 		vldm	sp!, {d8}
 827              		.cfi_restore 80
 828              		.cfi_restore 81
 829              		.cfi_def_cfa_offset 36
 830 0144 BDE8F04F 		pop	{r4, r5, r6, r7, r8, r9, r10, fp, lr}
 831              		.cfi_restore 14
 832              		.cfi_restore 11
 833              		.cfi_restore 10
 834              		.cfi_restore 9
 835              		.cfi_restore 8
 836              		.cfi_restore 7
 837              		.cfi_restore 6
 838              		.cfi_restore 5
 839              		.cfi_restore 4
 840              		.cfi_def_cfa_offset 0
 841              		.loc 1 427 0
 842 0148 FFF7FEBF 		b	i2sStartExchange
 843              	.LVL60:
 844              	.L39:
 845              		.cfi_restore_state
 846 014c FFF7FEFF 		bl	__stack_chk_fail
 847              	.LVL61:
 848              	.L41:
 849              		.align	2
 850              	.L40:
 851 0150 00000000 		.word	.LANCHOR13
 852 0154 00000000 		.word	.LANCHOR1
 853 0158 00000000 		.word	DataProcessing
 854 015c 00000000 		.word	.LANCHOR17
 855 0160 00000000 		.word	.LANCHOR9
ARM GAS  C:\Users\osour\AppData\Local\Temp\ccbHWuAa.s 			page 16


 856 0164 00000000 		.word	.LANCHOR7
 857 0168 00007A44 		.word	1148846080
 858 016c 00004842 		.word	1112014848
 859 0170 00000000 		.word	.LANCHOR0
 860 0174 00000000 		.word	.LANCHOR18
 861 0178 00380240 		.word	1073887232
 862 017c 0000FA45 		.word	1174011904
 863 0180 00002041 		.word	1092616192
 864 0184 EFBEADDE 		.word	-559038737
 865 0188 00000000 		.word	mp45dt02SPICb
 866 018c 00000000 		.word	.LANCHOR2
 867 0190 00000000 		.word	SPISLAVED3
 868 0194 00000000 		.word	mp45dt02I2SCb
 869 0198 00000000 		.word	.LANCHOR20
 870 019c 2C030800 		.word	525100
 871 01a0 00000000 		.word	I2SD2
 872 01a4 00000000 		.word	__stack_chk_guard
 873 01a8 00000000 		.word	.LANCHOR19
 874              		.cfi_endproc
 875              	.LFE261:
 876              		.size	mp45dt02Init, .-mp45dt02Init
 877              		.section	.text.mp45dt02Shutdown,"ax",%progbits
 878              		.align	1
 879              		.p2align 4,,15
 880              		.global	mp45dt02Shutdown
 881              		.syntax unified
 882              		.thumb
 883              		.thumb_func
 884              		.fpu fpv4-sp-d16
 885              		.type	mp45dt02Shutdown, %function
 886              	mp45dt02Shutdown:
 887              	.LFB262:
 888              		.loc 1 431 0
 889              		.cfi_startproc
 890              		@ args = 0, pretend = 0, frame = 8
 891              		@ frame_needed = 0, uses_anonymous_args = 0
 892 0000 30B5     		push	{r4, r5, lr}
 893              		.cfi_def_cfa_offset 12
 894              		.cfi_offset 4, -12
 895              		.cfi_offset 5, -8
 896              		.cfi_offset 14, -4
 897 0002 124D     		ldr	r5, .L46
 898              		.loc 1 432 0
 899 0004 1248     		ldr	r0, .L46+4
 900              		.loc 1 431 0
 901 0006 2B68     		ldr	r3, [r5]
 902              		.loc 1 438 0
 903 0008 124C     		ldr	r4, .L46+8
 904              		.loc 1 431 0
 905 000a 83B0     		sub	sp, sp, #12
 906              		.cfi_def_cfa_offset 24
 907              		.loc 1 431 0
 908 000c 0193     		str	r3, [sp, #4]
 909              		.loc 1 432 0
 910 000e FFF7FEFF 		bl	i2sStopExchange
 911              	.LVL62:
 912              		.loc 1 433 0
ARM GAS  C:\Users\osour\AppData\Local\Temp\ccbHWuAa.s 			page 17


 913 0012 0F48     		ldr	r0, .L46+4
 914 0014 FFF7FEFF 		bl	i2sStop
 915              	.LVL63:
 916              		.loc 1 435 0
 917 0018 0F48     		ldr	r0, .L46+12
 918 001a FFF7FEFF 		bl	spi3SlaveStopExchange
 919              	.LVL64:
 920              		.loc 1 436 0
 921 001e 0E48     		ldr	r0, .L46+12
 922 0020 FFF7FEFF 		bl	spi3SlaveStop
 923              	.LVL65:
 924              		.loc 1 438 0
 925 0024 2068     		ldr	r0, [r4]
 926 0026 FFF7FEFF 		bl	chThdTerminate
 927              	.LVL66:
 928              		.loc 1 439 0
 929 002a 0021     		movs	r1, #0
 930 002c 0B48     		ldr	r0, .L46+16
 931 002e FFF7FEFF 		bl	chSemReset
 932              	.LVL67:
 933              		.loc 1 440 0
 934 0032 2068     		ldr	r0, [r4]
 935 0034 FFF7FEFF 		bl	chThdWait
 936              	.LVL68:
 937              		.loc 1 442 0
 938 0038 019A     		ldr	r2, [sp, #4]
 939 003a 2B68     		ldr	r3, [r5]
 940              		.loc 1 441 0
 941 003c 0021     		movs	r1, #0
 942              		.loc 1 442 0
 943 003e 9A42     		cmp	r2, r3
 944              		.loc 1 441 0
 945 0040 2160     		str	r1, [r4]
 946              		.loc 1 442 0
 947 0042 01D1     		bne	.L45
 948 0044 03B0     		add	sp, sp, #12
 949              		.cfi_remember_state
 950              		.cfi_def_cfa_offset 12
 951              		@ sp needed
 952 0046 30BD     		pop	{r4, r5, pc}
 953              	.L45:
 954              		.cfi_restore_state
 955 0048 FFF7FEFF 		bl	__stack_chk_fail
 956              	.LVL69:
 957              	.L47:
 958              		.align	2
 959              	.L46:
 960 004c 00000000 		.word	__stack_chk_guard
 961 0050 00000000 		.word	I2SD2
 962 0054 00000000 		.word	.LANCHOR18
 963 0058 00000000 		.word	SPISLAVED3
 964 005c 00000000 		.word	.LANCHOR1
 965              		.cfi_endproc
 966              	.LFE262:
 967              		.size	mp45dt02Shutdown, .-mp45dt02Shutdown
 968              		.section	.text.mp45dt02BufferPtr,"ax",%progbits
 969              		.align	1
ARM GAS  C:\Users\osour\AppData\Local\Temp\ccbHWuAa.s 			page 18


 970              		.p2align 4,,15
 971              		.global	mp45dt02BufferPtr
 972              		.syntax unified
 973              		.thumb
 974              		.thumb_func
 975              		.fpu fpv4-sp-d16
 976              		.type	mp45dt02BufferPtr, %function
 977              	mp45dt02BufferPtr:
 978              	.LFB263:
 979              		.loc 1 444 0
 980              		.cfi_startproc
 981              		@ args = 0, pretend = 0, frame = 8
 982              		@ frame_needed = 0, uses_anonymous_args = 0
 983 0000 00B5     		push	{lr}
 984              		.cfi_def_cfa_offset 4
 985              		.cfi_offset 14, -4
 986 0002 074B     		ldr	r3, .L52
 987              		.loc 1 445 0
 988 0004 0749     		ldr	r1, .L52+4
 989              		.loc 1 444 0
 990 0006 1A68     		ldr	r2, [r3]
 991              		.loc 1 446 0
 992 0008 0868     		ldr	r0, [r1]
 993              		.loc 1 444 0
 994 000a 83B0     		sub	sp, sp, #12
 995              		.cfi_def_cfa_offset 16
 996              		.loc 1 444 0
 997 000c 0192     		str	r2, [sp, #4]
 998              		.loc 1 446 0
 999 000e 019A     		ldr	r2, [sp, #4]
 1000 0010 1B68     		ldr	r3, [r3]
 1001 0012 9A42     		cmp	r2, r3
 1002 0014 02D1     		bne	.L51
 1003 0016 03B0     		add	sp, sp, #12
 1004              		.cfi_remember_state
 1005              		.cfi_def_cfa_offset 4
 1006              		@ sp needed
 1007 0018 5DF804FB 		ldr	pc, [sp], #4
 1008              	.L51:
 1009              		.cfi_restore_state
 1010 001c FFF7FEFF 		bl	__stack_chk_fail
 1011              	.LVL70:
 1012              	.L53:
 1013              		.align	2
 1014              	.L52:
 1015 0020 00000000 		.word	__stack_chk_guard
 1016 0024 00000000 		.word	.LANCHOR14
 1017              		.cfi_endproc
 1018              	.LFE263:
 1019              		.size	mp45dt02BufferPtr, .-mp45dt02BufferPtr
 1020              		.global	PDM_filter_SPI
 1021              		.global	PDM_filter_I2S
 1022              		.global	Channel_Demux
 1023              		.section	.bss.DataProcessingSem,"aw",%nobits
 1024              		.align	2
 1025              		.set	.LANCHOR1,. + 0
 1026              		.type	DataProcessingSem, %object
ARM GAS  C:\Users\osour\AppData\Local\Temp\ccbHWuAa.s 			page 19


 1027              		.size	DataProcessingSem, 12
 1028              	DataProcessingSem:
 1029 0000 00000000 		.space	12
 1029      00000000 
 1029      00000000 
 1030              		.section	.bss.DataProcessingThd,"aw",%nobits
 1031              		.align	2
 1032              		.set	.LANCHOR18,. + 0
 1033              		.type	DataProcessingThd, %object
 1034              		.size	DataProcessingThd, 4
 1035              	DataProcessingThd:
 1036 0000 00000000 		.space	4
 1037              		.section	.bss.DataProcessingThdWA,"aw",%nobits
 1038              		.align	3
 1039              		.set	.LANCHOR17,. + 0
 1040              		.type	DataProcessingThdWA, %object
 1041              		.size	DataProcessingThdWA, 1400
 1042              	DataProcessingThdWA:
 1043 0000 00000000 		.space	1400
 1043      00000000 
 1043      00000000 
 1043      00000000 
 1043      00000000 
 1044              		.section	.bss.I2S_PCM_samples,"aw",%nobits
 1045              		.align	2
 1046              		.set	.LANCHOR8,. + 0
 1047              		.type	I2S_PCM_samples, %object
 1048              		.size	I2S_PCM_samples, 64
 1049              	I2S_PCM_samples:
 1050 0000 00000000 		.space	64
 1050      00000000 
 1050      00000000 
 1050      00000000 
 1050      00000000 
 1051              		.section	.bss.I2S_PDM_samples,"aw",%nobits
 1052              		.align	2
 1053              		.set	.LANCHOR4,. + 0
 1054              		.type	I2S_PDM_samples, %object
 1055              		.size	I2S_PDM_samples, 256
 1056              	I2S_PDM_samples:
 1057 0000 00000000 		.space	256
 1057      00000000 
 1057      00000000 
 1057      00000000 
 1057      00000000 
 1058              		.section	.bss.PCM_buffer1,"aw",%nobits
 1059              		.align	2
 1060              		.set	.LANCHOR15,. + 0
 1061              		.type	PCM_buffer1, %object
 1062              		.size	PCM_buffer1, 1280
 1063              	PCM_buffer1:
 1064 0000 00000000 		.space	1280
 1064      00000000 
 1064      00000000 
 1064      00000000 
 1064      00000000 
 1065              		.section	.bss.PCM_buffer2,"aw",%nobits
ARM GAS  C:\Users\osour\AppData\Local\Temp\ccbHWuAa.s 			page 20


 1066              		.align	2
 1067              		.set	.LANCHOR16,. + 0
 1068              		.type	PCM_buffer2, %object
 1069              		.size	PCM_buffer2, 1280
 1070              	PCM_buffer2:
 1071 0000 00000000 		.space	1280
 1071      00000000 
 1071      00000000 
 1071      00000000 
 1071      00000000 
 1072              		.section	.bss.PCM_buffer_index,"aw",%nobits
 1073              		.set	.LANCHOR12,. + 0
 1074              		.type	PCM_buffer_index, %object
 1075              		.size	PCM_buffer_index, 1
 1076              	PCM_buffer_index:
 1077 0000 00       		.space	1
 1078              		.section	.bss.PDM_filter_I2S,"aw",%nobits
 1079              		.align	2
 1080              		.set	.LANCHOR7,. + 0
 1081              		.type	PDM_filter_I2S, %object
 1082              		.size	PDM_filter_I2S, 104
 1083              	PDM_filter_I2S:
 1084 0000 00000000 		.space	104
 1084      00000000 
 1084      00000000 
 1084      00000000 
 1084      00000000 
 1085              		.section	.bss.PDM_filter_SPI,"aw",%nobits
 1086              		.align	2
 1087              		.set	.LANCHOR9,. + 0
 1088              		.type	PDM_filter_SPI, %object
 1089              		.size	PDM_filter_SPI, 104
 1090              	PDM_filter_SPI:
 1091 0000 00000000 		.space	104
 1091      00000000 
 1091      00000000 
 1091      00000000 
 1091      00000000 
 1092              		.section	.bss.SPI_PCM_samples,"aw",%nobits
 1093              		.align	2
 1094              		.set	.LANCHOR10,. + 0
 1095              		.type	SPI_PCM_samples, %object
 1096              		.size	SPI_PCM_samples, 64
 1097              	SPI_PCM_samples:
 1098 0000 00000000 		.space	64
 1098      00000000 
 1098      00000000 
 1098      00000000 
 1098      00000000 
 1099              		.section	.bss.SPI_PDM_samples,"aw",%nobits
 1100              		.align	2
 1101              		.set	.LANCHOR6,. + 0
 1102              		.type	SPI_PDM_samples, %object
 1103              		.size	SPI_PDM_samples, 256
 1104              	SPI_PDM_samples:
 1105 0000 00000000 		.space	256
 1105      00000000 
ARM GAS  C:\Users\osour\AppData\Local\Temp\ccbHWuAa.s 			page 21


 1105      00000000 
 1105      00000000 
 1105      00000000 
 1106              		.section	.bss.initConfig,"aw",%nobits
 1107              		.align	2
 1108              		.set	.LANCHOR13,. + 0
 1109              		.type	initConfig, %object
 1110              		.size	initConfig, 4
 1111              	initConfig:
 1112 0000 00000000 		.space	4
 1113              		.section	.bss.mp45dt02I2SConfig,"aw",%nobits
 1114              		.align	2
 1115              		.set	.LANCHOR20,. + 0
 1116              		.type	mp45dt02I2SConfig, %object
 1117              		.size	mp45dt02I2SConfig, 20
 1118              	mp45dt02I2SConfig:
 1119 0000 00000000 		.space	20
 1119      00000000 
 1119      00000000 
 1119      00000000 
 1119      00000000 
 1120              		.section	.bss.mp45dt02I2sData,"aw",%nobits
 1121              		.align	2
 1122              		.set	.LANCHOR2,. + 0
 1123              		.type	mp45dt02I2sData, %object
 1124              		.size	mp45dt02I2sData, 524
 1125              	mp45dt02I2sData:
 1126 0000 00000000 		.space	524
 1126      00000000 
 1126      00000000 
 1126      00000000 
 1126      00000000 
 1127              		.section	.bss.mp45dt02SPIConfig,"aw",%nobits
 1128              		.align	2
 1129              		.set	.LANCHOR19,. + 0
 1130              		.type	mp45dt02SPIConfig, %object
 1131              		.size	mp45dt02SPIConfig, 16
 1132              	mp45dt02SPIConfig:
 1133 0000 00000000 		.space	16
 1133      00000000 
 1133      00000000 
 1133      00000000 
 1134              		.section	.bss.mp45dt02SPIData,"aw",%nobits
 1135              		.align	2
 1136              		.set	.LANCHOR0,. + 0
 1137              		.type	mp45dt02SPIData, %object
 1138              		.size	mp45dt02SPIData, 1036
 1139              	mp45dt02SPIData:
 1140 0000 00000000 		.space	1036
 1140      00000000 
 1140      00000000 
 1140      00000000 
 1140      00000000 
 1141              		.section	.data.Channel_Demux,"aw",%progbits
 1142              		.align	2
 1143              		.set	.LANCHOR5,. + 0
 1144              		.type	Channel_Demux, %object
ARM GAS  C:\Users\osour\AppData\Local\Temp\ccbHWuAa.s 			page 22


 1145              		.size	Channel_Demux, 128
 1146              	Channel_Demux:
 1147 0000 00       		.byte	0
 1148 0001 01       		.byte	1
 1149 0002 00       		.byte	0
 1150 0003 01       		.byte	1
 1151 0004 02       		.byte	2
 1152 0005 03       		.byte	3
 1153 0006 02       		.byte	2
 1154 0007 03       		.byte	3
 1155 0008 00       		.byte	0
 1156 0009 01       		.byte	1
 1157 000a 00       		.byte	0
 1158 000b 01       		.byte	1
 1159 000c 02       		.byte	2
 1160 000d 03       		.byte	3
 1161 000e 02       		.byte	2
 1162 000f 03       		.byte	3
 1163 0010 04       		.byte	4
 1164 0011 05       		.byte	5
 1165 0012 04       		.byte	4
 1166 0013 05       		.byte	5
 1167 0014 06       		.byte	6
 1168 0015 07       		.byte	7
 1169 0016 06       		.byte	6
 1170 0017 07       		.byte	7
 1171 0018 04       		.byte	4
 1172 0019 05       		.byte	5
 1173 001a 04       		.byte	4
 1174 001b 05       		.byte	5
 1175 001c 06       		.byte	6
 1176 001d 07       		.byte	7
 1177 001e 06       		.byte	6
 1178 001f 07       		.byte	7
 1179 0020 00       		.byte	0
 1180 0021 01       		.byte	1
 1181 0022 00       		.byte	0
 1182 0023 01       		.byte	1
 1183 0024 02       		.byte	2
 1184 0025 03       		.byte	3
 1185 0026 02       		.byte	2
 1186 0027 03       		.byte	3
 1187 0028 00       		.byte	0
 1188 0029 01       		.byte	1
 1189 002a 00       		.byte	0
 1190 002b 01       		.byte	1
 1191 002c 02       		.byte	2
 1192 002d 03       		.byte	3
 1193 002e 02       		.byte	2
 1194 002f 03       		.byte	3
 1195 0030 04       		.byte	4
 1196 0031 05       		.byte	5
 1197 0032 04       		.byte	4
 1198 0033 05       		.byte	5
 1199 0034 06       		.byte	6
 1200 0035 07       		.byte	7
 1201 0036 06       		.byte	6
ARM GAS  C:\Users\osour\AppData\Local\Temp\ccbHWuAa.s 			page 23


 1202 0037 07       		.byte	7
 1203 0038 04       		.byte	4
 1204 0039 05       		.byte	5
 1205 003a 04       		.byte	4
 1206 003b 05       		.byte	5
 1207 003c 06       		.byte	6
 1208 003d 07       		.byte	7
 1209 003e 06       		.byte	6
 1210 003f 07       		.byte	7
 1211 0040 08       		.byte	8
 1212 0041 09       		.byte	9
 1213 0042 08       		.byte	8
 1214 0043 09       		.byte	9
 1215 0044 0A       		.byte	10
 1216 0045 0B       		.byte	11
 1217 0046 0A       		.byte	10
 1218 0047 0B       		.byte	11
 1219 0048 08       		.byte	8
 1220 0049 09       		.byte	9
 1221 004a 08       		.byte	8
 1222 004b 09       		.byte	9
 1223 004c 0A       		.byte	10
 1224 004d 0B       		.byte	11
 1225 004e 0A       		.byte	10
 1226 004f 0B       		.byte	11
 1227 0050 0C       		.byte	12
 1228 0051 0D       		.byte	13
 1229 0052 0C       		.byte	12
 1230 0053 0D       		.byte	13
 1231 0054 0E       		.byte	14
 1232 0055 0F       		.byte	15
 1233 0056 0E       		.byte	14
 1234 0057 0F       		.byte	15
 1235 0058 0C       		.byte	12
 1236 0059 0D       		.byte	13
 1237 005a 0C       		.byte	12
 1238 005b 0D       		.byte	13
 1239 005c 0E       		.byte	14
 1240 005d 0F       		.byte	15
 1241 005e 0E       		.byte	14
 1242 005f 0F       		.byte	15
 1243 0060 08       		.byte	8
 1244 0061 09       		.byte	9
 1245 0062 08       		.byte	8
 1246 0063 09       		.byte	9
 1247 0064 0A       		.byte	10
 1248 0065 0B       		.byte	11
 1249 0066 0A       		.byte	10
 1250 0067 0B       		.byte	11
 1251 0068 08       		.byte	8
 1252 0069 09       		.byte	9
 1253 006a 08       		.byte	8
 1254 006b 09       		.byte	9
 1255 006c 0A       		.byte	10
 1256 006d 0B       		.byte	11
 1257 006e 0A       		.byte	10
 1258 006f 0B       		.byte	11
ARM GAS  C:\Users\osour\AppData\Local\Temp\ccbHWuAa.s 			page 24


 1259 0070 0C       		.byte	12
 1260 0071 0D       		.byte	13
 1261 0072 0C       		.byte	12
 1262 0073 0D       		.byte	13
 1263 0074 0E       		.byte	14
 1264 0075 0F       		.byte	15
 1265 0076 0E       		.byte	14
 1266 0077 0F       		.byte	15
 1267 0078 0C       		.byte	12
 1268 0079 0D       		.byte	13
 1269 007a 0C       		.byte	12
 1270 007b 0D       		.byte	13
 1271 007c 0E       		.byte	14
 1272 007d 0F       		.byte	15
 1273 007e 0E       		.byte	14
 1274 007f 0F       		.byte	15
 1275              		.section	.data.PCM_buffer_ptr_curr,"aw",%progbits
 1276              		.align	2
 1277              		.set	.LANCHOR11,. + 0
 1278              		.type	PCM_buffer_ptr_curr, %object
 1279              		.size	PCM_buffer_ptr_curr, 4
 1280              	PCM_buffer_ptr_curr:
 1281 0000 00000000 		.word	PCM_buffer1
 1282              		.section	.data.PCM_buffer_ptr_last,"aw",%progbits
 1283              		.align	2
 1284              		.set	.LANCHOR14,. + 0
 1285              		.type	PCM_buffer_ptr_last, %object
 1286              		.size	PCM_buffer_ptr_last, 4
 1287              	PCM_buffer_ptr_last:
 1288 0000 00000000 		.word	PCM_buffer2
 1289              		.section	.rodata.__FUNCTION__.10410,"a",%progbits
 1290              		.align	2
 1291              		.set	.LANCHOR3,. + 0
 1292              		.type	__FUNCTION__.10410, %object
 1293              		.size	__FUNCTION__.10410, 15
 1294              	__FUNCTION__.10410:
 1295 0000 44617461 		.ascii	"DataProcessing\000"
 1295      50726F63 
 1295      65737369 
 1295      6E6700
 1296              		.text
 1297              	.Letext0:
 1298              		.file 6 "c:\\users\\osour\\desktop\\robotique\\eclipse_e-puck2\\tools\\gcc-arm-none-eabi-7-2017-q4
 1299              		.file 7 "c:\\users\\osour\\desktop\\robotique\\eclipse_e-puck2\\tools\\gcc-arm-none-eabi-7-2017-q4
 1300              		.file 8 "c:\\users\\osour\\desktop\\robotique\\eclipse_e-puck2\\tools\\gcc-arm-none-eabi-7-2017-q4
 1301              		.file 9 "c:\\users\\osour\\desktop\\robotique\\eclipse_e-puck2\\tools\\gcc-arm-none-eabi-7-2017-q4
 1302              		.file 10 "c:\\users\\osour\\desktop\\robotique\\eclipse_e-puck2\\tools\\gcc-arm-none-eabi-7-2017-q
 1303              		.file 11 "c:\\users\\osour\\desktop\\robotique\\eclipse_e-puck2\\tools\\gcc-arm-none-eabi-7-2017-q
 1304              		.file 12 "../../lib/e-puck2_main-processor/ChibiOS//os/rt/ports/ARMCMx/compilers/GCC/chtypes.h"
 1305              		.file 13 "../../lib/e-puck2_main-processor/ChibiOS//os/rt/include/chsystypes.h"
 1306              		.file 14 "../../lib/e-puck2_main-processor/ChibiOS//os/rt/include/chschd.h"
 1307              		.file 15 "../../lib/e-puck2_main-processor/ChibiOS//os/ext/CMSIS/include/core_cm4.h"
 1308              		.file 16 "../../lib/e-puck2_main-processor/ChibiOS//os/ext/CMSIS/ST/system_stm32f4xx.h"
 1309              		.file 17 "../../lib/e-puck2_main-processor/ChibiOS//os/ext/CMSIS/ST/stm32f407xx.h"
 1310              		.file 18 "../../lib/e-puck2_main-processor/ChibiOS//os/rt/ports/ARMCMx/chcore.h"
 1311              		.file 19 "../../lib/e-puck2_main-processor/ChibiOS//os/rt/ports/ARMCMx/chcore_v7m.h"
 1312              		.file 20 "../../lib/e-puck2_main-processor/ChibiOS//os/rt/include/chdebug.h"
ARM GAS  C:\Users\osour\AppData\Local\Temp\ccbHWuAa.s 			page 25


 1313              		.file 21 "../../lib/e-puck2_main-processor/ChibiOS//os/rt/include/chtm.h"
 1314              		.file 22 "../../lib/e-puck2_main-processor/ChibiOS//os/rt/include/chstats.h"
 1315              		.file 23 "../../lib/e-puck2_main-processor/ChibiOS//os/rt/include/chsem.h"
 1316              		.file 24 "../../lib/e-puck2_main-processor/ChibiOS//os/rt/include/chmtx.h"
 1317              		.file 25 "../../lib/e-puck2_main-processor/ChibiOS//os/rt/include/chevents.h"
 1318              		.file 26 "../../lib/e-puck2_main-processor/ChibiOS//os/rt/include/chqueues.h"
 1319              		.file 27 "../../lib/e-puck2_main-processor/ChibiOS//os/hal/ports/STM32/STM32F4xx/stm32_dma.h"
 1320              		.file 28 "../../lib/e-puck2_main-processor/ChibiOS//os/hal/include/hal_ioblock.h"
 1321              		.file 29 "../../lib/e-puck2_main-processor/ChibiOS//os/hal/ports/STM32/LLD/GPIOv2/pal_lld.h"
 1322              		.file 30 "../../lib/e-puck2_main-processor/ChibiOS//os/hal/include/adc.h"
 1323              		.file 31 "../../lib/e-puck2_main-processor/ChibiOS//os/hal/ports/STM32/STM32F4xx/adc_lld.h"
 1324              		.file 32 "../../lib/e-puck2_main-processor/ChibiOS//os/hal/include/can.h"
 1325              		.file 33 "../../lib/e-puck2_main-processor/ChibiOS//os/hal/ports/STM32/LLD/can_lld.h"
 1326              		.file 34 "../../lib/e-puck2_main-processor/ChibiOS//os/hal/include/dac.h"
 1327              		.file 35 "../../lib/e-puck2_main-processor/ChibiOS//os/hal/ports/STM32/LLD/DACv1/dac_lld.h"
 1328              		.file 36 "../../lib/e-puck2_main-processor/ChibiOS//os/hal/include/ext.h"
 1329              		.file 37 "../../lib/e-puck2_main-processor/ChibiOS//os/hal/ports/STM32/LLD/ext_lld.h"
 1330              		.file 38 "../../lib/e-puck2_main-processor/ChibiOS//os/hal/include/gpt.h"
 1331              		.file 39 "../../lib/e-puck2_main-processor/ChibiOS//os/hal/ports/STM32/LLD/TIMv1/gpt_lld.h"
 1332              		.file 40 "../../lib/e-puck2_main-processor/ChibiOS//os/hal/ports/STM32/LLD/TIMv1/stm32_tim.h"
 1333              		.file 41 "../../lib/e-puck2_main-processor/ChibiOS//os/hal/include/i2c.h"
 1334              		.file 42 "../../lib/e-puck2_main-processor/ChibiOS//os/hal/ports/STM32/LLD/I2Cv1/i2c_lld.h"
 1335              		.file 43 "../../lib/e-puck2_main-processor/ChibiOS//os/hal/include/i2s.h"
 1336              		.file 44 "../../lib/e-puck2_main-processor/ChibiOS//os/hal/ports/STM32/LLD/SPIv1/i2s_lld.h"
 1337              		.file 45 "../../lib/e-puck2_main-processor/ChibiOS//os/hal/include/pwm.h"
 1338              		.file 46 "../../lib/e-puck2_main-processor/ChibiOS//os/hal/ports/STM32/LLD/TIMv1/pwm_lld.h"
 1339              		.file 47 "../../lib/e-puck2_main-processor/ChibiOS//os/hal/include/serial.h"
 1340              		.file 48 "../../lib/e-puck2_main-processor/ChibiOS//os/hal/ports/STM32/LLD/USARTv1/serial_lld.h"
 1341              		.file 49 "../../lib/e-puck2_main-processor/ChibiOS//os/hal/include/sdc.h"
 1342              		.file 50 "../../lib/e-puck2_main-processor/ChibiOS//os/hal/ports/STM32/LLD/sdc_lld.h"
 1343              		.file 51 "../../lib/e-puck2_main-processor/ChibiOS//os/hal/include/spi.h"
 1344              		.file 52 "../../lib/e-puck2_main-processor/ChibiOS//os/hal/ports/STM32/LLD/SPIv1/spi_lld.h"
 1345              		.file 53 "../../lib/e-puck2_main-processor/ChibiOS//os/hal/include/usb.h"
 1346              		.file 54 "../../lib/e-puck2_main-processor/ChibiOS//os/hal/ports/STM32/LLD/OTGv1/usb_lld.h"
 1347              		.file 55 "../../lib/e-puck2_main-processor/ChibiOS//os/hal/ports/STM32/LLD/OTGv1/stm32_otg.h"
 1348              		.file 56 "../../lib/e-puck2_main-processor/ChibiOS_ext/os/hal/include/spi3_slave.h"
 1349              		.file 57 "../../lib/e-puck2_main-processor/src/audio/mp45dt02_processing.h"
 1350              		.file 58 "../../lib/e-puck2_main-processor/src/audio/pdm_filter.h"
 1351              		.file 59 "<built-in>"