ARM GAS  C:\Users\osour\AppData\Local\Temp\ccoG6iAC.s 			page 1


   1              		.cpu cortex-m4
   2              		.eabi_attribute 27, 1
   3              		.eabi_attribute 28, 1
   4              		.eabi_attribute 20, 1
   5              		.eabi_attribute 21, 1
   6              		.eabi_attribute 23, 3
   7              		.eabi_attribute 24, 1
   8              		.eabi_attribute 25, 1
   9              		.eabi_attribute 26, 1
  10              		.eabi_attribute 30, 2
  11              		.eabi_attribute 34, 1
  12              		.eabi_attribute 18, 4
  13              		.file	"sdc_lld.c"
  14              		.text
  15              	.Ltext0:
  16              		.cfi_sections	.debug_frame
  17              		.section	.text.sdc_lld_collect_errors.isra.0,"ax",%progbits
  18              		.align	1
  19              		.p2align 4,,15
  20              		.syntax unified
  21              		.thumb
  22              		.thumb_func
  23              		.fpu fpv4-sp-d16
  24              		.type	sdc_lld_collect_errors.isra.0, %function
  25              	sdc_lld_collect_errors.isra.0:
  26              	.LFB280:
  27              		.file 1 "../../lib/e-puck2_main-processor/ChibiOS//os/hal/ports/STM32/LLD/sdc_lld.c"
  28              		.loc 1 261 0
  29              		.cfi_startproc
  30              		@ args = 0, pretend = 0, frame = 8
  31              		@ frame_needed = 0, uses_anonymous_args = 0
  32              	.LVL0:
  33 0000 10B5     		push	{r4, lr}
  34              		.cfi_def_cfa_offset 8
  35              		.cfi_offset 4, -8
  36              		.cfi_offset 14, -4
  37 0002 144C     		ldr	r4, .L30
  38 0004 82B0     		sub	sp, sp, #8
  39              		.cfi_def_cfa_offset 16
  40              		.loc 1 261 0
  41 0006 2368     		ldr	r3, [r4]
  42 0008 0193     		str	r3, [sp, #4]
  43              	.LVL1:
  44              		.loc 1 266 0
  45 000a 8A07     		lsls	r2, r1, #30
  46              		.loc 1 264 0
  47 000c 01F00103 		and	r3, r1, #1
  48              	.LVL2:
  49              		.loc 1 267 0
  50 0010 48BF     		it	mi
  51 0012 43F00203 		orrmi	r3, r3, #2
  52              	.LVL3:
  53              		.loc 1 268 0
  54 0016 4A07     		lsls	r2, r1, #29
  55              		.loc 1 269 0
  56 0018 48BF     		it	mi
  57 001a 43F00803 		orrmi	r3, r3, #8
ARM GAS  C:\Users\osour\AppData\Local\Temp\ccoG6iAC.s 			page 2


  58              	.LVL4:
  59              		.loc 1 270 0
  60 001e 0A07     		lsls	r2, r1, #28
  61              		.loc 1 271 0
  62 0020 48BF     		it	mi
  63 0022 43F00403 		orrmi	r3, r3, #4
  64              	.LVL5:
  65              		.loc 1 272 0
  66 0026 CA06     		lsls	r2, r1, #27
  67              		.loc 1 273 0
  68 0028 48BF     		it	mi
  69 002a 43F01003 		orrmi	r3, r3, #16
  70              	.LVL6:
  71              		.loc 1 274 0
  72 002e 8A06     		lsls	r2, r1, #26
  73              		.loc 1 275 0
  74 0030 48BF     		it	mi
  75 0032 43F02003 		orrmi	r3, r3, #32
  76              	.LVL7:
  77              		.loc 1 276 0
  78 0036 8A05     		lsls	r2, r1, #22
  79              		.loc 1 279 0
  80 0038 0268     		ldr	r2, [r0]
  81              		.loc 1 280 0
  82 003a 0199     		ldr	r1, [sp, #4]
  83              	.LVL8:
  84              		.loc 1 277 0
  85 003c 48BF     		it	mi
  86 003e 43F04003 		orrmi	r3, r3, #64
  87              	.LVL9:
  88              		.loc 1 279 0
  89 0042 1343     		orrs	r3, r3, r2
  90              	.LVL10:
  91 0044 0360     		str	r3, [r0]
  92              		.loc 1 280 0
  93 0046 2368     		ldr	r3, [r4]
  94 0048 9942     		cmp	r1, r3
  95              	.LVL11:
  96 004a 01D1     		bne	.L29
  97 004c 02B0     		add	sp, sp, #8
  98              		.cfi_remember_state
  99              		.cfi_def_cfa_offset 8
 100              		@ sp needed
 101 004e 10BD     		pop	{r4, pc}
 102              	.L29:
 103              		.cfi_restore_state
 104 0050 FFF7FEFF 		bl	__stack_chk_fail
 105              	.LVL12:
 106              	.L31:
 107              		.align	2
 108              	.L30:
 109 0054 00000000 		.word	__stack_chk_guard
 110              		.cfi_endproc
 111              	.LFE280:
 112              		.size	sdc_lld_collect_errors.isra.0, .-sdc_lld_collect_errors.isra.0
 113              		.section	.text.Vector104,"ax",%progbits
 114              		.align	1
ARM GAS  C:\Users\osour\AppData\Local\Temp\ccoG6iAC.s 			page 3


 115              		.p2align 4,,15
 116              		.global	Vector104
 117              		.syntax unified
 118              		.thumb
 119              		.thumb_func
 120              		.fpu fpv4-sp-d16
 121              		.type	Vector104, %function
 122              	Vector104:
 123              	.LFB262:
 124              		.loc 1 320 0
 125              		.cfi_startproc
 126              		@ args = 0, pretend = 0, frame = 8
 127              		@ frame_needed = 0, uses_anonymous_args = 0
 128 0000 30B5     		push	{r4, r5, lr}
 129              		.cfi_def_cfa_offset 12
 130              		.cfi_offset 4, -12
 131              		.cfi_offset 5, -8
 132              		.cfi_offset 14, -4
 133 0002 144D     		ldr	r5, .L37
 134 0004 83B0     		sub	sp, sp, #12
 135              		.cfi_def_cfa_offset 24
 136              		.loc 1 320 0
 137 0006 2B68     		ldr	r3, [r5]
 138 0008 0193     		str	r3, [sp, #4]
 139              		.loc 1 322 0
 140 000a FFF7FEFF 		bl	_stats_increase_irq
 141              	.LVL13:
 142 000e FFF7FEFF 		bl	_dbg_check_enter_isr
 143              	.LVL14:
 144              	.LBB94:
 145              	.LBB95:
 146              	.LBB96:
 147              	.LBB97:
 148              	.LBB98:
 149              	.LBB99:
 150              	.LBB100:
 151              		.file 2 "../../lib/e-puck2_main-processor/ChibiOS//os/ext/CMSIS/include/core_cmFunc.h"
 152              		.loc 2 546 0
 153 0012 2023     		movs	r3, #32
 154              		.syntax unified
 155              	@ 546 "../../lib/e-puck2_main-processor/ChibiOS//os/ext/CMSIS/include/core_cmFunc.h" 1
 156 0014 83F31188 		MSR basepri, r3
 157              	@ 0 "" 2
 158              	.LVL15:
 159              		.thumb
 160              		.syntax unified
 161              	.LBE100:
 162              	.LBE99:
 163              	.LBE98:
 164              	.LBE97:
 165              		.file 3 "../../lib/e-puck2_main-processor/ChibiOS//os/rt/include/chsys.h"
 166              		.loc 3 389 0
 167 0018 FFF7FEFF 		bl	_stats_start_measure_crit_isr
 168              	.LVL16:
 169              		.loc 3 390 0
 170 001c FFF7FEFF 		bl	_dbg_check_lock_from_isr
 171              	.LVL17:
ARM GAS  C:\Users\osour\AppData\Local\Temp\ccoG6iAC.s 			page 4


 172              	.LBE96:
 173              	.LBE95:
 174              	.LBE94:
 175              		.loc 1 328 0
 176 0020 0D4B     		ldr	r3, .L37+4
 177              	.LBB101:
 178              	.LBB102:
 179              		.file 4 "../../lib/e-puck2_main-processor/ChibiOS//os/hal/osal/rt/osal.h"
 180              		.loc 4 682 0
 181 0022 0E48     		ldr	r0, .L37+8
 182              	.LBE102:
 183              	.LBE101:
 184              		.loc 1 328 0
 185 0024 0024     		movs	r4, #0
 186 0026 DC63     		str	r4, [r3, #60]
 187              	.LVL18:
 188              	.LBB104:
 189              	.LBB103:
 190              		.loc 4 682 0
 191 0028 2146     		mov	r1, r4
 192 002a FFF7FEFF 		bl	chThdResumeI
 193              	.LVL19:
 194              	.LBE103:
 195              	.LBE104:
 196              	.LBB105:
 197              	.LBB106:
 198              	.LBB107:
 199              		.loc 3 408 0
 200 002e FFF7FEFF 		bl	_dbg_check_unlock_from_isr
 201              	.LVL20:
 202              		.loc 3 409 0
 203 0032 FFF7FEFF 		bl	_stats_stop_measure_crit_isr
 204              	.LVL21:
 205              	.LBB108:
 206              	.LBB109:
 207              	.LBB110:
 208              	.LBB111:
 209              		.loc 2 546 0
 210              		.syntax unified
 211              	@ 546 "../../lib/e-puck2_main-processor/ChibiOS//os/ext/CMSIS/include/core_cmFunc.h" 1
 212 0036 84F31188 		MSR basepri, r4
 213              	@ 0 "" 2
 214              	.LVL22:
 215              		.thumb
 216              		.syntax unified
 217              	.LBE111:
 218              	.LBE110:
 219              	.LBE109:
 220              	.LBE108:
 221              	.LBE107:
 222              	.LBE106:
 223              	.LBE105:
 224              		.loc 1 334 0
 225 003a FFF7FEFF 		bl	_dbg_check_leave_isr
 226              	.LVL23:
 227 003e 019A     		ldr	r2, [sp, #4]
 228 0040 2B68     		ldr	r3, [r5]
ARM GAS  C:\Users\osour\AppData\Local\Temp\ccoG6iAC.s 			page 5


 229 0042 9A42     		cmp	r2, r3
 230 0044 04D1     		bne	.L36
 231              		.loc 1 335 0
 232 0046 03B0     		add	sp, sp, #12
 233              		.cfi_remember_state
 234              		.cfi_def_cfa_offset 12
 235              		@ sp needed
 236 0048 BDE83040 		pop	{r4, r5, lr}
 237              		.cfi_restore 14
 238              		.cfi_restore 5
 239              		.cfi_restore 4
 240              		.cfi_def_cfa_offset 0
 241              		.loc 1 334 0
 242 004c FFF7FEBF 		b	_port_irq_epilogue
 243              	.LVL24:
 244              	.L36:
 245              		.cfi_restore_state
 246 0050 FFF7FEFF 		bl	__stack_chk_fail
 247              	.LVL25:
 248              	.L38:
 249              		.align	2
 250              	.L37:
 251 0054 00000000 		.word	__stack_chk_guard
 252 0058 002C0140 		.word	1073818624
 253 005c 3C000000 		.word	.LANCHOR0+60
 254              		.cfi_endproc
 255              	.LFE262:
 256              		.size	Vector104, .-Vector104
 257              		.section	.text.sdc_lld_init,"ax",%progbits
 258              		.align	1
 259              		.p2align 4,,15
 260              		.global	sdc_lld_init
 261              		.syntax unified
 262              		.thumb
 263              		.thumb_func
 264              		.fpu fpv4-sp-d16
 265              		.type	sdc_lld_init, %function
 266              	sdc_lld_init:
 267              	.LFB263:
 268              		.loc 1 346 0
 269              		.cfi_startproc
 270              		@ args = 0, pretend = 0, frame = 8
 271              		@ frame_needed = 0, uses_anonymous_args = 0
 272 0000 30B5     		push	{r4, r5, lr}
 273              		.cfi_def_cfa_offset 12
 274              		.cfi_offset 4, -12
 275              		.cfi_offset 5, -8
 276              		.cfi_offset 14, -4
 277              		.loc 1 348 0
 278 0002 0B4C     		ldr	r4, .L43
 279              		.loc 1 346 0
 280 0004 0B4D     		ldr	r5, .L43+4
 281 0006 83B0     		sub	sp, sp, #12
 282              		.cfi_def_cfa_offset 24
 283              		.loc 1 346 0
 284 0008 2B68     		ldr	r3, [r5]
 285 000a 0193     		str	r3, [sp, #4]
ARM GAS  C:\Users\osour\AppData\Local\Temp\ccoG6iAC.s 			page 6


 286              		.loc 1 348 0
 287 000c 2046     		mov	r0, r4
 288 000e FFF7FEFF 		bl	sdcObjectInit
 289              	.LVL26:
 290              		.loc 1 352 0
 291 0012 019A     		ldr	r2, [sp, #4]
 292 0014 2B68     		ldr	r3, [r5]
 293              		.loc 1 350 0
 294 0016 0848     		ldr	r0, .L43+8
 295              		.loc 1 351 0
 296 0018 0849     		ldr	r1, .L43+12
 297              		.loc 1 350 0
 298 001a 6064     		str	r0, [r4, #68]
 299              		.loc 1 352 0
 300 001c 9A42     		cmp	r2, r3
 301              		.loc 1 349 0
 302 001e 4FF00000 		mov	r0, #0
 303 0022 E063     		str	r0, [r4, #60]
 304              		.loc 1 351 0
 305 0024 A164     		str	r1, [r4, #72]
 306              		.loc 1 352 0
 307 0026 01D1     		bne	.L42
 308 0028 03B0     		add	sp, sp, #12
 309              		.cfi_remember_state
 310              		.cfi_def_cfa_offset 12
 311              		@ sp needed
 312 002a 30BD     		pop	{r4, r5, pc}
 313              	.L42:
 314              		.cfi_restore_state
 315 002c FFF7FEFF 		bl	__stack_chk_fail
 316              	.LVL27:
 317              	.L44:
 318              		.align	2
 319              	.L43:
 320 0030 00000000 		.word	.LANCHOR0
 321 0034 00000000 		.word	__stack_chk_guard
 322 0038 84000000 		.word	_stm32_dma_streams+132
 323 003c 002C0140 		.word	1073818624
 324              		.cfi_endproc
 325              	.LFE263:
 326              		.size	sdc_lld_init, .-sdc_lld_init
 327              		.section	.text.sdc_lld_start,"ax",%progbits
 328              		.align	1
 329              		.p2align 4,,15
 330              		.global	sdc_lld_start
 331              		.syntax unified
 332              		.thumb
 333              		.thumb_func
 334              		.fpu fpv4-sp-d16
 335              		.type	sdc_lld_start, %function
 336              	sdc_lld_start:
 337              	.LFB264:
 338              		.loc 1 361 0
 339              		.cfi_startproc
 340              		@ args = 0, pretend = 0, frame = 8
 341              		@ frame_needed = 0, uses_anonymous_args = 0
 342              	.LVL28:
ARM GAS  C:\Users\osour\AppData\Local\Temp\ccoG6iAC.s 			page 7


 343 0000 30B5     		push	{r4, r5, lr}
 344              		.cfi_def_cfa_offset 12
 345              		.cfi_offset 4, -12
 346              		.cfi_offset 5, -8
 347              		.cfi_offset 14, -4
 348 0002 214D     		ldr	r5, .L58
 349              		.loc 1 364 0
 350 0004 C36A     		ldr	r3, [r0, #44]
 351              		.loc 1 361 0
 352 0006 2A68     		ldr	r2, [r5]
 353 0008 83B0     		sub	sp, sp, #12
 354              		.cfi_def_cfa_offset 24
 355              		.loc 1 361 0
 356 000a 0446     		mov	r4, r0
 357 000c 0192     		str	r2, [sp, #4]
 358              		.loc 1 364 0
 359 000e 9BB1     		cbz	r3, .L54
 360              		.loc 1 380 0
 361 0010 2379     		ldrb	r3, [r4, #4]	@ zero_extendqisi2
 362              		.loc 1 375 0
 363 0012 1E4A     		ldr	r2, .L58+4
 364 0014 2264     		str	r2, [r4, #64]
 365              		.loc 1 380 0
 366 0016 012B     		cmp	r3, #1
 367 0018 15D0     		beq	.L55
 368              	.LVL29:
 369              	.L47:
 370              		.loc 1 394 0
 371 001a A26C     		ldr	r2, [r4, #72]
 372 001c 0023     		movs	r3, #0
 373 001e 1360     		str	r3, [r2]
 374              		.loc 1 395 0
 375 0020 A26C     		ldr	r2, [r4, #72]
 376 0022 5360     		str	r3, [r2, #4]
 377              		.loc 1 396 0
 378 0024 A26C     		ldr	r2, [r4, #72]
 379 0026 D362     		str	r3, [r2, #44]
 380              		.loc 1 397 0
 381 0028 A26C     		ldr	r2, [r4, #72]
 382 002a 5362     		str	r3, [r2, #36]
 383              		.loc 1 398 0
 384 002c 019A     		ldr	r2, [sp, #4]
 385 002e 2B68     		ldr	r3, [r5]
 386 0030 9A42     		cmp	r2, r3
 387 0032 26D1     		bne	.L56
 388 0034 03B0     		add	sp, sp, #12
 389              		.cfi_remember_state
 390              		.cfi_def_cfa_offset 12
 391              		@ sp needed
 392 0036 30BD     		pop	{r4, r5, pc}
 393              	.LVL30:
 394              	.L54:
 395              		.cfi_restore_state
 396              		.loc 1 365 0
 397 0038 154B     		ldr	r3, .L58+8
 398 003a C362     		str	r3, [r0, #44]
 399              		.loc 1 380 0
ARM GAS  C:\Users\osour\AppData\Local\Temp\ccoG6iAC.s 			page 8


 400 003c 2379     		ldrb	r3, [r4, #4]	@ zero_extendqisi2
 401              		.loc 1 375 0
 402 003e 134A     		ldr	r2, .L58+4
 403 0040 2264     		str	r2, [r4, #64]
 404              		.loc 1 380 0
 405 0042 012B     		cmp	r3, #1
 406 0044 E9D1     		bne	.L47
 407              	.L55:
 408              	.LBB112:
 409              		.loc 1 383 0
 410 0046 0023     		movs	r3, #0
 411 0048 1A46     		mov	r2, r3
 412 004a 0921     		movs	r1, #9
 413 004c 606C     		ldr	r0, [r4, #68]
 414              	.LVL31:
 415 004e FFF7FEFF 		bl	dmaStreamAllocate
 416              	.LVL32:
 417              		.loc 1 384 0
 418 0052 90B9     		cbnz	r0, .L57
 419              	.LVL33:
 420              	.L48:
 421              		.loc 1 385 0
 422 0054 D4E91123 		ldrd	r2, r3, [r4, #68]
 423 0058 1268     		ldr	r2, [r2]
 424 005a 8033     		adds	r3, r3, #128
 425 005c 9360     		str	r3, [r2, #8]
 426              		.loc 1 387 0
 427 005e 636C     		ldr	r3, [r4, #68]
 428 0060 1B68     		ldr	r3, [r3]
 429 0062 0722     		movs	r2, #7
 430 0064 5A61     		str	r2, [r3, #20]
 431              		.loc 1 389 0
 432 0066 0921     		movs	r1, #9
 433 0068 3120     		movs	r0, #49
 434 006a FFF7FEFF 		bl	nvicEnableVector
 435              	.LVL34:
 436              		.loc 1 390 0
 437 006e 094A     		ldr	r2, .L58+12
 438 0070 536C     		ldr	r3, [r2, #68]
 439 0072 43F40063 		orr	r3, r3, #2048
 440 0076 5364     		str	r3, [r2, #68]
 441 0078 CFE7     		b	.L47
 442              	.LVL35:
 443              	.L57:
 444              		.loc 1 384 0 discriminator 2
 445 007a 0748     		ldr	r0, .L58+16
 446              	.LVL36:
 447 007c FFF7FEFF 		bl	chSysHalt
 448              	.LVL37:
 449 0080 E8E7     		b	.L48
 450              	.L56:
 451              	.LBE112:
 452              		.loc 1 398 0
 453 0082 FFF7FEFF 		bl	__stack_chk_fail
 454              	.LVL38:
 455              	.L59:
 456 0086 00BF     		.align	2
ARM GAS  C:\Users\osour\AppData\Local\Temp\ccoG6iAC.s 			page 9


 457              	.L58:
 458 0088 00000000 		.word	__stack_chk_guard
 459 008c 2054A308 		.word	144921632
 460 0090 00000000 		.word	.LANCHOR1
 461 0094 00380240 		.word	1073887232
 462 0098 00000000 		.word	.LANCHOR2
 463              		.cfi_endproc
 464              	.LFE264:
 465              		.size	sdc_lld_start, .-sdc_lld_start
 466              		.section	.text.sdc_lld_stop,"ax",%progbits
 467              		.align	1
 468              		.p2align 4,,15
 469              		.global	sdc_lld_stop
 470              		.syntax unified
 471              		.thumb
 472              		.thumb_func
 473              		.fpu fpv4-sp-d16
 474              		.type	sdc_lld_stop, %function
 475              	sdc_lld_stop:
 476              	.LFB265:
 477              		.loc 1 407 0
 478              		.cfi_startproc
 479              		@ args = 0, pretend = 0, frame = 8
 480              		@ frame_needed = 0, uses_anonymous_args = 0
 481              	.LVL39:
 482 0000 30B5     		push	{r4, r5, lr}
 483              		.cfi_def_cfa_offset 12
 484              		.cfi_offset 4, -12
 485              		.cfi_offset 5, -8
 486              		.cfi_offset 14, -4
 487 0002 124D     		ldr	r5, .L68
 488              		.loc 1 409 0
 489 0004 0379     		ldrb	r3, [r0, #4]	@ zero_extendqisi2
 490              		.loc 1 407 0
 491 0006 2A68     		ldr	r2, [r5]
 492 0008 83B0     		sub	sp, sp, #12
 493              		.cfi_def_cfa_offset 24
 494              		.loc 1 409 0
 495 000a 012B     		cmp	r3, #1
 496              		.loc 1 407 0
 497 000c 0192     		str	r2, [sp, #4]
 498              		.loc 1 409 0
 499 000e 14D0     		beq	.L60
 500              		.loc 1 412 0
 501 0010 826C     		ldr	r2, [r0, #72]
 502 0012 0023     		movs	r3, #0
 503 0014 1360     		str	r3, [r2]
 504              		.loc 1 413 0
 505 0016 826C     		ldr	r2, [r0, #72]
 506 0018 5360     		str	r3, [r2, #4]
 507              		.loc 1 414 0
 508 001a 826C     		ldr	r2, [r0, #72]
 509 001c D362     		str	r3, [r2, #44]
 510              		.loc 1 415 0
 511 001e 826C     		ldr	r2, [r0, #72]
 512 0020 0446     		mov	r4, r0
 513 0022 5362     		str	r3, [r2, #36]
ARM GAS  C:\Users\osour\AppData\Local\Temp\ccoG6iAC.s 			page 10


 514              		.loc 1 418 0
 515 0024 3120     		movs	r0, #49
 516              	.LVL40:
 517 0026 FFF7FEFF 		bl	nvicDisableVector
 518              	.LVL41:
 519              		.loc 1 419 0
 520 002a 606C     		ldr	r0, [r4, #68]
 521 002c FFF7FEFF 		bl	dmaStreamRelease
 522              	.LVL42:
 523              		.loc 1 420 0
 524 0030 074A     		ldr	r2, .L68+4
 525 0032 536C     		ldr	r3, [r2, #68]
 526 0034 23F40063 		bic	r3, r3, #2048
 527 0038 5364     		str	r3, [r2, #68]
 528              	.LVL43:
 529              	.L60:
 530              		.loc 1 422 0
 531 003a 019A     		ldr	r2, [sp, #4]
 532 003c 2B68     		ldr	r3, [r5]
 533 003e 9A42     		cmp	r2, r3
 534 0040 01D1     		bne	.L67
 535 0042 03B0     		add	sp, sp, #12
 536              		.cfi_remember_state
 537              		.cfi_def_cfa_offset 12
 538              		@ sp needed
 539 0044 30BD     		pop	{r4, r5, pc}
 540              	.L67:
 541              		.cfi_restore_state
 542 0046 FFF7FEFF 		bl	__stack_chk_fail
 543              	.LVL44:
 544              	.L69:
 545 004a 00BF     		.align	2
 546              	.L68:
 547 004c 00000000 		.word	__stack_chk_guard
 548 0050 00380240 		.word	1073887232
 549              		.cfi_endproc
 550              	.LFE265:
 551              		.size	sdc_lld_stop, .-sdc_lld_stop
 552              		.section	.text.sdc_lld_start_clk,"ax",%progbits
 553              		.align	1
 554              		.p2align 4,,15
 555              		.global	sdc_lld_start_clk
 556              		.syntax unified
 557              		.thumb
 558              		.thumb_func
 559              		.fpu fpv4-sp-d16
 560              		.type	sdc_lld_start_clk, %function
 561              	sdc_lld_start_clk:
 562              	.LFB266:
 563              		.loc 1 431 0
 564              		.cfi_startproc
 565              		@ args = 0, pretend = 0, frame = 8
 566              		@ frame_needed = 0, uses_anonymous_args = 0
 567              	.LVL45:
 568 0000 00B5     		push	{lr}
 569              		.cfi_def_cfa_offset 4
 570              		.cfi_offset 14, -4
ARM GAS  C:\Users\osour\AppData\Local\Temp\ccoG6iAC.s 			page 11


 571 0002 0E4A     		ldr	r2, .L75
 572              		.loc 1 434 0
 573 0004 836C     		ldr	r3, [r0, #72]
 574              		.loc 1 431 0
 575 0006 1168     		ldr	r1, [r2]
 576 0008 83B0     		sub	sp, sp, #12
 577              		.cfi_def_cfa_offset 16
 578              		.loc 1 431 0
 579 000a 0191     		str	r1, [sp, #4]
 580              		.loc 1 434 0
 581 000c 7821     		movs	r1, #120
 582 000e 5960     		str	r1, [r3, #4]
 583              		.loc 1 435 0
 584 0010 816C     		ldr	r1, [r0, #72]
 585 0012 0B68     		ldr	r3, [r1]
 586 0014 43F00303 		orr	r3, r3, #3
 587 0018 0B60     		str	r3, [r1]
 588              		.loc 1 436 0
 589 001a 816C     		ldr	r1, [r0, #72]
 590 001c 4B68     		ldr	r3, [r1, #4]
 591 001e 43F48073 		orr	r3, r3, #256
 592 0022 4B60     		str	r3, [r1, #4]
 593              	.LVL46:
 594              	.LBB113:
 595              	.LBB114:
 596              		.loc 4 627 0
 597 0024 0199     		ldr	r1, [sp, #4]
 598 0026 1368     		ldr	r3, [r2]
 599 0028 9942     		cmp	r1, r3
 600 002a 05D1     		bne	.L74
 601 002c 0A20     		movs	r0, #10
 602              	.LVL47:
 603              	.LBE114:
 604              	.LBE113:
 605              		.loc 1 440 0
 606 002e 03B0     		add	sp, sp, #12
 607              		.cfi_remember_state
 608              		.cfi_def_cfa_offset 4
 609              		@ sp needed
 610 0030 5DF804EB 		ldr	lr, [sp], #4
 611              		.cfi_restore 14
 612              		.cfi_def_cfa_offset 0
 613              	.LBB116:
 614              	.LBB115:
 615              		.loc 4 627 0
 616 0034 FFF7FEBF 		b	chThdSleep
 617              	.LVL48:
 618              	.L74:
 619              		.cfi_restore_state
 620 0038 FFF7FEFF 		bl	__stack_chk_fail
 621              	.LVL49:
 622              	.L76:
 623              		.align	2
 624              	.L75:
 625 003c 00000000 		.word	__stack_chk_guard
 626              	.LBE115:
 627              	.LBE116:
ARM GAS  C:\Users\osour\AppData\Local\Temp\ccoG6iAC.s 			page 12


 628              		.cfi_endproc
 629              	.LFE266:
 630              		.size	sdc_lld_start_clk, .-sdc_lld_start_clk
 631              		.section	.text.sdc_lld_set_data_clk,"ax",%progbits
 632              		.align	1
 633              		.p2align 4,,15
 634              		.global	sdc_lld_set_data_clk
 635              		.syntax unified
 636              		.thumb
 637              		.thumb_func
 638              		.fpu fpv4-sp-d16
 639              		.type	sdc_lld_set_data_clk, %function
 640              	sdc_lld_set_data_clk:
 641              	.LFB267:
 642              		.loc 1 450 0
 643              		.cfi_startproc
 644              		@ args = 0, pretend = 0, frame = 8
 645              		@ frame_needed = 0, uses_anonymous_args = 0
 646              	.LVL50:
 647 0000 00B5     		push	{lr}
 648              		.cfi_def_cfa_offset 4
 649              		.cfi_offset 14, -4
 650 0002 094A     		ldr	r2, .L81
 651              		.loc 1 461 0
 652 0004 816C     		ldr	r1, [r0, #72]
 653              	.LVL51:
 654              		.loc 1 450 0
 655 0006 1368     		ldr	r3, [r2]
 656 0008 83B0     		sub	sp, sp, #12
 657              		.cfi_def_cfa_offset 16
 658              		.loc 1 450 0
 659 000a 0193     		str	r3, [sp, #4]
 660              		.loc 1 461 0
 661 000c 4B68     		ldr	r3, [r1, #4]
 662 000e 23F0FF03 		bic	r3, r3, #255
 663 0012 4B60     		str	r3, [r1, #4]
 664              		.loc 1 463 0
 665 0014 0199     		ldr	r1, [sp, #4]
 666 0016 1368     		ldr	r3, [r2]
 667 0018 9942     		cmp	r1, r3
 668 001a 02D1     		bne	.L80
 669 001c 03B0     		add	sp, sp, #12
 670              		.cfi_remember_state
 671              		.cfi_def_cfa_offset 4
 672              		@ sp needed
 673 001e 5DF804FB 		ldr	pc, [sp], #4
 674              	.L80:
 675              		.cfi_restore_state
 676 0022 FFF7FEFF 		bl	__stack_chk_fail
 677              	.LVL52:
 678              	.L82:
 679 0026 00BF     		.align	2
 680              	.L81:
 681 0028 00000000 		.word	__stack_chk_guard
 682              		.cfi_endproc
 683              	.LFE267:
 684              		.size	sdc_lld_set_data_clk, .-sdc_lld_set_data_clk
ARM GAS  C:\Users\osour\AppData\Local\Temp\ccoG6iAC.s 			page 13


 685              		.section	.text.sdc_lld_stop_clk,"ax",%progbits
 686              		.align	1
 687              		.p2align 4,,15
 688              		.global	sdc_lld_stop_clk
 689              		.syntax unified
 690              		.thumb
 691              		.thumb_func
 692              		.fpu fpv4-sp-d16
 693              		.type	sdc_lld_stop_clk, %function
 694              	sdc_lld_stop_clk:
 695              	.LFB268:
 696              		.loc 1 472 0
 697              		.cfi_startproc
 698              		@ args = 0, pretend = 0, frame = 8
 699              		@ frame_needed = 0, uses_anonymous_args = 0
 700              	.LVL53:
 701 0000 00B5     		push	{lr}
 702              		.cfi_def_cfa_offset 4
 703              		.cfi_offset 14, -4
 704 0002 094B     		ldr	r3, .L87
 705              		.loc 1 474 0
 706 0004 816C     		ldr	r1, [r0, #72]
 707              		.loc 1 472 0
 708 0006 1A68     		ldr	r2, [r3]
 709 0008 83B0     		sub	sp, sp, #12
 710              		.cfi_def_cfa_offset 16
 711              		.loc 1 472 0
 712 000a 0192     		str	r2, [sp, #4]
 713              		.loc 1 474 0
 714 000c 0022     		movs	r2, #0
 715 000e 4A60     		str	r2, [r1, #4]
 716              		.loc 1 475 0
 717 0010 816C     		ldr	r1, [r0, #72]
 718 0012 0A60     		str	r2, [r1]
 719              		.loc 1 476 0
 720 0014 019A     		ldr	r2, [sp, #4]
 721 0016 1B68     		ldr	r3, [r3]
 722 0018 9A42     		cmp	r2, r3
 723 001a 02D1     		bne	.L86
 724 001c 03B0     		add	sp, sp, #12
 725              		.cfi_remember_state
 726              		.cfi_def_cfa_offset 4
 727              		@ sp needed
 728 001e 5DF804FB 		ldr	pc, [sp], #4
 729              	.L86:
 730              		.cfi_restore_state
 731 0022 FFF7FEFF 		bl	__stack_chk_fail
 732              	.LVL54:
 733              	.L88:
 734 0026 00BF     		.align	2
 735              	.L87:
 736 0028 00000000 		.word	__stack_chk_guard
 737              		.cfi_endproc
 738              	.LFE268:
 739              		.size	sdc_lld_stop_clk, .-sdc_lld_stop_clk
 740              		.section	.text.sdc_lld_set_bus_mode,"ax",%progbits
 741              		.align	1
ARM GAS  C:\Users\osour\AppData\Local\Temp\ccoG6iAC.s 			page 14


 742              		.p2align 4,,15
 743              		.global	sdc_lld_set_bus_mode
 744              		.syntax unified
 745              		.thumb
 746              		.thumb_func
 747              		.fpu fpv4-sp-d16
 748              		.type	sdc_lld_set_bus_mode, %function
 749              	sdc_lld_set_bus_mode:
 750              	.LFB269:
 751              		.loc 1 486 0
 752              		.cfi_startproc
 753              		@ args = 0, pretend = 0, frame = 8
 754              		@ frame_needed = 0, uses_anonymous_args = 0
 755              	.LVL55:
 756 0000 00B5     		push	{lr}
 757              		.cfi_def_cfa_offset 4
 758              		.cfi_offset 14, -4
 759 0002 0F4A     		ldr	r2, .L98
 760              		.loc 1 487 0
 761 0004 806C     		ldr	r0, [r0, #72]
 762              	.LVL56:
 763              		.loc 1 486 0
 764 0006 1368     		ldr	r3, [r2]
 765 0008 83B0     		sub	sp, sp, #12
 766              		.cfi_def_cfa_offset 16
 767              		.loc 1 489 0
 768 000a 0129     		cmp	r1, #1
 769              		.loc 1 486 0
 770 000c 0193     		str	r3, [sp, #4]
 771              		.loc 1 487 0
 772 000e 4368     		ldr	r3, [r0, #4]
 773 0010 23F4C053 		bic	r3, r3, #6144
 774              	.LVL57:
 775              		.loc 1 489 0
 776 0014 0DD0     		beq	.L91
 777 0016 0AD3     		bcc	.L96
 778 0018 0229     		cmp	r1, #2
 779 001a 06D0     		beq	.L93
 780              	.LVL58:
 781              	.L89:
 782              		.loc 1 500 0
 783 001c 0199     		ldr	r1, [sp, #4]
 784              	.LVL59:
 785 001e 1368     		ldr	r3, [r2]
 786 0020 9942     		cmp	r1, r3
 787 0022 0AD1     		bne	.L97
 788 0024 03B0     		add	sp, sp, #12
 789              		.cfi_remember_state
 790              		.cfi_def_cfa_offset 4
 791              		@ sp needed
 792 0026 5DF804FB 		ldr	pc, [sp], #4
 793              	.LVL60:
 794              	.L93:
 795              		.cfi_restore_state
 796              		.loc 1 497 0
 797 002a 43F48053 		orr	r3, r3, #4096
 798              	.LVL61:
ARM GAS  C:\Users\osour\AppData\Local\Temp\ccoG6iAC.s 			page 15


 799              	.L96:
 800 002e 4360     		str	r3, [r0, #4]
 801              		.loc 1 500 0
 802 0030 F4E7     		b	.L89
 803              	.LVL62:
 804              	.L91:
 805              		.loc 1 494 0
 806 0032 43F40063 		orr	r3, r3, #2048
 807              	.LVL63:
 808 0036 4360     		str	r3, [r0, #4]
 809              		.loc 1 495 0
 810 0038 F0E7     		b	.L89
 811              	.LVL64:
 812              	.L97:
 813              		.loc 1 500 0
 814 003a FFF7FEFF 		bl	__stack_chk_fail
 815              	.LVL65:
 816              	.L99:
 817 003e 00BF     		.align	2
 818              	.L98:
 819 0040 00000000 		.word	__stack_chk_guard
 820              		.cfi_endproc
 821              	.LFE269:
 822              		.size	sdc_lld_set_bus_mode, .-sdc_lld_set_bus_mode
 823              		.section	.text.sdc_lld_send_cmd_none,"ax",%progbits
 824              		.align	1
 825              		.p2align 4,,15
 826              		.global	sdc_lld_send_cmd_none
 827              		.syntax unified
 828              		.thumb
 829              		.thumb_func
 830              		.fpu fpv4-sp-d16
 831              		.type	sdc_lld_send_cmd_none, %function
 832              	sdc_lld_send_cmd_none:
 833              	.LFB270:
 834              		.loc 1 511 0
 835              		.cfi_startproc
 836              		@ args = 0, pretend = 0, frame = 8
 837              		@ frame_needed = 0, uses_anonymous_args = 0
 838              	.LVL66:
 839 0000 30B5     		push	{r4, r5, lr}
 840              		.cfi_def_cfa_offset 12
 841              		.cfi_offset 4, -12
 842              		.cfi_offset 5, -8
 843              		.cfi_offset 14, -4
 844 0002 0C4C     		ldr	r4, .L107
 845              		.loc 1 513 0
 846 0004 836C     		ldr	r3, [r0, #72]
 847              		.loc 1 511 0
 848 0006 2568     		ldr	r5, [r4]
 849 0008 83B0     		sub	sp, sp, #12
 850              		.cfi_def_cfa_offset 24
 851              		.loc 1 514 0
 852 000a 41F48061 		orr	r1, r1, #1024
 853              	.LVL67:
 854              		.loc 1 511 0
 855 000e 0195     		str	r5, [sp, #4]
ARM GAS  C:\Users\osour\AppData\Local\Temp\ccoG6iAC.s 			page 16


 856              		.loc 1 513 0
 857 0010 9A60     		str	r2, [r3, #8]
 858              		.loc 1 514 0
 859 0012 836C     		ldr	r3, [r0, #72]
 860 0014 D960     		str	r1, [r3, #12]
 861              		.loc 1 515 0
 862 0016 826C     		ldr	r2, [r0, #72]
 863              	.LVL68:
 864              	.L101:
 865              		.loc 1 515 0 is_stmt 0 discriminator 1
 866 0018 536B     		ldr	r3, [r2, #52]
 867 001a 1B06     		lsls	r3, r3, #24
 868 001c FCD5     		bpl	.L101
 869              		.loc 1 517 0 is_stmt 1
 870 001e 8023     		movs	r3, #128
 871 0020 9363     		str	r3, [r2, #56]
 872              		.loc 1 518 0
 873 0022 019A     		ldr	r2, [sp, #4]
 874 0024 2368     		ldr	r3, [r4]
 875 0026 9A42     		cmp	r2, r3
 876 0028 01D1     		bne	.L106
 877 002a 03B0     		add	sp, sp, #12
 878              		.cfi_remember_state
 879              		.cfi_def_cfa_offset 12
 880              		@ sp needed
 881 002c 30BD     		pop	{r4, r5, pc}
 882              	.L106:
 883              		.cfi_restore_state
 884 002e FFF7FEFF 		bl	__stack_chk_fail
 885              	.LVL69:
 886              	.L108:
 887 0032 00BF     		.align	2
 888              	.L107:
 889 0034 00000000 		.word	__stack_chk_guard
 890              		.cfi_endproc
 891              	.LFE270:
 892              		.size	sdc_lld_send_cmd_none, .-sdc_lld_send_cmd_none
 893              		.section	.text.sdc_lld_send_cmd_short,"ax",%progbits
 894              		.align	1
 895              		.p2align 4,,15
 896              		.global	sdc_lld_send_cmd_short
 897              		.syntax unified
 898              		.thumb
 899              		.thumb_func
 900              		.fpu fpv4-sp-d16
 901              		.type	sdc_lld_send_cmd_short, %function
 902              	sdc_lld_send_cmd_short:
 903              	.LFB271:
 904              		.loc 1 536 0
 905              		.cfi_startproc
 906              		@ args = 0, pretend = 0, frame = 8
 907              		@ frame_needed = 0, uses_anonymous_args = 0
 908              	.LVL70:
 909 0000 70B5     		push	{r4, r5, r6, lr}
 910              		.cfi_def_cfa_offset 16
 911              		.cfi_offset 4, -16
 912              		.cfi_offset 5, -12
ARM GAS  C:\Users\osour\AppData\Local\Temp\ccoG6iAC.s 			page 17


 913              		.cfi_offset 6, -8
 914              		.cfi_offset 14, -4
 915 0002 124D     		ldr	r5, .L119
 916              		.loc 1 539 0
 917 0004 846C     		ldr	r4, [r0, #72]
 918              		.loc 1 536 0
 919 0006 2E68     		ldr	r6, [r5]
 920 0008 82B0     		sub	sp, sp, #8
 921              		.cfi_def_cfa_offset 24
 922              		.loc 1 540 0
 923 000a 41F48861 		orr	r1, r1, #1088
 924              	.LVL71:
 925              		.loc 1 536 0
 926 000e 0196     		str	r6, [sp, #4]
 927              		.loc 1 539 0
 928 0010 A260     		str	r2, [r4, #8]
 929              		.loc 1 540 0
 930 0012 826C     		ldr	r2, [r0, #72]
 931              	.LVL72:
 932 0014 D160     		str	r1, [r2, #12]
 933              	.LVL73:
 934              		.loc 1 541 0
 935 0016 826C     		ldr	r2, [r0, #72]
 936              	.L110:
 937              		.loc 1 541 0 is_stmt 0 discriminator 1
 938 0018 516B     		ldr	r1, [r2, #52]
 939              	.LVL74:
 940 001a 11F04504 		ands	r4, r1, #69
 941 001e FBD0     		beq	.L110
 942              		.loc 1 544 0 is_stmt 1
 943 0020 9463     		str	r4, [r2, #56]
 944              		.loc 1 546 0
 945 0022 11F00402 		ands	r2, r1, #4
 946 0026 09D1     		bne	.L117
 947              		.loc 1 550 0
 948 0028 816C     		ldr	r1, [r0, #72]
 949              	.LVL75:
 950 002a 4969     		ldr	r1, [r1, #20]
 951 002c 1960     		str	r1, [r3]
 952              		.loc 1 551 0
 953 002e 1046     		mov	r0, r2
 954              	.LVL76:
 955              	.L112:
 956              		.loc 1 552 0
 957 0030 019A     		ldr	r2, [sp, #4]
 958 0032 2B68     		ldr	r3, [r5]
 959 0034 9A42     		cmp	r2, r3
 960 0036 06D1     		bne	.L118
 961 0038 02B0     		add	sp, sp, #8
 962              		.cfi_remember_state
 963              		.cfi_def_cfa_offset 16
 964              		@ sp needed
 965 003a 70BD     		pop	{r4, r5, r6, pc}
 966              	.LVL77:
 967              	.L117:
 968              		.cfi_restore_state
 969              		.loc 1 547 0
ARM GAS  C:\Users\osour\AppData\Local\Temp\ccoG6iAC.s 			page 18


 970 003c 3430     		adds	r0, r0, #52
 971              	.LVL78:
 972 003e FFF7FEFF 		bl	sdc_lld_collect_errors.isra.0
 973              	.LVL79:
 974              		.loc 1 548 0
 975 0042 0120     		movs	r0, #1
 976 0044 F4E7     		b	.L112
 977              	.L118:
 978              		.loc 1 552 0
 979 0046 FFF7FEFF 		bl	__stack_chk_fail
 980              	.LVL80:
 981              	.L120:
 982 004a 00BF     		.align	2
 983              	.L119:
 984 004c 00000000 		.word	__stack_chk_guard
 985              		.cfi_endproc
 986              	.LFE271:
 987              		.size	sdc_lld_send_cmd_short, .-sdc_lld_send_cmd_short
 988              		.section	.text.sdc_lld_send_cmd_short_crc,"ax",%progbits
 989              		.align	1
 990              		.p2align 4,,15
 991              		.global	sdc_lld_send_cmd_short_crc
 992              		.syntax unified
 993              		.thumb
 994              		.thumb_func
 995              		.fpu fpv4-sp-d16
 996              		.type	sdc_lld_send_cmd_short_crc, %function
 997              	sdc_lld_send_cmd_short_crc:
 998              	.LFB272:
 999              		.loc 1 569 0
 1000              		.cfi_startproc
 1001              		@ args = 0, pretend = 0, frame = 8
 1002              		@ frame_needed = 0, uses_anonymous_args = 0
 1003              	.LVL81:
 1004 0000 70B5     		push	{r4, r5, r6, lr}
 1005              		.cfi_def_cfa_offset 16
 1006              		.cfi_offset 4, -16
 1007              		.cfi_offset 5, -12
 1008              		.cfi_offset 6, -8
 1009              		.cfi_offset 14, -4
 1010 0002 124D     		ldr	r5, .L131
 1011              		.loc 1 572 0
 1012 0004 846C     		ldr	r4, [r0, #72]
 1013              		.loc 1 569 0
 1014 0006 2E68     		ldr	r6, [r5]
 1015 0008 82B0     		sub	sp, sp, #8
 1016              		.cfi_def_cfa_offset 24
 1017              		.loc 1 573 0
 1018 000a 41F48861 		orr	r1, r1, #1088
 1019              	.LVL82:
 1020              		.loc 1 569 0
 1021 000e 0196     		str	r6, [sp, #4]
 1022              		.loc 1 572 0
 1023 0010 A260     		str	r2, [r4, #8]
 1024              		.loc 1 573 0
 1025 0012 826C     		ldr	r2, [r0, #72]
 1026              	.LVL83:
ARM GAS  C:\Users\osour\AppData\Local\Temp\ccoG6iAC.s 			page 19


 1027 0014 D160     		str	r1, [r2, #12]
 1028              	.LVL84:
 1029              		.loc 1 574 0
 1030 0016 826C     		ldr	r2, [r0, #72]
 1031              	.L122:
 1032              		.loc 1 574 0 is_stmt 0 discriminator 1
 1033 0018 516B     		ldr	r1, [r2, #52]
 1034              	.LVL85:
 1035 001a 11F04504 		ands	r4, r1, #69
 1036 001e FBD0     		beq	.L122
 1037              		.loc 1 577 0 is_stmt 1
 1038 0020 9463     		str	r4, [r2, #56]
 1039              		.loc 1 578 0
 1040 0022 11F00502 		ands	r2, r1, #5
 1041 0026 09D1     		bne	.L129
 1042              		.loc 1 582 0
 1043 0028 816C     		ldr	r1, [r0, #72]
 1044              	.LVL86:
 1045 002a 4969     		ldr	r1, [r1, #20]
 1046 002c 1960     		str	r1, [r3]
 1047              		.loc 1 583 0
 1048 002e 1046     		mov	r0, r2
 1049              	.LVL87:
 1050              	.L124:
 1051              		.loc 1 584 0
 1052 0030 019A     		ldr	r2, [sp, #4]
 1053 0032 2B68     		ldr	r3, [r5]
 1054 0034 9A42     		cmp	r2, r3
 1055 0036 06D1     		bne	.L130
 1056 0038 02B0     		add	sp, sp, #8
 1057              		.cfi_remember_state
 1058              		.cfi_def_cfa_offset 16
 1059              		@ sp needed
 1060 003a 70BD     		pop	{r4, r5, r6, pc}
 1061              	.LVL88:
 1062              	.L129:
 1063              		.cfi_restore_state
 1064              		.loc 1 579 0
 1065 003c 3430     		adds	r0, r0, #52
 1066              	.LVL89:
 1067 003e FFF7FEFF 		bl	sdc_lld_collect_errors.isra.0
 1068              	.LVL90:
 1069              		.loc 1 580 0
 1070 0042 0120     		movs	r0, #1
 1071 0044 F4E7     		b	.L124
 1072              	.L130:
 1073              		.loc 1 584 0
 1074 0046 FFF7FEFF 		bl	__stack_chk_fail
 1075              	.LVL91:
 1076              	.L132:
 1077 004a 00BF     		.align	2
 1078              	.L131:
 1079 004c 00000000 		.word	__stack_chk_guard
 1080              		.cfi_endproc
 1081              	.LFE272:
 1082              		.size	sdc_lld_send_cmd_short_crc, .-sdc_lld_send_cmd_short_crc
 1083              		.section	.text.sdc_lld_wait_transaction_end,"ax",%progbits
ARM GAS  C:\Users\osour\AppData\Local\Temp\ccoG6iAC.s 			page 20


 1084              		.align	1
 1085              		.p2align 4,,15
 1086              		.syntax unified
 1087              		.thumb
 1088              		.thumb_func
 1089              		.fpu fpv4-sp-d16
 1090              		.type	sdc_lld_wait_transaction_end, %function
 1091              	sdc_lld_wait_transaction_end:
 1092              	.LFB259:
 1093              		.loc 1 209 0
 1094              		.cfi_startproc
 1095              		@ args = 0, pretend = 0, frame = 8
 1096              		@ frame_needed = 0, uses_anonymous_args = 0
 1097              	.LVL92:
 1098 0000 F0B5     		push	{r4, r5, r6, r7, lr}
 1099              		.cfi_def_cfa_offset 20
 1100              		.cfi_offset 4, -20
 1101              		.cfi_offset 5, -16
 1102              		.cfi_offset 6, -12
 1103              		.cfi_offset 7, -8
 1104              		.cfi_offset 14, -4
 1105 0002 3A4D     		ldr	r5, .L154
 1106 0004 83B0     		sub	sp, sp, #12
 1107              		.cfi_def_cfa_offset 32
 1108              		.loc 1 209 0
 1109 0006 2B68     		ldr	r3, [r5]
 1110 0008 0193     		str	r3, [sp, #4]
 1111 000a 0446     		mov	r4, r0
 1112              	.LVL93:
 1113 000c 0E46     		mov	r6, r1
 1114 000e 1746     		mov	r7, r2
 1115              	.LBB153:
 1116              	.LBB154:
 1117              	.LBB155:
 1118              	.LBB156:
 1119              	.LBB157:
 1120              	.LBB158:
 1121              		.loc 2 546 0
 1122 0010 2023     		movs	r3, #32
 1123              		.syntax unified
 1124              	@ 546 "../../lib/e-puck2_main-processor/ChibiOS//os/ext/CMSIS/include/core_cmFunc.h" 1
 1125 0012 83F31188 		MSR basepri, r3
 1126              	@ 0 "" 2
 1127              	.LVL94:
 1128              		.thumb
 1129              		.syntax unified
 1130              	.LBE158:
 1131              	.LBE157:
 1132              	.LBE156:
 1133              		.loc 3 349 0
 1134 0016 FFF7FEFF 		bl	_stats_start_measure_crit_thd
 1135              	.LVL95:
 1136              		.loc 3 350 0
 1137 001a FFF7FEFF 		bl	_dbg_check_lock
 1138              	.LVL96:
 1139              	.LBE155:
 1140              	.LBE154:
ARM GAS  C:\Users\osour\AppData\Local\Temp\ccoG6iAC.s 			page 21


 1141              	.LBE153:
 1142              		.loc 1 214 0
 1143 001e A36C     		ldr	r3, [r4, #72]
 1144 0020 DA6B     		ldr	r2, [r3, #60]
 1145 0022 002A     		cmp	r2, #0
 1146 0024 39D1     		bne	.L149
 1147              		.loc 1 216 0
 1148 0026 5B6B     		ldr	r3, [r3, #52]
 1149 0028 DB05     		lsls	r3, r3, #23
 1150 002a 3ED5     		bpl	.L150
 1151              	.L135:
 1152              		.loc 1 223 0
 1153 002c 616C     		ldr	r1, [r4, #68]
 1154 002e 0A68     		ldr	r2, [r1]
 1155              	.L138:
 1156              		.loc 1 223 0 is_stmt 0 discriminator 1
 1157 0030 1368     		ldr	r3, [r2]
 1158 0032 13F00103 		ands	r3, r3, #1
 1159 0036 FBD1     		bne	.L138
 1160              		.loc 1 227 0 is_stmt 1
 1161 0038 91F808C0 		ldrb	ip, [r1, #8]	@ zero_extendqisi2
 1162 003c 4868     		ldr	r0, [r1, #4]
 1163              		.loc 1 229 0
 1164 003e 2C49     		ldr	r1, .L154+4
 1165              		.loc 1 227 0
 1166 0040 3D22     		movs	r2, #61
 1167 0042 02FA0CF2 		lsl	r2, r2, ip
 1168 0046 0260     		str	r2, [r0]
 1169              		.loc 1 229 0
 1170 0048 A26C     		ldr	r2, [r4, #72]
 1171 004a 9163     		str	r1, [r2, #56]
 1172              		.loc 1 230 0
 1173 004c A26C     		ldr	r2, [r4, #72]
 1174 004e D362     		str	r3, [r2, #44]
 1175              	.LBB159:
 1176              	.LBB160:
 1177              	.LBB161:
 1178              		.loc 3 360 0
 1179 0050 FFF7FEFF 		bl	_dbg_check_unlock
 1180              	.LVL97:
 1181              		.loc 3 361 0
 1182 0054 FFF7FEFF 		bl	_stats_stop_measure_crit_thd
 1183              	.LVL98:
 1184              		.loc 3 367 0
 1185 0058 264B     		ldr	r3, .L154+8
 1186 005a 1A68     		ldr	r2, [r3]
 1187 005c 9A42     		cmp	r2, r3
 1188 005e 04D0     		beq	.L139
 1189 0060 9969     		ldr	r1, [r3, #24]
 1190 0062 9368     		ldr	r3, [r2, #8]
 1191 0064 8A68     		ldr	r2, [r1, #8]
 1192 0066 9A42     		cmp	r2, r3
 1193 0068 31D3     		bcc	.L151
 1194              	.L139:
 1195              	.LVL99:
 1196              	.LBB162:
 1197              	.LBB163:
ARM GAS  C:\Users\osour\AppData\Local\Temp\ccoG6iAC.s 			page 22


 1198              	.LBB164:
 1199              		.loc 2 546 0
 1200 006a 0022     		movs	r2, #0
 1201              		.syntax unified
 1202              	@ 546 "../../lib/e-puck2_main-processor/ChibiOS//os/ext/CMSIS/include/core_cmFunc.h" 1
 1203 006c 82F31188 		MSR basepri, r2
 1204              	@ 0 "" 2
 1205              	.LVL100:
 1206              		.thumb
 1207              		.syntax unified
 1208              	.LBE164:
 1209              	.LBE163:
 1210              	.LBE162:
 1211              	.LBE161:
 1212              	.LBE160:
 1213              	.LBE159:
 1214              		.loc 1 247 0
 1215 0070 012E     		cmp	r6, #1
 1216 0072 0BD9     		bls	.L142
 1217              	.L153:
 1218              	.LVL101:
 1219              	.LBB170:
 1220              	.LBB171:
 1221              		.loc 1 248 0
 1222 0074 0199     		ldr	r1, [sp, #4]
 1223 0076 2B68     		ldr	r3, [r5]
 1224 0078 9942     		cmp	r1, r3
 1225 007a 35D1     		bne	.L148
 1226 007c 3B46     		mov	r3, r7
 1227 007e 2046     		mov	r0, r4
 1228 0080 0C21     		movs	r1, #12
 1229              	.LBE171:
 1230              	.LBE170:
 1231              		.loc 1 251 0
 1232 0082 03B0     		add	sp, sp, #12
 1233              		.cfi_remember_state
 1234              		.cfi_def_cfa_offset 20
 1235              		@ sp needed
 1236 0084 BDE8F040 		pop	{r4, r5, r6, r7, lr}
 1237              		.cfi_restore 14
 1238              		.cfi_restore 7
 1239              		.cfi_restore 6
 1240              		.cfi_restore 5
 1241              		.cfi_restore 4
 1242              		.cfi_def_cfa_offset 0
 1243              	.LVL102:
 1244              	.LBB173:
 1245              	.LBB172:
 1246              		.loc 1 248 0
 1247 0088 FFF7FEBF 		b	sdc_lld_send_cmd_short_crc
 1248              	.LVL103:
 1249              	.L142:
 1250              		.cfi_restore_state
 1251              	.LBE172:
 1252              	.LBE173:
 1253              		.loc 1 250 0
 1254 008c 1046     		mov	r0, r2
ARM GAS  C:\Users\osour\AppData\Local\Temp\ccoG6iAC.s 			page 23


 1255              	.L137:
 1256              		.loc 1 251 0
 1257 008e 019A     		ldr	r2, [sp, #4]
 1258 0090 2B68     		ldr	r3, [r5]
 1259 0092 9A42     		cmp	r2, r3
 1260 0094 28D1     		bne	.L148
 1261 0096 03B0     		add	sp, sp, #12
 1262              		.cfi_remember_state
 1263              		.cfi_def_cfa_offset 20
 1264              		@ sp needed
 1265 0098 F0BD     		pop	{r4, r5, r6, r7, pc}
 1266              	.LVL104:
 1267              	.L149:
 1268              		.cfi_restore_state
 1269              	.LBB174:
 1270              	.LBB175:
 1271              		.loc 4 642 0
 1272 009a 04F13C00 		add	r0, r4, #60
 1273              	.LVL105:
 1274 009e FFF7FEFF 		bl	chThdSuspendS
 1275              	.LVL106:
 1276 00a2 A36C     		ldr	r3, [r4, #72]
 1277              	.LBE175:
 1278              	.LBE174:
 1279              		.loc 1 216 0
 1280 00a4 5B6B     		ldr	r3, [r3, #52]
 1281 00a6 DB05     		lsls	r3, r3, #23
 1282 00a8 C0D4     		bmi	.L135
 1283              	.LVL107:
 1284              	.L150:
 1285              	.LBB176:
 1286              	.LBB177:
 1287              	.LBB178:
 1288              		.loc 3 360 0
 1289 00aa FFF7FEFF 		bl	_dbg_check_unlock
 1290              	.LVL108:
 1291              		.loc 3 361 0
 1292 00ae FFF7FEFF 		bl	_stats_stop_measure_crit_thd
 1293              	.LVL109:
 1294              		.loc 3 367 0
 1295 00b2 104B     		ldr	r3, .L154+8
 1296 00b4 1A68     		ldr	r2, [r3]
 1297 00b6 9A42     		cmp	r2, r3
 1298 00b8 04D0     		beq	.L136
 1299 00ba 9969     		ldr	r1, [r3, #24]
 1300 00bc 9368     		ldr	r3, [r2, #8]
 1301 00be 8A68     		ldr	r2, [r1, #8]
 1302 00c0 9A42     		cmp	r2, r3
 1303 00c2 0DD3     		bcc	.L152
 1304              	.L136:
 1305              	.LVL110:
 1306              	.LBB179:
 1307              	.LBB180:
 1308              	.LBB181:
 1309              		.loc 2 546 0
 1310 00c4 0023     		movs	r3, #0
 1311              		.syntax unified
ARM GAS  C:\Users\osour\AppData\Local\Temp\ccoG6iAC.s 			page 24


 1312              	@ 546 "../../lib/e-puck2_main-processor/ChibiOS//os/ext/CMSIS/include/core_cmFunc.h" 1
 1313 00c6 83F31188 		MSR basepri, r3
 1314              	@ 0 "" 2
 1315              	.LVL111:
 1316              		.thumb
 1317              		.syntax unified
 1318              	.LBE181:
 1319              	.LBE180:
 1320              	.LBE179:
 1321              	.LBE178:
 1322              	.LBE177:
 1323              	.LBE176:
 1324              		.loc 1 218 0
 1325 00ca 0120     		movs	r0, #1
 1326 00cc DFE7     		b	.L137
 1327              	.L151:
 1328              	.LBB184:
 1329              	.LBB169:
 1330              	.LBB168:
 1331              		.loc 3 367 0
 1332 00ce 0A48     		ldr	r0, .L154+12
 1333 00d0 FFF7FEFF 		bl	chSysHalt
 1334              	.LVL112:
 1335              	.LBB167:
 1336              	.LBB166:
 1337              	.LBB165:
 1338              		.loc 2 546 0
 1339 00d4 0022     		movs	r2, #0
 1340              		.syntax unified
 1341              	@ 546 "../../lib/e-puck2_main-processor/ChibiOS//os/ext/CMSIS/include/core_cmFunc.h" 1
 1342 00d6 82F31188 		MSR basepri, r2
 1343              	@ 0 "" 2
 1344              	.LVL113:
 1345              		.thumb
 1346              		.syntax unified
 1347              	.LBE165:
 1348              	.LBE166:
 1349              	.LBE167:
 1350              	.LBE168:
 1351              	.LBE169:
 1352              	.LBE184:
 1353              		.loc 1 247 0
 1354 00da 012E     		cmp	r6, #1
 1355 00dc CAD8     		bhi	.L153
 1356 00de D5E7     		b	.L142
 1357              	.L152:
 1358              	.LBB185:
 1359              	.LBB183:
 1360              	.LBB182:
 1361              		.loc 3 367 0
 1362 00e0 0548     		ldr	r0, .L154+12
 1363 00e2 FFF7FEFF 		bl	chSysHalt
 1364              	.LVL114:
 1365 00e6 EDE7     		b	.L136
 1366              	.L148:
 1367              	.LBE182:
 1368              	.LBE183:
ARM GAS  C:\Users\osour\AppData\Local\Temp\ccoG6iAC.s 			page 25


 1369              	.LBE185:
 1370              		.loc 1 251 0
 1371 00e8 FFF7FEFF 		bl	__stack_chk_fail
 1372              	.LVL115:
 1373              	.L155:
 1374              		.align	2
 1375              	.L154:
 1376 00ec 00000000 		.word	__stack_chk_guard
 1377 00f0 FF07C000 		.word	12584959
 1378 00f4 00000000 		.word	ch
 1379 00f8 00000000 		.word	.LANCHOR3
 1380              		.cfi_endproc
 1381              	.LFE259:
 1382              		.size	sdc_lld_wait_transaction_end, .-sdc_lld_wait_transaction_end
 1383              		.section	.text.sdc_lld_error_cleanup,"ax",%progbits
 1384              		.align	1
 1385              		.p2align 4,,15
 1386              		.syntax unified
 1387              		.thumb
 1388              		.thumb_func
 1389              		.fpu fpv4-sp-d16
 1390              		.type	sdc_lld_error_cleanup, %function
 1391              	sdc_lld_error_cleanup:
 1392              	.LFB261:
 1393              		.loc 1 293 0
 1394              		.cfi_startproc
 1395              		@ args = 0, pretend = 0, frame = 8
 1396              		@ frame_needed = 0, uses_anonymous_args = 0
 1397              	.LVL116:
 1398 0000 2DE9F041 		push	{r4, r5, r6, r7, r8, lr}
 1399              		.cfi_def_cfa_offset 24
 1400              		.cfi_offset 4, -24
 1401              		.cfi_offset 5, -20
 1402              		.cfi_offset 6, -16
 1403              		.cfi_offset 7, -12
 1404              		.cfi_offset 8, -8
 1405              		.cfi_offset 14, -4
 1406 0004 0546     		mov	r5, r0
 1407 0006 224E     		ldr	r6, .L164
 1408              		.loc 1 296 0
 1409 0008 406C     		ldr	r0, [r0, #68]
 1410              	.LVL117:
 1411              		.loc 1 293 0
 1412 000a 3368     		ldr	r3, [r6]
 1413              		.loc 1 296 0
 1414 000c 077A     		ldrb	r7, [r0, #8]	@ zero_extendqisi2
 1415              		.loc 1 294 0
 1416 000e AC6C     		ldr	r4, [r5, #72]
 1417              		.loc 1 296 0
 1418 0010 4068     		ldr	r0, [r0, #4]
 1419              		.loc 1 293 0
 1420 0012 82B0     		sub	sp, sp, #8
 1421              		.cfi_def_cfa_offset 32
 1422              		.loc 1 293 0
 1423 0014 8846     		mov	r8, r1
 1424 0016 0193     		str	r3, [sp, #4]
 1425              		.loc 1 296 0
ARM GAS  C:\Users\osour\AppData\Local\Temp\ccoG6iAC.s 			page 26


 1426 0018 3D23     		movs	r3, #61
 1427 001a BB40     		lsls	r3, r3, r7
 1428              		.loc 1 294 0
 1429 001c D4F834C0 		ldr	ip, [r4, #52]
 1430              	.LVL118:
 1431              		.loc 1 296 0
 1432 0020 0360     		str	r3, [r0]
 1433              		.loc 1 297 0
 1434 0022 6B6C     		ldr	r3, [r5, #68]
 1435 0024 1868     		ldr	r0, [r3]
 1436 0026 0368     		ldr	r3, [r0]
 1437 0028 23F01F03 		bic	r3, r3, #31
 1438 002c 0360     		str	r3, [r0]
 1439 002e 686C     		ldr	r0, [r5, #68]
 1440 0030 0368     		ldr	r3, [r0]
 1441              		.loc 1 293 0
 1442 0032 1746     		mov	r7, r2
 1443              	.L157:
 1444              		.loc 1 297 0 discriminator 2
 1445 0034 1C68     		ldr	r4, [r3]
 1446 0036 14F00104 		ands	r4, r4, #1
 1447 003a FBD1     		bne	.L157
 1448              		.loc 1 297 0 is_stmt 0 discriminator 3
 1449 003c 90F808E0 		ldrb	lr, [r0, #8]	@ zero_extendqisi2
 1450 0040 4168     		ldr	r1, [r0, #4]
 1451              	.LVL119:
 1452              		.loc 1 298 0 is_stmt 1 discriminator 3
 1453 0042 144A     		ldr	r2, .L164+4
 1454              	.LVL120:
 1455              		.loc 1 297 0 discriminator 3
 1456 0044 3D23     		movs	r3, #61
 1457 0046 03FA0EF3 		lsl	r3, r3, lr
 1458 004a 0B60     		str	r3, [r1]
 1459              		.loc 1 298 0 discriminator 3
 1460 004c AB6C     		ldr	r3, [r5, #72]
 1461 004e 9A63     		str	r2, [r3, #56]
 1462              		.loc 1 299 0 discriminator 3
 1463 0050 AB6C     		ldr	r3, [r5, #72]
 1464 0052 DC63     		str	r4, [r3, #60]
 1465              		.loc 1 300 0 discriminator 3
 1466 0054 AB6C     		ldr	r3, [r5, #72]
 1467              		.loc 1 301 0 discriminator 3
 1468 0056 6146     		mov	r1, ip
 1469              		.loc 1 300 0 discriminator 3
 1470 0058 DC62     		str	r4, [r3, #44]
 1471              		.loc 1 301 0 discriminator 3
 1472 005a 05F13400 		add	r0, r5, #52
 1473 005e FFF7FEFF 		bl	sdc_lld_collect_errors.isra.0
 1474              	.LVL121:
 1475              		.loc 1 302 0 discriminator 3
 1476 0062 B8F1010F 		cmp	r8, #1
 1477              	.LBB188:
 1478              	.LBB189:
 1479              		.loc 1 303 0 discriminator 3
 1480 0066 019A     		ldr	r2, [sp, #4]
 1481 0068 3368     		ldr	r3, [r6]
 1482              	.LBE189:
ARM GAS  C:\Users\osour\AppData\Local\Temp\ccoG6iAC.s 			page 27


 1483              	.LBE188:
 1484              		.loc 1 302 0 discriminator 3
 1485 006a 0AD9     		bls	.L156
 1486              	.LVL122:
 1487              	.LBB192:
 1488              	.LBB190:
 1489              		.loc 1 303 0
 1490 006c 9A42     		cmp	r2, r3
 1491 006e 0DD1     		bne	.L163
 1492 0070 3B46     		mov	r3, r7
 1493 0072 2246     		mov	r2, r4
 1494 0074 2846     		mov	r0, r5
 1495 0076 0C21     		movs	r1, #12
 1496              	.LBE190:
 1497              	.LBE192:
 1498              		.loc 1 304 0
 1499 0078 02B0     		add	sp, sp, #8
 1500              		.cfi_remember_state
 1501              		.cfi_def_cfa_offset 24
 1502              		@ sp needed
 1503 007a BDE8F041 		pop	{r4, r5, r6, r7, r8, lr}
 1504              		.cfi_restore 14
 1505              		.cfi_restore 8
 1506              		.cfi_restore 7
 1507              		.cfi_restore 6
 1508              		.cfi_restore 5
 1509              		.cfi_restore 4
 1510              		.cfi_def_cfa_offset 0
 1511              	.LVL123:
 1512              	.LBB193:
 1513              	.LBB191:
 1514              		.loc 1 303 0
 1515 007e FFF7FEBF 		b	sdc_lld_send_cmd_short_crc
 1516              	.LVL124:
 1517              	.L156:
 1518              		.cfi_restore_state
 1519              	.LBE191:
 1520              	.LBE193:
 1521              		.loc 1 304 0
 1522 0082 9A42     		cmp	r2, r3
 1523 0084 02D1     		bne	.L163
 1524 0086 02B0     		add	sp, sp, #8
 1525              		.cfi_remember_state
 1526              		.cfi_def_cfa_offset 24
 1527              		@ sp needed
 1528 0088 BDE8F081 		pop	{r4, r5, r6, r7, r8, pc}
 1529              	.LVL125:
 1530              	.L163:
 1531              		.cfi_restore_state
 1532 008c FFF7FEFF 		bl	__stack_chk_fail
 1533              	.LVL126:
 1534              	.L165:
 1535              		.align	2
 1536              	.L164:
 1537 0090 00000000 		.word	__stack_chk_guard
 1538 0094 FF07C000 		.word	12584959
 1539              		.cfi_endproc
ARM GAS  C:\Users\osour\AppData\Local\Temp\ccoG6iAC.s 			page 28


 1540              	.LFE261:
 1541              		.size	sdc_lld_error_cleanup, .-sdc_lld_error_cleanup
 1542              		.section	.text.sdc_lld_send_cmd_long_crc,"ax",%progbits
 1543              		.align	1
 1544              		.p2align 4,,15
 1545              		.global	sdc_lld_send_cmd_long_crc
 1546              		.syntax unified
 1547              		.thumb
 1548              		.thumb_func
 1549              		.fpu fpv4-sp-d16
 1550              		.type	sdc_lld_send_cmd_long_crc, %function
 1551              	sdc_lld_send_cmd_long_crc:
 1552              	.LFB273:
 1553              		.loc 1 601 0
 1554              		.cfi_startproc
 1555              		@ args = 0, pretend = 0, frame = 8
 1556              		@ frame_needed = 0, uses_anonymous_args = 0
 1557              	.LVL127:
 1558 0000 70B5     		push	{r4, r5, r6, lr}
 1559              		.cfi_def_cfa_offset 16
 1560              		.cfi_offset 4, -16
 1561              		.cfi_offset 5, -12
 1562              		.cfi_offset 6, -8
 1563              		.cfi_offset 14, -4
 1564 0002 164D     		ldr	r5, .L176
 1565              		.loc 1 606 0
 1566 0004 846C     		ldr	r4, [r0, #72]
 1567              		.loc 1 601 0
 1568 0006 2E68     		ldr	r6, [r5]
 1569 0008 82B0     		sub	sp, sp, #8
 1570              		.cfi_def_cfa_offset 24
 1571              		.loc 1 607 0
 1572 000a 41F49861 		orr	r1, r1, #1216
 1573              	.LVL128:
 1574              		.loc 1 601 0
 1575 000e 0196     		str	r6, [sp, #4]
 1576              		.loc 1 606 0
 1577 0010 A260     		str	r2, [r4, #8]
 1578              		.loc 1 607 0
 1579 0012 826C     		ldr	r2, [r0, #72]
 1580              	.LVL129:
 1581 0014 D160     		str	r1, [r2, #12]
 1582              	.LVL130:
 1583              		.loc 1 609 0
 1584 0016 826C     		ldr	r2, [r0, #72]
 1585              	.L167:
 1586              		.loc 1 609 0 is_stmt 0 discriminator 1
 1587 0018 516B     		ldr	r1, [r2, #52]
 1588              	.LVL131:
 1589 001a 11F04504 		ands	r4, r1, #69
 1590 001e FBD0     		beq	.L167
 1591              		.loc 1 612 0 is_stmt 1
 1592 0020 9463     		str	r4, [r2, #56]
 1593              		.loc 1 614 0
 1594 0022 11F03F02 		ands	r2, r1, #63
 1595 0026 12D1     		bne	.L174
 1596              		.loc 1 619 0
ARM GAS  C:\Users\osour\AppData\Local\Temp\ccoG6iAC.s 			page 29


 1597 0028 816C     		ldr	r1, [r0, #72]
 1598              	.LVL132:
 1599 002a 096A     		ldr	r1, [r1, #32]
 1600 002c 1960     		str	r1, [r3]
 1601              		.loc 1 620 0
 1602 002e 816C     		ldr	r1, [r0, #72]
 1603              	.LVL133:
 1604 0030 C969     		ldr	r1, [r1, #28]
 1605 0032 5960     		str	r1, [r3, #4]
 1606              		.loc 1 621 0
 1607 0034 816C     		ldr	r1, [r0, #72]
 1608              	.LVL134:
 1609 0036 8969     		ldr	r1, [r1, #24]
 1610 0038 9960     		str	r1, [r3, #8]
 1611              		.loc 1 622 0
 1612 003a 816C     		ldr	r1, [r0, #72]
 1613 003c 4969     		ldr	r1, [r1, #20]
 1614 003e D960     		str	r1, [r3, #12]
 1615              		.loc 1 623 0
 1616 0040 1046     		mov	r0, r2
 1617              	.LVL135:
 1618              	.L169:
 1619              		.loc 1 624 0
 1620 0042 019A     		ldr	r2, [sp, #4]
 1621 0044 2B68     		ldr	r3, [r5]
 1622 0046 9A42     		cmp	r2, r3
 1623 0048 06D1     		bne	.L175
 1624 004a 02B0     		add	sp, sp, #8
 1625              		.cfi_remember_state
 1626              		.cfi_def_cfa_offset 16
 1627              		@ sp needed
 1628 004c 70BD     		pop	{r4, r5, r6, pc}
 1629              	.LVL136:
 1630              	.L174:
 1631              		.cfi_restore_state
 1632              		.loc 1 615 0
 1633 004e 3430     		adds	r0, r0, #52
 1634              	.LVL137:
 1635 0050 FFF7FEFF 		bl	sdc_lld_collect_errors.isra.0
 1636              	.LVL138:
 1637              		.loc 1 616 0
 1638 0054 0120     		movs	r0, #1
 1639 0056 F4E7     		b	.L169
 1640              	.LVL139:
 1641              	.L175:
 1642              		.loc 1 624 0
 1643 0058 FFF7FEFF 		bl	__stack_chk_fail
 1644              	.LVL140:
 1645              	.L177:
 1646              		.align	2
 1647              	.L176:
 1648 005c 00000000 		.word	__stack_chk_guard
 1649              		.cfi_endproc
 1650              	.LFE273:
 1651              		.size	sdc_lld_send_cmd_long_crc, .-sdc_lld_send_cmd_long_crc
 1652              		.section	.text.sdc_lld_read_special,"ax",%progbits
 1653              		.align	1
ARM GAS  C:\Users\osour\AppData\Local\Temp\ccoG6iAC.s 			page 30


 1654              		.p2align 4,,15
 1655              		.global	sdc_lld_read_special
 1656              		.syntax unified
 1657              		.thumb
 1658              		.thumb_func
 1659              		.fpu fpv4-sp-d16
 1660              		.type	sdc_lld_read_special, %function
 1661              	sdc_lld_read_special:
 1662              	.LFB274:
 1663              		.loc 1 643 0
 1664              		.cfi_startproc
 1665              		@ args = 4, pretend = 0, frame = 8
 1666              		@ frame_needed = 0, uses_anonymous_args = 0
 1667              	.LVL141:
 1668 0000 2DE9F043 		push	{r4, r5, r6, r7, r8, r9, lr}
 1669              		.cfi_def_cfa_offset 28
 1670              		.cfi_offset 4, -28
 1671              		.cfi_offset 5, -24
 1672              		.cfi_offset 6, -20
 1673              		.cfi_offset 7, -16
 1674              		.cfi_offset 8, -12
 1675              		.cfi_offset 9, -8
 1676              		.cfi_offset 14, -4
 1677 0004 2E4E     		ldr	r6, .L189
 1678 0006 83B0     		sub	sp, sp, #12
 1679              		.cfi_def_cfa_offset 40
 1680              		.loc 1 643 0
 1681 0008 3468     		ldr	r4, [r6]
 1682 000a 0194     		str	r4, [sp, #4]
 1683              	.LBB196:
 1684              	.LBB197:
 1685              		.loc 1 89 0
 1686 000c B2F1807F 		cmp	r2, #16777216
 1687              	.LBE197:
 1688              	.LBE196:
 1689              		.loc 1 643 0
 1690 0010 DDF82880 		ldr	r8, [sp, #40]
 1691 0014 1546     		mov	r5, r2
 1692 0016 0446     		mov	r4, r0
 1693              	.LVL142:
 1694 0018 8946     		mov	r9, r1
 1695              	.LVL143:
 1696 001a 1F46     		mov	r7, r3
 1697              	.LBB201:
 1698              	.LBB198:
 1699              		.loc 1 89 0
 1700 001c 49D2     		bcs	.L185
 1701              	.LVL144:
 1702              	.L179:
 1703              		.loc 1 91 0
 1704 001e A36C     		ldr	r3, [r4, #72]
 1705 0020 284A     		ldr	r2, .L189+4
 1706 0022 5A62     		str	r2, [r3, #36]
 1707              		.loc 1 94 0
 1708 0024 2046     		mov	r0, r4
 1709 0026 FFF7FEFF 		bl	_sdc_wait_for_transfer_state
 1710              	.LVL145:
ARM GAS  C:\Users\osour\AppData\Local\Temp\ccoG6iAC.s 			page 31


 1711 002a 0028     		cmp	r0, #0
 1712 002c 3FD1     		bne	.L186
 1713              		.loc 1 98 0
 1714 002e 636C     		ldr	r3, [r4, #68]
 1715              		.loc 1 104 0
 1716 0030 2549     		ldr	r1, .L189+8
 1717              		.loc 1 98 0
 1718 0032 1B68     		ldr	r3, [r3]
 1719 0034 C3F80C90 		str	r9, [r3, #12]
 1720              		.loc 1 99 0
 1721 0038 636C     		ldr	r3, [r4, #68]
 1722 003a 1B68     		ldr	r3, [r3]
 1723 003c AA08     		lsrs	r2, r5, #2
 1724 003e 5A60     		str	r2, [r3, #4]
 1725              		.loc 1 100 0
 1726 0040 D4E91023 		ldrd	r2, r3, [r4, #64]
 1727 0044 1B68     		ldr	r3, [r3]
 1728 0046 1A60     		str	r2, [r3]
 1729              		.loc 1 101 0
 1730 0048 636C     		ldr	r3, [r4, #68]
 1731 004a 1A68     		ldr	r2, [r3]
 1732 004c 1368     		ldr	r3, [r2]
 1733 004e 43F00103 		orr	r3, r3, #1
 1734 0052 1360     		str	r3, [r2]
 1735              		.loc 1 104 0
 1736 0054 A36C     		ldr	r3, [r4, #72]
 1737 0056 9963     		str	r1, [r3, #56]
 1738              		.loc 1 105 0
 1739 0058 A36C     		ldr	r3, [r4, #72]
 1740 005a 40F22A32 		movw	r2, #810
 1741 005e DA63     		str	r2, [r3, #60]
 1742              		.loc 1 110 0
 1743 0060 A36C     		ldr	r3, [r4, #72]
 1744 0062 9D62     		str	r5, [r3, #40]
 1745              		.loc 1 113 0
 1746 0064 A36C     		ldr	r3, [r4, #72]
 1747 0066 0F20     		movs	r0, #15
 1748              	.LBE198:
 1749              	.LBE201:
 1750              		.loc 1 649 0
 1751 0068 6D46     		mov	r5, sp
 1752              	.LVL146:
 1753              	.LBB202:
 1754              	.LBB199:
 1755              		.loc 1 113 0
 1756 006a D862     		str	r0, [r3, #44]
 1757              	.LVL147:
 1758              	.LBE199:
 1759              	.LBE202:
 1760              		.loc 1 649 0
 1761 006c 4246     		mov	r2, r8
 1762 006e 3946     		mov	r1, r7
 1763 0070 2B46     		mov	r3, r5
 1764 0072 2046     		mov	r0, r4
 1765 0074 FFF7FEFF 		bl	sdc_lld_send_cmd_short_crc
 1766              	.LVL148:
 1767 0078 60B1     		cbz	r0, .L187
ARM GAS  C:\Users\osour\AppData\Local\Temp\ccoG6iAC.s 			page 32


 1768              	.L182:
 1769              	.LDL1:
 1770              		.loc 1 659 0
 1771 007a 2046     		mov	r0, r4
 1772 007c 2A46     		mov	r2, r5
 1773 007e 0121     		movs	r1, #1
 1774 0080 FFF7FEFF 		bl	sdc_lld_error_cleanup
 1775              	.LVL149:
 1776              		.loc 1 660 0
 1777 0084 0120     		movs	r0, #1
 1778              	.L181:
 1779              		.loc 1 661 0
 1780 0086 019A     		ldr	r2, [sp, #4]
 1781 0088 3368     		ldr	r3, [r6]
 1782 008a 9A42     		cmp	r2, r3
 1783 008c 15D1     		bne	.L188
 1784 008e 03B0     		add	sp, sp, #12
 1785              		.cfi_remember_state
 1786              		.cfi_def_cfa_offset 28
 1787              		@ sp needed
 1788 0090 BDE8F083 		pop	{r4, r5, r6, r7, r8, r9, pc}
 1789              	.LVL150:
 1790              	.L187:
 1791              		.cfi_restore_state
 1792              		.loc 1 650 0
 1793 0094 009A     		ldr	r2, [sp]
 1794 0096 0D4B     		ldr	r3, .L189+12
 1795 0098 1340     		ands	r3, r3, r2
 1796 009a 002B     		cmp	r3, #0
 1797 009c EDD1     		bne	.L182
 1798              		.loc 1 653 0
 1799 009e 2A46     		mov	r2, r5
 1800 00a0 0121     		movs	r1, #1
 1801 00a2 2046     		mov	r0, r4
 1802 00a4 FFF7FEFF 		bl	sdc_lld_wait_transaction_end
 1803              	.LVL151:
 1804 00a8 0028     		cmp	r0, #0
 1805 00aa E6D1     		bne	.L182
 1806 00ac EBE7     		b	.L181
 1807              	.LVL152:
 1808              	.L186:
 1809 00ae 6D46     		mov	r5, sp
 1810              	.LVL153:
 1811 00b0 E3E7     		b	.L182
 1812              	.LVL154:
 1813              	.L185:
 1814              	.LBB203:
 1815              	.LBB200:
 1816              		.loc 1 89 0
 1817 00b2 0748     		ldr	r0, .L189+16
 1818              	.LVL155:
 1819 00b4 FFF7FEFF 		bl	chSysHalt
 1820              	.LVL156:
 1821 00b8 B1E7     		b	.L179
 1822              	.LVL157:
 1823              	.L188:
 1824              	.LBE200:
ARM GAS  C:\Users\osour\AppData\Local\Temp\ccoG6iAC.s 			page 33


 1825              	.LBE203:
 1826              		.loc 1 661 0
 1827 00ba FFF7FEFF 		bl	__stack_chk_fail
 1828              	.LVL158:
 1829              	.L190:
 1830 00be 00BF     		.align	2
 1831              	.L189:
 1832 00c0 00000000 		.word	__stack_chk_guard
 1833 00c4 C0270900 		.word	600000
 1834 00c8 FF07C000 		.word	12584959
 1835 00cc 08E0FFFD 		.word	-33562616
 1836 00d0 00000000 		.word	.LANCHOR4
 1837              		.cfi_endproc
 1838              	.LFE274:
 1839              		.size	sdc_lld_read_special, .-sdc_lld_read_special
 1840              		.section	.text.sdc_lld_read_aligned,"ax",%progbits
 1841              		.align	1
 1842              		.p2align 4,,15
 1843              		.global	sdc_lld_read_aligned
 1844              		.syntax unified
 1845              		.thumb
 1846              		.thumb_func
 1847              		.fpu fpv4-sp-d16
 1848              		.type	sdc_lld_read_aligned, %function
 1849              	sdc_lld_read_aligned:
 1850              	.LFB275:
 1851              		.loc 1 678 0
 1852              		.cfi_startproc
 1853              		@ args = 0, pretend = 0, frame = 8
 1854              		@ frame_needed = 0, uses_anonymous_args = 0
 1855              	.LVL159:
 1856 0000 2DE9F041 		push	{r4, r5, r6, r7, r8, lr}
 1857              		.cfi_def_cfa_offset 24
 1858              		.cfi_offset 4, -24
 1859              		.cfi_offset 5, -20
 1860              		.cfi_offset 6, -16
 1861              		.cfi_offset 7, -12
 1862              		.cfi_offset 8, -8
 1863              		.cfi_offset 14, -4
 1864 0004 324E     		ldr	r6, .L206
 1865 0006 1D46     		mov	r5, r3
 1866 0008 82B0     		sub	sp, sp, #8
 1867              		.cfi_def_cfa_offset 32
 1868              		.loc 1 678 0
 1869 000a 3368     		ldr	r3, [r6]
 1870              	.LVL160:
 1871 000c 0193     		str	r3, [sp, #4]
 1872              		.loc 1 681 0
 1873 000e B5F5004F 		cmp	r5, #32768
 1874              		.loc 1 678 0
 1875 0012 0446     		mov	r4, r0
 1876 0014 0F46     		mov	r7, r1
 1877 0016 9046     		mov	r8, r2
 1878              		.loc 1 681 0
 1879 0018 4CD2     		bcs	.L203
 1880              	.LVL161:
 1881              	.L192:
ARM GAS  C:\Users\osour\AppData\Local\Temp\ccoG6iAC.s 			page 34


 1882              		.loc 1 683 0
 1883 001a A36C     		ldr	r3, [r4, #72]
 1884 001c 2D4A     		ldr	r2, .L206+4
 1885 001e 5A62     		str	r2, [r3, #36]
 1886              		.loc 1 686 0
 1887 0020 2046     		mov	r0, r4
 1888 0022 FFF7FEFF 		bl	_sdc_wait_for_transfer_state
 1889              	.LVL162:
 1890 0026 30B1     		cbz	r0, .L204
 1891              	.LVL163:
 1892              	.L193:
 1893              		.loc 1 723 0
 1894 0028 019A     		ldr	r2, [sp, #4]
 1895 002a 3368     		ldr	r3, [r6]
 1896 002c 9A42     		cmp	r2, r3
 1897 002e 4CD1     		bne	.L205
 1898 0030 02B0     		add	sp, sp, #8
 1899              		.cfi_remember_state
 1900              		.cfi_def_cfa_offset 24
 1901              		@ sp needed
 1902 0032 BDE8F081 		pop	{r4, r5, r6, r7, r8, pc}
 1903              	.LVL164:
 1904              	.L204:
 1905              		.cfi_restore_state
 1906              	.LBB208:
 1907              	.LBB209:
 1908              		.loc 1 690 0
 1909 0036 636C     		ldr	r3, [r4, #68]
 1910              		.loc 1 697 0
 1911 0038 2748     		ldr	r0, .L206+8
 1912              		.loc 1 690 0
 1913 003a 1B68     		ldr	r3, [r3]
 1914 003c C3F80C80 		str	r8, [r3, #12]
 1915              		.loc 1 691 0
 1916 0040 626C     		ldr	r2, [r4, #68]
 1917 0042 6B02     		lsls	r3, r5, #9
 1918 0044 1268     		ldr	r2, [r2]
 1919 0046 9908     		lsrs	r1, r3, #2
 1920 0048 5160     		str	r1, [r2, #4]
 1921              		.loc 1 693 0
 1922 004a D4E91012 		ldrd	r1, r2, [r4, #64]
 1923 004e 1268     		ldr	r2, [r2]
 1924 0050 1160     		str	r1, [r2]
 1925              		.loc 1 694 0
 1926 0052 626C     		ldr	r2, [r4, #68]
 1927 0054 1168     		ldr	r1, [r2]
 1928 0056 0A68     		ldr	r2, [r1]
 1929 0058 42F00102 		orr	r2, r2, #1
 1930 005c 0A60     		str	r2, [r1]
 1931              		.loc 1 697 0
 1932 005e A26C     		ldr	r2, [r4, #72]
 1933 0060 9063     		str	r0, [r2, #56]
 1934              		.loc 1 698 0
 1935 0062 A26C     		ldr	r2, [r4, #72]
 1936 0064 40F22A31 		movw	r1, #810
 1937 0068 D163     		str	r1, [r2, #60]
 1938              		.loc 1 703 0
ARM GAS  C:\Users\osour\AppData\Local\Temp\ccoG6iAC.s 			page 35


 1939 006a A26C     		ldr	r2, [r4, #72]
 1940 006c 9362     		str	r3, [r2, #40]
 1941              		.loc 1 706 0
 1942 006e A36C     		ldr	r3, [r4, #72]
 1943 0070 9B22     		movs	r2, #155
 1944 0072 DA62     		str	r2, [r3, #44]
 1945              	.LVL165:
 1946              	.LBB210:
 1947              	.LBB211:
 1948              		.loc 1 140 0
 1949 0074 236B     		ldr	r3, [r4, #48]
 1950 0076 DB06     		lsls	r3, r3, #27
 1951              		.loc 1 141 0
 1952 0078 58BF     		it	pl
 1953 007a 7F02     		lslpl	r7, r7, #9
 1954              	.LVL166:
 1955              		.loc 1 145 0
 1956 007c E846     		mov	r8, sp
 1957              	.LVL167:
 1958              		.loc 1 143 0
 1959 007e 012D     		cmp	r5, #1
 1960              		.loc 1 145 0
 1961 0080 3A46     		mov	r2, r7
 1962 0082 4346     		mov	r3, r8
 1963              		.loc 1 143 0
 1964 0084 1AD9     		bls	.L195
 1965              		.loc 1 145 0
 1966 0086 1221     		movs	r1, #18
 1967 0088 2046     		mov	r0, r4
 1968 008a FFF7FEFF 		bl	sdc_lld_send_cmd_short_crc
 1969              	.LVL168:
 1970 008e 50B9     		cbnz	r0, .L198
 1971              	.L202:
 1972              		.loc 1 152 0
 1973 0090 009A     		ldr	r2, [sp]
 1974 0092 124B     		ldr	r3, .L206+12
 1975 0094 1340     		ands	r3, r3, r2
 1976 0096 33B9     		cbnz	r3, .L198
 1977              	.LBE211:
 1978              	.LBE210:
 1979              		.loc 1 715 0
 1980 0098 4246     		mov	r2, r8
 1981 009a 2946     		mov	r1, r5
 1982 009c 2046     		mov	r0, r4
 1983 009e FFF7FEFF 		bl	sdc_lld_wait_transaction_end
 1984              	.LVL169:
 1985 00a2 0028     		cmp	r0, #0
 1986 00a4 C0D0     		beq	.L193
 1987              	.LVL170:
 1988              	.L198:
 1989              	.LDL2:
 1990              		.loc 1 721 0
 1991 00a6 2046     		mov	r0, r4
 1992 00a8 4246     		mov	r2, r8
 1993 00aa 2946     		mov	r1, r5
 1994 00ac FFF7FEFF 		bl	sdc_lld_error_cleanup
 1995              	.LVL171:
ARM GAS  C:\Users\osour\AppData\Local\Temp\ccoG6iAC.s 			page 36


 1996              		.loc 1 722 0
 1997 00b0 0120     		movs	r0, #1
 1998 00b2 B9E7     		b	.L193
 1999              	.LVL172:
 2000              	.L203:
 2001              	.LBE209:
 2002              	.LBE208:
 2003              		.loc 1 681 0 discriminator 2
 2004 00b4 0A48     		ldr	r0, .L206+16
 2005              	.LVL173:
 2006 00b6 FFF7FEFF 		bl	chSysHalt
 2007              	.LVL174:
 2008 00ba AEE7     		b	.L192
 2009              	.LVL175:
 2010              	.L195:
 2011              	.LBB215:
 2012              	.LBB214:
 2013              	.LBB213:
 2014              	.LBB212:
 2015              		.loc 1 151 0
 2016 00bc 1121     		movs	r1, #17
 2017 00be 2046     		mov	r0, r4
 2018 00c0 FFF7FEFF 		bl	sdc_lld_send_cmd_short_crc
 2019              	.LVL176:
 2020 00c4 0028     		cmp	r0, #0
 2021 00c6 E3D0     		beq	.L202
 2022 00c8 EDE7     		b	.L198
 2023              	.LVL177:
 2024              	.L205:
 2025              	.LBE212:
 2026              	.LBE213:
 2027              	.LBE214:
 2028              	.LBE215:
 2029              		.loc 1 723 0
 2030 00ca FFF7FEFF 		bl	__stack_chk_fail
 2031              	.LVL178:
 2032              	.L207:
 2033 00ce 00BF     		.align	2
 2034              	.L206:
 2035 00d0 00000000 		.word	__stack_chk_guard
 2036 00d4 C0270900 		.word	600000
 2037 00d8 FF07C000 		.word	12584959
 2038 00dc 08E0FFFD 		.word	-33562616
 2039 00e0 00000000 		.word	.LANCHOR5
 2040              		.cfi_endproc
 2041              	.LFE275:
 2042              		.size	sdc_lld_read_aligned, .-sdc_lld_read_aligned
 2043              		.section	.text.sdc_lld_write_aligned,"ax",%progbits
 2044              		.align	1
 2045              		.p2align 4,,15
 2046              		.global	sdc_lld_write_aligned
 2047              		.syntax unified
 2048              		.thumb
 2049              		.thumb_func
 2050              		.fpu fpv4-sp-d16
 2051              		.type	sdc_lld_write_aligned, %function
 2052              	sdc_lld_write_aligned:
ARM GAS  C:\Users\osour\AppData\Local\Temp\ccoG6iAC.s 			page 37


 2053              	.LFB276:
 2054              		.loc 1 740 0
 2055              		.cfi_startproc
 2056              		@ args = 0, pretend = 0, frame = 16
 2057              		@ frame_needed = 0, uses_anonymous_args = 0
 2058              	.LVL179:
 2059 0000 2DE9F041 		push	{r4, r5, r6, r7, r8, lr}
 2060              		.cfi_def_cfa_offset 24
 2061              		.cfi_offset 4, -24
 2062              		.cfi_offset 5, -20
 2063              		.cfi_offset 6, -16
 2064              		.cfi_offset 7, -12
 2065              		.cfi_offset 8, -8
 2066              		.cfi_offset 14, -4
 2067 0004 334E     		ldr	r6, .L223
 2068 0006 1D46     		mov	r5, r3
 2069 0008 84B0     		sub	sp, sp, #16
 2070              		.cfi_def_cfa_offset 40
 2071              		.loc 1 740 0
 2072 000a 3368     		ldr	r3, [r6]
 2073              	.LVL180:
 2074 000c 0393     		str	r3, [sp, #12]
 2075              		.loc 1 743 0
 2076 000e B5F5004F 		cmp	r5, #32768
 2077              		.loc 1 740 0
 2078 0012 0446     		mov	r4, r0
 2079 0014 0F46     		mov	r7, r1
 2080 0016 9046     		mov	r8, r2
 2081              		.loc 1 743 0
 2082 0018 4ED2     		bcs	.L220
 2083              	.LVL181:
 2084              	.L209:
 2085              		.loc 1 745 0
 2086 001a A36C     		ldr	r3, [r4, #72]
 2087 001c 2E4A     		ldr	r2, .L223+4
 2088 001e 5A62     		str	r2, [r3, #36]
 2089              		.loc 1 748 0
 2090 0020 2046     		mov	r0, r4
 2091 0022 FFF7FEFF 		bl	_sdc_wait_for_transfer_state
 2092              	.LVL182:
 2093 0026 30B1     		cbz	r0, .L221
 2094              	.LVL183:
 2095              	.L210:
 2096              		.loc 1 785 0
 2097 0028 039A     		ldr	r2, [sp, #12]
 2098 002a 3368     		ldr	r3, [r6]
 2099 002c 9A42     		cmp	r2, r3
 2100 002e 4ED1     		bne	.L222
 2101 0030 04B0     		add	sp, sp, #16
 2102              		.cfi_remember_state
 2103              		.cfi_def_cfa_offset 24
 2104              		@ sp needed
 2105 0032 BDE8F081 		pop	{r4, r5, r6, r7, r8, pc}
 2106              	.LVL184:
 2107              	.L221:
 2108              		.cfi_restore_state
 2109              	.LBB220:
ARM GAS  C:\Users\osour\AppData\Local\Temp\ccoG6iAC.s 			page 38


 2110              	.LBB221:
 2111              		.loc 1 752 0
 2112 0036 636C     		ldr	r3, [r4, #68]
 2113              		.loc 1 759 0
 2114 0038 2848     		ldr	r0, .L223+8
 2115              		.loc 1 752 0
 2116 003a 1B68     		ldr	r3, [r3]
 2117 003c C3F80C80 		str	r8, [r3, #12]
 2118              		.loc 1 753 0
 2119 0040 626C     		ldr	r2, [r4, #68]
 2120 0042 6B02     		lsls	r3, r5, #9
 2121 0044 1268     		ldr	r2, [r2]
 2122 0046 9908     		lsrs	r1, r3, #2
 2123 0048 5160     		str	r1, [r2, #4]
 2124              		.loc 1 755 0
 2125 004a D4E91021 		ldrd	r2, r1, [r4, #64]
 2126 004e 0968     		ldr	r1, [r1]
 2127 0050 42F04002 		orr	r2, r2, #64
 2128 0054 0A60     		str	r2, [r1]
 2129              		.loc 1 756 0
 2130 0056 626C     		ldr	r2, [r4, #68]
 2131 0058 1168     		ldr	r1, [r2]
 2132 005a 0A68     		ldr	r2, [r1]
 2133 005c 42F00102 		orr	r2, r2, #1
 2134 0060 0A60     		str	r2, [r1]
 2135              		.loc 1 759 0
 2136 0062 A26C     		ldr	r2, [r4, #72]
 2137 0064 9063     		str	r0, [r2, #56]
 2138              		.loc 1 760 0
 2139 0066 A26C     		ldr	r2, [r4, #72]
 2140 0068 40F21A31 		movw	r1, #794
 2141 006c D163     		str	r1, [r2, #60]
 2142              		.loc 1 765 0
 2143 006e A26C     		ldr	r2, [r4, #72]
 2144 0070 9362     		str	r3, [r2, #40]
 2145              	.LVL185:
 2146              	.LBB222:
 2147              	.LBB223:
 2148              		.loc 1 178 0
 2149 0072 236B     		ldr	r3, [r4, #48]
 2150 0074 DB06     		lsls	r3, r3, #27
 2151              		.loc 1 179 0
 2152 0076 58BF     		it	pl
 2153 0078 7F02     		lslpl	r7, r7, #9
 2154              	.LVL186:
 2155              		.loc 1 183 0
 2156 007a 02AB     		add	r3, sp, #8
 2157              	.LVL187:
 2158              		.loc 1 181 0
 2159 007c 012D     		cmp	r5, #1
 2160              		.loc 1 183 0
 2161 007e 0193     		str	r3, [sp, #4]
 2162 0080 3A46     		mov	r2, r7
 2163              		.loc 1 181 0
 2164 0082 1DD9     		bls	.L212
 2165              		.loc 1 183 0
 2166 0084 1921     		movs	r1, #25
ARM GAS  C:\Users\osour\AppData\Local\Temp\ccoG6iAC.s 			page 39


 2167 0086 2046     		mov	r0, r4
 2168 0088 FFF7FEFF 		bl	sdc_lld_send_cmd_short_crc
 2169              	.LVL188:
 2170 008c 68B9     		cbnz	r0, .L215
 2171              	.L219:
 2172              		.loc 1 190 0
 2173 008e 029A     		ldr	r2, [sp, #8]
 2174 0090 134B     		ldr	r3, .L223+12
 2175 0092 1340     		ands	r3, r3, r2
 2176 0094 4BB9     		cbnz	r3, .L215
 2177              	.LBE223:
 2178              	.LBE222:
 2179              		.loc 1 772 0
 2180 0096 A36C     		ldr	r3, [r4, #72]
 2181 0098 9922     		movs	r2, #153
 2182 009a DA62     		str	r2, [r3, #44]
 2183              		.loc 1 777 0
 2184 009c 2946     		mov	r1, r5
 2185 009e 019A     		ldr	r2, [sp, #4]
 2186 00a0 2046     		mov	r0, r4
 2187 00a2 FFF7FEFF 		bl	sdc_lld_wait_transaction_end
 2188              	.LVL189:
 2189 00a6 0028     		cmp	r0, #0
 2190 00a8 BED0     		beq	.L210
 2191              	.L215:
 2192              	.LDL3:
 2193              		.loc 1 783 0
 2194 00aa 2046     		mov	r0, r4
 2195 00ac 2946     		mov	r1, r5
 2196 00ae 019A     		ldr	r2, [sp, #4]
 2197 00b0 FFF7FEFF 		bl	sdc_lld_error_cleanup
 2198              	.LVL190:
 2199              		.loc 1 784 0
 2200 00b4 0120     		movs	r0, #1
 2201 00b6 B7E7     		b	.L210
 2202              	.LVL191:
 2203              	.L220:
 2204              	.LBE221:
 2205              	.LBE220:
 2206              		.loc 1 743 0 discriminator 2
 2207 00b8 0A48     		ldr	r0, .L223+16
 2208              	.LVL192:
 2209 00ba FFF7FEFF 		bl	chSysHalt
 2210              	.LVL193:
 2211 00be ACE7     		b	.L209
 2212              	.LVL194:
 2213              	.L212:
 2214              	.LBB227:
 2215              	.LBB226:
 2216              	.LBB225:
 2217              	.LBB224:
 2218              		.loc 1 189 0
 2219 00c0 1821     		movs	r1, #24
 2220 00c2 2046     		mov	r0, r4
 2221 00c4 FFF7FEFF 		bl	sdc_lld_send_cmd_short_crc
 2222              	.LVL195:
 2223 00c8 0028     		cmp	r0, #0
ARM GAS  C:\Users\osour\AppData\Local\Temp\ccoG6iAC.s 			page 40


 2224 00ca E0D0     		beq	.L219
 2225 00cc EDE7     		b	.L215
 2226              	.LVL196:
 2227              	.L222:
 2228              	.LBE224:
 2229              	.LBE225:
 2230              	.LBE226:
 2231              	.LBE227:
 2232              		.loc 1 785 0
 2233 00ce FFF7FEFF 		bl	__stack_chk_fail
 2234              	.LVL197:
 2235              	.L224:
 2236 00d2 00BF     		.align	2
 2237              	.L223:
 2238 00d4 00000000 		.word	__stack_chk_guard
 2239 00d8 808D5B00 		.word	6000000
 2240 00dc FF07C000 		.word	12584959
 2241 00e0 08E0FFFD 		.word	-33562616
 2242 00e4 00000000 		.word	.LANCHOR6
 2243              		.cfi_endproc
 2244              	.LFE276:
 2245              		.size	sdc_lld_write_aligned, .-sdc_lld_write_aligned
 2246              		.section	.text.sdc_lld_read,"ax",%progbits
 2247              		.align	1
 2248              		.p2align 4,,15
 2249              		.global	sdc_lld_read
 2250              		.syntax unified
 2251              		.thumb
 2252              		.thumb_func
 2253              		.fpu fpv4-sp-d16
 2254              		.type	sdc_lld_read, %function
 2255              	sdc_lld_read:
 2256              	.LFB277:
 2257              		.loc 1 802 0
 2258              		.cfi_startproc
 2259              		@ args = 0, pretend = 0, frame = 8
 2260              		@ frame_needed = 0, uses_anonymous_args = 0
 2261              	.LVL198:
 2262 0000 2DE9F043 		push	{r4, r5, r6, r7, r8, r9, lr}
 2263              		.cfi_def_cfa_offset 28
 2264              		.cfi_offset 4, -28
 2265              		.cfi_offset 5, -24
 2266              		.cfi_offset 6, -20
 2267              		.cfi_offset 7, -16
 2268              		.cfi_offset 8, -12
 2269              		.cfi_offset 9, -8
 2270              		.cfi_offset 14, -4
 2271 0004 DFF87490 		ldr	r9, .L237+4
 2272 0008 83B0     		sub	sp, sp, #12
 2273              		.cfi_def_cfa_offset 40
 2274              		.loc 1 802 0
 2275 000a D9F80040 		ldr	r4, [r9]
 2276 000e 0194     		str	r4, [sp, #4]
 2277              		.loc 1 805 0
 2278 0010 9407     		lsls	r4, r2, #30
 2279 0012 24D0     		beq	.L226
 2280              	.LVL199:
ARM GAS  C:\Users\osour\AppData\Local\Temp\ccoG6iAC.s 			page 41


 2281 0014 1F46     		mov	r7, r3
 2282              	.LBB228:
 2283              		.loc 1 807 0
 2284 0016 03B3     		cbz	r3, .L230
 2285 0018 1546     		mov	r5, r2
 2286 001a 8046     		mov	r8, r0
 2287 001c 0C46     		mov	r4, r1
 2288              		.loc 1 808 0
 2289 001e 164E     		ldr	r6, .L237
 2290 0020 0F44     		add	r7, r7, r1
 2291 0022 0AE0     		b	.L229
 2292              	.LVL200:
 2293              	.L236:
 2294              		.loc 1 810 0 discriminator 2
 2295 0024 2846     		mov	r0, r5
 2296              		.loc 1 812 0 discriminator 2
 2297 0026 0134     		adds	r4, r4, #1
 2298              	.LVL201:
 2299              		.loc 1 810 0 discriminator 2
 2300 0028 4FF40072 		mov	r2, #512
 2301 002c 3146     		mov	r1, r6
 2302 002e FFF7FEFF 		bl	memcpy
 2303              	.LVL202:
 2304              		.loc 1 807 0 discriminator 2
 2305 0032 BC42     		cmp	r4, r7
 2306              		.loc 1 811 0 discriminator 2
 2307 0034 05F50075 		add	r5, r5, #512
 2308              	.LVL203:
 2309              		.loc 1 807 0 discriminator 2
 2310 0038 0FD0     		beq	.L230
 2311              	.LVL204:
 2312              	.L229:
 2313              		.loc 1 808 0
 2314 003a 0123     		movs	r3, #1
 2315 003c 3246     		mov	r2, r6
 2316 003e 2146     		mov	r1, r4
 2317 0040 4046     		mov	r0, r8
 2318 0042 FFF7FEFF 		bl	sdc_lld_read_aligned
 2319              	.LVL205:
 2320 0046 0028     		cmp	r0, #0
 2321 0048 ECD0     		beq	.L236
 2322              	.LVL206:
 2323              	.L228:
 2324              	.LBE228:
 2325              		.loc 1 818 0
 2326 004a 019A     		ldr	r2, [sp, #4]
 2327 004c D9F80030 		ldr	r3, [r9]
 2328 0050 9A42     		cmp	r2, r3
 2329 0052 0ED1     		bne	.L235
 2330 0054 03B0     		add	sp, sp, #12
 2331              		.cfi_remember_state
 2332              		.cfi_def_cfa_offset 28
 2333              		@ sp needed
 2334 0056 BDE8F083 		pop	{r4, r5, r6, r7, r8, r9, pc}
 2335              	.L230:
 2336              		.cfi_restore_state
 2337              	.LBB229:
ARM GAS  C:\Users\osour\AppData\Local\Temp\ccoG6iAC.s 			page 42


 2338              		.loc 1 814 0
 2339 005a 0020     		movs	r0, #0
 2340 005c F5E7     		b	.L228
 2341              	.LVL207:
 2342              	.L226:
 2343              	.LBE229:
 2344              		.loc 1 817 0
 2345 005e 019D     		ldr	r5, [sp, #4]
 2346 0060 D9F80040 		ldr	r4, [r9]
 2347 0064 A542     		cmp	r5, r4
 2348 0066 04D1     		bne	.L235
 2349              		.loc 1 818 0
 2350 0068 03B0     		add	sp, sp, #12
 2351              		.cfi_remember_state
 2352              		.cfi_def_cfa_offset 28
 2353              		@ sp needed
 2354 006a BDE8F043 		pop	{r4, r5, r6, r7, r8, r9, lr}
 2355              		.cfi_restore 14
 2356              		.cfi_restore 9
 2357              		.cfi_restore 8
 2358              		.cfi_restore 7
 2359              		.cfi_restore 6
 2360              		.cfi_restore 5
 2361              		.cfi_restore 4
 2362              		.cfi_def_cfa_offset 0
 2363              		.loc 1 817 0
 2364 006e FFF7FEBF 		b	sdc_lld_read_aligned
 2365              	.LVL208:
 2366              	.L235:
 2367              		.cfi_restore_state
 2368              		.loc 1 818 0
 2369 0072 FFF7FEFF 		bl	__stack_chk_fail
 2370              	.LVL209:
 2371              	.L238:
 2372 0076 00BF     		.align	2
 2373              	.L237:
 2374 0078 00000000 		.word	.LANCHOR7
 2375 007c 00000000 		.word	__stack_chk_guard
 2376              		.cfi_endproc
 2377              	.LFE277:
 2378              		.size	sdc_lld_read, .-sdc_lld_read
 2379              		.section	.text.sdc_lld_write,"ax",%progbits
 2380              		.align	1
 2381              		.p2align 4,,15
 2382              		.global	sdc_lld_write
 2383              		.syntax unified
 2384              		.thumb
 2385              		.thumb_func
 2386              		.fpu fpv4-sp-d16
 2387              		.type	sdc_lld_write, %function
 2388              	sdc_lld_write:
 2389              	.LFB278:
 2390              		.loc 1 835 0
 2391              		.cfi_startproc
 2392              		@ args = 0, pretend = 0, frame = 8
 2393              		@ frame_needed = 0, uses_anonymous_args = 0
 2394              	.LVL210:
ARM GAS  C:\Users\osour\AppData\Local\Temp\ccoG6iAC.s 			page 43


 2395 0000 2DE9F043 		push	{r4, r5, r6, r7, r8, r9, lr}
 2396              		.cfi_def_cfa_offset 28
 2397              		.cfi_offset 4, -28
 2398              		.cfi_offset 5, -24
 2399              		.cfi_offset 6, -20
 2400              		.cfi_offset 7, -16
 2401              		.cfi_offset 8, -12
 2402              		.cfi_offset 9, -8
 2403              		.cfi_offset 14, -4
 2404 0004 DFF87490 		ldr	r9, .L251+4
 2405 0008 83B0     		sub	sp, sp, #12
 2406              		.cfi_def_cfa_offset 40
 2407              		.loc 1 835 0
 2408 000a D9F80040 		ldr	r4, [r9]
 2409 000e 0194     		str	r4, [sp, #4]
 2410              		.loc 1 838 0
 2411 0010 9407     		lsls	r4, r2, #30
 2412 0012 24D0     		beq	.L240
 2413              	.LVL211:
 2414 0014 1F46     		mov	r7, r3
 2415              	.LBB230:
 2416              		.loc 1 840 0
 2417 0016 03B3     		cbz	r3, .L244
 2418 0018 1546     		mov	r5, r2
 2419 001a 8046     		mov	r8, r0
 2420 001c 0C46     		mov	r4, r1
 2421              		.loc 1 841 0
 2422 001e 164E     		ldr	r6, .L251
 2423 0020 0F44     		add	r7, r7, r1
 2424 0022 02E0     		b	.L243
 2425              	.LVL212:
 2426              	.L250:
 2427              		.loc 1 845 0 discriminator 2
 2428 0024 0134     		adds	r4, r4, #1
 2429              	.LVL213:
 2430              		.loc 1 840 0 discriminator 2
 2431 0026 BC42     		cmp	r4, r7
 2432 0028 17D0     		beq	.L244
 2433              	.LVL214:
 2434              	.L243:
 2435              		.loc 1 841 0
 2436 002a 2946     		mov	r1, r5
 2437 002c 4FF40072 		mov	r2, #512
 2438 0030 3046     		mov	r0, r6
 2439 0032 FFF7FEFF 		bl	memcpy
 2440              	.LVL215:
 2441              		.loc 1 843 0
 2442 0036 0123     		movs	r3, #1
 2443 0038 3246     		mov	r2, r6
 2444 003a 2146     		mov	r1, r4
 2445 003c 4046     		mov	r0, r8
 2446 003e FFF7FEFF 		bl	sdc_lld_write_aligned
 2447              	.LVL216:
 2448              		.loc 1 842 0
 2449 0042 05F50075 		add	r5, r5, #512
 2450              	.LVL217:
 2451              		.loc 1 843 0
ARM GAS  C:\Users\osour\AppData\Local\Temp\ccoG6iAC.s 			page 44


 2452 0046 0028     		cmp	r0, #0
 2453 0048 ECD0     		beq	.L250
 2454              	.LVL218:
 2455              	.L242:
 2456              	.LBE230:
 2457              		.loc 1 851 0
 2458 004a 019A     		ldr	r2, [sp, #4]
 2459 004c D9F80030 		ldr	r3, [r9]
 2460 0050 9A42     		cmp	r2, r3
 2461 0052 0ED1     		bne	.L249
 2462 0054 03B0     		add	sp, sp, #12
 2463              		.cfi_remember_state
 2464              		.cfi_def_cfa_offset 28
 2465              		@ sp needed
 2466 0056 BDE8F083 		pop	{r4, r5, r6, r7, r8, r9, pc}
 2467              	.L244:
 2468              		.cfi_restore_state
 2469              	.LBB231:
 2470              		.loc 1 847 0
 2471 005a 0020     		movs	r0, #0
 2472 005c F5E7     		b	.L242
 2473              	.LVL219:
 2474              	.L240:
 2475              	.LBE231:
 2476              		.loc 1 850 0
 2477 005e 019D     		ldr	r5, [sp, #4]
 2478 0060 D9F80040 		ldr	r4, [r9]
 2479 0064 A542     		cmp	r5, r4
 2480 0066 04D1     		bne	.L249
 2481              		.loc 1 851 0
 2482 0068 03B0     		add	sp, sp, #12
 2483              		.cfi_remember_state
 2484              		.cfi_def_cfa_offset 28
 2485              		@ sp needed
 2486 006a BDE8F043 		pop	{r4, r5, r6, r7, r8, r9, lr}
 2487              		.cfi_restore 14
 2488              		.cfi_restore 9
 2489              		.cfi_restore 8
 2490              		.cfi_restore 7
 2491              		.cfi_restore 6
 2492              		.cfi_restore 5
 2493              		.cfi_restore 4
 2494              		.cfi_def_cfa_offset 0
 2495              		.loc 1 850 0
 2496 006e FFF7FEBF 		b	sdc_lld_write_aligned
 2497              	.LVL220:
 2498              	.L249:
 2499              		.cfi_restore_state
 2500              		.loc 1 851 0
 2501 0072 FFF7FEFF 		bl	__stack_chk_fail
 2502              	.LVL221:
 2503              	.L252:
 2504 0076 00BF     		.align	2
 2505              	.L251:
 2506 0078 00000000 		.word	.LANCHOR7
 2507 007c 00000000 		.word	__stack_chk_guard
 2508              		.cfi_endproc
ARM GAS  C:\Users\osour\AppData\Local\Temp\ccoG6iAC.s 			page 45


 2509              	.LFE278:
 2510              		.size	sdc_lld_write, .-sdc_lld_write
 2511              		.section	.text.sdc_lld_sync,"ax",%progbits
 2512              		.align	1
 2513              		.p2align 4,,15
 2514              		.global	sdc_lld_sync
 2515              		.syntax unified
 2516              		.thumb
 2517              		.thumb_func
 2518              		.fpu fpv4-sp-d16
 2519              		.type	sdc_lld_sync, %function
 2520              	sdc_lld_sync:
 2521              	.LFB279:
 2522              		.loc 1 864 0
 2523              		.cfi_startproc
 2524              		@ args = 0, pretend = 0, frame = 8
 2525              		@ frame_needed = 0, uses_anonymous_args = 0
 2526              	.LVL222:
 2527 0000 00B5     		push	{lr}
 2528              		.cfi_def_cfa_offset 4
 2529              		.cfi_offset 14, -4
 2530 0002 074B     		ldr	r3, .L257
 2531 0004 83B0     		sub	sp, sp, #12
 2532              		.cfi_def_cfa_offset 16
 2533              		.loc 1 864 0
 2534 0006 1A68     		ldr	r2, [r3]
 2535 0008 0192     		str	r2, [sp, #4]
 2536              		.loc 1 869 0
 2537 000a 019A     		ldr	r2, [sp, #4]
 2538 000c 1B68     		ldr	r3, [r3]
 2539 000e 9A42     		cmp	r2, r3
 2540 0010 03D1     		bne	.L256
 2541 0012 0020     		movs	r0, #0
 2542              	.LVL223:
 2543 0014 03B0     		add	sp, sp, #12
 2544              		.cfi_remember_state
 2545              		.cfi_def_cfa_offset 4
 2546              		@ sp needed
 2547 0016 5DF804FB 		ldr	pc, [sp], #4
 2548              	.LVL224:
 2549              	.L256:
 2550              		.cfi_restore_state
 2551 001a FFF7FEFF 		bl	__stack_chk_fail
 2552              	.LVL225:
 2553              	.L258:
 2554 001e 00BF     		.align	2
 2555              	.L257:
 2556 0020 00000000 		.word	__stack_chk_guard
 2557              		.cfi_endproc
 2558              	.LFE279:
 2559              		.size	sdc_lld_sync, .-sdc_lld_sync
 2560              		.global	SDCD1
 2561              		.section	.bss.SDCD1,"aw",%nobits
 2562              		.align	2
 2563              		.set	.LANCHOR0,. + 0
 2564              		.type	SDCD1, %object
 2565              		.size	SDCD1, 76
ARM GAS  C:\Users\osour\AppData\Local\Temp\ccoG6iAC.s 			page 46


 2566              	SDCD1:
 2567 0000 00000000 		.space	76
 2567      00000000 
 2567      00000000 
 2567      00000000 
 2567      00000000 
 2568              		.section	.bss.u,"aw",%nobits
 2569              		.align	2
 2570              		.set	.LANCHOR7,. + 0
 2571              		.type	u, %object
 2572              		.size	u, 512
 2573              	u:
 2574 0000 00000000 		.space	512
 2574      00000000 
 2574      00000000 
 2574      00000000 
 2574      00000000 
 2575              		.section	.rodata.__func__.10251,"a",%progbits
 2576              		.align	2
 2577              		.set	.LANCHOR4,. + 0
 2578              		.type	__func__.10251, %object
 2579              		.size	__func__.10251, 27
 2580              	__func__.10251:
 2581 0000 7364635F 		.ascii	"sdc_lld_prepare_read_bytes\000"
 2581      6C6C645F 
 2581      70726570 
 2581      6172655F 
 2581      72656164 
 2582              		.section	.rodata.__func__.10296,"a",%progbits
 2583              		.align	2
 2584              		.set	.LANCHOR2,. + 0
 2585              		.type	__func__.10296, %object
 2586              		.size	__func__.10296, 14
 2587              	__func__.10296:
 2588 0000 7364635F 		.ascii	"sdc_lld_start\000"
 2588      6C6C645F 
 2588      73746172 
 2588      7400
 2589              		.section	.rodata.__func__.10373,"a",%progbits
 2590              		.align	2
 2591              		.set	.LANCHOR5,. + 0
 2592              		.type	__func__.10373, %object
 2593              		.size	__func__.10373, 21
 2594              	__func__.10373:
 2595 0000 7364635F 		.ascii	"sdc_lld_read_aligned\000"
 2595      6C6C645F 
 2595      72656164 
 2595      5F616C69 
 2595      676E6564 
 2596              		.section	.rodata.__func__.10382,"a",%progbits
 2597              		.align	2
 2598              		.set	.LANCHOR6,. + 0
 2599              		.type	__func__.10382, %object
 2600              		.size	__func__.10382, 22
 2601              	__func__.10382:
 2602 0000 7364635F 		.ascii	"sdc_lld_write_aligned\000"
 2602      6C6C645F 
ARM GAS  C:\Users\osour\AppData\Local\Temp\ccoG6iAC.s 			page 47


 2602      77726974 
 2602      655F616C 
 2602      69676E65 
 2603              		.section	.rodata.__func__.7554,"a",%progbits
 2604              		.align	2
 2605              		.set	.LANCHOR3,. + 0
 2606              		.type	__func__.7554, %object
 2607              		.size	__func__.7554, 12
 2608              	__func__.7554:
 2609 0000 63685379 		.ascii	"chSysUnlock\000"
 2609      73556E6C 
 2609      6F636B00 
 2610              		.section	.rodata.sdc_default_cfg,"a",%progbits
 2611              		.align	2
 2612              		.set	.LANCHOR1,. + 0
 2613              		.type	sdc_default_cfg, %object
 2614              		.size	sdc_default_cfg, 8
 2615              	sdc_default_cfg:
 2616 0000 00000000 		.word	0
 2617 0004 01       		.byte	1
 2618 0005 000000   		.space	3
 2619              		.text
 2620              	.Letext0:
 2621              		.file 5 "c:\\users\\osour\\desktop\\robotique\\eclipse_e-puck2\\tools\\gcc-arm-none-eabi-7-2017-q4
 2622              		.file 6 "c:\\users\\osour\\desktop\\robotique\\eclipse_e-puck2\\tools\\gcc-arm-none-eabi-7-2017-q4
 2623              		.file 7 "c:\\users\\osour\\desktop\\robotique\\eclipse_e-puck2\\tools\\gcc-arm-none-eabi-7-2017-q4
 2624              		.file 8 "c:\\users\\osour\\desktop\\robotique\\eclipse_e-puck2\\tools\\gcc-arm-none-eabi-7-2017-q4
 2625              		.file 9 "c:\\users\\osour\\desktop\\robotique\\eclipse_e-puck2\\tools\\gcc-arm-none-eabi-7-2017-q4
 2626              		.file 10 "c:\\users\\osour\\desktop\\robotique\\eclipse_e-puck2\\tools\\gcc-arm-none-eabi-7-2017-q
 2627              		.file 11 "../../lib/e-puck2_main-processor/ChibiOS//os/rt/ports/ARMCMx/compilers/GCC/chtypes.h"
 2628              		.file 12 "../../lib/e-puck2_main-processor/ChibiOS//os/rt/include/chsystypes.h"
 2629              		.file 13 "../../lib/e-puck2_main-processor/ChibiOS//os/rt/include/chschd.h"
 2630              		.file 14 "../../lib/e-puck2_main-processor/ChibiOS//os/ext/CMSIS/include/core_cm4.h"
 2631              		.file 15 "../../lib/e-puck2_main-processor/ChibiOS//os/ext/CMSIS/ST/system_stm32f4xx.h"
 2632              		.file 16 "../../lib/e-puck2_main-processor/ChibiOS//os/ext/CMSIS/ST/stm32f407xx.h"
 2633              		.file 17 "../../lib/e-puck2_main-processor/ChibiOS//os/rt/ports/ARMCMx/chcore.h"
 2634              		.file 18 "../../lib/e-puck2_main-processor/ChibiOS//os/rt/ports/ARMCMx/chcore_v7m.h"
 2635              		.file 19 "../../lib/e-puck2_main-processor/ChibiOS//os/rt/include/chdebug.h"
 2636              		.file 20 "../../lib/e-puck2_main-processor/ChibiOS//os/rt/include/chtm.h"
 2637              		.file 21 "../../lib/e-puck2_main-processor/ChibiOS//os/rt/include/chstats.h"
 2638              		.file 22 "../../lib/e-puck2_main-processor/ChibiOS//os/rt/include/chsem.h"
 2639              		.file 23 "../../lib/e-puck2_main-processor/ChibiOS//os/rt/include/chmtx.h"
 2640              		.file 24 "../../lib/e-puck2_main-processor/ChibiOS//os/rt/include/chregistry.h"
 2641              		.file 25 "../../lib/e-puck2_main-processor/ChibiOS//os/rt/include/chevents.h"
 2642              		.file 26 "../../lib/e-puck2_main-processor/ChibiOS//os/rt/include/chqueues.h"
 2643              		.file 27 "../../lib/e-puck2_main-processor/ChibiOS//os/hal/ports/STM32/STM32F4xx/stm32_dma.h"
 2644              		.file 28 "../../lib/e-puck2_main-processor/ChibiOS//os/hal/include/hal_ioblock.h"
 2645              		.file 29 "../../lib/e-puck2_main-processor/ChibiOS//os/hal/ports/STM32/LLD/GPIOv2/pal_lld.h"
 2646              		.file 30 "../../lib/e-puck2_main-processor/ChibiOS//os/hal/include/adc.h"
 2647              		.file 31 "../../lib/e-puck2_main-processor/ChibiOS//os/hal/ports/STM32/STM32F4xx/adc_lld.h"
 2648              		.file 32 "../../lib/e-puck2_main-processor/ChibiOS//os/hal/include/can.h"
 2649              		.file 33 "../../lib/e-puck2_main-processor/ChibiOS//os/hal/ports/STM32/LLD/can_lld.h"
 2650              		.file 34 "../../lib/e-puck2_main-processor/ChibiOS//os/hal/include/dac.h"
 2651              		.file 35 "../../lib/e-puck2_main-processor/ChibiOS//os/hal/ports/STM32/LLD/DACv1/dac_lld.h"
 2652              		.file 36 "../../lib/e-puck2_main-processor/ChibiOS//os/hal/include/ext.h"
 2653              		.file 37 "../../lib/e-puck2_main-processor/ChibiOS//os/hal/ports/STM32/LLD/ext_lld.h"
 2654              		.file 38 "../../lib/e-puck2_main-processor/ChibiOS//os/hal/include/gpt.h"
ARM GAS  C:\Users\osour\AppData\Local\Temp\ccoG6iAC.s 			page 48


 2655              		.file 39 "../../lib/e-puck2_main-processor/ChibiOS//os/hal/ports/STM32/LLD/TIMv1/gpt_lld.h"
 2656              		.file 40 "../../lib/e-puck2_main-processor/ChibiOS//os/hal/ports/STM32/LLD/TIMv1/stm32_tim.h"
 2657              		.file 41 "../../lib/e-puck2_main-processor/ChibiOS//os/hal/include/i2c.h"
 2658              		.file 42 "../../lib/e-puck2_main-processor/ChibiOS//os/hal/ports/STM32/LLD/I2Cv1/i2c_lld.h"
 2659              		.file 43 "../../lib/e-puck2_main-processor/ChibiOS//os/hal/include/i2s.h"
 2660              		.file 44 "../../lib/e-puck2_main-processor/ChibiOS//os/hal/ports/STM32/LLD/SPIv1/i2s_lld.h"
 2661              		.file 45 "../../lib/e-puck2_main-processor/ChibiOS//os/hal/include/pwm.h"
 2662              		.file 46 "../../lib/e-puck2_main-processor/ChibiOS//os/hal/ports/STM32/LLD/TIMv1/pwm_lld.h"
 2663              		.file 47 "../../lib/e-puck2_main-processor/ChibiOS//os/hal/include/serial.h"
 2664              		.file 48 "../../lib/e-puck2_main-processor/ChibiOS//os/hal/ports/STM32/LLD/USARTv1/serial_lld.h"
 2665              		.file 49 "../../lib/e-puck2_main-processor/ChibiOS//os/hal/include/sdc.h"
 2666              		.file 50 "../../lib/e-puck2_main-processor/ChibiOS//os/hal/ports/STM32/LLD/sdc_lld.h"
 2667              		.file 51 "../../lib/e-puck2_main-processor/ChibiOS//os/hal/include/spi.h"
 2668              		.file 52 "../../lib/e-puck2_main-processor/ChibiOS//os/hal/ports/STM32/LLD/SPIv1/spi_lld.h"
 2669              		.file 53 "../../lib/e-puck2_main-processor/ChibiOS//os/hal/include/usb.h"
 2670              		.file 54 "../../lib/e-puck2_main-processor/ChibiOS//os/hal/ports/STM32/LLD/OTGv1/usb_lld.h"
 2671              		.file 55 "../../lib/e-puck2_main-processor/ChibiOS//os/hal/ports/STM32/LLD/OTGv1/stm32_otg.h"
 2672              		.file 56 "../../lib/e-puck2_main-processor/ChibiOS//os/rt/include/chthreads.h"
 2673              		.file 57 "../../lib/e-puck2_main-processor/ChibiOS//os/hal/ports/common/ARMCMx/nvic.h"
 2674              		.file 58 "<built-in>"