ARM GAS  C:\Users\osour\AppData\Local\Temp\ccWjqRe9.s 			page 1


   1              		.cpu cortex-m4
   2              		.eabi_attribute 27, 1
   3              		.eabi_attribute 28, 1
   4              		.eabi_attribute 20, 1
   5              		.eabi_attribute 21, 1
   6              		.eabi_attribute 23, 3
   7              		.eabi_attribute 24, 1
   8              		.eabi_attribute 25, 1
   9              		.eabi_attribute 26, 1
  10              		.eabi_attribute 30, 2
  11              		.eabi_attribute 34, 1
  12              		.eabi_attribute 18, 4
  13              		.file	"sdio.c"
  14              		.text
  15              	.Ltext0:
  16              		.cfi_sections	.debug_frame
  17              		.section	.text.sdio_start,"ax",%progbits
  18              		.align	1
  19              		.p2align 4,,15
  20              		.global	sdio_start
  21              		.syntax unified
  22              		.thumb
  23              		.thumb_func
  24              		.fpu fpv4-sp-d16
  25              		.type	sdio_start, %function
  26              	sdio_start:
  27              	.LFB256:
  28              		.file 1 "../../lib/e-puck2_main-processor/src/sdio.c"
  29              		.loc 1 6 0
  30              		.cfi_startproc
  31              		@ args = 0, pretend = 0, frame = 8
  32              		@ frame_needed = 0, uses_anonymous_args = 0
  33 0000 00B5     		push	{lr}
  34              		.cfi_def_cfa_offset 4
  35              		.cfi_offset 14, -4
  36 0002 084B     		ldr	r3, .L7
  37 0004 83B0     		sub	sp, sp, #12
  38              		.cfi_def_cfa_offset 16
  39              		.loc 1 6 0
  40 0006 1A68     		ldr	r2, [r3]
  41 0008 0192     		str	r2, [sp, #4]
  42              		.loc 1 12 0
  43 000a 019A     		ldr	r2, [sp, #4]
  44 000c 1B68     		ldr	r3, [r3]
  45 000e 9A42     		cmp	r2, r3
  46 0010 06D1     		bne	.L6
  47 0012 0549     		ldr	r1, .L7+4
  48 0014 0548     		ldr	r0, .L7+8
  49              		.loc 1 13 0
  50 0016 03B0     		add	sp, sp, #12
  51              		.cfi_remember_state
  52              		.cfi_def_cfa_offset 4
  53              		@ sp needed
  54 0018 5DF804EB 		ldr	lr, [sp], #4
  55              		.cfi_restore 14
  56              		.cfi_def_cfa_offset 0
  57              		.loc 1 12 0
ARM GAS  C:\Users\osour\AppData\Local\Temp\ccWjqRe9.s 			page 2


  58 001c FFF7FEBF 		b	sdcStart
  59              	.LVL0:
  60              	.L6:
  61              		.cfi_restore_state
  62 0020 FFF7FEFF 		bl	__stack_chk_fail
  63              	.LVL1:
  64              	.L8:
  65              		.align	2
  66              	.L7:
  67 0024 00000000 		.word	__stack_chk_guard
  68 0028 00000000 		.word	.LANCHOR0
  69 002c 00000000 		.word	SDCD1
  70              		.cfi_endproc
  71              	.LFE256:
  72              		.size	sdio_start, .-sdio_start
  73              		.section	.text.sdio_is_present,"ax",%progbits
  74              		.align	1
  75              		.p2align 4,,15
  76              		.global	sdio_is_present
  77              		.syntax unified
  78              		.thumb
  79              		.thumb_func
  80              		.fpu fpv4-sp-d16
  81              		.type	sdio_is_present, %function
  82              	sdio_is_present:
  83              	.LFB257:
  84              		.loc 1 15 0
  85              		.cfi_startproc
  86              		@ args = 0, pretend = 0, frame = 8
  87              		@ frame_needed = 0, uses_anonymous_args = 0
  88 0000 00B5     		push	{lr}
  89              		.cfi_def_cfa_offset 4
  90              		.cfi_offset 14, -4
  91 0002 084B     		ldr	r3, .L14
  92 0004 83B0     		sub	sp, sp, #12
  93              		.cfi_def_cfa_offset 16
  94              		.loc 1 15 0
  95 0006 1A68     		ldr	r2, [r3]
  96 0008 0192     		str	r2, [sp, #4]
  97              		.loc 1 16 0
  98 000a 019A     		ldr	r2, [sp, #4]
  99 000c 1B68     		ldr	r3, [r3]
 100 000e 9A42     		cmp	r2, r3
 101 0010 06D1     		bne	.L13
 102 0012 0548     		ldr	r0, .L14+4
 103 0014 0368     		ldr	r3, [r0]
 104 0016 1B68     		ldr	r3, [r3]
 105              		.loc 1 17 0
 106 0018 03B0     		add	sp, sp, #12
 107              		.cfi_remember_state
 108              		.cfi_def_cfa_offset 4
 109              		@ sp needed
 110 001a 5DF804EB 		ldr	lr, [sp], #4
 111              		.cfi_restore 14
 112              		.cfi_def_cfa_offset 0
 113              		.loc 1 16 0
 114 001e 1847     		bx	r3
ARM GAS  C:\Users\osour\AppData\Local\Temp\ccWjqRe9.s 			page 3


 115              	.LVL2:
 116              	.L13:
 117              		.cfi_restore_state
 118 0020 FFF7FEFF 		bl	__stack_chk_fail
 119              	.LVL3:
 120              	.L15:
 121              		.align	2
 122              	.L14:
 123 0024 00000000 		.word	__stack_chk_guard
 124 0028 00000000 		.word	SDCD1
 125              		.cfi_endproc
 126              	.LFE257:
 127              		.size	sdio_is_present, .-sdio_is_present
 128              		.section	.text.sdio_connect,"ax",%progbits
 129              		.align	1
 130              		.p2align 4,,15
 131              		.global	sdio_connect
 132              		.syntax unified
 133              		.thumb
 134              		.thumb_func
 135              		.fpu fpv4-sp-d16
 136              		.type	sdio_connect, %function
 137              	sdio_connect:
 138              	.LFB258:
 139              		.loc 1 19 0
 140              		.cfi_startproc
 141              		@ args = 0, pretend = 0, frame = 8
 142              		@ frame_needed = 0, uses_anonymous_args = 0
 143 0000 30B5     		push	{r4, r5, lr}
 144              		.cfi_def_cfa_offset 12
 145              		.cfi_offset 4, -12
 146              		.cfi_offset 5, -8
 147              		.cfi_offset 14, -4
 148              		.loc 1 20 0
 149 0002 0C4D     		ldr	r5, .L24
 150              		.loc 1 19 0
 151 0004 0C4C     		ldr	r4, .L24+4
 152              		.loc 1 20 0
 153 0006 2B78     		ldrb	r3, [r5]	@ zero_extendqisi2
 154              		.loc 1 19 0
 155 0008 2268     		ldr	r2, [r4]
 156 000a 83B0     		sub	sp, sp, #12
 157              		.cfi_def_cfa_offset 24
 158              		.loc 1 19 0
 159 000c 0192     		str	r2, [sp, #4]
 160              		.loc 1 20 0
 161 000e 33B1     		cbz	r3, .L22
 162              		.loc 1 27 0
 163 0010 0020     		movs	r0, #0
 164              	.L17:
 165              		.loc 1 28 0
 166 0012 019A     		ldr	r2, [sp, #4]
 167 0014 2368     		ldr	r3, [r4]
 168 0016 9A42     		cmp	r2, r3
 169 0018 0AD1     		bne	.L23
 170 001a 03B0     		add	sp, sp, #12
 171              		.cfi_remember_state
ARM GAS  C:\Users\osour\AppData\Local\Temp\ccWjqRe9.s 			page 4


 172              		.cfi_def_cfa_offset 12
 173              		@ sp needed
 174 001c 30BD     		pop	{r4, r5, pc}
 175              	.L22:
 176              		.cfi_restore_state
 177              		.loc 1 21 0
 178 001e 0748     		ldr	r0, .L24+8
 179 0020 FFF7FEFF 		bl	sdcConnect
 180              	.LVL4:
 181 0024 10B9     		cbnz	r0, .L20
 182              		.loc 1 22 0
 183 0026 0123     		movs	r3, #1
 184 0028 2B70     		strb	r3, [r5]
 185 002a F2E7     		b	.L17
 186              	.L20:
 187              		.loc 1 24 0
 188 002c 0120     		movs	r0, #1
 189 002e F0E7     		b	.L17
 190              	.L23:
 191              		.loc 1 28 0
 192 0030 FFF7FEFF 		bl	__stack_chk_fail
 193              	.LVL5:
 194              	.L25:
 195              		.align	2
 196              	.L24:
 197 0034 00000000 		.word	.LANCHOR1
 198 0038 00000000 		.word	__stack_chk_guard
 199 003c 00000000 		.word	SDCD1
 200              		.cfi_endproc
 201              	.LFE258:
 202              		.size	sdio_connect, .-sdio_connect
 203              		.section	.text.sdio_disconnect,"ax",%progbits
 204              		.align	1
 205              		.p2align 4,,15
 206              		.global	sdio_disconnect
 207              		.syntax unified
 208              		.thumb
 209              		.thumb_func
 210              		.fpu fpv4-sp-d16
 211              		.type	sdio_disconnect, %function
 212              	sdio_disconnect:
 213              	.LFB259:
 214              		.loc 1 30 0
 215              		.cfi_startproc
 216              		@ args = 0, pretend = 0, frame = 8
 217              		@ frame_needed = 0, uses_anonymous_args = 0
 218 0000 30B5     		push	{r4, r5, lr}
 219              		.cfi_def_cfa_offset 12
 220              		.cfi_offset 4, -12
 221              		.cfi_offset 5, -8
 222              		.cfi_offset 14, -4
 223              		.loc 1 31 0
 224 0002 0B4D     		ldr	r5, .L34
 225              		.loc 1 30 0
 226 0004 0B4C     		ldr	r4, .L34+4
 227              		.loc 1 31 0
 228 0006 2878     		ldrb	r0, [r5]	@ zero_extendqisi2
ARM GAS  C:\Users\osour\AppData\Local\Temp\ccWjqRe9.s 			page 5


 229              		.loc 1 30 0
 230 0008 2368     		ldr	r3, [r4]
 231 000a 83B0     		sub	sp, sp, #12
 232              		.cfi_def_cfa_offset 24
 233              		.loc 1 30 0
 234 000c 0193     		str	r3, [sp, #4]
 235              		.loc 1 31 0
 236 000e 28B9     		cbnz	r0, .L32
 237              	.L27:
 238              		.loc 1 40 0
 239 0010 019A     		ldr	r2, [sp, #4]
 240 0012 2368     		ldr	r3, [r4]
 241 0014 9A42     		cmp	r2, r3
 242 0016 09D1     		bne	.L33
 243 0018 03B0     		add	sp, sp, #12
 244              		.cfi_remember_state
 245              		.cfi_def_cfa_offset 12
 246              		@ sp needed
 247 001a 30BD     		pop	{r4, r5, pc}
 248              	.L32:
 249              		.cfi_restore_state
 250              		.loc 1 32 0
 251 001c 0648     		ldr	r0, .L34+8
 252 001e FFF7FEFF 		bl	sdcDisconnect
 253              	.LVL6:
 254 0022 08B9     		cbnz	r0, .L30
 255              		.loc 1 33 0
 256 0024 2870     		strb	r0, [r5]
 257 0026 F3E7     		b	.L27
 258              	.L30:
 259              		.loc 1 35 0
 260 0028 0120     		movs	r0, #1
 261 002a F1E7     		b	.L27
 262              	.L33:
 263              		.loc 1 40 0
 264 002c FFF7FEFF 		bl	__stack_chk_fail
 265              	.LVL7:
 266              	.L35:
 267              		.align	2
 268              	.L34:
 269 0030 00000000 		.word	.LANCHOR1
 270 0034 00000000 		.word	__stack_chk_guard
 271 0038 00000000 		.word	SDCD1
 272              		.cfi_endproc
 273              	.LFE259:
 274              		.size	sdio_disconnect, .-sdio_disconnect
 275              		.section	.bss.sd_scratchpad.9851,"aw",%nobits
 276              		.align	2
 277              		.type	sd_scratchpad.9851, %object
 278              		.size	sd_scratchpad.9851, 512
 279              	sd_scratchpad.9851:
 280 0000 00000000 		.space	512
 280      00000000 
 280      00000000 
 280      00000000 
 280      00000000 
 281              		.section	.bss.sdio_connected,"aw",%nobits
ARM GAS  C:\Users\osour\AppData\Local\Temp\ccWjqRe9.s 			page 6


 282              		.set	.LANCHOR1,. + 0
 283              		.type	sdio_connected, %object
 284              		.size	sdio_connected, 1
 285              	sdio_connected:
 286 0000 00       		.space	1
 287              		.section	.rodata.sdccfg.9852,"a",%progbits
 288              		.align	2
 289              		.set	.LANCHOR0,. + 0
 290              		.type	sdccfg.9852, %object
 291              		.size	sdccfg.9852, 8
 292              	sdccfg.9852:
 293 0000 00000000 		.word	sd_scratchpad.9851
 294 0004 00       		.byte	0
 295 0005 000000   		.space	3
 296              		.text
 297              	.Letext0:
 298              		.file 2 "c:\\users\\osour\\desktop\\robotique\\eclipse_e-puck2\\tools\\gcc-arm-none-eabi-7-2017-q4
 299              		.file 3 "c:\\users\\osour\\desktop\\robotique\\eclipse_e-puck2\\tools\\gcc-arm-none-eabi-7-2017-q4
 300              		.file 4 "c:\\users\\osour\\desktop\\robotique\\eclipse_e-puck2\\tools\\gcc-arm-none-eabi-7-2017-q4
 301              		.file 5 "../../lib/e-puck2_main-processor/ChibiOS//os/rt/ports/ARMCMx/compilers/GCC/chtypes.h"
 302              		.file 6 "../../lib/e-puck2_main-processor/ChibiOS//os/rt/include/chsystypes.h"
 303              		.file 7 "../../lib/e-puck2_main-processor/ChibiOS//os/rt/include/chschd.h"
 304              		.file 8 "../../lib/e-puck2_main-processor/ChibiOS//os/ext/CMSIS/include/core_cm4.h"
 305              		.file 9 "../../lib/e-puck2_main-processor/ChibiOS//os/ext/CMSIS/ST/system_stm32f4xx.h"
 306              		.file 10 "../../lib/e-puck2_main-processor/ChibiOS//os/ext/CMSIS/ST/stm32f407xx.h"
 307              		.file 11 "../../lib/e-puck2_main-processor/ChibiOS//os/rt/ports/ARMCMx/chcore.h"
 308              		.file 12 "../../lib/e-puck2_main-processor/ChibiOS//os/rt/ports/ARMCMx/chcore_v7m.h"
 309              		.file 13 "../../lib/e-puck2_main-processor/ChibiOS//os/rt/include/chdebug.h"
 310              		.file 14 "../../lib/e-puck2_main-processor/ChibiOS//os/rt/include/chtm.h"
 311              		.file 15 "../../lib/e-puck2_main-processor/ChibiOS//os/rt/include/chstats.h"
 312              		.file 16 "../../lib/e-puck2_main-processor/ChibiOS//os/rt/include/chsem.h"
 313              		.file 17 "../../lib/e-puck2_main-processor/ChibiOS//os/rt/include/chmtx.h"
 314              		.file 18 "../../lib/e-puck2_main-processor/ChibiOS//os/rt/include/chregistry.h"
 315              		.file 19 "../../lib/e-puck2_main-processor/ChibiOS//os/rt/include/chevents.h"
 316              		.file 20 "../../lib/e-puck2_main-processor/ChibiOS//os/rt/include/chqueues.h"
 317              		.file 21 "../../lib/e-puck2_main-processor/ChibiOS//os/hal/ports/STM32/STM32F4xx/stm32_dma.h"
 318              		.file 22 "../../lib/e-puck2_main-processor/ChibiOS//os/hal/include/hal_ioblock.h"
 319              		.file 23 "../../lib/e-puck2_main-processor/ChibiOS//os/hal/ports/STM32/LLD/GPIOv2/pal_lld.h"
 320              		.file 24 "../../lib/e-puck2_main-processor/ChibiOS//os/hal/include/adc.h"
 321              		.file 25 "../../lib/e-puck2_main-processor/ChibiOS//os/hal/ports/STM32/STM32F4xx/adc_lld.h"
 322              		.file 26 "../../lib/e-puck2_main-processor/ChibiOS//os/hal/include/can.h"
 323              		.file 27 "../../lib/e-puck2_main-processor/ChibiOS//os/hal/ports/STM32/LLD/can_lld.h"
 324              		.file 28 "../../lib/e-puck2_main-processor/ChibiOS//os/hal/include/dac.h"
 325              		.file 29 "../../lib/e-puck2_main-processor/ChibiOS//os/hal/ports/STM32/LLD/DACv1/dac_lld.h"
 326              		.file 30 "../../lib/e-puck2_main-processor/ChibiOS//os/hal/include/ext.h"
 327              		.file 31 "../../lib/e-puck2_main-processor/ChibiOS//os/hal/ports/STM32/LLD/ext_lld.h"
 328              		.file 32 "../../lib/e-puck2_main-processor/ChibiOS//os/hal/include/gpt.h"
 329              		.file 33 "../../lib/e-puck2_main-processor/ChibiOS//os/hal/ports/STM32/LLD/TIMv1/gpt_lld.h"
 330              		.file 34 "../../lib/e-puck2_main-processor/ChibiOS//os/hal/ports/STM32/LLD/TIMv1/stm32_tim.h"
 331              		.file 35 "../../lib/e-puck2_main-processor/ChibiOS//os/hal/include/i2c.h"
 332              		.file 36 "../../lib/e-puck2_main-processor/ChibiOS//os/hal/ports/STM32/LLD/I2Cv1/i2c_lld.h"
 333              		.file 37 "../../lib/e-puck2_main-processor/ChibiOS//os/hal/include/i2s.h"
 334              		.file 38 "../../lib/e-puck2_main-processor/ChibiOS//os/hal/ports/STM32/LLD/SPIv1/i2s_lld.h"
 335              		.file 39 "../../lib/e-puck2_main-processor/ChibiOS//os/hal/include/pwm.h"
 336              		.file 40 "../../lib/e-puck2_main-processor/ChibiOS//os/hal/ports/STM32/LLD/TIMv1/pwm_lld.h"
 337              		.file 41 "../../lib/e-puck2_main-processor/ChibiOS//os/hal/include/serial.h"
 338              		.file 42 "../../lib/e-puck2_main-processor/ChibiOS//os/hal/ports/STM32/LLD/USARTv1/serial_lld.h"
ARM GAS  C:\Users\osour\AppData\Local\Temp\ccWjqRe9.s 			page 7


 339              		.file 43 "../../lib/e-puck2_main-processor/ChibiOS//os/hal/include/sdc.h"
 340              		.file 44 "../../lib/e-puck2_main-processor/ChibiOS//os/hal/ports/STM32/LLD/sdc_lld.h"
 341              		.file 45 "../../lib/e-puck2_main-processor/ChibiOS//os/hal/include/spi.h"
 342              		.file 46 "../../lib/e-puck2_main-processor/ChibiOS//os/hal/ports/STM32/LLD/SPIv1/spi_lld.h"
 343              		.file 47 "../../lib/e-puck2_main-processor/ChibiOS//os/hal/include/usb.h"
 344              		.file 48 "../../lib/e-puck2_main-processor/ChibiOS//os/hal/ports/STM32/LLD/OTGv1/usb_lld.h"
 345              		.file 49 "../../lib/e-puck2_main-processor/ChibiOS//os/hal/ports/STM32/LLD/OTGv1/stm32_otg.h"