ARM GAS  C:\Users\osour\AppData\Local\Temp\cc548Cuz.s 			page 1


   1              		.cpu cortex-m4
   2              		.eabi_attribute 27, 1
   3              		.eabi_attribute 28, 1
   4              		.eabi_attribute 20, 1
   5              		.eabi_attribute 21, 1
   6              		.eabi_attribute 23, 3
   7              		.eabi_attribute 24, 1
   8              		.eabi_attribute 25, 1
   9              		.eabi_attribute 26, 1
  10              		.eabi_attribute 30, 2
  11              		.eabi_attribute 34, 1
  12              		.eabi_attribute 18, 4
  13              		.file	"aseba_bridge.c"
  14              		.text
  15              	.Ltext0:
  16              		.cfi_sections	.debug_frame
  17              		.section	.text.led_thread,"ax",%progbits
  18              		.align	1
  19              		.p2align 4,,15
  20              		.syntax unified
  21              		.thumb
  22              		.thumb_func
  23              		.fpu fpv4-sp-d16
  24              		.type	led_thread, %function
  25              	led_thread:
  26              	.LFB260:
  27              		.file 1 "../../lib/e-puck2_main-processor/src/aseba_vm/aseba_bridge.c"
  28              		.loc 1 83 0
  29              		.cfi_startproc
  30              		@ Volatile: function does not return.
  31              		@ args = 0, pretend = 0, frame = 8
  32              		@ frame_needed = 0, uses_anonymous_args = 0
  33              	.LVL0:
  34 0000 00B5     		push	{lr}
  35              		.cfi_def_cfa_offset 4
  36              		.cfi_offset 14, -4
  37 0002 094B     		ldr	r3, .L6
  38              		.loc 1 86 0
  39 0004 094C     		ldr	r4, .L6+4
  40              		.loc 1 83 0
  41 0006 1B68     		ldr	r3, [r3]
  42 0008 83B0     		sub	sp, sp, #12
  43              		.cfi_def_cfa_offset 16
  44              		.loc 1 86 0
  45 000a 2025     		movs	r5, #32
  46              		.loc 1 83 0
  47 000c 0193     		str	r3, [sp, #4]
  48              		.loc 1 86 0
  49 000e 2E46     		mov	r6, r5	@ movhi
  50              	.LVL1:
  51              	.L2:
  52              		.loc 1 86 0 is_stmt 0 discriminator 1
  53 0010 2683     		strh	r6, [r4, #24]	@ movhi
  54              		.loc 1 87 0 is_stmt 1 discriminator 1
  55 0012 4FF49670 		mov	r0, #300
  56 0016 FFF7FEFF 		bl	chThdSleep
  57              	.LVL2:
ARM GAS  C:\Users\osour\AppData\Local\Temp\cc548Cuz.s 			page 2


  58              		.loc 1 88 0 discriminator 1
  59 001a 6583     		strh	r5, [r4, #26]	@ movhi
  60              		.loc 1 89 0 discriminator 1
  61 001c 4FF49670 		mov	r0, #300
  62 0020 FFF7FEFF 		bl	chThdSleep
  63              	.LVL3:
  64 0024 F4E7     		b	.L2
  65              	.L7:
  66 0026 00BF     		.align	2
  67              	.L6:
  68 0028 00000000 		.word	__stack_chk_guard
  69 002c 000C0240 		.word	1073875968
  70              		.cfi_endproc
  71              	.LFE260:
  72              		.size	led_thread, .-led_thread
  73              		.section	.text.aseba_bridge_can_to_uart,"ax",%progbits
  74              		.align	1
  75              		.p2align 4,,15
  76              		.syntax unified
  77              		.thumb
  78              		.thumb_func
  79              		.fpu fpv4-sp-d16
  80              		.type	aseba_bridge_can_to_uart, %function
  81              	aseba_bridge_can_to_uart:
  82              	.LFB259:
  83              		.loc 1 58 0
  84              		.cfi_startproc
  85              		@ args = 0, pretend = 0, frame = 536
  86              		@ frame_needed = 0, uses_anonymous_args = 0
  87              	.LVL4:
  88 0000 70B5     		push	{r4, r5, r6, lr}
  89              		.cfi_def_cfa_offset 16
  90              		.cfi_offset 4, -16
  91              		.cfi_offset 5, -12
  92              		.cfi_offset 6, -8
  93              		.cfi_offset 14, -4
  94              	.LBB6:
  95              	.LBB7:
  96              		.file 2 "../../lib/e-puck2_main-processor/ChibiOS//os/rt/include/chregistry.h"
  97              		.loc 2 135 0
  98 0002 1A4A     		ldr	r2, .L16
  99              	.LBE7:
 100              	.LBE6:
 101              		.loc 1 58 0
 102 0004 1A4B     		ldr	r3, .L16+4
 103              	.LBB10:
 104              	.LBB8:
 105              		.loc 2 135 0
 106 0006 9269     		ldr	r2, [r2, #24]
 107 0008 1A49     		ldr	r1, .L16+8
 108              	.LBE8:
 109              	.LBE10:
 110              		.loc 1 58 0
 111 000a 1B68     		ldr	r3, [r3]
 112              		.loc 1 70 0
 113 000c 1A4E     		ldr	r6, .L16+12
 114              	.LBB11:
ARM GAS  C:\Users\osour\AppData\Local\Temp\cc548Cuz.s 			page 3


 115              	.LBB9:
 116              		.loc 2 135 0
 117 000e 9161     		str	r1, [r2, #24]
 118              	.LBE9:
 119              	.LBE11:
 120              		.loc 1 58 0
 121 0010 ADF5067D 		sub	sp, sp, #536
 122              		.cfi_def_cfa_offset 552
 123              		.loc 1 58 0
 124 0014 0446     		mov	r4, r0
 125 0016 8593     		str	r3, [sp, #532]
 126              	.LVL5:
 127              	.L10:
 128              		.loc 1 65 0
 129 0018 01AA     		add	r2, sp, #4
 130 001a 40F20621 		movw	r1, #518
 131 001e 03A8     		add	r0, sp, #12
 132 0020 FFF7FEFF 		bl	AsebaCanRecv
 133              	.LVL6:
 134 0024 0346     		mov	r3, r0
 135              		.loc 1 72 0
 136 0026 851E     		subs	r5, r0, #2
 137              		.loc 1 74 0
 138 0028 02A9     		add	r1, sp, #8
 139 002a 0222     		movs	r2, #2
 140 002c 2046     		mov	r0, r4
 141              		.loc 1 65 0
 142 002e ADF80830 		strh	r3, [sp, #8]	@ movhi
 143              		.loc 1 69 0
 144 0032 B3B1     		cbz	r3, .L9
 145              	.LVL7:
 146              		.loc 1 70 0
 147 0034 7369     		ldr	r3, [r6, #20]
 148 0036 83F02003 		eor	r3, r3, #32
 149 003a 7361     		str	r3, [r6, #20]
 150              		.loc 1 74 0
 151 003c 2368     		ldr	r3, [r4]
 152              		.loc 1 72 0
 153 003e ADF80850 		strh	r5, [sp, #8]	@ movhi
 154              		.loc 1 74 0
 155 0042 1B68     		ldr	r3, [r3]
 156 0044 9847     		blx	r3
 157              	.LVL8:
 158              		.loc 1 75 0
 159 0046 2368     		ldr	r3, [r4]
 160 0048 0222     		movs	r2, #2
 161 004a 1B68     		ldr	r3, [r3]
 162 004c 01A9     		add	r1, sp, #4
 163 004e 2046     		mov	r0, r4
 164 0050 9847     		blx	r3
 165              	.LVL9:
 166              		.loc 1 76 0
 167 0052 BDF80820 		ldrh	r2, [sp, #8]
 168 0056 2368     		ldr	r3, [r4]
 169 0058 0232     		adds	r2, r2, #2
 170 005a 1B68     		ldr	r3, [r3]
 171 005c 03A9     		add	r1, sp, #12
ARM GAS  C:\Users\osour\AppData\Local\Temp\cc548Cuz.s 			page 4


 172 005e 2046     		mov	r0, r4
 173 0060 9847     		blx	r3
 174              	.LVL10:
 175              	.L9:
 176              		.loc 1 78 0
 177 0062 0120     		movs	r0, #1
 178 0064 FFF7FEFF 		bl	chThdSleep
 179              	.LVL11:
 180              		.loc 1 65 0
 181 0068 D6E7     		b	.L10
 182              	.L17:
 183 006a 00BF     		.align	2
 184              	.L16:
 185 006c 00000000 		.word	ch
 186 0070 00000000 		.word	__stack_chk_guard
 187 0074 00000000 		.word	.LC0
 188 0078 000C0240 		.word	1073875968
 189              		.cfi_endproc
 190              	.LFE259:
 191              		.size	aseba_bridge_can_to_uart, .-aseba_bridge_can_to_uart
 192              		.section	.text.aseba_bridge_uart_to_can,"ax",%progbits
 193              		.align	1
 194              		.p2align 4,,15
 195              		.syntax unified
 196              		.thumb
 197              		.thumb_func
 198              		.fpu fpv4-sp-d16
 199              		.type	aseba_bridge_uart_to_can, %function
 200              	aseba_bridge_uart_to_can:
 201              	.LFB258:
 202              		.loc 1 37 0
 203              		.cfi_startproc
 204              		@ args = 0, pretend = 0, frame = 536
 205              		@ frame_needed = 0, uses_anonymous_args = 0
 206              	.LVL12:
 207 0000 30B5     		push	{r4, r5, lr}
 208              		.cfi_def_cfa_offset 12
 209              		.cfi_offset 4, -12
 210              		.cfi_offset 5, -8
 211              		.cfi_offset 14, -4
 212              	.LBB12:
 213              	.LBB13:
 214              		.loc 2 135 0
 215 0002 184A     		ldr	r2, .L22
 216              	.LBE13:
 217              	.LBE12:
 218              		.loc 1 37 0
 219 0004 184B     		ldr	r3, .L22+4
 220              	.LBB16:
 221              	.LBB14:
 222              		.loc 2 135 0
 223 0006 9269     		ldr	r2, [r2, #24]
 224 0008 1849     		ldr	r1, .L22+8
 225              	.LBE14:
 226              	.LBE16:
 227              		.loc 1 37 0
 228 000a 1B68     		ldr	r3, [r3]
ARM GAS  C:\Users\osour\AppData\Local\Temp\cc548Cuz.s 			page 5


 229              		.loc 1 49 0
 230 000c 184D     		ldr	r5, .L22+12
 231              	.LBB17:
 232              	.LBB15:
 233              		.loc 2 135 0
 234 000e 9161     		str	r1, [r2, #24]
 235              	.LBE15:
 236              	.LBE17:
 237              		.loc 1 37 0
 238 0010 ADF5077D 		sub	sp, sp, #540
 239              		.cfi_def_cfa_offset 552
 240              		.loc 1 37 0
 241 0014 0446     		mov	r4, r0
 242 0016 8593     		str	r3, [sp, #532]
 243              	.LVL13:
 244              	.L19:
 245              		.loc 1 45 0 discriminator 1
 246 0018 2368     		ldr	r3, [r4]
 247 001a 02A9     		add	r1, sp, #8
 248 001c 0222     		movs	r2, #2
 249 001e 5B68     		ldr	r3, [r3, #4]
 250 0020 2046     		mov	r0, r4
 251 0022 9847     		blx	r3
 252              	.LVL14:
 253              		.loc 1 46 0 discriminator 1
 254 0024 2368     		ldr	r3, [r4]
 255 0026 01A9     		add	r1, sp, #4
 256 0028 0222     		movs	r2, #2
 257 002a 5B68     		ldr	r3, [r3, #4]
 258 002c 2046     		mov	r0, r4
 259 002e 9847     		blx	r3
 260              	.LVL15:
 261              		.loc 1 47 0 discriminator 1
 262 0030 BDF80820 		ldrh	r2, [sp, #8]
 263 0034 2368     		ldr	r3, [r4]
 264 0036 03A9     		add	r1, sp, #12
 265 0038 0232     		adds	r2, r2, #2
 266 003a 5B68     		ldr	r3, [r3, #4]
 267 003c 2046     		mov	r0, r4
 268 003e 9847     		blx	r3
 269              	.LVL16:
 270              		.loc 1 49 0 discriminator 1
 271 0040 6B69     		ldr	r3, [r5, #20]
 272 0042 83F04003 		eor	r3, r3, #64
 273 0046 6B61     		str	r3, [r5, #20]
 274              		.loc 1 51 0 discriminator 1
 275 0048 FFF7FEFF 		bl	aseba_can_lock
 276              	.LVL17:
 277              		.loc 1 52 0 discriminator 1
 278 004c BDF80810 		ldrh	r1, [sp, #8]
 279 0050 BDF80420 		ldrh	r2, [sp, #4]
 280 0054 0231     		adds	r1, r1, #2
 281 0056 03A8     		add	r0, sp, #12
 282 0058 FFF7FEFF 		bl	AsebaCanSendSpecificSource
 283              	.LVL18:
 284              		.loc 1 53 0 discriminator 1
 285 005c FFF7FEFF 		bl	aseba_can_unlock
ARM GAS  C:\Users\osour\AppData\Local\Temp\cc548Cuz.s 			page 6


 286              	.LVL19:
 287 0060 DAE7     		b	.L19
 288              	.L23:
 289 0062 00BF     		.align	2
 290              	.L22:
 291 0064 00000000 		.word	ch
 292 0068 00000000 		.word	__stack_chk_guard
 293 006c 00000000 		.word	.LC1
 294 0070 000C0240 		.word	1073875968
 295              		.cfi_endproc
 296              	.LFE258:
 297              		.size	aseba_bridge_uart_to_can, .-aseba_bridge_uart_to_can
 298              		.section	.text.aseba_bridge,"ax",%progbits
 299              		.align	1
 300              		.p2align 4,,15
 301              		.global	aseba_bridge
 302              		.syntax unified
 303              		.thumb
 304              		.thumb_func
 305              		.fpu fpv4-sp-d16
 306              		.type	aseba_bridge, %function
 307              	aseba_bridge:
 308              	.LFB257:
 309              		.loc 1 21 0
 310              		.cfi_startproc
 311              		@ args = 0, pretend = 0, frame = 8
 312              		@ frame_needed = 0, uses_anonymous_args = 0
 313              	.LVL20:
 314 0000 70B5     		push	{r4, r5, r6, lr}
 315              		.cfi_def_cfa_offset 16
 316              		.cfi_offset 4, -16
 317              		.cfi_offset 5, -12
 318              		.cfi_offset 6, -8
 319              		.cfi_offset 14, -4
 320 0002 144C     		ldr	r4, .L28
 321              		.loc 1 22 0
 322 0004 144E     		ldr	r6, .L28+4
 323              		.loc 1 21 0
 324 0006 2268     		ldr	r2, [r4]
 325              		.loc 1 24 0
 326 0008 144B     		ldr	r3, .L28+8
 327              		.loc 1 21 0
 328 000a 84B0     		sub	sp, sp, #16
 329              		.cfi_def_cfa_offset 32
 330              		.loc 1 21 0
 331 000c 0546     		mov	r5, r0
 332              		.loc 1 24 0
 333 000e 0090     		str	r0, [sp]
 334              		.loc 1 22 0
 335 0010 0120     		movs	r0, #1
 336              	.LVL21:
 337              		.loc 1 21 0
 338 0012 0392     		str	r2, [sp, #12]
 339              		.loc 1 24 0
 340 0014 4FF4AF61 		mov	r1, #1400
 341 0018 4022     		movs	r2, #64
 342              		.loc 1 22 0
ARM GAS  C:\Users\osour\AppData\Local\Temp\cc548Cuz.s 			page 7


 343 001a 3070     		strb	r0, [r6]
 344              		.loc 1 24 0
 345 001c 1048     		ldr	r0, .L28+12
 346 001e FFF7FEFF 		bl	chThdCreateStatic
 347              	.LVL22:
 348              		.loc 1 28 0
 349 0022 104B     		ldr	r3, .L28+16
 350 0024 0095     		str	r5, [sp]
 351 0026 4022     		movs	r2, #64
 352 0028 4FF4AF61 		mov	r1, #1400
 353 002c 0E48     		ldr	r0, .L28+20
 354 002e FFF7FEFF 		bl	chThdCreateStatic
 355              	.LVL23:
 356              		.loc 1 32 0
 357 0032 0023     		movs	r3, #0
 358 0034 0093     		str	r3, [sp]
 359 0036 4022     		movs	r2, #64
 360 0038 0C4B     		ldr	r3, .L28+24
 361 003a 0D48     		ldr	r0, .L28+28
 362 003c 4FF41E71 		mov	r1, #632
 363 0040 FFF7FEFF 		bl	chThdCreateStatic
 364              	.LVL24:
 365              		.loc 1 34 0
 366 0044 039A     		ldr	r2, [sp, #12]
 367 0046 2368     		ldr	r3, [r4]
 368 0048 9A42     		cmp	r2, r3
 369 004a 01D1     		bne	.L27
 370 004c 04B0     		add	sp, sp, #16
 371              		.cfi_remember_state
 372              		.cfi_def_cfa_offset 16
 373              		@ sp needed
 374 004e 70BD     		pop	{r4, r5, r6, pc}
 375              	.LVL25:
 376              	.L27:
 377              		.cfi_restore_state
 378 0050 FFF7FEFF 		bl	__stack_chk_fail
 379              	.LVL26:
 380              	.L29:
 381              		.align	2
 382              	.L28:
 383 0054 00000000 		.word	__stack_chk_guard
 384 0058 00000000 		.word	.LANCHOR0
 385 005c 00000000 		.word	aseba_bridge_uart_to_can
 386 0060 00000000 		.word	.LANCHOR1
 387 0064 00000000 		.word	aseba_bridge_can_to_uart
 388 0068 00000000 		.word	.LANCHOR2
 389 006c 00000000 		.word	led_thread
 390 0070 00000000 		.word	.LANCHOR3
 391              		.cfi_endproc
 392              	.LFE257:
 393              		.size	aseba_bridge, .-aseba_bridge
 394              		.section	.text.aseba_is_bridge,"ax",%progbits
 395              		.align	1
 396              		.p2align 4,,15
 397              		.global	aseba_is_bridge
 398              		.syntax unified
 399              		.thumb
ARM GAS  C:\Users\osour\AppData\Local\Temp\cc548Cuz.s 			page 8


 400              		.thumb_func
 401              		.fpu fpv4-sp-d16
 402              		.type	aseba_is_bridge, %function
 403              	aseba_is_bridge:
 404              	.LFB261:
 405              		.loc 1 94 0
 406              		.cfi_startproc
 407              		@ args = 0, pretend = 0, frame = 8
 408              		@ frame_needed = 0, uses_anonymous_args = 0
 409 0000 00B5     		push	{lr}
 410              		.cfi_def_cfa_offset 4
 411              		.cfi_offset 14, -4
 412 0002 074B     		ldr	r3, .L34
 413              		.loc 1 95 0
 414 0004 0749     		ldr	r1, .L34+4
 415              		.loc 1 94 0
 416 0006 1A68     		ldr	r2, [r3]
 417              		.loc 1 96 0
 418 0008 0878     		ldrb	r0, [r1]	@ zero_extendqisi2
 419              		.loc 1 94 0
 420 000a 83B0     		sub	sp, sp, #12
 421              		.cfi_def_cfa_offset 16
 422              		.loc 1 94 0
 423 000c 0192     		str	r2, [sp, #4]
 424              		.loc 1 96 0
 425 000e 019A     		ldr	r2, [sp, #4]
 426 0010 1B68     		ldr	r3, [r3]
 427 0012 9A42     		cmp	r2, r3
 428 0014 02D1     		bne	.L33
 429 0016 03B0     		add	sp, sp, #12
 430              		.cfi_remember_state
 431              		.cfi_def_cfa_offset 4
 432              		@ sp needed
 433 0018 5DF804FB 		ldr	pc, [sp], #4
 434              	.L33:
 435              		.cfi_restore_state
 436 001c FFF7FEFF 		bl	__stack_chk_fail
 437              	.LVL27:
 438              	.L35:
 439              		.align	2
 440              	.L34:
 441 0020 00000000 		.word	__stack_chk_guard
 442 0024 00000000 		.word	.LANCHOR0
 443              		.cfi_endproc
 444              	.LFE261:
 445              		.size	aseba_is_bridge, .-aseba_is_bridge
 446              		.section	.bss.can_to_uart_wa.10715,"aw",%nobits
 447              		.align	3
 448              		.set	.LANCHOR2,. + 0
 449              		.type	can_to_uart_wa.10715, %object
 450              		.size	can_to_uart_wa.10715, 1400
 451              	can_to_uart_wa.10715:
 452 0000 00000000 		.space	1400
 452      00000000 
 452      00000000 
 452      00000000 
 452      00000000 
ARM GAS  C:\Users\osour\AppData\Local\Temp\cc548Cuz.s 			page 9


 453              		.section	.bss.is_bridge,"aw",%nobits
 454              		.set	.LANCHOR0,. + 0
 455              		.type	is_bridge, %object
 456              		.size	is_bridge, 1
 457              	is_bridge:
 458 0000 00       		.space	1
 459              		.section	.bss.led_thread_wa.10716,"aw",%nobits
 460              		.align	3
 461              		.set	.LANCHOR3,. + 0
 462              		.type	led_thread_wa.10716, %object
 463              		.size	led_thread_wa.10716, 632
 464              	led_thread_wa.10716:
 465 0000 00000000 		.space	632
 465      00000000 
 465      00000000 
 465      00000000 
 465      00000000 
 466              		.section	.bss.uart_to_can_wa.10714,"aw",%nobits
 467              		.align	3
 468              		.set	.LANCHOR1,. + 0
 469              		.type	uart_to_can_wa.10714, %object
 470              		.size	uart_to_can_wa.10714, 1400
 471              	uart_to_can_wa.10714:
 472 0000 00000000 		.space	1400
 472      00000000 
 472      00000000 
 472      00000000 
 472      00000000 
 473              		.section	.rodata.aseba_bridge_can_to_uart.str1.4,"aMS",%progbits,1
 474              		.align	2
 475              	.LC0:
 476 0000 61736562 		.ascii	"aseba can -> uart\000"
 476      61206361 
 476      6E202D3E 
 476      20756172 
 476      7400
 477              		.section	.rodata.aseba_bridge_uart_to_can.str1.4,"aMS",%progbits,1
 478              		.align	2
 479              	.LC1:
 480 0000 61736562 		.ascii	"aseba uart -> can\000"
 480      61207561 
 480      7274202D 
 480      3E206361 
 480      6E00
 481              		.text
 482              	.Letext0:
 483              		.file 3 "c:\\users\\osour\\desktop\\robotique\\eclipse_e-puck2\\tools\\gcc-arm-none-eabi-7-2017-q4
 484              		.file 4 "c:\\users\\osour\\desktop\\robotique\\eclipse_e-puck2\\tools\\gcc-arm-none-eabi-7-2017-q4
 485              		.file 5 "c:\\users\\osour\\desktop\\robotique\\eclipse_e-puck2\\tools\\gcc-arm-none-eabi-7-2017-q4
 486              		.file 6 "../../lib/e-puck2_main-processor/ChibiOS//os/rt/ports/ARMCMx/compilers/GCC/chtypes.h"
 487              		.file 7 "../../lib/e-puck2_main-processor/ChibiOS//os/rt/include/chsystypes.h"
 488              		.file 8 "../../lib/e-puck2_main-processor/ChibiOS//os/rt/include/chschd.h"
 489              		.file 9 "../../lib/e-puck2_main-processor/ChibiOS//os/ext/CMSIS/include/core_cm4.h"
 490              		.file 10 "../../lib/e-puck2_main-processor/ChibiOS//os/ext/CMSIS/ST/system_stm32f4xx.h"
 491              		.file 11 "../../lib/e-puck2_main-processor/ChibiOS//os/ext/CMSIS/ST/stm32f407xx.h"
 492              		.file 12 "../../lib/e-puck2_main-processor/ChibiOS//os/rt/ports/ARMCMx/chcore.h"
 493              		.file 13 "../../lib/e-puck2_main-processor/ChibiOS//os/rt/ports/ARMCMx/chcore_v7m.h"
ARM GAS  C:\Users\osour\AppData\Local\Temp\cc548Cuz.s 			page 10


 494              		.file 14 "../../lib/e-puck2_main-processor/ChibiOS//os/rt/include/chdebug.h"
 495              		.file 15 "../../lib/e-puck2_main-processor/ChibiOS//os/rt/include/chtm.h"
 496              		.file 16 "../../lib/e-puck2_main-processor/ChibiOS//os/rt/include/chstats.h"
 497              		.file 17 "../../lib/e-puck2_main-processor/ChibiOS//os/rt/include/chsem.h"
 498              		.file 18 "../../lib/e-puck2_main-processor/ChibiOS//os/rt/include/chmtx.h"
 499              		.file 19 "../../lib/e-puck2_main-processor/ChibiOS//os/rt/include/chevents.h"
 500              		.file 20 "../../lib/e-puck2_main-processor/ChibiOS//os/rt/include/chqueues.h"
 501              		.file 21 "../../lib/e-puck2_main-processor/ChibiOS//os/rt/include/chstreams.h"
 502              		.file 22 "../../lib/e-puck2_main-processor/ChibiOS//os/hal/ports/STM32/STM32F4xx/stm32_dma.h"
 503              		.file 23 "../../lib/e-puck2_main-processor/ChibiOS//os/hal/include/hal_ioblock.h"
 504              		.file 24 "../../lib/e-puck2_main-processor/ChibiOS//os/hal/ports/STM32/LLD/GPIOv2/pal_lld.h"
 505              		.file 25 "../../lib/e-puck2_main-processor/ChibiOS//os/hal/include/adc.h"
 506              		.file 26 "../../lib/e-puck2_main-processor/ChibiOS//os/hal/ports/STM32/STM32F4xx/adc_lld.h"
 507              		.file 27 "../../lib/e-puck2_main-processor/ChibiOS//os/hal/include/can.h"
 508              		.file 28 "../../lib/e-puck2_main-processor/ChibiOS//os/hal/ports/STM32/LLD/can_lld.h"
 509              		.file 29 "../../lib/e-puck2_main-processor/ChibiOS//os/hal/include/dac.h"
 510              		.file 30 "../../lib/e-puck2_main-processor/ChibiOS//os/hal/ports/STM32/LLD/DACv1/dac_lld.h"
 511              		.file 31 "../../lib/e-puck2_main-processor/ChibiOS//os/hal/include/ext.h"
 512              		.file 32 "../../lib/e-puck2_main-processor/ChibiOS//os/hal/ports/STM32/LLD/ext_lld.h"
 513              		.file 33 "../../lib/e-puck2_main-processor/ChibiOS//os/hal/include/gpt.h"
 514              		.file 34 "../../lib/e-puck2_main-processor/ChibiOS//os/hal/ports/STM32/LLD/TIMv1/gpt_lld.h"
 515              		.file 35 "../../lib/e-puck2_main-processor/ChibiOS//os/hal/ports/STM32/LLD/TIMv1/stm32_tim.h"
 516              		.file 36 "../../lib/e-puck2_main-processor/ChibiOS//os/hal/include/i2c.h"
 517              		.file 37 "../../lib/e-puck2_main-processor/ChibiOS//os/hal/ports/STM32/LLD/I2Cv1/i2c_lld.h"
 518              		.file 38 "../../lib/e-puck2_main-processor/ChibiOS//os/hal/include/i2s.h"
 519              		.file 39 "../../lib/e-puck2_main-processor/ChibiOS//os/hal/ports/STM32/LLD/SPIv1/i2s_lld.h"
 520              		.file 40 "../../lib/e-puck2_main-processor/ChibiOS//os/hal/include/pwm.h"
 521              		.file 41 "../../lib/e-puck2_main-processor/ChibiOS//os/hal/ports/STM32/LLD/TIMv1/pwm_lld.h"
 522              		.file 42 "../../lib/e-puck2_main-processor/ChibiOS//os/hal/include/serial.h"
 523              		.file 43 "../../lib/e-puck2_main-processor/ChibiOS//os/hal/ports/STM32/LLD/USARTv1/serial_lld.h"
 524              		.file 44 "../../lib/e-puck2_main-processor/ChibiOS//os/hal/include/sdc.h"
 525              		.file 45 "../../lib/e-puck2_main-processor/ChibiOS//os/hal/ports/STM32/LLD/sdc_lld.h"
 526              		.file 46 "../../lib/e-puck2_main-processor/ChibiOS//os/hal/include/spi.h"
 527              		.file 47 "../../lib/e-puck2_main-processor/ChibiOS//os/hal/ports/STM32/LLD/SPIv1/spi_lld.h"
 528              		.file 48 "../../lib/e-puck2_main-processor/ChibiOS//os/hal/include/usb.h"
 529              		.file 49 "../../lib/e-puck2_main-processor/ChibiOS//os/hal/ports/STM32/LLD/OTGv1/usb_lld.h"
 530              		.file 50 "../../lib/e-puck2_main-processor/ChibiOS//os/hal/ports/STM32/LLD/OTGv1/stm32_otg.h"
 531              		.file 51 "c:\\users\\osour\\desktop\\robotique\\eclipse_e-puck2\\tools\\gcc-arm-none-eabi-7-2017-q
 532              		.file 52 "c:\\users\\osour\\desktop\\robotique\\eclipse_e-puck2\\tools\\gcc-arm-none-eabi-7-2017-q
 533              		.file 53 "c:\\users\\osour\\desktop\\robotique\\eclipse_e-puck2\\tools\\gcc-arm-none-eabi-7-2017-q
 534              		.file 54 "c:\\users\\osour\\desktop\\robotique\\eclipse_e-puck2\\tools\\gcc-arm-none-eabi-7-2017-q
 535              		.file 55 "../../lib/e-puck2_main-processor/aseba/vm/vm.h"
 536              		.file 56 "../../lib/e-puck2_main-processor/aseba/common/consts.h"
 537              		.file 57 "../../lib/e-puck2_main-processor/ChibiOS//os/rt/include/chthreads.h"
 538              		.file 58 "../../lib/e-puck2_main-processor/aseba/transport/can/can-net.h"
 539              		.file 59 "../../lib/e-puck2_main-processor/src/aseba_vm/aseba_can_interface.h"