ARM GAS  C:\Users\osour\AppData\Local\Temp\ccsBkKuy.s 			page 1


   1              		.cpu cortex-m4
   2              		.eabi_attribute 27, 1
   3              		.eabi_attribute 28, 1
   4              		.eabi_attribute 20, 1
   5              		.eabi_attribute 21, 1
   6              		.eabi_attribute 23, 3
   7              		.eabi_attribute 24, 1
   8              		.eabi_attribute 25, 1
   9              		.eabi_attribute 26, 1
  10              		.eabi_attribute 30, 2
  11              		.eabi_attribute 34, 1
  12              		.eabi_attribute 18, 4
  13              		.file	"Asercom2.c"
  14              		.text
  15              	.Ltext0:
  16              		.cfi_sections	.debug_frame
  17              		.section	.text.run_asercom2,"ax",%progbits
  18              		.align	1
  19              		.p2align 4,,15
  20              		.global	run_asercom2
  21              		.syntax unified
  22              		.thumb
  23              		.thumb_func
  24              		.fpu fpv4-sp-d16
  25              		.type	run_asercom2, %function
  26              	run_asercom2:
  27              	.LFB260:
  28              		.file 1 "../../lib/e-puck2_main-processor/src/epuck1x/Asercom2.c"
  29              		.loc 1 67 0
  30              		.cfi_startproc
  31              		@ args = 0, pretend = 0, frame = 64
  32              		@ frame_needed = 0, uses_anonymous_args = 0
  33 0000 2DE9F04F 		push	{r4, r5, r6, r7, r8, r9, r10, fp, lr}
  34              		.cfi_def_cfa_offset 36
  35              		.cfi_offset 4, -36
  36              		.cfi_offset 5, -32
  37              		.cfi_offset 6, -28
  38              		.cfi_offset 7, -24
  39              		.cfi_offset 8, -20
  40              		.cfi_offset 9, -16
  41              		.cfi_offset 10, -12
  42              		.cfi_offset 11, -8
  43              		.cfi_offset 14, -4
  44 0004 2DED028B 		vpush.64	{d8}
  45              		.cfi_def_cfa_offset 44
  46              		.cfi_offset 80, -44
  47              		.cfi_offset 81, -40
  48 0008 B24B     		ldr	r3, .L710
  49 000a 97B0     		sub	sp, sp, #92
  50              		.cfi_def_cfa_offset 136
  51              		.loc 1 67 0
  52 000c 1B68     		ldr	r3, [r3]
  53 000e 1593     		str	r3, [sp, #84]
  54              	.LVL0:
  55              		.loc 1 87 0
  56 0010 FFF7FEFF 		bl	e_init_motors
  57              	.LVL1:
ARM GAS  C:\Users\osour\AppData\Local\Temp\ccsBkKuy.s 			page 2


  58              		.loc 1 91 0
  59 0014 FFF7FEFF 		bl	getselector
  60              	.LVL2:
  61 0018 AF4B     		ldr	r3, .L710+4
  62              		.loc 1 92 0
  63 001a 0328     		cmp	r0, #3
  64              		.loc 1 91 0
  65 001c 1860     		str	r0, [r3]
  66              		.loc 1 92 0
  67 001e 00F08280 		beq	.L400
  68              		.loc 1 97 0
  69 0022 0A28     		cmp	r0, #10
  70 0024 02F0F580 		beq	.L684
  71              		.loc 1 95 0
  72 0028 0023     		movs	r3, #0
  73 002a 0793     		str	r3, [sp, #28]
  74              	.L2:
  75              	.LVL3:
  76              		.loc 1 103 0
  77 002c FFF7FEFF 		bl	mountSDCard
  78              	.LVL4:
  79              		.loc 1 123 0
  80 0030 AA4C     		ldr	r4, .L710+8
  81              		.loc 1 128 0
  82 0032 AB4B     		ldr	r3, .L710+12
  83              		.loc 1 125 0
  84 0034 AB4E     		ldr	r6, .L710+16
  85              		.loc 1 126 0
  86 0036 AC4F     		ldr	r7, .L710+20
  87              		.loc 1 127 0
  88 0038 AC4D     		ldr	r5, .L710+24
  89              		.loc 1 128 0
  90 003a 0E93     		str	r3, [sp, #56]
  91              		.loc 1 123 0
  92 003c 1294     		str	r4, [sp, #72]
  93              		.loc 1 127 0
  94 003e 1395     		str	r5, [sp, #76]
  95              		.loc 1 125 0
  96 0040 1096     		str	r6, [sp, #64]
  97              		.loc 1 126 0
  98 0042 1197     		str	r7, [sp, #68]
  99              		.loc 1 107 0
 100 0044 FFF7FEFF 		bl	e_i2cp_init
 101              	.LVL5:
 102              		.loc 1 112 0
 103 0048 FFF7FEFF 		bl	e_init_remote_control
 104              	.LVL6:
 105              		.loc 1 120 0
 106 004c 0123     		movs	r3, #1
 107 004e A84A     		ldr	r2, .L710+28
 108 0050 4FF6FE71 		movw	r1, #65534
 109 0054 7F20     		movs	r0, #127
 110 0056 FFF7FEFF 		bl	ReadEE
 111              	.LVL7:
 112              		.loc 1 125 0
 113 005a 2823     		movs	r3, #40
 114              		.loc 1 127 0
ARM GAS  C:\Users\osour\AppData\Local\Temp\ccsBkKuy.s 			page 3


 115 005c 139D     		ldr	r5, [sp, #76]
 116              		.loc 1 125 0
 117 005e 3360     		str	r3, [r6]
 118              		.loc 1 126 0
 119 0060 3B60     		str	r3, [r7]
 120              		.loc 1 128 0
 121 0062 0E9B     		ldr	r3, [sp, #56]
 122              		.loc 1 127 0
 123 0064 0821     		movs	r1, #8
 124              		.loc 1 128 0
 125 0066 4FF44862 		mov	r2, #3200
 126              		.loc 1 123 0
 127 006a 0120     		movs	r0, #1
 128              		.loc 1 127 0
 129 006c 2960     		str	r1, [r5]
 130              		.loc 1 128 0
 131 006e 1A60     		str	r2, [r3]
 132              		.loc 1 123 0
 133 0070 2060     		str	r0, [r4]
 134              		.loc 1 131 0
 135 0072 FFF7FEFF 		bl	e_poxxxx_init_cam
 136              	.LVL8:
 137              		.loc 1 132 0
 138 0076 2D68     		ldr	r5, [r5]
 139 0078 3268     		ldr	r2, [r6]
 140 007a 3B68     		ldr	r3, [r7]
 141 007c 2468     		ldr	r4, [r4]
 142 007e 0294     		str	r4, [sp, #8]
 143 0080 03FB05F3 		mul	r3, r3, r5
 144 0084 02FB05F2 		mul	r2, r2, r5
 145 0088 C3F5F071 		rsb	r1, r3, #480
 146 008c C2F52070 		rsb	r0, r2, #640
 147 0090 01EBD171 		add	r1, r1, r1, lsr #31
 148 0094 00EBD070 		add	r0, r0, r0, lsr #31
 149 0098 4910     		asrs	r1, r1, #1
 150 009a 0195     		str	r5, [sp, #4]
 151 009c 0095     		str	r5, [sp]
 152 009e 4010     		asrs	r0, r0, #1
 153 00a0 FFF7FEFF 		bl	e_poxxxx_config_cam
 154              	.LVL9:
 155              		.loc 1 133 0
 156 00a4 FFF7FEFF 		bl	e_poxxxx_write_cam_registers
 157              	.LVL10:
 158              		.loc 1 141 0
 159 00a8 079B     		ldr	r3, [sp, #28]
 160 00aa 002B     		cmp	r3, #0
 161 00ac 02F0A380 		beq	.L685
 162              		.loc 1 142 0
 163 00b0 FFF7FEFF 		bl	e_acc_calibr
 164              	.LVL11:
 165              		.loc 1 143 0
 166 00b4 5821     		movs	r1, #88
 167 00b6 8F48     		ldr	r0, .L710+32
 168 00b8 FFF7FEFF 		bl	e_send_uart1_char
 169              	.LVL12:
 170              	.L7:
 171              		.loc 1 143 0 is_stmt 0 discriminator 2
ARM GAS  C:\Users\osour\AppData\Local\Temp\ccsBkKuy.s 			page 4


 172 00bc FFF7FEFF 		bl	e_uart1_sending
 173              	.LVL13:
 174 00c0 0028     		cmp	r0, #0
 175 00c2 FBD1     		bne	.L7
 176              		.loc 1 100 0 is_stmt 1
 177 00c4 0746     		mov	r7, r0
 178              	.LVL14:
 179              	.L3:
 180 00c6 0023     		movs	r3, #0
 181 00c8 DFF82C92 		ldr	r9, .L710+36
 182 00cc DFF844B2 		ldr	fp, .L710+64
 183 00d0 DFF84482 		ldr	r8, .L710+68
 184 00d4 DFF828A2 		ldr	r10, .L710+44
 185 00d8 0F93     		str	r3, [sp, #60]
 186 00da 0693     		str	r3, [sp, #24]
 187              	.LVL15:
 188              	.L6:
 189              		.loc 1 154 0
 190 00dc 37BB     		cbnz	r7, .L10
 191              	.LVL16:
 192              	.L650:
 193              		.loc 1 156 0
 194 00de 079B     		ldr	r3, [sp, #28]
 195 00e0 002B     		cmp	r3, #0
 196 00e2 00F08F80 		beq	.L641
 197              	.L691:
 198              		.loc 1 157 0
 199 00e6 844D     		ldr	r5, .L710+36
 200              	.LVL17:
 201              	.L11:
 202 00e8 2846     		mov	r0, r5
 203 00ea FFF7FEFF 		bl	e_getchar_uart1
 204              	.LVL18:
 205 00ee 0446     		mov	r4, r0
 206 00f0 E0B9     		cbnz	r0, .L10
 207              		.loc 1 160 0
 208 00f2 FFF7FEFF 		bl	e_get_data
 209              	.LVL19:
 210 00f6 0646     		mov	r6, r0
 211              	.LVL20:
 212              		.loc 1 161 0
 213 00f8 FFF7FEFF 		bl	e_get_address
 214              	.LVL21:
 215              		.loc 1 162 0
 216 00fc 10F0F70F 		tst	r0, #247
 217 0100 F2D1     		bne	.L11
 218              		.loc 1 162 0 is_stmt 0 discriminator 3
 219 0102 069B     		ldr	r3, [sp, #24]
 220 0104 B342     		cmp	r3, r6
 221 0106 EFD0     		beq	.L11
 222              		.loc 1 163 0 is_stmt 1
 223 0108 092E     		cmp	r6, #9
 224 010a 01F25884 		bhi	.L14
 225 010e DFE816F0 		tbh	[pc, r6, lsl #1]
 226              	.L16:
 227 0112 2701     		.2byte	(.L15-.L16)/2
 228 0114 1E01     		.2byte	(.L17-.L16)/2
ARM GAS  C:\Users\osour\AppData\Local\Temp\ccsBkKuy.s 			page 5


 229 0116 1701     		.2byte	(.L18-.L16)/2
 230 0118 0E01     		.2byte	(.L19-.L16)/2
 231 011a 0B01     		.2byte	(.L20-.L16)/2
 232 011c 0501     		.2byte	(.L21-.L16)/2
 233 011e DD00     		.2byte	(.L22-.L16)/2
 234 0120 D600     		.2byte	(.L23-.L16)/2
 235 0122 CF00     		.2byte	(.L24-.L16)/2
 236 0124 BF00     		.2byte	(.L25-.L16)/2
 237              	.LVL22:
 238              		.p2align 1
 239              	.L400:
 240              		.loc 1 93 0
 241 0126 0123     		movs	r3, #1
 242 0128 0793     		str	r3, [sp, #28]
 243 012a 7FE7     		b	.L2
 244              	.LVL23:
 245              	.L10:
 246              		.loc 1 282 0
 247 012c 99F80030 		ldrb	r3, [r9]	@ zero_extendqisi2
 248 0130 1A06     		lsls	r2, r3, #24
 249 0132 00F17481 		bmi	.L686
 250              		.loc 1 668 0
 251 0136 002B     		cmp	r3, #0
 252 0138 D0D0     		beq	.L6
 253              		.loc 1 669 0
 254 013a 002F     		cmp	r7, #0
 255 013c 41F02584 		bne	.L156
 256              		.loc 1 671 0
 257 0140 079A     		ldr	r2, [sp, #28]
 258              		.loc 1 672 0
 259 0142 6D4C     		ldr	r4, .L710+36
 260              		.loc 1 671 0
 261 0144 002A     		cmp	r2, #0
 262 0146 00F08380 		beq	.L158
 263 014a 04E0     		b	.L157
 264              	.L159:
 265              		.loc 1 672 0 discriminator 4
 266 014c 2046     		mov	r0, r4
 267 014e FFF7FEFF 		bl	e_getchar_uart1
 268              	.LVL24:
 269 0152 99F80030 		ldrb	r3, [r9]	@ zero_extendqisi2
 270              	.L157:
 271              		.loc 1 672 0 is_stmt 0 discriminator 1
 272 0156 0A2B     		cmp	r3, #10
 273 0158 F8D0     		beq	.L159
 274              		.loc 1 672 0 discriminator 3
 275 015a 0D2B     		cmp	r3, #13
 276 015c F6D0     		beq	.L159
 277              		.loc 1 677 0 is_stmt 1
 278 015e 0122     		movs	r2, #1
 279              		.loc 1 676 0
 280 0160 8AF80030 		strb	r3, [r10]
 281              		.loc 1 677 0
 282 0164 CBF80020 		str	r2, [fp]
 283              		.loc 1 681 0
 284 0168 634C     		ldr	r4, .L710+36
 285 016a 05E0     		b	.L167
ARM GAS  C:\Users\osour\AppData\Local\Temp\ccsBkKuy.s 			page 6


 286              	.L687:
 287 016c 99F80030 		ldrb	r3, [r9]	@ zero_extendqisi2
 288              		.loc 1 682 0
 289 0170 0A2B     		cmp	r3, #10
 290 0172 12D0     		beq	.L173
 291              	.L165:
 292              		.loc 1 682 0 is_stmt 0 discriminator 1
 293 0174 0D2B     		cmp	r3, #13
 294 0176 10D0     		beq	.L173
 295              	.L167:
 296              		.loc 1 681 0 is_stmt 1
 297 0178 2046     		mov	r0, r4
 298 017a FFF7FEFF 		bl	e_getchar_uart1
 299              	.LVL25:
 300 017e 0028     		cmp	r0, #0
 301 0180 F4D0     		beq	.L687
 302              		.loc 1 681 0 is_stmt 0 discriminator 1
 303 0182 DBF80020 		ldr	r2, [fp]
 304 0186 99F80030 		ldrb	r3, [r9]	@ zero_extendqisi2
 305 018a 0AF80230 		strb	r3, [r10, r2]
 306              		.loc 1 682 0 is_stmt 1 discriminator 1
 307 018e 0A2B     		cmp	r3, #10
 308              		.loc 1 681 0 discriminator 1
 309 0190 02F10102 		add	r2, r2, #1
 310 0194 CBF80020 		str	r2, [fp]
 311              		.loc 1 682 0 discriminator 1
 312 0198 ECD1     		bne	.L165
 313              	.L173:
 314 019a DBF80030 		ldr	r3, [fp]
 315              		.loc 1 687 0
 316 019e 0022     		movs	r2, #0
 317 01a0 0AF80320 		strb	r2, [r10, r3]
 318              		.loc 1 689 0
 319 01a4 9AF80040 		ldrb	r4, [r10]	@ zero_extendqisi2
 320 01a8 591C     		adds	r1, r3, #1
 321 01aa 622C     		cmp	r4, #98
 322              		.loc 1 687 0
 323 01ac CBF80010 		str	r1, [fp]
 324              		.loc 1 689 0
 325 01b0 01F05985 		beq	.L688
 326              	.L395:
 327              		.loc 1 689 0 is_stmt 0 discriminator 1
 328 01b4 672C     		cmp	r4, #103
 329 01b6 40F09B85 		bne	.L689
 330              	.L174:
 331              	.LBB2:
 332              		.loc 1 785 0 is_stmt 1
 333 01ba 002F     		cmp	r7, #0
 334 01bc 41F05185 		bne	.L230
 335              		.loc 1 786 0
 336 01c0 FFF7FEFF 		bl	getXAxisGyro
 337              	.LVL26:
 338 01c4 0446     		mov	r4, r0
 339 01c6 FFF7FEFF 		bl	getYAxisGyro
 340              	.LVL27:
 341 01ca 0546     		mov	r5, r0
 342 01cc FFF7FEFF 		bl	getZAxisGyro
ARM GAS  C:\Users\osour\AppData\Local\Temp\ccsBkKuy.s 			page 7


 343              	.LVL28:
 344 01d0 2B46     		mov	r3, r5
 345 01d2 0090     		str	r0, [sp]
 346 01d4 2246     		mov	r2, r4
 347 01d6 4949     		ldr	r1, .L710+40
 348 01d8 4948     		ldr	r0, .L710+44
 349 01da FFF7FEFF 		bl	sprintf
 350              	.LVL29:
 351              		.loc 1 792 0
 352 01de 079B     		ldr	r3, [sp, #28]
 353 01e0 002B     		cmp	r3, #0
 354 01e2 01F0A085 		beq	.L690
 355              		.loc 1 793 0
 356 01e6 4648     		ldr	r0, .L710+44
 357 01e8 FFF7FEFF 		bl	strlen
 358              	.LVL30:
 359 01ec 0146     		mov	r1, r0
 360 01ee 4448     		ldr	r0, .L710+44
 361 01f0 FFF7FEFF 		bl	e_send_uart1_char
 362              	.LVL31:
 363              	.L233:
 364              		.loc 1 793 0 is_stmt 0 discriminator 2
 365 01f4 FFF7FEFF 		bl	e_uart1_sending
 366              	.LVL32:
 367 01f8 0028     		cmp	r0, #0
 368 01fa FBD1     		bne	.L233
 369              	.LVL33:
 370              	.LBE2:
 371              		.loc 1 156 0 is_stmt 1
 372 01fc 079B     		ldr	r3, [sp, #28]
 373 01fe 002B     		cmp	r3, #0
 374 0200 7FF471AF 		bne	.L691
 375              	.LVL34:
 376              	.L641:
 377              		.loc 1 219 0
 378 0204 3C4D     		ldr	r5, .L710+36
 379              	.LVL35:
 380              	.L12:
 381 0206 2846     		mov	r0, r5
 382 0208 FFF7FEFF 		bl	e_getchar_uart2
 383              	.LVL36:
 384 020c 0446     		mov	r4, r0
 385 020e 0028     		cmp	r0, #0
 386 0210 8CD1     		bne	.L10
 387              		.loc 1 222 0
 388 0212 FFF7FEFF 		bl	e_get_data
 389              	.LVL37:
 390 0216 0646     		mov	r6, r0
 391              	.LVL38:
 392              		.loc 1 223 0
 393 0218 FFF7FEFF 		bl	e_get_address
 394              	.LVL39:
 395              		.loc 1 224 0
 396 021c 10F0F70F 		tst	r0, #247
 397 0220 F1D1     		bne	.L12
 398              		.loc 1 224 0 is_stmt 0 discriminator 3
 399 0222 069B     		ldr	r3, [sp, #24]
ARM GAS  C:\Users\osour\AppData\Local\Temp\ccsBkKuy.s 			page 8


 400 0224 B342     		cmp	r3, r6
 401 0226 EED0     		beq	.L12
 402              		.loc 1 225 0 is_stmt 1
 403 0228 092E     		cmp	r6, #9
 404 022a 01F21984 		bhi	.L30
 405 022e DFE816F0 		tbh	[pc, r6, lsl #1]
 406              	.L32:
 407 0232 E800     		.2byte	(.L31-.L32)/2
 408 0234 DF00     		.2byte	(.L33-.L32)/2
 409 0236 D800     		.2byte	(.L34-.L32)/2
 410 0238 CF00     		.2byte	(.L35-.L32)/2
 411 023a CC00     		.2byte	(.L36-.L32)/2
 412 023c C600     		.2byte	(.L37-.L32)/2
 413 023e C300     		.2byte	(.L38-.L32)/2
 414 0240 BC00     		.2byte	(.L39-.L32)/2
 415 0242 B500     		.2byte	(.L40-.L32)/2
 416 0244 A500     		.2byte	(.L41-.L32)/2
 417              	.LVL40:
 418              		.p2align 1
 419              	.L161:
 420              		.loc 1 674 0 discriminator 4
 421 0246 2046     		mov	r0, r4
 422 0248 FFF7FEFF 		bl	e_getchar_uart2
 423              	.LVL41:
 424 024c 99F80030 		ldrb	r3, [r9]	@ zero_extendqisi2
 425              	.L158:
 426              		.loc 1 674 0 is_stmt 0 discriminator 1
 427 0250 0A2B     		cmp	r3, #10
 428 0252 F8D0     		beq	.L161
 429              		.loc 1 674 0 discriminator 3
 430 0254 0D2B     		cmp	r3, #13
 431 0256 F6D0     		beq	.L161
 432              		.loc 1 677 0 is_stmt 1
 433 0258 0122     		movs	r2, #1
 434              		.loc 1 676 0
 435 025a 8AF80030 		strb	r3, [r10]
 436              		.loc 1 677 0
 437 025e CBF80020 		str	r2, [fp]
 438              		.loc 1 684 0
 439 0262 254C     		ldr	r4, .L710+36
 440 0264 05E0     		b	.L172
 441              	.L692:
 442 0266 99F80030 		ldrb	r3, [r9]	@ zero_extendqisi2
 443              	.L170:
 444              		.loc 1 685 0
 445 026a 0A2B     		cmp	r3, #10
 446 026c 95D0     		beq	.L173
 447              		.loc 1 685 0 is_stmt 0 discriminator 1
 448 026e 0D2B     		cmp	r3, #13
 449 0270 93D0     		beq	.L173
 450              	.L172:
 451              		.loc 1 684 0 is_stmt 1
 452 0272 2046     		mov	r0, r4
 453 0274 FFF7FEFF 		bl	e_getchar_uart2
 454              	.LVL42:
 455 0278 0028     		cmp	r0, #0
 456 027a F4D0     		beq	.L692
ARM GAS  C:\Users\osour\AppData\Local\Temp\ccsBkKuy.s 			page 9


 457              		.loc 1 684 0 is_stmt 0 discriminator 1
 458 027c DBF80020 		ldr	r2, [fp]
 459 0280 99F80030 		ldrb	r3, [r9]	@ zero_extendqisi2
 460 0284 0AF80230 		strb	r3, [r10, r2]
 461 0288 0132     		adds	r2, r2, #1
 462 028a CBF80020 		str	r2, [fp]
 463 028e ECE7     		b	.L170
 464              	.LVL43:
 465              	.L25:
 466              		.loc 1 197 0 is_stmt 1
 467 0290 1C4B     		ldr	r3, .L710+48
 468              	.L669:
 469              		.loc 1 198 0
 470 0292 1D4A     		ldr	r2, .L710+52
 471 0294 1D49     		ldr	r1, .L710+56
 472 0296 1160     		str	r1, [r2]
 473              		.loc 1 197 0
 474 0298 1D4A     		ldr	r2, .L710+60
 475              		.loc 1 199 0
 476 029a 0C46     		mov	r4, r1
 477              		.loc 1 197 0
 478 029c 1360     		str	r3, [r2]
 479              	.LVL44:
 480              	.L26:
 481              		.loc 1 211 0
 482 029e 2046     		mov	r0, r4
 483 02a0 FFF7FEFF 		bl	e_set_speed_left
 484              	.LVL45:
 485              		.loc 1 212 0
 486 02a4 1A4B     		ldr	r3, .L710+60
 487 02a6 1868     		ldr	r0, [r3]
 488 02a8 FFF7FEFF 		bl	e_set_speed_right
 489              	.LVL46:
 490 02ac 0696     		str	r6, [sp, #24]
 491 02ae 1BE7     		b	.L11
 492              	.LVL47:
 493              	.L24:
 494              		.loc 1 193 0
 495 02b0 174A     		ldr	r2, .L710+60
 496 02b2 164B     		ldr	r3, .L710+56
 497 02b4 1360     		str	r3, [r2]
 498              		.loc 1 194 0
 499 02b6 144A     		ldr	r2, .L710+52
 500              		.loc 1 195 0
 501 02b8 1C46     		mov	r4, r3
 502              		.loc 1 194 0
 503 02ba 1360     		str	r3, [r2]
 504              		.loc 1 195 0
 505 02bc EFE7     		b	.L26
 506              	.L23:
 507              		.loc 1 190 0
 508 02be 114C     		ldr	r4, .L710+48
 509              	.L670:
 510              		.loc 1 189 0
 511 02c0 134B     		ldr	r3, .L710+60
 512 02c2 124A     		ldr	r2, .L710+56
 513 02c4 1A60     		str	r2, [r3]
ARM GAS  C:\Users\osour\AppData\Local\Temp\ccsBkKuy.s 			page 10


 514              		.loc 1 190 0
 515 02c6 104B     		ldr	r3, .L710+52
 516 02c8 1C60     		str	r4, [r3]
 517              		.loc 1 191 0
 518 02ca E8E7     		b	.L26
 519              	.L22:
 520              		.loc 1 186 0
 521 02cc 4FF41674 		mov	r4, #600
 522 02d0 F6E7     		b	.L670
 523              	.L711:
 524 02d2 00BF     		.align	2
 525              	.L710:
 526 02d4 00000000 		.word	__stack_chk_guard
 527 02d8 00000000 		.word	selector
 528 02dc 00000000 		.word	.LANCHOR1
 529 02e0 00000000 		.word	.LANCHOR5
 530 02e4 00000000 		.word	.LANCHOR2
 531 02e8 00000000 		.word	.LANCHOR3
 532 02ec 00000000 		.word	.LANCHOR4
 533 02f0 00000000 		.word	.LANCHOR0
 534 02f4 00000000 		.word	.LC0
 535 02f8 00000000 		.word	c
 536 02fc F8000000 		.word	.LC13
 537 0300 00000000 		.word	buffer
 538 0304 D4FEFFFF 		.word	-300
 539 0308 00000000 		.word	.LANCHOR7
 540 030c A8FDFFFF 		.word	-600
 541 0310 00000000 		.word	.LANCHOR6
 542 0314 00000000 		.word	.LANCHOR9
 543 0318 00000000 		.word	.LANCHOR10
 544              	.L21:
 545              		.loc 1 181 0
 546 031c 7E4A     		ldr	r2, .L712
 547 031e 0023     		movs	r3, #0
 548 0320 1360     		str	r3, [r2]
 549              		.loc 1 182 0
 550 0322 7E4A     		ldr	r2, .L712+4
 551 0324 1360     		str	r3, [r2]
 552              		.loc 1 183 0
 553 0326 BAE7     		b	.L26
 554              	.L20:
 555              		.loc 1 177 0
 556 0328 4FF41673 		mov	r3, #600
 557 032c B1E7     		b	.L669
 558              	.L19:
 559              		.loc 1 173 0
 560 032e 7A4A     		ldr	r2, .L712
 561 0330 4FF49673 		mov	r3, #300
 562 0334 1360     		str	r3, [r2]
 563              		.loc 1 174 0
 564 0336 794B     		ldr	r3, .L712+4
 565 0338 4FF41674 		mov	r4, #600
 566 033c 1C60     		str	r4, [r3]
 567              		.loc 1 175 0
 568 033e AEE7     		b	.L26
 569              	.L18:
 570              		.loc 1 169 0
ARM GAS  C:\Users\osour\AppData\Local\Temp\ccsBkKuy.s 			page 11


 571 0340 754B     		ldr	r3, .L712
 572 0342 4FF41674 		mov	r4, #600
 573 0346 1C60     		str	r4, [r3]
 574              		.loc 1 170 0
 575 0348 744B     		ldr	r3, .L712+4
 576 034a 1C60     		str	r4, [r3]
 577              		.loc 1 171 0
 578 034c A7E7     		b	.L26
 579              	.L17:
 580              		.loc 1 165 0
 581 034e 724A     		ldr	r2, .L712
 582 0350 4FF41673 		mov	r3, #600
 583 0354 1360     		str	r3, [r2]
 584              		.loc 1 166 0
 585 0356 714B     		ldr	r3, .L712+4
 586 0358 4FF49674 		mov	r4, #300
 587 035c 1C60     		str	r4, [r3]
 588              		.loc 1 167 0
 589 035e 9EE7     		b	.L26
 590              	.L15:
 591              		.loc 1 201 0
 592 0360 6F4B     		ldr	r3, .L712+8
 593 0362 1B78     		ldrb	r3, [r3]	@ zero_extendqisi2
 594 0364 002B     		cmp	r3, #0
 595 0366 01F02F84 		beq	.L693
 596              	.LVL48:
 597              	.L27:
 598              		.loc 1 205 0
 599 036a 41F65071 		movw	r1, #8016
 600 036e 42F61430 		movw	r0, #11028
 601 0372 FFF7FEFF 		bl	e_play_sound
 602              	.LVL49:
 603 0376 694B     		ldr	r3, .L712+4
 604 0378 1C68     		ldr	r4, [r3]
 605              		.loc 1 206 0
 606 037a 90E7     		b	.L26
 607              	.LVL50:
 608              	.L41:
 609              		.loc 1 259 0
 610 037c 694B     		ldr	r3, .L712+12
 611              	.L671:
 612              		.loc 1 260 0
 613 037e 674A     		ldr	r2, .L712+4
 614 0380 6949     		ldr	r1, .L712+16
 615 0382 1160     		str	r1, [r2]
 616              		.loc 1 259 0
 617 0384 644A     		ldr	r2, .L712
 618              		.loc 1 261 0
 619 0386 0C46     		mov	r4, r1
 620              		.loc 1 259 0
 621 0388 1360     		str	r3, [r2]
 622              	.LVL51:
 623              	.L42:
 624              		.loc 1 273 0
 625 038a 2046     		mov	r0, r4
 626 038c FFF7FEFF 		bl	e_set_speed_left
 627              	.LVL52:
ARM GAS  C:\Users\osour\AppData\Local\Temp\ccsBkKuy.s 			page 12


 628              		.loc 1 274 0
 629 0390 614B     		ldr	r3, .L712
 630 0392 1868     		ldr	r0, [r3]
 631 0394 FFF7FEFF 		bl	e_set_speed_right
 632              	.LVL53:
 633 0398 0696     		str	r6, [sp, #24]
 634 039a 34E7     		b	.L12
 635              	.LVL54:
 636              	.L40:
 637              		.loc 1 255 0
 638 039c 5E4A     		ldr	r2, .L712
 639 039e 624B     		ldr	r3, .L712+16
 640 03a0 1360     		str	r3, [r2]
 641              		.loc 1 256 0
 642 03a2 5E4A     		ldr	r2, .L712+4
 643              		.loc 1 257 0
 644 03a4 1C46     		mov	r4, r3
 645              		.loc 1 256 0
 646 03a6 1360     		str	r3, [r2]
 647              		.loc 1 257 0
 648 03a8 EFE7     		b	.L42
 649              	.L39:
 650              		.loc 1 252 0
 651 03aa 5E4C     		ldr	r4, .L712+12
 652              	.L672:
 653              		.loc 1 251 0
 654 03ac 5A4B     		ldr	r3, .L712
 655 03ae 5E4A     		ldr	r2, .L712+16
 656 03b0 1A60     		str	r2, [r3]
 657              		.loc 1 252 0
 658 03b2 5A4B     		ldr	r3, .L712+4
 659 03b4 1C60     		str	r4, [r3]
 660              		.loc 1 253 0
 661 03b6 E8E7     		b	.L42
 662              	.L38:
 663              		.loc 1 248 0
 664 03b8 4FF41674 		mov	r4, #600
 665 03bc F6E7     		b	.L672
 666              	.L37:
 667              		.loc 1 243 0
 668 03be 564A     		ldr	r2, .L712
 669 03c0 0023     		movs	r3, #0
 670 03c2 1360     		str	r3, [r2]
 671              		.loc 1 244 0
 672 03c4 554A     		ldr	r2, .L712+4
 673 03c6 1360     		str	r3, [r2]
 674              		.loc 1 245 0
 675 03c8 DFE7     		b	.L42
 676              	.L36:
 677              		.loc 1 239 0
 678 03ca 4FF41673 		mov	r3, #600
 679 03ce D6E7     		b	.L671
 680              	.L35:
 681              		.loc 1 235 0
 682 03d0 514A     		ldr	r2, .L712
 683 03d2 4FF49673 		mov	r3, #300
 684 03d6 1360     		str	r3, [r2]
ARM GAS  C:\Users\osour\AppData\Local\Temp\ccsBkKuy.s 			page 13


 685              		.loc 1 236 0
 686 03d8 504B     		ldr	r3, .L712+4
 687 03da 4FF41674 		mov	r4, #600
 688 03de 1C60     		str	r4, [r3]
 689              		.loc 1 237 0
 690 03e0 D3E7     		b	.L42
 691              	.L34:
 692              		.loc 1 231 0
 693 03e2 4D4B     		ldr	r3, .L712
 694 03e4 4FF41674 		mov	r4, #600
 695 03e8 1C60     		str	r4, [r3]
 696              		.loc 1 232 0
 697 03ea 4C4B     		ldr	r3, .L712+4
 698 03ec 1C60     		str	r4, [r3]
 699              		.loc 1 233 0
 700 03ee CCE7     		b	.L42
 701              	.L33:
 702              		.loc 1 227 0
 703 03f0 494A     		ldr	r2, .L712
 704 03f2 4FF41673 		mov	r3, #600
 705 03f6 1360     		str	r3, [r2]
 706              		.loc 1 228 0
 707 03f8 484B     		ldr	r3, .L712+4
 708 03fa 4FF49674 		mov	r4, #300
 709 03fe 1C60     		str	r4, [r3]
 710              		.loc 1 229 0
 711 0400 C3E7     		b	.L42
 712              	.L31:
 713              		.loc 1 263 0
 714 0402 474B     		ldr	r3, .L712+8
 715 0404 1B78     		ldrb	r3, [r3]	@ zero_extendqisi2
 716 0406 002B     		cmp	r3, #0
 717 0408 01F0E583 		beq	.L694
 718              	.LVL55:
 719              	.L43:
 720              		.loc 1 267 0
 721 040c 41F65071 		movw	r1, #8016
 722 0410 42F61430 		movw	r0, #11028
 723 0414 FFF7FEFF 		bl	e_play_sound
 724              	.LVL56:
 725 0418 404B     		ldr	r3, .L712+4
 726 041a 1C68     		ldr	r4, [r3]
 727              		.loc 1 268 0
 728 041c B5E7     		b	.L42
 729              	.LVL57:
 730              	.L686:
 731              		.loc 1 283 0
 732 041e 0022     		movs	r2, #0
 733              		.loc 1 643 0
 734 0420 424E     		ldr	r6, .L712+20
 735              		.loc 1 368 0
 736 0422 9FED438A 		vldr.32	s16, .L712+24
 737              		.loc 1 283 0
 738 0426 CBF80020 		str	r2, [fp]
 739              	.L673:
 740 042a 5B42     		negs	r3, r3
 741              	.L46:
ARM GAS  C:\Users\osour\AppData\Local\Temp\ccsBkKuy.s 			page 14


 742              		.loc 1 285 0
 743 042c DAB2     		uxtb	r2, r3
 744 042e 0A3A     		subs	r2, r2, #10
 745 0430 6D2A     		cmp	r2, #109
 746 0432 00F29680 		bhi	.L47
 747 0436 DFE812F0 		tbh	[pc, r2, lsl #1]
 748              	.L49:
 749 043a 4F01     		.2byte	(.L48-.L49)/2
 750 043c D803     		.2byte	(.L50-.L49)/2
 751 043e 9B03     		.2byte	(.L51-.L49)/2
 752 0440 C903     		.2byte	(.L52-.L49)/2
 753 0442 AD02     		.2byte	(.L53-.L49)/2
 754 0444 9400     		.2byte	(.L47-.L49)/2
 755 0446 9400     		.2byte	(.L47-.L49)/2
 756 0448 9400     		.2byte	(.L47-.L49)/2
 757 044a 9400     		.2byte	(.L47-.L49)/2
 758 044c 9400     		.2byte	(.L47-.L49)/2
 759 044e 9400     		.2byte	(.L47-.L49)/2
 760 0450 9400     		.2byte	(.L47-.L49)/2
 761 0452 9400     		.2byte	(.L47-.L49)/2
 762 0454 9400     		.2byte	(.L47-.L49)/2
 763 0456 9400     		.2byte	(.L47-.L49)/2
 764 0458 9400     		.2byte	(.L47-.L49)/2
 765 045a 9400     		.2byte	(.L47-.L49)/2
 766 045c 9400     		.2byte	(.L47-.L49)/2
 767 045e 9400     		.2byte	(.L47-.L49)/2
 768 0460 9400     		.2byte	(.L47-.L49)/2
 769 0462 9400     		.2byte	(.L47-.L49)/2
 770 0464 9400     		.2byte	(.L47-.L49)/2
 771 0466 9400     		.2byte	(.L47-.L49)/2
 772 0468 9400     		.2byte	(.L47-.L49)/2
 773 046a 9400     		.2byte	(.L47-.L49)/2
 774 046c 9400     		.2byte	(.L47-.L49)/2
 775 046e 9400     		.2byte	(.L47-.L49)/2
 776 0470 9400     		.2byte	(.L47-.L49)/2
 777 0472 9400     		.2byte	(.L47-.L49)/2
 778 0474 9400     		.2byte	(.L47-.L49)/2
 779 0476 9400     		.2byte	(.L47-.L49)/2
 780 0478 9400     		.2byte	(.L47-.L49)/2
 781 047a 9400     		.2byte	(.L47-.L49)/2
 782 047c 9400     		.2byte	(.L47-.L49)/2
 783 047e 9400     		.2byte	(.L47-.L49)/2
 784 0480 9400     		.2byte	(.L47-.L49)/2
 785 0482 9400     		.2byte	(.L47-.L49)/2
 786 0484 9400     		.2byte	(.L47-.L49)/2
 787 0486 9400     		.2byte	(.L47-.L49)/2
 788 0488 9400     		.2byte	(.L47-.L49)/2
 789 048a 9400     		.2byte	(.L47-.L49)/2
 790 048c 9400     		.2byte	(.L47-.L49)/2
 791 048e 9400     		.2byte	(.L47-.L49)/2
 792 0490 9400     		.2byte	(.L47-.L49)/2
 793 0492 9400     		.2byte	(.L47-.L49)/2
 794 0494 9400     		.2byte	(.L47-.L49)/2
 795 0496 9400     		.2byte	(.L47-.L49)/2
 796 0498 9400     		.2byte	(.L47-.L49)/2
 797 049a 9400     		.2byte	(.L47-.L49)/2
 798 049c 9400     		.2byte	(.L47-.L49)/2
ARM GAS  C:\Users\osour\AppData\Local\Temp\ccsBkKuy.s 			page 15


 799 049e 9400     		.2byte	(.L47-.L49)/2
 800 04a0 9400     		.2byte	(.L47-.L49)/2
 801 04a2 9400     		.2byte	(.L47-.L49)/2
 802 04a4 9400     		.2byte	(.L47-.L49)/2
 803 04a6 9400     		.2byte	(.L47-.L49)/2
 804 04a8 2A03     		.2byte	(.L54-.L49)/2
 805 04aa 9400     		.2byte	(.L47-.L49)/2
 806 04ac 9400     		.2byte	(.L47-.L49)/2
 807 04ae D302     		.2byte	(.L55-.L49)/2
 808 04b0 6203     		.2byte	(.L56-.L49)/2
 809 04b2 9400     		.2byte	(.L47-.L49)/2
 810 04b4 9400     		.2byte	(.L47-.L49)/2
 811 04b6 9400     		.2byte	(.L47-.L49)/2
 812 04b8 4002     		.2byte	(.L57-.L49)/2
 813 04ba 9400     		.2byte	(.L47-.L49)/2
 814 04bc 9400     		.2byte	(.L47-.L49)/2
 815 04be 7503     		.2byte	(.L58-.L49)/2
 816 04c0 6302     		.2byte	(.L59-.L49)/2
 817 04c2 BB02     		.2byte	(.L60-.L49)/2
 818 04c4 3701     		.2byte	(.L61-.L49)/2
 819 04c6 E000     		.2byte	(.L62-.L49)/2
 820 04c8 C500     		.2byte	(.L63-.L49)/2
 821 04ca 9400     		.2byte	(.L47-.L49)/2
 822 04cc 9400     		.2byte	(.L47-.L49)/2
 823 04ce 9400     		.2byte	(.L47-.L49)/2
 824 04d0 9400     		.2byte	(.L47-.L49)/2
 825 04d2 9400     		.2byte	(.L47-.L49)/2
 826 04d4 0B02     		.2byte	(.L64-.L49)/2
 827 04d6 9400     		.2byte	(.L47-.L49)/2
 828 04d8 9400     		.2byte	(.L47-.L49)/2
 829 04da 9400     		.2byte	(.L47-.L49)/2
 830 04dc 9400     		.2byte	(.L47-.L49)/2
 831 04de 9400     		.2byte	(.L47-.L49)/2
 832 04e0 9400     		.2byte	(.L47-.L49)/2
 833 04e2 9400     		.2byte	(.L47-.L49)/2
 834 04e4 9400     		.2byte	(.L47-.L49)/2
 835 04e6 9400     		.2byte	(.L47-.L49)/2
 836 04e8 C901     		.2byte	(.L65-.L49)/2
 837 04ea E901     		.2byte	(.L66-.L49)/2
 838 04ec 9400     		.2byte	(.L47-.L49)/2
 839 04ee 9400     		.2byte	(.L47-.L49)/2
 840 04f0 9400     		.2byte	(.L47-.L49)/2
 841 04f2 9400     		.2byte	(.L47-.L49)/2
 842 04f4 B601     		.2byte	(.L67-.L49)/2
 843 04f6 9400     		.2byte	(.L47-.L49)/2
 844 04f8 9400     		.2byte	(.L47-.L49)/2
 845 04fa 9400     		.2byte	(.L47-.L49)/2
 846 04fc 9400     		.2byte	(.L47-.L49)/2
 847 04fe 9400     		.2byte	(.L47-.L49)/2
 848 0500 9400     		.2byte	(.L47-.L49)/2
 849 0502 9400     		.2byte	(.L47-.L49)/2
 850 0504 9400     		.2byte	(.L47-.L49)/2
 851 0506 9400     		.2byte	(.L47-.L49)/2
 852 0508 9400     		.2byte	(.L47-.L49)/2
 853 050a 9400     		.2byte	(.L47-.L49)/2
 854 050c 9400     		.2byte	(.L47-.L49)/2
 855 050e AB01     		.2byte	(.L68-.L49)/2
ARM GAS  C:\Users\osour\AppData\Local\Temp\ccsBkKuy.s 			page 16


 856 0510 8B01     		.2byte	(.L69-.L49)/2
 857 0512 9400     		.2byte	(.L47-.L49)/2
 858 0514 E203     		.2byte	(.L70-.L49)/2
 859              		.p2align 1
 860              	.L713:
 861 0516 00BF     		.align	2
 862              	.L712:
 863 0518 00000000 		.word	.LANCHOR6
 864 051c 00000000 		.word	.LANCHOR7
 865 0520 00000000 		.word	.LANCHOR8
 866 0524 D4FEFFFF 		.word	-300
 867 0528 A8FDFFFF 		.word	-600
 868 052c 00000000 		.word	c
 869 0530 00000000 		.word	0
 870              	.L100:
 871              		.loc 1 475 0 discriminator 1
 872 0534 2046     		mov	r0, r4
 873 0536 FFF7FEFF 		bl	e_getchar_uart2
 874              	.LVL58:
 875 053a 0028     		cmp	r0, #0
 876 053c FAD0     		beq	.L100
 877              		.loc 1 476 0
 878 053e BA4C     		ldr	r4, .L714
 879              	.L103:
 880              		.loc 1 476 0 is_stmt 0 discriminator 1
 881 0540 2046     		mov	r0, r4
 882 0542 FFF7FEFF 		bl	e_getchar_uart2
 883              	.LVL59:
 884 0546 0028     		cmp	r0, #0
 885 0548 FAD0     		beq	.L103
 886              	.L99:
 887              		.loc 1 478 0 is_stmt 1
 888 054a B84B     		ldr	r3, .L714+4
 889 054c B64A     		ldr	r2, .L714
 890 054e 1B78     		ldrb	r3, [r3]	@ zero_extendqisi2
 891 0550 1078     		ldrb	r0, [r2]	@ zero_extendqisi2
 892 0552 082B     		cmp	r3, #8
 893 0554 01F0B782 		beq	.L105
 894 0558 092B     		cmp	r3, #9
 895 055a 41F0AE82 		bne	.L695
 896              		.loc 1 483 0
 897 055e FFF7FEFF 		bl	e_set_front_led
 898              	.LVL60:
 899              	.L47:
 900              		.loc 1 640 0
 901 0562 37B9     		cbnz	r7, .L679
 902              	.L78:
 903              		.loc 1 642 0
 904 0564 079B     		ldr	r3, [sp, #28]
 905 0566 13B3     		cbz	r3, .L150
 906              	.L151:
 907              		.loc 1 643 0 discriminator 1
 908 0568 3046     		mov	r0, r6
 909 056a FFF7FEFF 		bl	e_getchar_uart1
 910              	.LVL61:
 911 056e 0028     		cmp	r0, #0
 912 0570 FAD0     		beq	.L151
ARM GAS  C:\Users\osour\AppData\Local\Temp\ccsBkKuy.s 			page 17


 913              	.L679:
 914 0572 99F80030 		ldrb	r3, [r9]	@ zero_extendqisi2
 915              		.loc 1 647 0
 916 0576 002B     		cmp	r3, #0
 917 0578 7FF457AF 		bne	.L673
 918              	.L649:
 919              		.loc 1 648 0
 920 057c DBF80010 		ldr	r1, [fp]
 921 0580 0029     		cmp	r1, #0
 922 0582 3FF4ABAD 		beq	.L6
 923              		.loc 1 649 0
 924 0586 002F     		cmp	r7, #0
 925 0588 7FF4A8AD 		bne	.L6
 926              		.loc 1 650 0
 927 058c A84B     		ldr	r3, .L714+8
 928 058e 1B78     		ldrb	r3, [r3]	@ zero_extendqisi2
 929 0590 002B     		cmp	r3, #0
 930 0592 41F02783 		bne	.L696
 931              	.L153:
 932              		.loc 1 659 0
 933 0596 079B     		ldr	r3, [sp, #28]
 934 0598 002B     		cmp	r3, #0
 935 059a 01F08582 		beq	.L697
 936              		.loc 1 660 0
 937 059e A548     		ldr	r0, .L714+12
 938 05a0 FFF7FEFF 		bl	e_send_uart1_char
 939              	.LVL62:
 940              	.L154:
 941              		.loc 1 661 0 discriminator 1
 942 05a4 FFF7FEFF 		bl	e_uart1_sending
 943              	.LVL63:
 944 05a8 0028     		cmp	r0, #0
 945 05aa FBD1     		bne	.L154
 946 05ac 97E5     		b	.L650
 947              	.L150:
 948              		.loc 1 645 0 discriminator 1
 949 05ae 3046     		mov	r0, r6
 950 05b0 FFF7FEFF 		bl	e_getchar_uart2
 951              	.LVL64:
 952 05b4 0028     		cmp	r0, #0
 953 05b6 DCD1     		bne	.L679
 954              		.loc 1 645 0 is_stmt 0
 955 05b8 3046     		mov	r0, r6
 956 05ba FFF7FEFF 		bl	e_getchar_uart2
 957              	.LVL65:
 958 05be 0028     		cmp	r0, #0
 959 05c0 F5D0     		beq	.L150
 960 05c2 D6E7     		b	.L679
 961              	.L63:
 962              		.loc 1 555 0 is_stmt 1
 963 05c4 FFF7FEFF 		bl	e_get_steps_left
 964              	.LVL66:
 965              		.loc 1 556 0
 966 05c8 DBF80030 		ldr	r3, [fp]
 967              		.loc 1 557 0
 968 05cc 0AEB0302 		add	r2, r10, r3
 969              		.loc 1 556 0
ARM GAS  C:\Users\osour\AppData\Local\Temp\ccsBkKuy.s 			page 18


 970 05d0 0AF80300 		strb	r0, [r10, r3]
 971              		.loc 1 557 0
 972 05d4 0112     		asrs	r1, r0, #8
 973 05d6 0233     		adds	r3, r3, #2
 974 05d8 5170     		strb	r1, [r2, #1]
 975 05da CBF80030 		str	r3, [fp]
 976              		.loc 1 558 0
 977 05de FFF7FEFF 		bl	e_get_steps_right
 978              	.LVL67:
 979              	.L677:
 980              		.loc 1 559 0
 981 05e2 DBF80030 		ldr	r3, [fp]
 982              		.loc 1 560 0
 983 05e6 0AEB0302 		add	r2, r10, r3
 984              		.loc 1 559 0
 985 05ea 0AF80300 		strb	r0, [r10, r3]
 986              		.loc 1 560 0
 987 05ee 0112     		asrs	r1, r0, #8
 988 05f0 0233     		adds	r3, r3, #2
 989 05f2 5170     		strb	r1, [r2, #1]
 990 05f4 CBF80030 		str	r3, [fp]
 991              		.loc 1 561 0
 992 05f8 B3E7     		b	.L47
 993              	.L62:
 994              		.loc 1 531 0
 995 05fa 002F     		cmp	r7, #0
 996 05fc 41F04282 		bne	.L116
 997              		.loc 1 533 0
 998 0600 079B     		ldr	r3, [sp, #28]
 999              		.loc 1 534 0
 1000 0602 8A4C     		ldr	r4, .L714+4
 1001              		.loc 1 533 0
 1002 0604 002B     		cmp	r3, #0
 1003 0606 2FD0     		beq	.L117
 1004              	.L118:
 1005              		.loc 1 534 0 discriminator 1
 1006 0608 2046     		mov	r0, r4
 1007 060a FFF7FEFF 		bl	e_getchar_uart1
 1008              	.LVL68:
 1009 060e 0028     		cmp	r0, #0
 1010 0610 FAD0     		beq	.L118
 1011              		.loc 1 535 0
 1012 0612 854C     		ldr	r4, .L714
 1013              	.L119:
 1014              		.loc 1 535 0 is_stmt 0 discriminator 1
 1015 0614 2046     		mov	r0, r4
 1016 0616 FFF7FEFF 		bl	e_getchar_uart1
 1017              	.LVL69:
 1018 061a 0028     		cmp	r0, #0
 1019 061c FAD0     		beq	.L119
 1020              		.loc 1 540 0 is_stmt 1
 1021 061e 824B     		ldr	r3, .L714
 1022              		.loc 1 544 0
 1023 0620 824C     		ldr	r4, .L714+4
 1024              		.loc 1 540 0
 1025 0622 1A78     		ldrb	r2, [r3]	@ zero_extendqisi2
 1026 0624 814B     		ldr	r3, .L714+4
ARM GAS  C:\Users\osour\AppData\Local\Temp\ccsBkKuy.s 			page 19


 1027 0626 1B78     		ldrb	r3, [r3]	@ zero_extendqisi2
 1028 0628 03EB0223 		add	r3, r3, r2, lsl #8
 1029 062c 824A     		ldr	r2, .L714+16
 1030 062e 1360     		str	r3, [r2]
 1031              	.L123:
 1032              		.loc 1 544 0 discriminator 1
 1033 0630 2046     		mov	r0, r4
 1034 0632 FFF7FEFF 		bl	e_getchar_uart1
 1035              	.LVL70:
 1036 0636 0028     		cmp	r0, #0
 1037 0638 FAD0     		beq	.L123
 1038              		.loc 1 545 0
 1039 063a 7B4C     		ldr	r4, .L714
 1040              	.L124:
 1041              		.loc 1 545 0 is_stmt 0 discriminator 1
 1042 063c 2046     		mov	r0, r4
 1043 063e FFF7FEFF 		bl	e_getchar_uart1
 1044              	.LVL71:
 1045 0642 0028     		cmp	r0, #0
 1046 0644 FAD0     		beq	.L124
 1047              	.L648:
 1048 0646 784B     		ldr	r3, .L714
 1049 0648 7B49     		ldr	r1, .L714+16
 1050 064a 1A78     		ldrb	r2, [r3]	@ zero_extendqisi2
 1051 064c 774B     		ldr	r3, .L714+4
 1052 064e 0868     		ldr	r0, [r1]
 1053 0650 1B78     		ldrb	r3, [r3]	@ zero_extendqisi2
 1054 0652 03EB0223 		add	r3, r3, r2, lsl #8
 1055              	.L128:
 1056              		.loc 1 550 0 is_stmt 1
 1057 0656 794A     		ldr	r2, .L714+20
 1058 0658 1446     		mov	r4, r2
 1059 065a 1360     		str	r3, [r2]
 1060              		.loc 1 551 0
 1061 065c FFF7FEFF 		bl	e_set_steps_left
 1062              	.LVL72:
 1063              		.loc 1 552 0
 1064 0660 2068     		ldr	r0, [r4]
 1065 0662 FFF7FEFF 		bl	e_set_steps_right
 1066              	.LVL73:
 1067              		.loc 1 553 0
 1068 0666 7CE7     		b	.L47
 1069              	.L117:
 1070              		.loc 1 537 0 discriminator 1
 1071 0668 2046     		mov	r0, r4
 1072 066a FFF7FEFF 		bl	e_getchar_uart2
 1073              	.LVL74:
 1074 066e 0028     		cmp	r0, #0
 1075 0670 FAD0     		beq	.L117
 1076              		.loc 1 538 0
 1077 0672 6D4C     		ldr	r4, .L714
 1078              	.L121:
 1079              		.loc 1 538 0 is_stmt 0 discriminator 1
 1080 0674 2046     		mov	r0, r4
 1081 0676 FFF7FEFF 		bl	e_getchar_uart2
 1082              	.LVL75:
 1083 067a 0028     		cmp	r0, #0
ARM GAS  C:\Users\osour\AppData\Local\Temp\ccsBkKuy.s 			page 20


 1084 067c FAD0     		beq	.L121
 1085              		.loc 1 540 0 is_stmt 1
 1086 067e 6A4B     		ldr	r3, .L714
 1087              		.loc 1 547 0
 1088 0680 6A4C     		ldr	r4, .L714+4
 1089              		.loc 1 540 0
 1090 0682 1A78     		ldrb	r2, [r3]	@ zero_extendqisi2
 1091 0684 694B     		ldr	r3, .L714+4
 1092 0686 1B78     		ldrb	r3, [r3]	@ zero_extendqisi2
 1093 0688 03EB0223 		add	r3, r3, r2, lsl #8
 1094 068c 6A4A     		ldr	r2, .L714+16
 1095 068e 1360     		str	r3, [r2]
 1096              	.L126:
 1097              		.loc 1 547 0 discriminator 1
 1098 0690 2046     		mov	r0, r4
 1099 0692 FFF7FEFF 		bl	e_getchar_uart2
 1100              	.LVL76:
 1101 0696 0028     		cmp	r0, #0
 1102 0698 FAD0     		beq	.L126
 1103              		.loc 1 548 0
 1104 069a 634C     		ldr	r4, .L714
 1105              	.L127:
 1106              		.loc 1 548 0 is_stmt 0 discriminator 1
 1107 069c 2046     		mov	r0, r4
 1108 069e FFF7FEFF 		bl	e_getchar_uart2
 1109              	.LVL77:
 1110 06a2 0028     		cmp	r0, #0
 1111 06a4 FAD0     		beq	.L127
 1112 06a6 CEE7     		b	.L648
 1113              	.L61:
 1114              		.loc 1 523 0 is_stmt 1
 1115 06a8 0020     		movs	r0, #0
 1116 06aa C8F80000 		str	r0, [r8]
 1117              	.L114:
 1118              		.loc 1 524 0 discriminator 3
 1119 06ae FFF7FEFF 		bl	e_get_ambient_light
 1120              	.LVL78:
 1121              		.loc 1 525 0 discriminator 3
 1122 06b2 DBF80020 		ldr	r2, [fp]
 1123              		.loc 1 523 0 discriminator 3
 1124 06b6 D8F80030 		ldr	r3, [r8]
 1125              		.loc 1 525 0 discriminator 3
 1126 06ba 0AF80200 		strb	r0, [r10, r2]
 1127              		.loc 1 526 0 discriminator 3
 1128 06be 0AEB0204 		add	r4, r10, r2
 1129 06c2 0112     		asrs	r1, r0, #8
 1130              		.loc 1 523 0 discriminator 3
 1131 06c4 581C     		adds	r0, r3, #1
 1132              		.loc 1 526 0 discriminator 3
 1133 06c6 0232     		adds	r2, r2, #2
 1134              		.loc 1 523 0 discriminator 3
 1135 06c8 0728     		cmp	r0, #7
 1136              		.loc 1 526 0 discriminator 3
 1137 06ca 6170     		strb	r1, [r4, #1]
 1138 06cc CBF80020 		str	r2, [fp]
 1139              		.loc 1 523 0 discriminator 3
 1140 06d0 C8F80000 		str	r0, [r8]
ARM GAS  C:\Users\osour\AppData\Local\Temp\ccsBkKuy.s 			page 21


 1141 06d4 EBDD     		ble	.L114
 1142 06d6 44E7     		b	.L47
 1143              	.L48:
 1144              		.loc 1 287 0
 1145 06d8 0020     		movs	r0, #0
 1146 06da 079C     		ldr	r4, [sp, #28]
 1147 06dc C8F80000 		str	r0, [r8]
 1148              	.L76:
 1149              		.loc 1 288 0
 1150 06e0 5FB9     		cbnz	r7, .L71
 1151              		.loc 1 290 0
 1152 06e2 74B3     		cbz	r4, .L72
 1153 06e4 01E0     		b	.L74
 1154              	.L73:
 1155 06e6 D8F80000 		ldr	r0, [r8]
 1156              	.L74:
 1157              		.loc 1 291 0 discriminator 1
 1158 06ea 554B     		ldr	r3, .L714+24
 1159 06ec 1844     		add	r0, r0, r3
 1160 06ee FFF7FEFF 		bl	e_getchar_uart1
 1161              	.LVL79:
 1162 06f2 0028     		cmp	r0, #0
 1163 06f4 F7D0     		beq	.L73
 1164              	.L674:
 1165 06f6 D8F80000 		ldr	r0, [r8]
 1166              	.L71:
 1167              		.loc 1 287 0 discriminator 2
 1168 06fa 0130     		adds	r0, r0, #1
 1169 06fc 0B28     		cmp	r0, #11
 1170 06fe C8F80000 		str	r0, [r8]
 1171 0702 EDDD     		ble	.L76
 1172              		.loc 1 296 0
 1173 0704 4E4B     		ldr	r3, .L714+24
 1174 0706 1A46     		mov	r2, r3
 1175 0708 1146     		mov	r1, r2
 1176 070a 0C46     		mov	r4, r1
 1177 070c 9B78     		ldrb	r3, [r3, #2]	@ zero_extendqisi2
 1178 070e 5278     		ldrb	r2, [r2, #1]	@ zero_extendqisi2
 1179 0710 0978     		ldrb	r1, [r1]	@ zero_extendqisi2
 1180 0712 0020     		movs	r0, #0
 1181 0714 FFF7FEFF 		bl	set_rgb_led
 1182              	.LVL80:
 1183              		.loc 1 297 0
 1184 0718 6379     		ldrb	r3, [r4, #5]	@ zero_extendqisi2
 1185 071a 2279     		ldrb	r2, [r4, #4]	@ zero_extendqisi2
 1186 071c E178     		ldrb	r1, [r4, #3]	@ zero_extendqisi2
 1187 071e 0120     		movs	r0, #1
 1188 0720 FFF7FEFF 		bl	set_rgb_led
 1189              	.LVL81:
 1190              		.loc 1 298 0
 1191 0724 237A     		ldrb	r3, [r4, #8]	@ zero_extendqisi2
 1192 0726 E279     		ldrb	r2, [r4, #7]	@ zero_extendqisi2
 1193 0728 A179     		ldrb	r1, [r4, #6]	@ zero_extendqisi2
 1194 072a 0220     		movs	r0, #2
 1195 072c FFF7FEFF 		bl	set_rgb_led
 1196              	.LVL82:
 1197              		.loc 1 299 0
ARM GAS  C:\Users\osour\AppData\Local\Temp\ccsBkKuy.s 			page 22


 1198 0730 E37A     		ldrb	r3, [r4, #11]	@ zero_extendqisi2
 1199 0732 A27A     		ldrb	r2, [r4, #10]	@ zero_extendqisi2
 1200 0734 617A     		ldrb	r1, [r4, #9]	@ zero_extendqisi2
 1201 0736 0320     		movs	r0, #3
 1202 0738 FFF7FEFF 		bl	set_rgb_led
 1203              	.LVL83:
 1204              		.loc 1 300 0
 1205 073c 11E7     		b	.L47
 1206              	.L75:
 1207 073e D8F80000 		ldr	r0, [r8]
 1208              	.L72:
 1209              		.loc 1 293 0 discriminator 1
 1210 0742 3F4B     		ldr	r3, .L714+24
 1211 0744 1844     		add	r0, r0, r3
 1212 0746 FFF7FEFF 		bl	e_getchar_uart2
 1213              	.LVL84:
 1214 074a 0028     		cmp	r0, #0
 1215 074c F7D0     		beq	.L75
 1216 074e D2E7     		b	.L674
 1217              	.L69:
 1218              		.loc 1 572 0
 1219 0750 0020     		movs	r0, #0
 1220 0752 FFF7FEFF 		bl	e_get_micro_volume
 1221              	.LVL85:
 1222              		.loc 1 573 0
 1223 0756 DBF80030 		ldr	r3, [fp]
 1224              		.loc 1 574 0
 1225 075a 0AEB0302 		add	r2, r10, r3
 1226              		.loc 1 573 0
 1227 075e 0AF80300 		strb	r0, [r10, r3]
 1228              		.loc 1 574 0
 1229 0762 0112     		asrs	r1, r0, #8
 1230 0764 0233     		adds	r3, r3, #2
 1231              		.loc 1 576 0
 1232 0766 0120     		movs	r0, #1
 1233              		.loc 1 574 0
 1234 0768 5170     		strb	r1, [r2, #1]
 1235 076a CBF80030 		str	r3, [fp]
 1236              		.loc 1 576 0
 1237 076e FFF7FEFF 		bl	e_get_micro_volume
 1238              	.LVL86:
 1239              		.loc 1 577 0
 1240 0772 DBF80030 		ldr	r3, [fp]
 1241              		.loc 1 578 0
 1242 0776 0AEB0302 		add	r2, r10, r3
 1243              		.loc 1 577 0
 1244 077a 0AF80300 		strb	r0, [r10, r3]
 1245              		.loc 1 578 0
 1246 077e 0112     		asrs	r1, r0, #8
 1247 0780 0233     		adds	r3, r3, #2
 1248              		.loc 1 580 0
 1249 0782 0220     		movs	r0, #2
 1250              		.loc 1 578 0
 1251 0784 5170     		strb	r1, [r2, #1]
 1252 0786 CBF80030 		str	r3, [fp]
 1253              		.loc 1 580 0
 1254 078a FFF7FEFF 		bl	e_get_micro_volume
ARM GAS  C:\Users\osour\AppData\Local\Temp\ccsBkKuy.s 			page 23


 1255              	.LVL87:
 1256 078e 28E7     		b	.L677
 1257              	.L68:
 1258              		.loc 1 564 0
 1259 0790 002F     		cmp	r7, #0
 1260 0792 41F09C81 		bne	.L129
 1261              		.loc 1 565 0
 1262 0796 DBF80030 		ldr	r3, [fp]
 1263 079a 5A1C     		adds	r2, r3, #1
 1264 079c 0AF80370 		strb	r7, [r10, r3]
 1265 07a0 CBF80020 		str	r2, [fp]
 1266 07a4 DEE6     		b	.L78
 1267              	.L67:
 1268              		.loc 1 439 0
 1269 07a6 002F     		cmp	r7, #0
 1270 07a8 01F0D181 		beq	.L698
 1271              		.loc 1 448 0
 1272 07ac DBF80000 		ldr	r0, [fp]
 1273              		.loc 1 449 0
 1274 07b0 0AEB0001 		add	r1, r10, r0
 1275              		.loc 1 448 0
 1276 07b4 0022     		movs	r2, #0
 1277              		.loc 1 453 0
 1278 07b6 841D     		adds	r4, r0, #6
 1279              		.loc 1 448 0
 1280 07b8 0AF80020 		strb	r2, [r10, r0]
 1281              		.loc 1 453 0
 1282 07bc CBF80040 		str	r4, [fp]
 1283              		.loc 1 449 0
 1284 07c0 4A70     		strb	r2, [r1, #1]
 1285              		.loc 1 450 0
 1286 07c2 8A70     		strb	r2, [r1, #2]
 1287              		.loc 1 451 0
 1288 07c4 CA70     		strb	r2, [r1, #3]
 1289              		.loc 1 452 0
 1290 07c6 0A71     		strb	r2, [r1, #4]
 1291              		.loc 1 453 0
 1292 07c8 4A71     		strb	r2, [r1, #5]
 1293 07ca 2FE6     		b	.L46
 1294              	.L65:
 1295              		.loc 1 344 0
 1296 07cc 002F     		cmp	r7, #0
 1297 07ce 01F08E81 		beq	.L699
 1298              		.loc 1 352 0
 1299 07d2 1C49     		ldr	r1, .L714+28
 1300 07d4 0022     		movs	r2, #0
 1301 07d6 0A60     		str	r2, [r1]
 1302              		.loc 1 353 0
 1303 07d8 1B49     		ldr	r1, .L714+32
 1304 07da 0A60     		str	r2, [r1]
 1305              		.loc 1 354 0
 1306 07dc 1B49     		ldr	r1, .L714+36
 1307 07de 1346     		mov	r3, r2
 1308 07e0 0A60     		str	r2, [r1]
 1309 07e2 1546     		mov	r5, r2
 1310 07e4 1046     		mov	r0, r2
 1311 07e6 9446     		mov	ip, r2
ARM GAS  C:\Users\osour\AppData\Local\Temp\ccsBkKuy.s 			page 24


 1312 07e8 1446     		mov	r4, r2
 1313 07ea 9646     		mov	lr, r2
 1314              	.L82:
 1315              		.loc 1 356 0
 1316 07ec DBF80020 		ldr	r2, [fp]
 1317              		.loc 1 357 0
 1318 07f0 0AEB0201 		add	r1, r10, r2
 1319              		.loc 1 356 0
 1320 07f4 0AF802E0 		strb	lr, [r10, r2]
 1321              		.loc 1 361 0
 1322 07f8 0632     		adds	r2, r2, #6
 1323              		.loc 1 357 0
 1324 07fa 4C70     		strb	r4, [r1, #1]
 1325              		.loc 1 358 0
 1326 07fc 81F802C0 		strb	ip, [r1, #2]
 1327              		.loc 1 359 0
 1328 0800 C870     		strb	r0, [r1, #3]
 1329              		.loc 1 360 0
 1330 0802 0D71     		strb	r5, [r1, #4]
 1331              		.loc 1 361 0
 1332 0804 4B71     		strb	r3, [r1, #5]
 1333 0806 CBF80020 		str	r2, [fp]
 1334              		.loc 1 362 0
 1335 080a AAE6     		b	.L47
 1336              	.L66:
 1337              		.loc 1 402 0
 1338 080c FFF7FEFF 		bl	getBatteryValueRaw
 1339              	.LVL88:
 1340              		.loc 1 403 0
 1341 0810 DBF80030 		ldr	r3, [fp]
 1342              		.loc 1 404 0
 1343 0814 0AEB0302 		add	r2, r10, r3
 1344              		.loc 1 403 0
 1345 0818 0AF80300 		strb	r0, [r10, r3]
 1346              		.loc 1 404 0
 1347 081c 010A     		lsrs	r1, r0, #8
 1348 081e 0233     		adds	r3, r3, #2
 1349 0820 5170     		strb	r1, [r2, #1]
 1350 0822 CBF80030 		str	r3, [fp]
 1351              		.loc 1 405 0
 1352 0826 9CE6     		b	.L47
 1353              	.L715:
 1354              		.align	2
 1355              	.L714:
 1356 0828 00000000 		.word	.LANCHOR17
 1357 082c 00000000 		.word	.LANCHOR16
 1358 0830 00000000 		.word	.LANCHOR21
 1359 0834 00000000 		.word	buffer
 1360 0838 00000000 		.word	.LANCHOR22
 1361 083c 00000000 		.word	.LANCHOR23
 1362 0840 00000000 		.word	.LANCHOR11
 1363 0844 00000000 		.word	.LANCHOR12
 1364 0848 00000000 		.word	.LANCHOR13
 1365 084c 00000000 		.word	.LANCHOR14
 1366              	.LVL89:
 1367              	.L64:
 1368              		.loc 1 597 0
ARM GAS  C:\Users\osour\AppData\Local\Temp\ccsBkKuy.s 			page 25


 1369 0850 002F     		cmp	r7, #0
 1370 0852 7FF4EBAD 		bne	.L46
 1371              		.loc 1 598 0
 1372 0856 079B     		ldr	r3, [sp, #28]
 1373 0858 EBB1     		cbz	r3, .L131
 1374              	.L132:
 1375              		.loc 1 599 0 discriminator 1
 1376 085a BC48     		ldr	r0, .L716
 1377 085c FFF7FEFF 		bl	e_getchar_uart1
 1378              	.LVL90:
 1379 0860 0028     		cmp	r0, #0
 1380 0862 FAD0     		beq	.L132
 1381              		.loc 1 600 0
 1382 0864 BA4C     		ldr	r4, .L716+4
 1383              	.L133:
 1384              		.loc 1 600 0 is_stmt 0 discriminator 1
 1385 0866 2046     		mov	r0, r4
 1386 0868 FFF7FEFF 		bl	e_getchar_uart1
 1387              	.LVL91:
 1388 086c 0028     		cmp	r0, #0
 1389 086e FAD0     		beq	.L133
 1390              		.loc 1 601 0 is_stmt 1
 1391 0870 B84C     		ldr	r4, .L716+8
 1392              	.L134:
 1393              		.loc 1 601 0 is_stmt 0 discriminator 1
 1394 0872 2046     		mov	r0, r4
 1395 0874 FFF7FEFF 		bl	e_getchar_uart1
 1396              	.LVL92:
 1397 0878 0028     		cmp	r0, #0
 1398 087a FAD0     		beq	.L134
 1399              	.L135:
 1400              		.loc 1 607 0 is_stmt 1
 1401 087c FFF7FEFF 		bl	e_i2cp_enable
 1402              	.LVL93:
 1403              		.loc 1 608 0
 1404 0880 B44B     		ldr	r3, .L716+8
 1405 0882 1A78     		ldrb	r2, [r3]	@ zero_extendqisi2
 1406 0884 B24B     		ldr	r3, .L716+4
 1407 0886 1978     		ldrb	r1, [r3]	@ zero_extendqisi2
 1408 0888 B04B     		ldr	r3, .L716
 1409 088a 1878     		ldrb	r0, [r3]	@ zero_extendqisi2
 1410 088c FFF7FEFF 		bl	e_i2cp_write
 1411              	.LVL94:
 1412              	.L678:
 1413              		.loc 1 609 0
 1414 0890 FFF7FEFF 		bl	e_i2cp_disable
 1415              	.LVL95:
 1416 0894 66E6     		b	.L78
 1417              	.L131:
 1418              		.loc 1 603 0 discriminator 1
 1419 0896 AD48     		ldr	r0, .L716
 1420 0898 FFF7FEFF 		bl	e_getchar_uart2
 1421              	.LVL96:
 1422 089c 0028     		cmp	r0, #0
 1423 089e FAD0     		beq	.L131
 1424              		.loc 1 604 0
 1425 08a0 AB4C     		ldr	r4, .L716+4
ARM GAS  C:\Users\osour\AppData\Local\Temp\ccsBkKuy.s 			page 26


 1426              	.L136:
 1427              		.loc 1 604 0 is_stmt 0 discriminator 1
 1428 08a2 2046     		mov	r0, r4
 1429 08a4 FFF7FEFF 		bl	e_getchar_uart2
 1430              	.LVL97:
 1431 08a8 0028     		cmp	r0, #0
 1432 08aa FAD0     		beq	.L136
 1433              		.loc 1 605 0 is_stmt 1
 1434 08ac A94C     		ldr	r4, .L716+8
 1435              	.L137:
 1436              		.loc 1 605 0 is_stmt 0 discriminator 1
 1437 08ae 2046     		mov	r0, r4
 1438 08b0 FFF7FEFF 		bl	e_getchar_uart2
 1439              	.LVL98:
 1440 08b4 0028     		cmp	r0, #0
 1441 08b6 FAD0     		beq	.L137
 1442 08b8 E0E7     		b	.L135
 1443              	.L57:
 1444              		.loc 1 458 0 is_stmt 1
 1445 08ba 002F     		cmp	r7, #0
 1446 08bc 7FF4B6AD 		bne	.L46
 1447              		.loc 1 459 0
 1448 08c0 DBF80030 		ldr	r3, [fp]
 1449 08c4 0333     		adds	r3, r3, #3
 1450 08c6 0AEB0300 		add	r0, r10, r3
 1451 08ca FFF7FEFF 		bl	e_poxxxx_launch_capture
 1452              	.LVL99:
 1453              		.loc 1 461 0
 1454 08ce 1299     		ldr	r1, [sp, #72]
 1455 08d0 DBF80030 		ldr	r3, [fp]
 1456              		.loc 1 465 0
 1457 08d4 0E9A     		ldr	r2, [sp, #56]
 1458              		.loc 1 461 0
 1459 08d6 0968     		ldr	r1, [r1]
 1460              		.loc 1 462 0
 1461 08d8 1098     		ldr	r0, [sp, #64]
 1462              		.loc 1 461 0
 1463 08da 0AF80310 		strb	r1, [r10, r3]
 1464              		.loc 1 465 0
 1465 08de 1268     		ldr	r2, [r2]
 1466              		.loc 1 462 0
 1467 08e0 0068     		ldr	r0, [r0]
 1468              		.loc 1 463 0
 1469 08e2 D91C     		adds	r1, r3, #3
 1470              		.loc 1 462 0
 1471 08e4 5344     		add	r3, r3, r10
 1472              		.loc 1 465 0
 1473 08e6 0A44     		add	r2, r2, r1
 1474              		.loc 1 462 0
 1475 08e8 5870     		strb	r0, [r3, #1]
 1476              		.loc 1 463 0
 1477 08ea 1198     		ldr	r0, [sp, #68]
 1478              		.loc 1 465 0
 1479 08ec CBF80020 		str	r2, [fp]
 1480              		.loc 1 464 0
 1481 08f0 8AB2     		uxth	r2, r1
 1482              		.loc 1 463 0
ARM GAS  C:\Users\osour\AppData\Local\Temp\ccsBkKuy.s 			page 27


 1483 08f2 0068     		ldr	r0, [r0]
 1484              		.loc 1 464 0
 1485 08f4 0F92     		str	r2, [sp, #60]
 1486              	.LVL100:
 1487              		.loc 1 460 0
 1488 08f6 984A     		ldr	r2, .L716+12
 1489              	.LVL101:
 1490              		.loc 1 463 0
 1491 08f8 9870     		strb	r0, [r3, #2]
 1492              		.loc 1 460 0
 1493 08fa 0123     		movs	r3, #1
 1494 08fc 1370     		strb	r3, [r2]
 1495 08fe 31E6     		b	.L78
 1496              	.LVL102:
 1497              	.L59:
 1498              		.loc 1 492 0
 1499 0900 002F     		cmp	r7, #0
 1500 0902 7FF493AD 		bne	.L46
 1501              		.loc 1 493 0
 1502 0906 FFF7FEFF 		bl	e_i2cp_init
 1503              	.LVL103:
 1504              		.loc 1 494 0
 1505 090a FFF7FEFF 		bl	e_i2cp_enable
 1506              	.LVL104:
 1507              		.loc 1 495 0
 1508 090e 3946     		mov	r1, r7
 1509 0910 C020     		movs	r0, #192
 1510 0912 FFF7FEFF 		bl	e_i2cp_read
 1511              	.LVL105:
 1512              		.loc 1 496 0
 1513 0916 C8F80070 		str	r7, [r8]
 1514 091a 3B46     		mov	r3, r7
 1515              	.L109:
 1516 091c DAB2     		uxtb	r2, r3
 1517 091e DBF80040 		ldr	r4, [fp]
 1518              		.loc 1 497 0
 1519 0922 DB07     		lsls	r3, r3, #31
 1520 0924 02F10101 		add	r1, r2, #1
 1521              		.loc 1 498 0
 1522 0928 02F1FF32 		add	r2, r2, #-1
 1523              		.loc 1 497 0
 1524 092c 4FF0C000 		mov	r0, #192
 1525 0930 C9B2     		uxtb	r1, r1
 1526              		.loc 1 498 0
 1527 0932 44BF     		itt	mi
 1528 0934 C020     		movmi	r0, #192
 1529 0936 D1B2     		uxtbmi	r1, r2
 1530 0938 651C     		adds	r5, r4, #1
 1531 093a CBF80050 		str	r5, [fp]
 1532 093e FFF7FEFF 		bl	e_i2cp_read
 1533              	.LVL106:
 1534              		.loc 1 496 0
 1535 0942 D8F80030 		ldr	r3, [r8]
 1536              		.loc 1 498 0
 1537 0946 0AF80400 		strb	r0, [r10, r4]
 1538              		.loc 1 496 0
 1539 094a 0133     		adds	r3, r3, #1
ARM GAS  C:\Users\osour\AppData\Local\Temp\ccsBkKuy.s 			page 28


 1540 094c 052B     		cmp	r3, #5
 1541 094e C8F80030 		str	r3, [r8]
 1542 0952 E3DD     		ble	.L109
 1543              		.loc 1 501 0
 1544 0954 0D23     		movs	r3, #13
 1545 0956 C8F80030 		str	r3, [r8]
 1546              	.L112:
 1547 095a DAB2     		uxtb	r2, r3
 1548 095c DBF80040 		ldr	r4, [fp]
 1549              		.loc 1 502 0
 1550 0960 DB07     		lsls	r3, r3, #31
 1551 0962 02F1FF31 		add	r1, r2, #-1
 1552              		.loc 1 503 0
 1553 0966 02F10102 		add	r2, r2, #1
 1554              		.loc 1 502 0
 1555 096a 4FF0C000 		mov	r0, #192
 1556 096e C9B2     		uxtb	r1, r1
 1557              		.loc 1 503 0
 1558 0970 44BF     		itt	mi
 1559 0972 C020     		movmi	r0, #192
 1560 0974 D1B2     		uxtbmi	r1, r2
 1561 0976 651C     		adds	r5, r4, #1
 1562 0978 CBF80050 		str	r5, [fp]
 1563 097c FFF7FEFF 		bl	e_i2cp_read
 1564              	.LVL107:
 1565              		.loc 1 501 0
 1566 0980 D8F80030 		ldr	r3, [r8]
 1567              		.loc 1 503 0
 1568 0984 0AF80400 		strb	r0, [r10, r4]
 1569              		.loc 1 501 0
 1570 0988 0133     		adds	r3, r3, #1
 1571 098a 102B     		cmp	r3, #16
 1572 098c C8F80030 		str	r3, [r8]
 1573 0990 E3DD     		ble	.L112
 1574 0992 7DE7     		b	.L678
 1575              	.L53:
 1576              		.loc 1 336 0
 1577 0994 FFF7FEFF 		bl	isSDCardMounted
 1578              	.LVL108:
 1579              		.loc 1 337 0
 1580 0998 DBF80030 		ldr	r3, [fp]
 1581              		.loc 1 336 0
 1582 099c 0028     		cmp	r0, #0
 1583 099e 01F07C80 		beq	.L80
 1584              		.loc 1 337 0
 1585 09a2 0121     		movs	r1, #1
 1586 09a4 5A18     		adds	r2, r3, r1
 1587 09a6 0AF80310 		strb	r1, [r10, r3]
 1588 09aa CBF80020 		str	r2, [fp]
 1589 09ae D8E5     		b	.L47
 1590              	.L60:
 1591              		.loc 1 516 0
 1592 09b0 0020     		movs	r0, #0
 1593 09b2 C8F80000 		str	r0, [r8]
 1594              	.L113:
 1595              		.loc 1 517 0 discriminator 3
 1596 09b6 FFF7FEFF 		bl	e_get_calibrated_prox
ARM GAS  C:\Users\osour\AppData\Local\Temp\ccsBkKuy.s 			page 29


 1597              	.LVL109:
 1598              		.loc 1 518 0 discriminator 3
 1599 09ba DBF80020 		ldr	r2, [fp]
 1600              		.loc 1 516 0 discriminator 3
 1601 09be D8F80030 		ldr	r3, [r8]
 1602              		.loc 1 518 0 discriminator 3
 1603 09c2 0AF80200 		strb	r0, [r10, r2]
 1604              		.loc 1 519 0 discriminator 3
 1605 09c6 0AEB0204 		add	r4, r10, r2
 1606 09ca 0112     		asrs	r1, r0, #8
 1607              		.loc 1 516 0 discriminator 3
 1608 09cc 581C     		adds	r0, r3, #1
 1609              		.loc 1 519 0 discriminator 3
 1610 09ce 0232     		adds	r2, r2, #2
 1611              		.loc 1 516 0 discriminator 3
 1612 09d0 0728     		cmp	r0, #7
 1613              		.loc 1 519 0 discriminator 3
 1614 09d2 6170     		strb	r1, [r4, #1]
 1615 09d4 CBF80020 		str	r2, [fp]
 1616              		.loc 1 516 0 discriminator 3
 1617 09d8 C8F80000 		str	r0, [r8]
 1618 09dc EBDD     		ble	.L113
 1619 09de C0E5     		b	.L47
 1620              	.L55:
 1621              		.loc 1 408 0
 1622 09e0 002F     		cmp	r7, #0
 1623 09e2 41F04480 		bne	.L85
 1624              		.loc 1 410 0
 1625 09e6 079B     		ldr	r3, [sp, #28]
 1626              		.loc 1 411 0
 1627 09e8 5C4C     		ldr	r4, .L716+16
 1628              		.loc 1 410 0
 1629 09ea 002B     		cmp	r3, #0
 1630 09ec 2FD0     		beq	.L86
 1631              	.L87:
 1632              		.loc 1 411 0 discriminator 1
 1633 09ee 2046     		mov	r0, r4
 1634 09f0 FFF7FEFF 		bl	e_getchar_uart1
 1635              	.LVL110:
 1636 09f4 0028     		cmp	r0, #0
 1637 09f6 FAD0     		beq	.L87
 1638              		.loc 1 412 0
 1639 09f8 594C     		ldr	r4, .L716+20
 1640              	.L88:
 1641              		.loc 1 412 0 is_stmt 0 discriminator 1
 1642 09fa 2046     		mov	r0, r4
 1643 09fc FFF7FEFF 		bl	e_getchar_uart1
 1644              	.LVL111:
 1645 0a00 0028     		cmp	r0, #0
 1646 0a02 FAD0     		beq	.L88
 1647              		.loc 1 417 0 is_stmt 1
 1648 0a04 564B     		ldr	r3, .L716+20
 1649              		.loc 1 421 0
 1650 0a06 554C     		ldr	r4, .L716+16
 1651              		.loc 1 417 0
 1652 0a08 1A78     		ldrb	r2, [r3]	@ zero_extendqisi2
 1653 0a0a 544B     		ldr	r3, .L716+16
ARM GAS  C:\Users\osour\AppData\Local\Temp\ccsBkKuy.s 			page 30


 1654 0a0c 1B78     		ldrb	r3, [r3]	@ zero_extendqisi2
 1655 0a0e 03EB0223 		add	r3, r3, r2, lsl #8
 1656 0a12 544A     		ldr	r2, .L716+24
 1657 0a14 1360     		str	r3, [r2]
 1658              	.L92:
 1659              		.loc 1 421 0 discriminator 1
 1660 0a16 2046     		mov	r0, r4
 1661 0a18 FFF7FEFF 		bl	e_getchar_uart1
 1662              	.LVL112:
 1663 0a1c 0028     		cmp	r0, #0
 1664 0a1e FAD0     		beq	.L92
 1665              		.loc 1 422 0
 1666 0a20 4F4C     		ldr	r4, .L716+20
 1667              	.L93:
 1668              		.loc 1 422 0 is_stmt 0 discriminator 1
 1669 0a22 2046     		mov	r0, r4
 1670 0a24 FFF7FEFF 		bl	e_getchar_uart1
 1671              	.LVL113:
 1672 0a28 0028     		cmp	r0, #0
 1673 0a2a FAD0     		beq	.L93
 1674              	.L644:
 1675 0a2c 4C4B     		ldr	r3, .L716+20
 1676 0a2e 4D49     		ldr	r1, .L716+24
 1677 0a30 1A78     		ldrb	r2, [r3]	@ zero_extendqisi2
 1678 0a32 4A4B     		ldr	r3, .L716+16
 1679 0a34 0868     		ldr	r0, [r1]
 1680 0a36 1B78     		ldrb	r3, [r3]	@ zero_extendqisi2
 1681 0a38 03EB0223 		add	r3, r3, r2, lsl #8
 1682              	.L97:
 1683              		.loc 1 427 0 is_stmt 1
 1684 0a3c 4A4A     		ldr	r2, .L716+28
 1685 0a3e 1446     		mov	r4, r2
 1686 0a40 1360     		str	r3, [r2]
 1687              		.loc 1 428 0
 1688 0a42 FFF7FEFF 		bl	e_set_speed_left
 1689              	.LVL114:
 1690              		.loc 1 429 0
 1691 0a46 2068     		ldr	r0, [r4]
 1692 0a48 FFF7FEFF 		bl	e_set_speed_right
 1693              	.LVL115:
 1694              		.loc 1 430 0
 1695 0a4c 89E5     		b	.L47
 1696              	.L86:
 1697              		.loc 1 414 0 discriminator 1
 1698 0a4e 2046     		mov	r0, r4
 1699 0a50 FFF7FEFF 		bl	e_getchar_uart2
 1700              	.LVL116:
 1701 0a54 0028     		cmp	r0, #0
 1702 0a56 FAD0     		beq	.L86
 1703              		.loc 1 415 0
 1704 0a58 414C     		ldr	r4, .L716+20
 1705              	.L90:
 1706              		.loc 1 415 0 is_stmt 0 discriminator 1
 1707 0a5a 2046     		mov	r0, r4
 1708 0a5c FFF7FEFF 		bl	e_getchar_uart2
 1709              	.LVL117:
 1710 0a60 0028     		cmp	r0, #0
ARM GAS  C:\Users\osour\AppData\Local\Temp\ccsBkKuy.s 			page 31


 1711 0a62 FAD0     		beq	.L90
 1712              		.loc 1 417 0 is_stmt 1
 1713 0a64 3E4B     		ldr	r3, .L716+20
 1714              		.loc 1 424 0
 1715 0a66 3D4C     		ldr	r4, .L716+16
 1716              		.loc 1 417 0
 1717 0a68 1A78     		ldrb	r2, [r3]	@ zero_extendqisi2
 1718 0a6a 3C4B     		ldr	r3, .L716+16
 1719 0a6c 1B78     		ldrb	r3, [r3]	@ zero_extendqisi2
 1720 0a6e 03EB0223 		add	r3, r3, r2, lsl #8
 1721 0a72 3C4A     		ldr	r2, .L716+24
 1722 0a74 1360     		str	r3, [r2]
 1723              	.L95:
 1724              		.loc 1 424 0 discriminator 1
 1725 0a76 2046     		mov	r0, r4
 1726 0a78 FFF7FEFF 		bl	e_getchar_uart2
 1727              	.LVL118:
 1728 0a7c 0028     		cmp	r0, #0
 1729 0a7e FAD0     		beq	.L95
 1730              		.loc 1 425 0
 1731 0a80 374C     		ldr	r4, .L716+20
 1732              	.L96:
 1733              		.loc 1 425 0 is_stmt 0 discriminator 1
 1734 0a82 2046     		mov	r0, r4
 1735 0a84 FFF7FEFF 		bl	e_getchar_uart2
 1736              	.LVL119:
 1737 0a88 0028     		cmp	r0, #0
 1738 0a8a FAD0     		beq	.L96
 1739 0a8c CEE7     		b	.L644
 1740              	.L54:
 1741              		.loc 1 365 0 is_stmt 1
 1742 0a8e 002F     		cmp	r7, #0
 1743 0a90 01F07B80 		beq	.L700
 1744              		.loc 1 370 0
 1745 0a94 0022     		movs	r2, #0
 1746              		.loc 1 368 0
 1747 0a96 354B     		ldr	r3, .L716+32
 1748              		.loc 1 370 0
 1749 0a98 CDE90C22 		strd	r2, r2, [sp, #48]
 1750 0a9c CDE90A22 		strd	r2, r2, [sp, #40]
 1751 0aa0 CDE90822 		strd	r2, r2, [sp, #32]
 1752              		.loc 1 368 0
 1753 0aa4 83ED008A 		vstr.32	s16, [r3]
 1754              		.loc 1 369 0
 1755 0aa8 83ED028A 		vstr.32	s16, [r3, #8]
 1756              		.loc 1 370 0
 1757 0aac 83ED018A 		vstr.32	s16, [r3, #4]
 1758 0ab0 1046     		mov	r0, r2
 1759 0ab2 1446     		mov	r4, r2
 1760 0ab4 1546     		mov	r5, r2
 1761 0ab6 9446     		mov	ip, r2
 1762 0ab8 9646     		mov	lr, r2
 1763              	.L84:
 1764              	.LVL120:
 1765              		.loc 1 373 0
 1766 0aba DBF80010 		ldr	r1, [fp]
 1767              		.loc 1 375 0
ARM GAS  C:\Users\osour\AppData\Local\Temp\ccsBkKuy.s 			page 32


 1768 0abe 0AEB0103 		add	r3, r10, r1
 1769              		.loc 1 373 0
 1770 0ac2 0AF801E0 		strb	lr, [r10, r1]
 1771              	.LVL121:
 1772              		.loc 1 382 0
 1773 0ac6 1871     		strb	r0, [r3, #4]
 1774              		.loc 1 384 0
 1775 0ac8 9DF82000 		ldrb	r0, [sp, #32]	@ zero_extendqisi2
 1776 0acc 5871     		strb	r0, [r3, #5]
 1777              		.loc 1 386 0
 1778 0ace 9DF82400 		ldrb	r0, [sp, #36]	@ zero_extendqisi2
 1779 0ad2 9871     		strb	r0, [r3, #6]
 1780              		.loc 1 388 0
 1781 0ad4 9DF82800 		ldrb	r0, [sp, #40]	@ zero_extendqisi2
 1782 0ad8 D871     		strb	r0, [r3, #7]
 1783              		.loc 1 391 0
 1784 0ada 9DF82C00 		ldrb	r0, [sp, #44]	@ zero_extendqisi2
 1785 0ade 1872     		strb	r0, [r3, #8]
 1786              		.loc 1 393 0
 1787 0ae0 9DF83000 		ldrb	r0, [sp, #48]	@ zero_extendqisi2
 1788 0ae4 5872     		strb	r0, [r3, #9]
 1789              		.loc 1 397 0
 1790 0ae6 0C31     		adds	r1, r1, #12
 1791              		.loc 1 395 0
 1792 0ae8 9DF83400 		ldrb	r0, [sp, #52]	@ zero_extendqisi2
 1793              		.loc 1 375 0
 1794 0aec 83F801C0 		strb	ip, [r3, #1]
 1795              	.LVL122:
 1796              		.loc 1 377 0
 1797 0af0 9D70     		strb	r5, [r3, #2]
 1798              	.LVL123:
 1799              		.loc 1 379 0
 1800 0af2 DC70     		strb	r4, [r3, #3]
 1801              	.LVL124:
 1802              		.loc 1 395 0
 1803 0af4 9872     		strb	r0, [r3, #10]
 1804              	.LVL125:
 1805              		.loc 1 397 0
 1806 0af6 DA72     		strb	r2, [r3, #11]
 1807 0af8 CBF80010 		str	r1, [fp]
 1808              		.loc 1 398 0
 1809 0afc 31E5     		b	.L47
 1810              	.LVL126:
 1811              	.L56:
 1812              		.loc 1 432 0
 1813 0afe 194A     		ldr	r2, .L716+24
 1814 0b00 DBF80030 		ldr	r3, [fp]
 1815              		.loc 1 434 0
 1816 0b04 1849     		ldr	r1, .L716+28
 1817              		.loc 1 432 0
 1818 0b06 1268     		ldr	r2, [r2]
 1819              		.loc 1 434 0
 1820 0b08 0868     		ldr	r0, [r1]
 1821              		.loc 1 432 0
 1822 0b0a 0AF80320 		strb	r2, [r10, r3]
 1823              		.loc 1 433 0
 1824 0b0e 0AEB0301 		add	r1, r10, r3
ARM GAS  C:\Users\osour\AppData\Local\Temp\ccsBkKuy.s 			page 33


 1825 0b12 1212     		asrs	r2, r2, #8
 1826              		.loc 1 435 0
 1827 0b14 0433     		adds	r3, r3, #4
 1828              		.loc 1 433 0
 1829 0b16 4A70     		strb	r2, [r1, #1]
 1830              		.loc 1 435 0
 1831 0b18 0212     		asrs	r2, r0, #8
 1832 0b1a CBF80030 		str	r3, [fp]
 1833              		.loc 1 434 0
 1834 0b1e 8870     		strb	r0, [r1, #2]
 1835              		.loc 1 435 0
 1836 0b20 CA70     		strb	r2, [r1, #3]
 1837              		.loc 1 436 0
 1838 0b22 1EE5     		b	.L47
 1839              	.L58:
 1840              		.loc 1 469 0
 1841 0b24 002F     		cmp	r7, #0
 1842 0b26 7FF410AD 		bne	.L99
 1843              		.loc 1 471 0
 1844 0b2a 079B     		ldr	r3, [sp, #28]
 1845              		.loc 1 472 0
 1846 0b2c 0B4C     		ldr	r4, .L716+16
 1847              		.loc 1 471 0
 1848 0b2e 002B     		cmp	r3, #0
 1849 0b30 3FF400AD 		beq	.L100
 1850              	.L101:
 1851              		.loc 1 472 0 discriminator 1
 1852 0b34 2046     		mov	r0, r4
 1853 0b36 FFF7FEFF 		bl	e_getchar_uart1
 1854              	.LVL127:
 1855 0b3a 0028     		cmp	r0, #0
 1856 0b3c FAD0     		beq	.L101
 1857              		.loc 1 473 0
 1858 0b3e 084C     		ldr	r4, .L716+20
 1859              	.L102:
 1860              		.loc 1 473 0 is_stmt 0 discriminator 1
 1861 0b40 2046     		mov	r0, r4
 1862 0b42 FFF7FEFF 		bl	e_getchar_uart1
 1863              	.LVL128:
 1864 0b46 0028     		cmp	r0, #0
 1865 0b48 FAD0     		beq	.L102
 1866 0b4a FEE4     		b	.L99
 1867              	.L717:
 1868              		.align	2
 1869              	.L716:
 1870 0b4c 00000000 		.word	.LANCHOR24
 1871 0b50 00000000 		.word	.LANCHOR25
 1872 0b54 00000000 		.word	.LANCHOR26
 1873 0b58 00000000 		.word	.LANCHOR21
 1874 0b5c 00000000 		.word	.LANCHOR16
 1875 0b60 00000000 		.word	.LANCHOR17
 1876 0b64 00000000 		.word	.LANCHOR7
 1877 0b68 00000000 		.word	.LANCHOR6
 1878 0b6c 00000000 		.word	.LANCHOR15
 1879              	.L51:
 1880              		.loc 1 307 0 is_stmt 1
 1881 0b70 0020     		movs	r0, #0
ARM GAS  C:\Users\osour\AppData\Local\Temp\ccsBkKuy.s 			page 34


 1882 0b72 FFF7FEFF 		bl	e_get_micro_volume
 1883              	.LVL129:
 1884              		.loc 1 308 0
 1885 0b76 DBF80030 		ldr	r3, [fp]
 1886              		.loc 1 309 0
 1887 0b7a 0AEB0302 		add	r2, r10, r3
 1888              		.loc 1 308 0
 1889 0b7e 0AF80300 		strb	r0, [r10, r3]
 1890              		.loc 1 309 0
 1891 0b82 0112     		asrs	r1, r0, #8
 1892 0b84 0233     		adds	r3, r3, #2
 1893              		.loc 1 311 0
 1894 0b86 0120     		movs	r0, #1
 1895              		.loc 1 309 0
 1896 0b88 5170     		strb	r1, [r2, #1]
 1897 0b8a CBF80030 		str	r3, [fp]
 1898              		.loc 1 311 0
 1899 0b8e FFF7FEFF 		bl	e_get_micro_volume
 1900              	.LVL130:
 1901              		.loc 1 312 0
 1902 0b92 DBF80030 		ldr	r3, [fp]
 1903              		.loc 1 313 0
 1904 0b96 0AEB0302 		add	r2, r10, r3
 1905              		.loc 1 312 0
 1906 0b9a 0AF80300 		strb	r0, [r10, r3]
 1907              		.loc 1 313 0
 1908 0b9e 0112     		asrs	r1, r0, #8
 1909 0ba0 0233     		adds	r3, r3, #2
 1910              		.loc 1 315 0
 1911 0ba2 0220     		movs	r0, #2
 1912              		.loc 1 313 0
 1913 0ba4 5170     		strb	r1, [r2, #1]
 1914 0ba6 CBF80030 		str	r3, [fp]
 1915              		.loc 1 315 0
 1916 0baa FFF7FEFF 		bl	e_get_micro_volume
 1917              	.LVL131:
 1918              		.loc 1 316 0
 1919 0bae DBF80030 		ldr	r3, [fp]
 1920              		.loc 1 317 0
 1921 0bb2 0AEB0302 		add	r2, r10, r3
 1922              		.loc 1 316 0
 1923 0bb6 0AF80300 		strb	r0, [r10, r3]
 1924              		.loc 1 317 0
 1925 0bba 0112     		asrs	r1, r0, #8
 1926 0bbc 0233     		adds	r3, r3, #2
 1927              		.loc 1 319 0
 1928 0bbe 0320     		movs	r0, #3
 1929              		.loc 1 317 0
 1930 0bc0 5170     		strb	r1, [r2, #1]
 1931 0bc2 CBF80030 		str	r3, [fp]
 1932              		.loc 1 319 0
 1933 0bc6 FFF7FEFF 		bl	e_get_micro_volume
 1934              	.LVL132:
 1935 0bca 0AE5     		b	.L677
 1936              	.L52:
 1937              		.loc 1 325 0
 1938 0bcc 002F     		cmp	r7, #0
ARM GAS  C:\Users\osour\AppData\Local\Temp\ccsBkKuy.s 			page 35


 1939 0bce 00F0AF87 		beq	.L701
 1940              		.loc 1 330 0
 1941 0bd2 DBF80020 		ldr	r2, [fp]
 1942              		.loc 1 331 0
 1943 0bd6 0AEB0200 		add	r0, r10, r2
 1944              		.loc 1 330 0
 1945 0bda 0021     		movs	r1, #0
 1946              		.loc 1 331 0
 1947 0bdc 941C     		adds	r4, r2, #2
 1948              		.loc 1 330 0
 1949 0bde 0AF80210 		strb	r1, [r10, r2]
 1950              		.loc 1 331 0
 1951 0be2 CBF80040 		str	r4, [fp]
 1952 0be6 4170     		strb	r1, [r0, #1]
 1953 0be8 20E4     		b	.L46
 1954              	.L50:
 1955              		.loc 1 303 0
 1956 0bea DBF80040 		ldr	r4, [fp]
 1957 0bee 631C     		adds	r3, r4, #1
 1958 0bf0 CBF80030 		str	r3, [fp]
 1959 0bf4 FFF7FEFF 		bl	button_get_state
 1960              	.LVL133:
 1961 0bf8 0AF80400 		strb	r0, [r10, r4]
 1962              		.loc 1 304 0
 1963 0bfc B1E4     		b	.L47
 1964              	.L70:
 1965              		.loc 1 613 0
 1966 0bfe 002F     		cmp	r7, #0
 1967 0c00 7FF414AC 		bne	.L46
 1968              		.loc 1 614 0
 1969 0c04 FFF7FEFF 		bl	e_i2cp_enable
 1970              	.LVL134:
 1971              		.loc 1 615 0
 1972 0c08 C8F80070 		str	r7, [r8]
 1973 0c0c 3846     		mov	r0, r7
 1974 0c0e 01E0     		b	.L139
 1975              	.L702:
 1976 0c10 D8F80000 		ldr	r0, [r8]
 1977              	.L139:
 1978              		.loc 1 616 0 discriminator 1
 1979 0c14 5044     		add	r0, r0, r10
 1980 0c16 FFF7FEFF 		bl	e_getchar_uart1
 1981              	.LVL135:
 1982 0c1a 0028     		cmp	r0, #0
 1983 0c1c F8D0     		beq	.L702
 1984              		.loc 1 615 0 discriminator 2
 1985 0c1e D8F80000 		ldr	r0, [r8]
 1986 0c22 0130     		adds	r0, r0, #1
 1987 0c24 1728     		cmp	r0, #23
 1988 0c26 C8F80000 		str	r0, [r8]
 1989 0c2a F3DD     		ble	.L139
 1990              		.loc 1 618 0
 1991 0c2c 9220     		movs	r0, #146
 1992 0c2e C8F80000 		str	r0, [r8]
 1993 0c32 01E0     		b	.L142
 1994              	.L703:
 1995 0c34 D8F80000 		ldr	r0, [r8]
ARM GAS  C:\Users\osour\AppData\Local\Temp\ccsBkKuy.s 			page 36


 1996              	.L142:
 1997              		.loc 1 619 0 discriminator 1
 1998 0c38 7A38     		subs	r0, r0, #122
 1999 0c3a 5044     		add	r0, r0, r10
 2000 0c3c FFF7FEFF 		bl	e_getchar_uart1
 2001              	.LVL136:
 2002 0c40 0028     		cmp	r0, #0
 2003 0c42 F7D0     		beq	.L703
 2004              		.loc 1 618 0 discriminator 2
 2005 0c44 D8F80000 		ldr	r0, [r8]
 2006 0c48 0130     		adds	r0, r0, #1
 2007 0c4a 9428     		cmp	r0, #148
 2008 0c4c C8F80000 		str	r0, [r8]
 2009 0c50 F2DD     		ble	.L142
 2010              		.loc 1 621 0
 2011 0c52 A420     		movs	r0, #164
 2012 0c54 C8F80000 		str	r0, [r8]
 2013 0c58 01E0     		b	.L145
 2014              	.L704:
 2015 0c5a D8F80000 		ldr	r0, [r8]
 2016              	.L145:
 2017              		.loc 1 622 0 discriminator 1
 2018 0c5e 8938     		subs	r0, r0, #137
 2019 0c60 5044     		add	r0, r0, r10
 2020 0c62 FFF7FEFF 		bl	e_getchar_uart1
 2021              	.LVL137:
 2022 0c66 0028     		cmp	r0, #0
 2023 0c68 F7D0     		beq	.L704
 2024              		.loc 1 621 0 discriminator 2
 2025 0c6a D8F80000 		ldr	r0, [r8]
 2026 0c6e 0130     		adds	r0, r0, #1
 2027 0c70 AB28     		cmp	r0, #171
 2028 0c72 C8F80000 		str	r0, [r8]
 2029 0c76 F2DD     		ble	.L145
 2030              		.loc 1 624 0
 2031 0c78 0021     		movs	r1, #0
 2032 0c7a C8F80010 		str	r1, [r8]
 2033              	.L147:
 2034              		.loc 1 625 0 discriminator 3
 2035 0c7e 1AF80120 		ldrb	r2, [r10, r1]	@ zero_extendqisi2
 2036 0c82 B020     		movs	r0, #176
 2037 0c84 C9B2     		uxtb	r1, r1
 2038 0c86 FFF7FEFF 		bl	e_i2cp_write
 2039              	.LVL138:
 2040              		.loc 1 624 0 discriminator 3
 2041 0c8a D8F80010 		ldr	r1, [r8]
 2042 0c8e 0131     		adds	r1, r1, #1
 2043 0c90 1729     		cmp	r1, #23
 2044 0c92 C8F80010 		str	r1, [r8]
 2045 0c96 F2DD     		ble	.L147
 2046              		.loc 1 627 0
 2047 0c98 9221     		movs	r1, #146
 2048 0c9a C8F80010 		str	r1, [r8]
 2049              	.L148:
 2050              		.loc 1 628 0 discriminator 3
 2051 0c9e 0AEB0103 		add	r3, r10, r1
 2052 0ca2 B020     		movs	r0, #176
ARM GAS  C:\Users\osour\AppData\Local\Temp\ccsBkKuy.s 			page 37


 2053 0ca4 C9B2     		uxtb	r1, r1
 2054 0ca6 13F87A2C 		ldrb	r2, [r3, #-122]	@ zero_extendqisi2
 2055 0caa FFF7FEFF 		bl	e_i2cp_write
 2056              	.LVL139:
 2057              		.loc 1 627 0 discriminator 3
 2058 0cae D8F80010 		ldr	r1, [r8]
 2059 0cb2 0131     		adds	r1, r1, #1
 2060 0cb4 9429     		cmp	r1, #148
 2061 0cb6 C8F80010 		str	r1, [r8]
 2062 0cba F0DD     		ble	.L148
 2063              		.loc 1 630 0
 2064 0cbc A421     		movs	r1, #164
 2065 0cbe C8F80010 		str	r1, [r8]
 2066              	.L149:
 2067              		.loc 1 631 0 discriminator 3
 2068 0cc2 0AEB0103 		add	r3, r10, r1
 2069 0cc6 B020     		movs	r0, #176
 2070 0cc8 C9B2     		uxtb	r1, r1
 2071 0cca 13F8892C 		ldrb	r2, [r3, #-137]	@ zero_extendqisi2
 2072 0cce FFF7FEFF 		bl	e_i2cp_write
 2073              	.LVL140:
 2074              		.loc 1 630 0 discriminator 3
 2075 0cd2 D8F80010 		ldr	r1, [r8]
 2076 0cd6 0131     		adds	r1, r1, #1
 2077 0cd8 AB29     		cmp	r1, #171
 2078 0cda C8F80010 		str	r1, [r8]
 2079 0cde F0DD     		ble	.L149
 2080              		.loc 1 633 0
 2081 0ce0 0122     		movs	r2, #1
 2082 0ce2 9121     		movs	r1, #145
 2083 0ce4 B020     		movs	r0, #176
 2084 0ce6 FFF7FEFF 		bl	e_i2cp_write
 2085              	.LVL141:
 2086              		.loc 1 634 0
 2087 0cea FFF7FEFF 		bl	e_i2cp_disable
 2088              	.LVL142:
 2089 0cee 39E4     		b	.L78
 2090              	.L689:
 2091              	.LVL143:
 2092              	.LBB3:
 2093              		.loc 1 690 0
 2094 0cf0 FFF7FEFF 		bl	__locale_ctype_ptr
 2095              	.LVL144:
 2096 0cf4 2044     		add	r0, r0, r4
 2097 0cf6 4378     		ldrb	r3, [r0, #1]	@ zero_extendqisi2
 2098 0cf8 03F00303 		and	r3, r3, #3
 2099 0cfc 022B     		cmp	r3, #2
 2100 0cfe 08BF     		it	eq
 2101 0d00 203C     		subeq	r4, r4, #32
 2102              	.LVL145:
 2103              	.LBE3:
 2104 0d02 E4B2     		uxtb	r4, r4
 2105              		.loc 1 692 0
 2106 0d04 A4F14103 		sub	r3, r4, #65
 2107              		.loc 1 690 0
 2108 0d08 8AF80040 		strb	r4, [r10]
 2109              		.loc 1 692 0
ARM GAS  C:\Users\osour\AppData\Local\Temp\ccsBkKuy.s 			page 38


 2110 0d0c 332B     		cmp	r3, #51
 2111 0d0e 00F22B86 		bhi	.L176
 2112 0d12 01A2     		adr	r2, .L178
 2113 0d14 52F823F0 		ldr	pc, [r2, r3, lsl #2]
 2114              		.p2align 2
 2115              	.L178:
 2116 0d18 0F150000 		.word	.L177+1
 2117 0d1c A1180000 		.word	.L179+1
 2118 0d20 1D160000 		.word	.L180+1
 2119 0d24 99150000 		.word	.L181+1
 2120 0d28 61150000 		.word	.L182+1
 2121 0d2c D5180000 		.word	.L183+1
 2122 0d30 D7150000 		.word	.L184+1
 2123 0d34 D1160000 		.word	.L185+1
 2124 0d38 C5140000 		.word	.L186+1
 2125 0d3c 6D100000 		.word	.L187+1
 2126 0d40 EF0F0000 		.word	.L188+1
 2127 0d44 97120000 		.word	.L189+1
 2128 0d48 0D0F0000 		.word	.L190+1
 2129 0d4c 75130000 		.word	.L191+1
 2130 0d50 DF110000 		.word	.L192+1
 2131 0d54 D1120000 		.word	.L193+1
 2132 0d58 8B0E0000 		.word	.L194+1
 2133 0d5c DD000000 		.word	.L6+1
 2134 0d60 8F140000 		.word	.L195+1
 2135 0d64 63120000 		.word	.L196+1
 2136 0d68 43140000 		.word	.L197+1
 2137 0d6c C90E0000 		.word	.L198+1
 2138 0d70 F9130000 		.word	.L199+1
 2139 0d74 69190000 		.word	.L176+1
 2140 0d78 43110000 		.word	.L200+1
 2141 0d7c 1F0E0000 		.word	.L201+1
 2142 0d80 69190000 		.word	.L176+1
 2143 0d84 69190000 		.word	.L176+1
 2144 0d88 69190000 		.word	.L176+1
 2145 0d8c 69190000 		.word	.L176+1
 2146 0d90 69190000 		.word	.L176+1
 2147 0d94 69190000 		.word	.L176+1
 2148 0d98 69190000 		.word	.L176+1
 2149 0d9c D7210000 		.word	.L202+1
 2150 0da0 69190000 		.word	.L176+1
 2151 0da4 69190000 		.word	.L176+1
 2152 0da8 69190000 		.word	.L176+1
 2153 0dac 69190000 		.word	.L176+1
 2154 0db0 BB010000 		.word	.L174+1
 2155 0db4 69190000 		.word	.L176+1
 2156 0db8 69190000 		.word	.L176+1
 2157 0dbc 69190000 		.word	.L176+1
 2158 0dc0 69190000 		.word	.L176+1
 2159 0dc4 69190000 		.word	.L176+1
 2160 0dc8 69190000 		.word	.L176+1
 2161 0dcc 69190000 		.word	.L176+1
 2162 0dd0 69190000 		.word	.L176+1
 2163 0dd4 69190000 		.word	.L176+1
 2164 0dd8 69190000 		.word	.L176+1
 2165 0ddc 69190000 		.word	.L176+1
 2166 0de0 69190000 		.word	.L176+1
ARM GAS  C:\Users\osour\AppData\Local\Temp\ccsBkKuy.s 			page 39


 2167 0de4 E90D0000 		.word	.L203+1
 2168              		.p2align 1
 2169              	.L203:
 2170              	.LBB4:
 2171              		.loc 1 1146 0
 2172 0de8 002F     		cmp	r7, #0
 2173 0dea 40F03187 		bne	.L358
 2174              		.loc 1 1147 0
 2175 0dee FFF7FEFF 		bl	getTemperature
 2176              	.LVL146:
 2177 0df2 9349     		ldr	r1, .L718
 2178 0df4 0246     		mov	r2, r0
 2179 0df6 9348     		ldr	r0, .L718+4
 2180 0df8 FFF7FEFF 		bl	sprintf
 2181              	.LVL147:
 2182              		.loc 1 1153 0
 2183 0dfc 079B     		ldr	r3, [sp, #28]
 2184 0dfe 002B     		cmp	r3, #0
 2185 0e00 01F01981 		beq	.L705
 2186              		.loc 1 1154 0
 2187 0e04 8F48     		ldr	r0, .L718+4
 2188 0e06 FFF7FEFF 		bl	strlen
 2189              	.LVL148:
 2190 0e0a 0146     		mov	r1, r0
 2191 0e0c 8D48     		ldr	r0, .L718+4
 2192 0e0e FFF7FEFF 		bl	e_send_uart1_char
 2193              	.LVL149:
 2194              	.L361:
 2195              		.loc 1 1154 0 is_stmt 0 discriminator 2
 2196 0e12 FFF7FEFF 		bl	e_uart1_sending
 2197              	.LVL150:
 2198 0e16 0028     		cmp	r0, #0
 2199 0e18 FBD1     		bne	.L361
 2200 0e1a FFF760B9 		b	.L650
 2201              	.L201:
 2202              		.loc 1 1222 0 is_stmt 1
 2203 0e1e 002F     		cmp	r7, #0
 2204 0e20 7FF45CA9 		bne	.L6
 2205              		.loc 1 1223 0
 2206 0e24 0223     		movs	r3, #2
 2207              		.loc 1 1228 0
 2208 0e26 884D     		ldr	r5, .L718+8
 2209 0e28 864C     		ldr	r4, .L718+4
 2210              		.loc 1 1223 0
 2211 0e2a C8F80030 		str	r3, [r8]
 2212 0e2e 079E     		ldr	r6, [sp, #28]
 2213 0e30 07E0     		b	.L389
 2214              	.L385:
 2215 0e32 D8F80030 		ldr	r3, [r8]
 2216 0e36 0233     		adds	r3, r3, #2
 2217 0e38 FE2B     		cmp	r3, #254
 2218 0e3a C8F80030 		str	r3, [r8]
 2219 0e3e 3FF74EA9 		bgt	.L650
 2220              	.L389:
 2221              		.loc 1 1224 0
 2222 0e42 FFF7FEFF 		bl	e_i2cp_enable
 2223              	.LVL151:
ARM GAS  C:\Users\osour\AppData\Local\Temp\ccsBkKuy.s 			page 40


 2224              		.loc 1 1225 0
 2225 0e46 0021     		movs	r1, #0
 2226 0e48 98F80000 		ldrb	r0, [r8]	@ zero_extendqisi2
 2227 0e4c FFF7FEFF 		bl	e_i2cp_read
 2228              	.LVL152:
 2229 0e50 7E4B     		ldr	r3, .L718+12
 2230 0e52 1860     		str	r0, [r3]
 2231              		.loc 1 1226 0
 2232 0e54 FFF7FEFF 		bl	e_i2cp_disable
 2233              	.LVL153:
 2234              		.loc 1 1227 0
 2235 0e58 7C4B     		ldr	r3, .L718+12
 2236 0e5a 1B68     		ldr	r3, [r3]
 2237 0e5c 002B     		cmp	r3, #0
 2238 0e5e E8DB     		blt	.L385
 2239              		.loc 1 1228 0
 2240 0e60 D8F80020 		ldr	r2, [r8]
 2241 0e64 2946     		mov	r1, r5
 2242 0e66 2046     		mov	r0, r4
 2243 0e68 FFF7FEFF 		bl	sprintf
 2244              	.LVL154:
 2245              		.loc 1 1230 0
 2246 0e6c 2046     		mov	r0, r4
 2247              		.loc 1 1229 0
 2248 0e6e 002E     		cmp	r6, #0
 2249 0e70 00F01587 		beq	.L386
 2250              		.loc 1 1230 0
 2251 0e74 FFF7FEFF 		bl	strlen
 2252              	.LVL155:
 2253 0e78 0146     		mov	r1, r0
 2254 0e7a 2046     		mov	r0, r4
 2255 0e7c FFF7FEFF 		bl	e_send_uart1_char
 2256              	.LVL156:
 2257              	.L387:
 2258              		.loc 1 1230 0 is_stmt 0 discriminator 2
 2259 0e80 FFF7FEFF 		bl	e_uart1_sending
 2260              	.LVL157:
 2261 0e84 0028     		cmp	r0, #0
 2262 0e86 FBD1     		bne	.L387
 2263 0e88 D3E7     		b	.L385
 2264              	.L194:
 2265              		.loc 1 1084 0 is_stmt 1
 2266 0e8a FFF7FEFF 		bl	e_get_steps_left
 2267              	.LVL158:
 2268 0e8e 0446     		mov	r4, r0
 2269 0e90 FFF7FEFF 		bl	e_get_steps_right
 2270              	.LVL159:
 2271 0e94 2246     		mov	r2, r4
 2272 0e96 0346     		mov	r3, r0
 2273 0e98 6D49     		ldr	r1, .L718+16
 2274 0e9a 6A48     		ldr	r0, .L718+4
 2275 0e9c FFF7FEFF 		bl	sprintf
 2276              	.LVL160:
 2277              		.loc 1 1085 0
 2278 0ea0 002F     		cmp	r7, #0
 2279 0ea2 7FF41BA9 		bne	.L6
 2280 0ea6 6748     		ldr	r0, .L718+4
ARM GAS  C:\Users\osour\AppData\Local\Temp\ccsBkKuy.s 			page 41


 2281 0ea8 FFF7FEFF 		bl	strlen
 2282              	.LVL161:
 2283              		.loc 1 1087 0
 2284 0eac 079B     		ldr	r3, [sp, #28]
 2285 0eae 0146     		mov	r1, r0
 2286              		.loc 1 1088 0
 2287 0eb0 6448     		ldr	r0, .L718+4
 2288              		.loc 1 1087 0
 2289 0eb2 002B     		cmp	r3, #0
 2290 0eb4 01F0AA80 		beq	.L340
 2291              		.loc 1 1088 0
 2292 0eb8 FFF7FEFF 		bl	e_send_uart1_char
 2293              	.LVL162:
 2294              	.L341:
 2295              		.loc 1 1088 0 is_stmt 0 discriminator 2
 2296 0ebc FFF7FEFF 		bl	e_uart1_sending
 2297              	.LVL163:
 2298 0ec0 0028     		cmp	r0, #0
 2299 0ec2 FBD1     		bne	.L341
 2300 0ec4 FFF70BB9 		b	.L650
 2301              	.L198:
 2302              		.loc 1 1171 0 is_stmt 1
 2303 0ec8 002F     		cmp	r7, #0
 2304 0eca 40F0AE86 		bne	.L366
 2305              		.loc 1 1173 0
 2306 0ece 079B     		ldr	r3, [sp, #28]
 2307              		.loc 1 1174 0
 2308 0ed0 6048     		ldr	r0, .L718+20
 2309 0ed2 2521     		movs	r1, #37
 2310              		.loc 1 1173 0
 2311 0ed4 002B     		cmp	r3, #0
 2312 0ed6 00F00D87 		beq	.L367
 2313              		.loc 1 1174 0
 2314 0eda FFF7FEFF 		bl	e_send_uart1_char
 2315              	.LVL164:
 2316              	.L368:
 2317              		.loc 1 1174 0 is_stmt 0 discriminator 2
 2318 0ede FFF7FEFF 		bl	e_uart1_sending
 2319              	.LVL165:
 2320 0ee2 0028     		cmp	r0, #0
 2321 0ee4 FBD1     		bne	.L368
 2322              		.loc 1 1178 0 is_stmt 1
 2323 0ee6 5C4B     		ldr	r3, .L718+24
 2324 0ee8 5C49     		ldr	r1, .L718+28
 2325 0eea 1A68     		ldr	r2, [r3]
 2326 0eec 5548     		ldr	r0, .L718+4
 2327 0eee FFF7FEFF 		bl	sprintf
 2328              	.LVL166:
 2329              		.loc 1 1182 0
 2330 0ef2 5448     		ldr	r0, .L718+4
 2331 0ef4 FFF7FEFF 		bl	strlen
 2332              	.LVL167:
 2333 0ef8 0146     		mov	r1, r0
 2334 0efa 5248     		ldr	r0, .L718+4
 2335 0efc FFF7FEFF 		bl	e_send_uart1_char
 2336              	.LVL168:
 2337              	.L372:
ARM GAS  C:\Users\osour\AppData\Local\Temp\ccsBkKuy.s 			page 42


 2338              		.loc 1 1182 0 is_stmt 0 discriminator 2
 2339 0f00 FFF7FEFF 		bl	e_uart1_sending
 2340              	.LVL169:
 2341 0f04 0028     		cmp	r0, #0
 2342 0f06 FBD1     		bne	.L372
 2343 0f08 FFF7E9B8 		b	.L650
 2344              	.L190:
 2345              		.loc 1 996 0 is_stmt 1
 2346 0f0c 002F     		cmp	r7, #0
 2347 0f0e 7FF4E5A8 		bne	.L6
 2348              		.loc 1 997 0
 2349 0f12 FFF7FEFF 		bl	e_i2cp_enable
 2350              	.LVL170:
 2351              		.loc 1 998 0
 2352 0f16 3C46     		mov	r4, r7
 2353 0f18 C8F80070 		str	r7, [r8]
 2354              	.L324:
 2355 0f1c E3B2     		uxtb	r3, r4
 2356              		.loc 1 999 0
 2357 0f1e E207     		lsls	r2, r4, #31
 2358 0f20 03F10101 		add	r1, r3, #1
 2359              		.loc 1 1000 0
 2360 0f24 03F1FF33 		add	r3, r3, #-1
 2361              		.loc 1 999 0
 2362 0f28 4FF0C000 		mov	r0, #192
 2363 0f2c C9B2     		uxtb	r1, r1
 2364              		.loc 1 1000 0
 2365 0f2e 44BF     		itt	mi
 2366 0f30 C020     		movmi	r0, #192
 2367 0f32 D9B2     		uxtbmi	r1, r3
 2368 0f34 FFF7FEFF 		bl	e_i2cp_read
 2369              	.LVL171:
 2370 0f38 0AF80400 		strb	r0, [r10, r4]
 2371              		.loc 1 998 0
 2372 0f3c D8F80040 		ldr	r4, [r8]
 2373 0f40 0134     		adds	r4, r4, #1
 2374 0f42 052C     		cmp	r4, #5
 2375 0f44 C8F80040 		str	r4, [r8]
 2376 0f48 E8DD     		ble	.L324
 2377              		.loc 1 1003 0
 2378 0f4a 0D23     		movs	r3, #13
 2379 0f4c C8F80030 		str	r3, [r8]
 2380              	.L327:
 2381 0f50 DAB2     		uxtb	r2, r3
 2382 0f52 DC1F     		subs	r4, r3, #7
 2383              		.loc 1 1004 0
 2384 0f54 511E     		subs	r1, r2, #1
 2385 0f56 DB07     		lsls	r3, r3, #31
 2386              		.loc 1 1005 0
 2387 0f58 02F10102 		add	r2, r2, #1
 2388              		.loc 1 1004 0
 2389 0f5c 4FF0C000 		mov	r0, #192
 2390 0f60 C9B2     		uxtb	r1, r1
 2391              		.loc 1 1005 0
 2392 0f62 44BF     		itt	mi
 2393 0f64 C020     		movmi	r0, #192
 2394 0f66 D1B2     		uxtbmi	r1, r2
ARM GAS  C:\Users\osour\AppData\Local\Temp\ccsBkKuy.s 			page 43


 2395 0f68 FFF7FEFF 		bl	e_i2cp_read
 2396              	.LVL172:
 2397              		.loc 1 1003 0
 2398 0f6c D8F80030 		ldr	r3, [r8]
 2399              		.loc 1 1005 0
 2400 0f70 0AF80400 		strb	r0, [r10, r4]
 2401              		.loc 1 1003 0
 2402 0f74 0133     		adds	r3, r3, #1
 2403 0f76 102B     		cmp	r3, #16
 2404 0f78 C8F80030 		str	r3, [r8]
 2405 0f7c E8DD     		ble	.L327
 2406              		.loc 1 1008 0
 2407 0f7e FFF7FEFF 		bl	e_i2cp_disable
 2408              	.LVL173:
 2409              		.loc 1 1021 0
 2410 0f82 9AF80940 		ldrb	r4, [r10, #9]	@ zero_extendqisi2
 2411              		.loc 1 1019 0
 2412 0f86 9AF80700 		ldrb	r0, [r10, #7]	@ zero_extendqisi2
 2413              		.loc 1 1020 0
 2414 0f8a 9AF80830 		ldrb	r3, [r10, #8]	@ zero_extendqisi2
 2415              		.loc 1 1018 0
 2416 0f8e 9AF80620 		ldrb	r2, [r10, #6]	@ zero_extendqisi2
 2417              		.loc 1 1017 0
 2418 0f92 9AF80550 		ldrb	r5, [r10, #5]	@ zero_extendqisi2
 2419              		.loc 1 1016 0
 2420 0f96 9AF80410 		ldrb	r1, [r10, #4]	@ zero_extendqisi2
 2421              		.loc 1 1011 0
 2422 0f9a 03EB0423 		add	r3, r3, r4, lsl #8
 2423 0f9e 02EB0022 		add	r2, r2, r0, lsl #8
 2424              		.loc 1 1015 0
 2425 0fa2 9AF80340 		ldrb	r4, [r10, #3]	@ zero_extendqisi2
 2426              		.loc 1 1013 0
 2427 0fa6 9AF80100 		ldrb	r0, [r10, #1]	@ zero_extendqisi2
 2428              		.loc 1 1011 0
 2429 0faa 0293     		str	r3, [sp, #8]
 2430 0fac 0192     		str	r2, [sp, #4]
 2431              		.loc 1 1014 0
 2432 0fae 9AF80230 		ldrb	r3, [r10, #2]	@ zero_extendqisi2
 2433              		.loc 1 1012 0
 2434 0fb2 9AF80020 		ldrb	r2, [r10]	@ zero_extendqisi2
 2435              		.loc 1 1011 0
 2436 0fb6 01EB0521 		add	r1, r1, r5, lsl #8
 2437 0fba 0091     		str	r1, [sp]
 2438 0fbc 03EB0423 		add	r3, r3, r4, lsl #8
 2439 0fc0 02EB0022 		add	r2, r2, r0, lsl #8
 2440 0fc4 2649     		ldr	r1, .L718+32
 2441 0fc6 1F48     		ldr	r0, .L718+4
 2442 0fc8 FFF7FEFF 		bl	sprintf
 2443              	.LVL174:
 2444              		.loc 1 1031 0
 2445 0fcc 079B     		ldr	r3, [sp, #28]
 2446              		.loc 1 1032 0
 2447 0fce 1D48     		ldr	r0, .L718+4
 2448              		.loc 1 1031 0
 2449 0fd0 002B     		cmp	r3, #0
 2450 0fd2 01F0C380 		beq	.L328
 2451              		.loc 1 1032 0
ARM GAS  C:\Users\osour\AppData\Local\Temp\ccsBkKuy.s 			page 44


 2452 0fd6 FFF7FEFF 		bl	strlen
 2453              	.LVL175:
 2454 0fda 0146     		mov	r1, r0
 2455 0fdc 1948     		ldr	r0, .L718+4
 2456 0fde FFF7FEFF 		bl	e_send_uart1_char
 2457              	.LVL176:
 2458              	.L329:
 2459              		.loc 1 1032 0 is_stmt 0 discriminator 2
 2460 0fe2 FFF7FEFF 		bl	e_uart1_sending
 2461              	.LVL177:
 2462 0fe6 0028     		cmp	r0, #0
 2463 0fe8 FBD1     		bne	.L329
 2464 0fea FFF778B8 		b	.L650
 2465              	.L188:
 2466              		.loc 1 960 0 is_stmt 1
 2467 0fee 002F     		cmp	r7, #0
 2468 0ff0 40F00A86 		bne	.L311
 2469              		.loc 1 962 0
 2470 0ff4 079B     		ldr	r3, [sp, #28]
 2471              		.loc 1 963 0
 2472 0ff6 1B48     		ldr	r0, .L718+36
 2473 0ff8 3E21     		movs	r1, #62
 2474              		.loc 1 962 0
 2475 0ffa 002B     		cmp	r3, #0
 2476 0ffc 00F05B86 		beq	.L312
 2477              		.loc 1 963 0
 2478 1000 FFF7FEFF 		bl	e_send_uart1_char
 2479              	.LVL178:
 2480              	.L313:
 2481              		.loc 1 963 0 is_stmt 0 discriminator 2
 2482 1004 FFF7FEFF 		bl	e_uart1_sending
 2483              	.LVL179:
 2484 1008 0028     		cmp	r0, #0
 2485 100a FBD1     		bne	.L313
 2486              		.loc 1 968 0 is_stmt 1
 2487 100c 0121     		movs	r1, #1
 2488 100e 0820     		movs	r0, #8
 2489 1010 FFF7FEFF 		bl	e_set_led
 2490              	.LVL180:
 2491              		.loc 1 970 0
 2492 1014 4FF4C870 		mov	r0, #400
 2493 1018 FFF7FEFF 		bl	chThdSleep
 2494              	.LVL181:
 2495              		.loc 1 971 0
 2496 101c FFF7FEFF 		bl	e_led_clear
 2497              	.LVL182:
 2498              		.loc 1 973 0
 2499 1020 6420     		movs	r0, #100
 2500 1022 FFF7FEFF 		bl	chThdSleep
 2501              	.LVL183:
 2502              		.loc 1 974 0
 2503 1026 FFF7FEFF 		bl	e_calibrate_ir
 2504              	.LVL184:
 2505              		.loc 1 978 0
 2506 102a 1921     		movs	r1, #25
 2507 102c 0E48     		ldr	r0, .L718+40
 2508 102e FFF7FEFF 		bl	e_send_uart1_char
ARM GAS  C:\Users\osour\AppData\Local\Temp\ccsBkKuy.s 			page 45


 2509              	.LVL185:
 2510              	.L317:
 2511              		.loc 1 978 0 is_stmt 0 discriminator 2
 2512 1032 FFF7FEFF 		bl	e_uart1_sending
 2513              	.LVL186:
 2514 1036 0028     		cmp	r0, #0
 2515 1038 FBD1     		bne	.L317
 2516 103a FFF750B8 		b	.L650
 2517              	.L719:
 2518 103e 00BF     		.align	2
 2519              	.L718:
 2520 1040 B40A0000 		.word	.LC85
 2521 1044 00000000 		.word	buffer
 2522 1048 2C0B0000 		.word	.LC94
 2523 104c 00000000 		.word	.LANCHOR26
 2524 1050 980A0000 		.word	.LC81
 2525 1054 D40A0000 		.word	.LC88
 2526 1058 00000000 		.word	.LANCHOR0
 2527 105c 500B0000 		.word	.LC96
 2528 1060 3C0A0000 		.word	.LC76
 2529 1064 EC090000 		.word	.LC73
 2530 1068 640B0000 		.word	.LC97
 2531              	.LVL187:
 2532              	.L187:
 2533              		.loc 1 929 0 is_stmt 1
 2534 106c 002F     		cmp	r7, #0
 2535 106e 7FF435A8 		bne	.L6
 2536              		.loc 1 932 0
 2537 1072 139B     		ldr	r3, [sp, #76]
 2538 1074 A64D     		ldr	r5, .L720
 2539 1076 A74E     		ldr	r6, .L720+4
 2540 1078 0193     		str	r3, [sp, #4]
 2541              		.loc 1 930 0
 2542 107a 4FF0FF34 		mov	r4, #-1
 2543              		.loc 1 932 0
 2544 107e 119B     		ldr	r3, [sp, #68]
 2545 1080 0093     		str	r3, [sp]
 2546 1082 0395     		str	r5, [sp, #12]
 2547 1084 0296     		str	r6, [sp, #8]
 2548 1086 A44B     		ldr	r3, .L720+8
 2549 1088 A44A     		ldr	r2, .L720+12
 2550 108a A549     		ldr	r1, .L720+16
 2551 108c A548     		ldr	r0, .L720+20
 2552              		.loc 1 930 0
 2553 108e 3460     		str	r4, [r6]
 2554              		.loc 1 931 0
 2555 1090 2C60     		str	r4, [r5]
 2556              		.loc 1 932 0
 2557 1092 FFF7FEFF 		bl	sscanf
 2558              	.LVL188:
 2559              		.loc 1 933 0
 2560 1096 129A     		ldr	r2, [sp, #72]
 2561 1098 1368     		ldr	r3, [r2]
 2562 109a 002B     		cmp	r3, #0
 2563 109c 41F04080 		bne	.L302
 2564              		.loc 1 934 0
 2565 10a0 109A     		ldr	r2, [sp, #64]
ARM GAS  C:\Users\osour\AppData\Local\Temp\ccsBkKuy.s 			page 46


 2566 10a2 119B     		ldr	r3, [sp, #68]
 2567 10a4 1268     		ldr	r2, [r2]
 2568 10a6 1B68     		ldr	r3, [r3]
 2569 10a8 03FB02F3 		mul	r3, r3, r2
 2570 10ac 0E9A     		ldr	r2, [sp, #56]
 2571 10ae 1360     		str	r3, [r2]
 2572              	.L303:
 2573              		.loc 1 937 0
 2574 10b0 41F22802 		movw	r2, #4136
 2575 10b4 9342     		cmp	r3, r2
 2576 10b6 0BDD     		ble	.L304
 2577              		.loc 1 938 0
 2578 10b8 1299     		ldr	r1, [sp, #72]
 2579 10ba 0122     		movs	r2, #1
 2580 10bc 0A60     		str	r2, [r1]
 2581              		.loc 1 939 0
 2582 10be 1099     		ldr	r1, [sp, #64]
 2583 10c0 2823     		movs	r3, #40
 2584 10c2 0B60     		str	r3, [r1]
 2585              		.loc 1 940 0
 2586 10c4 1199     		ldr	r1, [sp, #68]
 2587 10c6 0B60     		str	r3, [r1]
 2588              		.loc 1 941 0
 2589 10c8 0E9B     		ldr	r3, [sp, #56]
 2590 10ca 4FF44862 		mov	r2, #3200
 2591 10ce 1A60     		str	r2, [r3]
 2592              	.L304:
 2593              		.loc 1 943 0
 2594 10d0 FFF7FEFF 		bl	e_poxxxx_init_cam
 2595              	.LVL189:
 2596              		.loc 1 944 0
 2597 10d4 8F4B     		ldr	r3, .L720+4
 2598 10d6 1868     		ldr	r0, [r3]
 2599              		.loc 1 945 0
 2600 10d8 139B     		ldr	r3, [sp, #76]
 2601 10da 1D68     		ldr	r5, [r3]
 2602 10dc 109B     		ldr	r3, [sp, #64]
 2603 10de 1A68     		ldr	r2, [r3]
 2604              		.loc 1 944 0
 2605 10e0 461C     		adds	r6, r0, #1
 2606              		.loc 1 945 0
 2607 10e2 02FB05F2 		mul	r2, r2, r5
 2608              		.loc 1 944 0
 2609 10e6 06D1     		bne	.L306
 2610              		.loc 1 945 0
 2611 10e8 C2F52070 		rsb	r0, r2, #640
 2612 10ec 00EBD070 		add	r0, r0, r0, lsr #31
 2613 10f0 884B     		ldr	r3, .L720+4
 2614 10f2 4010     		asrs	r0, r0, #1
 2615 10f4 1860     		str	r0, [r3]
 2616              	.L306:
 2617              		.loc 1 947 0
 2618 10f6 8649     		ldr	r1, .L720
 2619 10f8 119B     		ldr	r3, [sp, #68]
 2620 10fa 0968     		ldr	r1, [r1]
 2621 10fc 1B68     		ldr	r3, [r3]
 2622 10fe 4C1C     		adds	r4, r1, #1
ARM GAS  C:\Users\osour\AppData\Local\Temp\ccsBkKuy.s 			page 47


 2623 1100 03FB05F3 		mul	r3, r3, r5
 2624 1104 06D1     		bne	.L307
 2625              		.loc 1 948 0
 2626 1106 C3F5F071 		rsb	r1, r3, #480
 2627 110a 01EBD171 		add	r1, r1, r1, lsr #31
 2628 110e 804C     		ldr	r4, .L720
 2629 1110 4910     		asrs	r1, r1, #1
 2630 1112 2160     		str	r1, [r4]
 2631              	.L307:
 2632              		.loc 1 950 0
 2633 1114 129C     		ldr	r4, [sp, #72]
 2634 1116 2468     		ldr	r4, [r4]
 2635 1118 0294     		str	r4, [sp, #8]
 2636 111a CDE90055 		strd	r5, r5, [sp]
 2637 111e FFF7FEFF 		bl	e_poxxxx_config_cam
 2638              	.LVL190:
 2639              		.loc 1 951 0
 2640 1122 FFF7FEFF 		bl	e_poxxxx_write_cam_registers
 2641              	.LVL191:
 2642              		.loc 1 952 0
 2643 1126 079B     		ldr	r3, [sp, #28]
 2644              		.loc 1 953 0
 2645 1128 7F48     		ldr	r0, .L720+24
 2646 112a 0321     		movs	r1, #3
 2647              		.loc 1 952 0
 2648 112c 002B     		cmp	r3, #0
 2649 112e 00F0AF87 		beq	.L308
 2650              		.loc 1 953 0
 2651 1132 FFF7FEFF 		bl	e_send_uart1_char
 2652              	.LVL192:
 2653              	.L309:
 2654              		.loc 1 953 0 is_stmt 0 discriminator 2
 2655 1136 FFF7FEFF 		bl	e_uart1_sending
 2656              	.LVL193:
 2657 113a 0028     		cmp	r0, #0
 2658 113c FBD1     		bne	.L309
 2659 113e FEF7CEBF 		b	.L650
 2660              	.L200:
 2661              		.loc 1 1201 0 is_stmt 1
 2662 1142 002F     		cmp	r7, #0
 2663 1144 7EF4CAAF 		bne	.L6
 2664              		.loc 1 1202 0
 2665 1148 784B     		ldr	r3, .L720+28
 2666 114a 794A     		ldr	r2, .L720+32
 2667 114c 7949     		ldr	r1, .L720+36
 2668 114e 7548     		ldr	r0, .L720+20
 2669 1150 FFF7FEFF 		bl	sscanf
 2670              	.LVL194:
 2671              		.loc 1 1203 0
 2672 1154 754B     		ldr	r3, .L720+28
 2673 1156 764A     		ldr	r2, .L720+32
 2674 1158 1B68     		ldr	r3, [r3]
 2675 115a 1268     		ldr	r2, [r2]
 2676 115c 7649     		ldr	r1, .L720+40
 2677 115e 7148     		ldr	r0, .L720+20
 2678 1160 FFF7FEFF 		bl	sprintf
 2679              	.LVL195:
ARM GAS  C:\Users\osour\AppData\Local\Temp\ccsBkKuy.s 			page 48


 2680              		.loc 1 1204 0
 2681 1164 079B     		ldr	r3, [sp, #28]
 2682              		.loc 1 1205 0
 2683 1166 6F48     		ldr	r0, .L720+20
 2684              		.loc 1 1204 0
 2685 1168 002B     		cmp	r3, #0
 2686 116a 01F00B80 		beq	.L377
 2687              		.loc 1 1205 0
 2688 116e FFF7FEFF 		bl	strlen
 2689              	.LVL196:
 2690 1172 0146     		mov	r1, r0
 2691 1174 6B48     		ldr	r0, .L720+20
 2692 1176 FFF7FEFF 		bl	e_send_uart1_char
 2693              	.LVL197:
 2694              	.L378:
 2695              		.loc 1 1205 0 is_stmt 0 discriminator 2
 2696 117a FFF7FEFF 		bl	e_uart1_sending
 2697              	.LVL198:
 2698 117e 0028     		cmp	r0, #0
 2699 1180 FBD1     		bne	.L378
 2700              	.L379:
 2701              		.loc 1 1209 0 is_stmt 1
 2702 1182 FFF7FEFF 		bl	e_i2cp_enable
 2703              	.LVL199:
 2704              		.loc 1 1210 0
 2705 1186 694B     		ldr	r3, .L720+28
 2706 1188 1978     		ldrb	r1, [r3]	@ zero_extendqisi2
 2707 118a 694B     		ldr	r3, .L720+32
 2708 118c 1878     		ldrb	r0, [r3]	@ zero_extendqisi2
 2709 118e FFF7FEFF 		bl	e_i2cp_read
 2710              	.LVL200:
 2711 1192 6A4B     		ldr	r3, .L720+44
 2712 1194 1C46     		mov	r4, r3
 2713 1196 1860     		str	r0, [r3]
 2714              		.loc 1 1211 0
 2715 1198 FFF7FEFF 		bl	e_i2cp_disable
 2716              	.LVL201:
 2717              		.loc 1 1212 0
 2718 119c 6849     		ldr	r1, .L720+48
 2719 119e 2268     		ldr	r2, [r4]
 2720 11a0 6048     		ldr	r0, .L720+20
 2721 11a2 FFF7FEFF 		bl	sprintf
 2722              	.LVL202:
 2723              		.loc 1 1213 0
 2724 11a6 5F48     		ldr	r0, .L720+20
 2725 11a8 FFF7FEFF 		bl	strlen
 2726              	.LVL203:
 2727 11ac 0146     		mov	r1, r0
 2728 11ae 5D48     		ldr	r0, .L720+20
 2729 11b0 FFF7FEFF 		bl	e_send_uart1_char
 2730              	.LVL204:
 2731              	.L381:
 2732              		.loc 1 1213 0 is_stmt 0 discriminator 2
 2733 11b4 FFF7FEFF 		bl	e_uart1_sending
 2734              	.LVL205:
 2735 11b8 0028     		cmp	r0, #0
 2736 11ba FBD1     		bne	.L381
ARM GAS  C:\Users\osour\AppData\Local\Temp\ccsBkKuy.s 			page 49


 2737 11bc 5948     		ldr	r0, .L720+20
 2738 11be FFF7FEFF 		bl	strlen
 2739              	.LVL206:
 2740              		.loc 1 1214 0 is_stmt 1
 2741 11c2 079B     		ldr	r3, [sp, #28]
 2742 11c4 0146     		mov	r1, r0
 2743              		.loc 1 1215 0
 2744 11c6 5748     		ldr	r0, .L720+20
 2745              		.loc 1 1214 0
 2746 11c8 002B     		cmp	r3, #0
 2747 11ca 00F0D387 		beq	.L382
 2748              		.loc 1 1215 0
 2749 11ce FFF7FEFF 		bl	e_send_uart1_char
 2750              	.LVL207:
 2751              	.L383:
 2752              		.loc 1 1215 0 is_stmt 0 discriminator 2
 2753 11d2 FFF7FEFF 		bl	e_uart1_sending
 2754              	.LVL208:
 2755 11d6 0028     		cmp	r0, #0
 2756 11d8 FBD1     		bne	.L383
 2757 11da FEF780BF 		b	.L650
 2758              	.L192:
 2759              		.loc 1 1060 0 is_stmt 1
 2760 11de 0020     		movs	r0, #0
 2761 11e0 FFF7FEFF 		bl	e_get_ambient_light
 2762              	.LVL209:
 2763 11e4 0B90     		str	r0, [sp, #44]
 2764 11e6 0120     		movs	r0, #1
 2765 11e8 FFF7FEFF 		bl	e_get_ambient_light
 2766              	.LVL210:
 2767 11ec 0446     		mov	r4, r0
 2768 11ee 0220     		movs	r0, #2
 2769 11f0 FFF7FEFF 		bl	e_get_ambient_light
 2770              	.LVL211:
 2771 11f4 0890     		str	r0, [sp, #32]
 2772 11f6 0320     		movs	r0, #3
 2773 11f8 FFF7FEFF 		bl	e_get_ambient_light
 2774              	.LVL212:
 2775 11fc 0546     		mov	r5, r0
 2776 11fe 0420     		movs	r0, #4
 2777 1200 FFF7FEFF 		bl	e_get_ambient_light
 2778              	.LVL213:
 2779 1204 0646     		mov	r6, r0
 2780 1206 0520     		movs	r0, #5
 2781 1208 FFF7FEFF 		bl	e_get_ambient_light
 2782              	.LVL214:
 2783 120c 0A90     		str	r0, [sp, #40]
 2784 120e 0620     		movs	r0, #6
 2785 1210 FFF7FEFF 		bl	e_get_ambient_light
 2786              	.LVL215:
 2787 1214 0990     		str	r0, [sp, #36]
 2788 1216 0720     		movs	r0, #7
 2789 1218 FFF7FEFF 		bl	e_get_ambient_light
 2790              	.LVL216:
 2791 121c 089B     		ldr	r3, [sp, #32]
 2792 121e 0A99     		ldr	r1, [sp, #40]
 2793 1220 0093     		str	r3, [sp]
ARM GAS  C:\Users\osour\AppData\Local\Temp\ccsBkKuy.s 			page 50


 2794 1222 099B     		ldr	r3, [sp, #36]
 2795 1224 0590     		str	r0, [sp, #20]
 2796 1226 0493     		str	r3, [sp, #16]
 2797 1228 CDE90261 		strd	r6, r1, [sp, #8]
 2798 122c 0195     		str	r5, [sp, #4]
 2799 122e 2346     		mov	r3, r4
 2800 1230 0B9A     		ldr	r2, [sp, #44]
 2801 1232 4449     		ldr	r1, .L720+52
 2802 1234 3B48     		ldr	r0, .L720+20
 2803 1236 FFF7FEFF 		bl	sprintf
 2804              	.LVL217:
 2805              		.loc 1 1063 0
 2806 123a 002F     		cmp	r7, #0
 2807 123c 7EF44EAF 		bne	.L6
 2808 1240 3848     		ldr	r0, .L720+20
 2809 1242 FFF7FEFF 		bl	strlen
 2810              	.LVL218:
 2811              		.loc 1 1065 0
 2812 1246 079B     		ldr	r3, [sp, #28]
 2813 1248 0146     		mov	r1, r0
 2814              		.loc 1 1066 0
 2815 124a 3648     		ldr	r0, .L720+20
 2816              		.loc 1 1065 0
 2817 124c 002B     		cmp	r3, #0
 2818 124e 00F0CD86 		beq	.L334
 2819              		.loc 1 1066 0
 2820 1252 FFF7FEFF 		bl	e_send_uart1_char
 2821              	.LVL219:
 2822              	.L335:
 2823              		.loc 1 1066 0 is_stmt 0 discriminator 2
 2824 1256 FFF7FEFF 		bl	e_uart1_sending
 2825              	.LVL220:
 2826 125a 0028     		cmp	r0, #0
 2827 125c FBD1     		bne	.L335
 2828 125e FEF73EBF 		b	.L650
 2829              	.L196:
 2830              		.loc 1 1114 0 is_stmt 1
 2831 1262 394A     		ldr	r2, .L720+56
 2832 1264 3949     		ldr	r1, .L720+60
 2833 1266 2F48     		ldr	r0, .L720+20
 2834 1268 FFF7FEFF 		bl	sscanf
 2835              	.LVL221:
 2836              		.loc 1 1115 0
 2837 126c 384B     		ldr	r3, .L720+64
 2838 126e 1B78     		ldrb	r3, [r3]	@ zero_extendqisi2
 2839 1270 23B9     		cbnz	r3, .L346
 2840              		.loc 1 1116 0
 2841 1272 FFF7FEFF 		bl	e_init_sound
 2842              	.LVL222:
 2843              		.loc 1 1117 0
 2844 1276 364A     		ldr	r2, .L720+64
 2845 1278 0123     		movs	r3, #1
 2846 127a 1370     		strb	r3, [r2]
 2847              	.L346:
 2848              		.loc 1 1119 0
 2849 127c 324B     		ldr	r3, .L720+56
 2850 127e 1B68     		ldr	r3, [r3]
ARM GAS  C:\Users\osour\AppData\Local\Temp\ccsBkKuy.s 			page 51


 2851 1280 013B     		subs	r3, r3, #1
 2852 1282 042B     		cmp	r3, #4
 2853 1284 00F2F486 		bhi	.L347
 2854 1288 DFE813F0 		tbh	[pc, r3, lsl #1]
 2855              	.L349:
 2856 128c 6803     		.2byte	(.L348-.L349)/2
 2857 128e 6203     		.2byte	(.L350-.L349)/2
 2858 1290 5C03     		.2byte	(.L351-.L349)/2
 2859 1292 5503     		.2byte	(.L352-.L349)/2
 2860 1294 3E03     		.2byte	(.L353-.L349)/2
 2861              		.p2align 1
 2862              	.L189:
 2863              		.loc 1 984 0
 2864 1296 2F4B     		ldr	r3, .L720+68
 2865 1298 2F49     		ldr	r1, .L720+72
 2866 129a 304A     		ldr	r2, .L720+76
 2867 129c 2148     		ldr	r0, .L720+20
 2868 129e FFF7FEFF 		bl	sscanf
 2869              	.LVL223:
 2870              		.loc 1 985 0
 2871 12a2 2C4B     		ldr	r3, .L720+68
 2872 12a4 1968     		ldr	r1, [r3]
 2873 12a6 2D4B     		ldr	r3, .L720+76
 2874 12a8 1868     		ldr	r0, [r3]
 2875 12aa FFF7FEFF 		bl	e_set_led
 2876              	.LVL224:
 2877              		.loc 1 986 0
 2878 12ae 002F     		cmp	r7, #0
 2879 12b0 7EF414AF 		bne	.L6
 2880              		.loc 1 988 0
 2881 12b4 079B     		ldr	r3, [sp, #28]
 2882              		.loc 1 989 0
 2883 12b6 2A48     		ldr	r0, .L720+80
 2884 12b8 0321     		movs	r1, #3
 2885              		.loc 1 988 0
 2886 12ba 002B     		cmp	r3, #0
 2887 12bc 00F07686 		beq	.L319
 2888              		.loc 1 989 0
 2889 12c0 FFF7FEFF 		bl	e_send_uart1_char
 2890              	.LVL225:
 2891              	.L320:
 2892              		.loc 1 989 0 is_stmt 0 discriminator 2
 2893 12c4 FFF7FEFF 		bl	e_uart1_sending
 2894              	.LVL226:
 2895 12c8 0028     		cmp	r0, #0
 2896 12ca FBD1     		bne	.L320
 2897 12cc FEF707BF 		b	.L650
 2898              	.L193:
 2899              		.loc 1 1072 0 is_stmt 1
 2900 12d0 244B     		ldr	r3, .L720+84
 2901 12d2 254A     		ldr	r2, .L720+88
 2902 12d4 2549     		ldr	r1, .L720+92
 2903 12d6 1348     		ldr	r0, .L720+20
 2904 12d8 FFF7FEFF 		bl	sscanf
 2905              	.LVL227:
 2906              		.loc 1 1073 0
 2907 12dc 224B     		ldr	r3, .L720+88
ARM GAS  C:\Users\osour\AppData\Local\Temp\ccsBkKuy.s 			page 52


 2908 12de 1868     		ldr	r0, [r3]
 2909 12e0 FFF7FEFF 		bl	e_set_steps_left
 2910              	.LVL228:
 2911              		.loc 1 1074 0
 2912 12e4 1F4B     		ldr	r3, .L720+84
 2913 12e6 1868     		ldr	r0, [r3]
 2914 12e8 FFF7FEFF 		bl	e_set_steps_right
 2915              	.LVL229:
 2916              		.loc 1 1075 0
 2917 12ec 002F     		cmp	r7, #0
 2918 12ee 7EF4F5AE 		bne	.L6
 2919              		.loc 1 1077 0
 2920 12f2 079B     		ldr	r3, [sp, #28]
 2921              		.loc 1 1078 0
 2922 12f4 1E48     		ldr	r0, .L720+96
 2923 12f6 0321     		movs	r1, #3
 2924              		.loc 1 1077 0
 2925 12f8 002B     		cmp	r3, #0
 2926 12fa 00F06786 		beq	.L337
 2927              		.loc 1 1078 0
 2928 12fe FFF7FEFF 		bl	e_send_uart1_char
 2929              	.LVL230:
 2930              	.L338:
 2931              		.loc 1 1078 0 is_stmt 0 discriminator 2
 2932 1302 FFF7FEFF 		bl	e_uart1_sending
 2933              	.LVL231:
 2934 1306 0028     		cmp	r0, #0
 2935 1308 FBD1     		bne	.L338
 2936 130a FEF7E8BE 		b	.L650
 2937              	.L721:
 2938 130e 00BF     		.align	2
 2939              	.L720:
 2940 1310 00000000 		.word	.LANCHOR29
 2941 1314 00000000 		.word	.LANCHOR28
 2942 1318 00000000 		.word	.LANCHOR2
 2943 131c 00000000 		.word	.LANCHOR1
 2944 1320 D0090000 		.word	.LC71
 2945 1324 00000000 		.word	buffer
 2946 1328 E8090000 		.word	.LC72
 2947 132c 00000000 		.word	.LANCHOR25
 2948 1330 00000000 		.word	.LANCHOR24
 2949 1334 0C0B0000 		.word	.LC91
 2950 1338 180B0000 		.word	.LC92
 2951 133c 00000000 		.word	.LANCHOR26
 2952 1340 240B0000 		.word	.LC93
 2953 1344 6C0A0000 		.word	.LC78
 2954 1348 00000000 		.word	.LANCHOR31
 2955 134c A80A0000 		.word	.LC83
 2956 1350 00000000 		.word	.LANCHOR8
 2957 1354 00000000 		.word	.LANCHOR27
 2958 1358 2C0A0000 		.word	.LC74
 2959 135c 00000000 		.word	.LANCHOR30
 2960 1360 380A0000 		.word	.LC75
 2961 1364 00000000 		.word	.LANCHOR23
 2962 1368 00000000 		.word	.LANCHOR22
 2963 136c 880A0000 		.word	.LC79
 2964 1370 940A0000 		.word	.LC80
ARM GAS  C:\Users\osour\AppData\Local\Temp\ccsBkKuy.s 			page 53


 2965              	.L191:
 2966              		.loc 1 1048 0 is_stmt 1
 2967 1374 0020     		movs	r0, #0
 2968 1376 FFF7FEFF 		bl	e_get_calibrated_prox
 2969              	.LVL232:
 2970 137a 0B90     		str	r0, [sp, #44]
 2971 137c 0120     		movs	r0, #1
 2972 137e FFF7FEFF 		bl	e_get_calibrated_prox
 2973              	.LVL233:
 2974 1382 0446     		mov	r4, r0
 2975 1384 0220     		movs	r0, #2
 2976 1386 FFF7FEFF 		bl	e_get_calibrated_prox
 2977              	.LVL234:
 2978 138a 0890     		str	r0, [sp, #32]
 2979 138c 0320     		movs	r0, #3
 2980 138e FFF7FEFF 		bl	e_get_calibrated_prox
 2981              	.LVL235:
 2982 1392 0546     		mov	r5, r0
 2983 1394 0420     		movs	r0, #4
 2984 1396 FFF7FEFF 		bl	e_get_calibrated_prox
 2985              	.LVL236:
 2986 139a 0646     		mov	r6, r0
 2987 139c 0520     		movs	r0, #5
 2988 139e FFF7FEFF 		bl	e_get_calibrated_prox
 2989              	.LVL237:
 2990 13a2 0A90     		str	r0, [sp, #40]
 2991 13a4 0620     		movs	r0, #6
 2992 13a6 FFF7FEFF 		bl	e_get_calibrated_prox
 2993              	.LVL238:
 2994 13aa 0990     		str	r0, [sp, #36]
 2995 13ac 0720     		movs	r0, #7
 2996 13ae FFF7FEFF 		bl	e_get_calibrated_prox
 2997              	.LVL239:
 2998 13b2 089B     		ldr	r3, [sp, #32]
 2999 13b4 0A99     		ldr	r1, [sp, #40]
 3000 13b6 0093     		str	r3, [sp]
 3001 13b8 099B     		ldr	r3, [sp, #36]
 3002 13ba 0590     		str	r0, [sp, #20]
 3003 13bc 0493     		str	r3, [sp, #16]
 3004 13be CDE90261 		strd	r6, r1, [sp, #8]
 3005 13c2 0195     		str	r5, [sp, #4]
 3006 13c4 2346     		mov	r3, r4
 3007 13c6 0B9A     		ldr	r2, [sp, #44]
 3008 13c8 AC49     		ldr	r1, .L722
 3009 13ca AD48     		ldr	r0, .L722+4
 3010 13cc FFF7FEFF 		bl	sprintf
 3011              	.LVL240:
 3012              		.loc 1 1051 0
 3013 13d0 002F     		cmp	r7, #0
 3014 13d2 7EF483AE 		bne	.L6
 3015 13d6 AA48     		ldr	r0, .L722+4
 3016 13d8 FFF7FEFF 		bl	strlen
 3017              	.LVL241:
 3018              		.loc 1 1053 0
 3019 13dc 079B     		ldr	r3, [sp, #28]
 3020 13de 0146     		mov	r1, r0
 3021              		.loc 1 1054 0
ARM GAS  C:\Users\osour\AppData\Local\Temp\ccsBkKuy.s 			page 54


 3022 13e0 A748     		ldr	r0, .L722+4
 3023              		.loc 1 1053 0
 3024 13e2 002B     		cmp	r3, #0
 3025 13e4 00F03486 		beq	.L331
 3026              		.loc 1 1054 0
 3027 13e8 FFF7FEFF 		bl	e_send_uart1_char
 3028              	.LVL242:
 3029              	.L332:
 3030              		.loc 1 1054 0 is_stmt 0 discriminator 2
 3031 13ec FFF7FEFF 		bl	e_uart1_sending
 3032              	.LVL243:
 3033 13f0 0028     		cmp	r0, #0
 3034 13f2 FBD1     		bne	.L332
 3035 13f4 FEF773BE 		b	.L650
 3036              	.L199:
 3037              		.loc 1 1188 0 is_stmt 1
 3038 13f8 002F     		cmp	r7, #0
 3039 13fa 7EF46FAE 		bne	.L6
 3040              		.loc 1 1189 0
 3041 13fe A14B     		ldr	r3, .L722+8
 3042 1400 A14A     		ldr	r2, .L722+12
 3043 1402 A249     		ldr	r1, .L722+16
 3044 1404 0093     		str	r3, [sp]
 3045 1406 1C46     		mov	r4, r3
 3046 1408 9D48     		ldr	r0, .L722+4
 3047 140a A14B     		ldr	r3, .L722+20
 3048 140c FFF7FEFF 		bl	sscanf
 3049              	.LVL244:
 3050              		.loc 1 1190 0
 3051 1410 FFF7FEFF 		bl	e_i2cp_enable
 3052              	.LVL245:
 3053              		.loc 1 1191 0
 3054 1414 9E4B     		ldr	r3, .L722+20
 3055 1416 2278     		ldrb	r2, [r4]	@ zero_extendqisi2
 3056 1418 1978     		ldrb	r1, [r3]	@ zero_extendqisi2
 3057 141a 9B4B     		ldr	r3, .L722+12
 3058 141c 1878     		ldrb	r0, [r3]	@ zero_extendqisi2
 3059 141e FFF7FEFF 		bl	e_i2cp_write
 3060              	.LVL246:
 3061              		.loc 1 1192 0
 3062 1422 FFF7FEFF 		bl	e_i2cp_disable
 3063              	.LVL247:
 3064              		.loc 1 1193 0
 3065 1426 079B     		ldr	r3, [sp, #28]
 3066              		.loc 1 1194 0
 3067 1428 9A48     		ldr	r0, .L722+24
 3068 142a 0321     		movs	r1, #3
 3069              		.loc 1 1193 0
 3070 142c 002B     		cmp	r3, #0
 3071 142e 00F02786 		beq	.L374
 3072              		.loc 1 1194 0
 3073 1432 FFF7FEFF 		bl	e_send_uart1_char
 3074              	.LVL248:
 3075              	.L375:
 3076              		.loc 1 1194 0 is_stmt 0 discriminator 2
 3077 1436 FFF7FEFF 		bl	e_uart1_sending
 3078              	.LVL249:
ARM GAS  C:\Users\osour\AppData\Local\Temp\ccsBkKuy.s 			page 55


 3079 143a 0028     		cmp	r0, #0
 3080 143c FBD1     		bne	.L375
 3081 143e FEF74EBE 		b	.L650
 3082              	.L197:
 3083              		.loc 1 1161 0 is_stmt 1
 3084 1442 0020     		movs	r0, #0
 3085 1444 FFF7FEFF 		bl	e_get_micro_volume
 3086              	.LVL250:
 3087 1448 0446     		mov	r4, r0
 3088 144a 0120     		movs	r0, #1
 3089 144c FFF7FEFF 		bl	e_get_micro_volume
 3090              	.LVL251:
 3091 1450 0546     		mov	r5, r0
 3092 1452 0220     		movs	r0, #2
 3093 1454 FFF7FEFF 		bl	e_get_micro_volume
 3094              	.LVL252:
 3095 1458 2B46     		mov	r3, r5
 3096 145a 0090     		str	r0, [sp]
 3097 145c 2246     		mov	r2, r4
 3098 145e 8E49     		ldr	r1, .L722+28
 3099 1460 8748     		ldr	r0, .L722+4
 3100 1462 FFF7FEFF 		bl	sprintf
 3101              	.LVL253:
 3102              		.loc 1 1162 0
 3103 1466 002F     		cmp	r7, #0
 3104 1468 7EF438AE 		bne	.L6
 3105 146c 8448     		ldr	r0, .L722+4
 3106 146e FFF7FEFF 		bl	strlen
 3107              	.LVL254:
 3108              		.loc 1 1164 0
 3109 1472 079B     		ldr	r3, [sp, #28]
 3110 1474 0146     		mov	r1, r0
 3111              		.loc 1 1165 0
 3112 1476 8248     		ldr	r0, .L722+4
 3113              		.loc 1 1164 0
 3114 1478 002B     		cmp	r3, #0
 3115 147a 00F0BF85 		beq	.L363
 3116              		.loc 1 1165 0
 3117 147e FFF7FEFF 		bl	e_send_uart1_char
 3118              	.LVL255:
 3119              	.L364:
 3120              		.loc 1 1165 0 is_stmt 0 discriminator 2
 3121 1482 FFF7FEFF 		bl	e_uart1_sending
 3122              	.LVL256:
 3123 1486 0028     		cmp	r0, #0
 3124 1488 FBD1     		bne	.L364
 3125 148a FEF728BE 		b	.L650
 3126              	.L195:
 3127              		.loc 1 1102 0 is_stmt 1
 3128 148e 0020     		movs	r0, #0
 3129 1490 FFF7FEFF 		bl	e_set_speed_left
 3130              	.LVL257:
 3131              		.loc 1 1103 0
 3132 1494 0020     		movs	r0, #0
 3133 1496 FFF7FEFF 		bl	e_set_speed_right
 3134              	.LVL258:
 3135              		.loc 1 1104 0
ARM GAS  C:\Users\osour\AppData\Local\Temp\ccsBkKuy.s 			page 56


 3136 149a 0021     		movs	r1, #0
 3137 149c 0820     		movs	r0, #8
 3138 149e FFF7FEFF 		bl	e_set_led
 3139              	.LVL259:
 3140              		.loc 1 1105 0
 3141 14a2 002F     		cmp	r7, #0
 3142 14a4 7EF41AAE 		bne	.L6
 3143              		.loc 1 1107 0
 3144 14a8 079B     		ldr	r3, [sp, #28]
 3145              		.loc 1 1108 0
 3146 14aa 7C48     		ldr	r0, .L722+32
 3147 14ac 0321     		movs	r1, #3
 3148              		.loc 1 1107 0
 3149 14ae 002B     		cmp	r3, #0
 3150 14b0 00F05C85 		beq	.L343
 3151              		.loc 1 1108 0
 3152 14b4 FFF7FEFF 		bl	e_send_uart1_char
 3153              	.LVL260:
 3154              	.L344:
 3155              		.loc 1 1108 0 is_stmt 0 discriminator 2
 3156 14b8 FFF7FEFF 		bl	e_uart1_sending
 3157              	.LVL261:
 3158 14bc 0028     		cmp	r0, #0
 3159 14be FBD1     		bne	.L344
 3160 14c0 FEF70DBE 		b	.L650
 3161              	.L186:
 3162              		.loc 1 919 0 is_stmt 1
 3163 14c4 002F     		cmp	r7, #0
 3164 14c6 7EF409AE 		bne	.L6
 3165              		.loc 1 920 0
 3166 14ca 0E99     		ldr	r1, [sp, #56]
 3167 14cc 109B     		ldr	r3, [sp, #64]
 3168 14ce 0C68     		ldr	r4, [r1]
 3169 14d0 1399     		ldr	r1, [sp, #76]
 3170 14d2 129A     		ldr	r2, [sp, #72]
 3171 14d4 0868     		ldr	r0, [r1]
 3172 14d6 1199     		ldr	r1, [sp, #68]
 3173 14d8 1B68     		ldr	r3, [r3]
 3174 14da 0968     		ldr	r1, [r1]
 3175 14dc 1268     		ldr	r2, [r2]
 3176 14de 0091     		str	r1, [sp]
 3177 14e0 CDE90104 		strd	r0, r4, [sp, #4]
 3178 14e4 6E49     		ldr	r1, .L722+36
 3179 14e6 6648     		ldr	r0, .L722+4
 3180 14e8 FFF7FEFF 		bl	sprintf
 3181              	.LVL262:
 3182              		.loc 1 921 0
 3183 14ec 079B     		ldr	r3, [sp, #28]
 3184              		.loc 1 922 0
 3185 14ee 6448     		ldr	r0, .L722+4
 3186              		.loc 1 921 0
 3187 14f0 002B     		cmp	r3, #0
 3188 14f2 00F0D585 		beq	.L299
 3189              		.loc 1 922 0
 3190 14f6 FFF7FEFF 		bl	strlen
 3191              	.LVL263:
 3192 14fa 0146     		mov	r1, r0
ARM GAS  C:\Users\osour\AppData\Local\Temp\ccsBkKuy.s 			page 57


 3193 14fc 6048     		ldr	r0, .L722+4
 3194 14fe FFF7FEFF 		bl	e_send_uart1_char
 3195              	.LVL264:
 3196              	.L300:
 3197              		.loc 1 922 0 is_stmt 0 discriminator 2
 3198 1502 FFF7FEFF 		bl	e_uart1_sending
 3199              	.LVL265:
 3200 1506 0028     		cmp	r0, #0
 3201 1508 FBD1     		bne	.L300
 3202 150a FEF7E8BD 		b	.L650
 3203              	.L177:
 3204              		.loc 1 694 0 is_stmt 1
 3205 150e 002F     		cmp	r7, #0
 3206 1510 40F09383 		bne	.L204
 3207              		.loc 1 695 0
 3208 1514 0121     		movs	r1, #1
 3209 1516 3846     		mov	r0, r7
 3210 1518 FFF7FEFF 		bl	e_get_acc_filtered
 3211              	.LVL266:
 3212 151c 0121     		movs	r1, #1
 3213 151e 0446     		mov	r4, r0
 3214 1520 0846     		mov	r0, r1
 3215 1522 FFF7FEFF 		bl	e_get_acc_filtered
 3216              	.LVL267:
 3217 1526 0121     		movs	r1, #1
 3218 1528 0546     		mov	r5, r0
 3219 152a 0220     		movs	r0, #2
 3220 152c FFF7FEFF 		bl	e_get_acc_filtered
 3221              	.LVL268:
 3222 1530 2B46     		mov	r3, r5
 3223 1532 0090     		str	r0, [sp]
 3224 1534 2246     		mov	r2, r4
 3225 1536 5B49     		ldr	r1, .L722+40
 3226 1538 5148     		ldr	r0, .L722+4
 3227 153a FFF7FEFF 		bl	sprintf
 3228              	.LVL269:
 3229              		.loc 1 701 0
 3230 153e 079B     		ldr	r3, [sp, #28]
 3231 1540 002B     		cmp	r3, #0
 3232 1542 00F06B85 		beq	.L706
 3233              		.loc 1 702 0
 3234 1546 4E48     		ldr	r0, .L722+4
 3235 1548 FFF7FEFF 		bl	strlen
 3236              	.LVL270:
 3237 154c 0146     		mov	r1, r0
 3238 154e 4C48     		ldr	r0, .L722+4
 3239 1550 FFF7FEFF 		bl	e_send_uart1_char
 3240              	.LVL271:
 3241              	.L207:
 3242              		.loc 1 702 0 is_stmt 0 discriminator 2
 3243 1554 FFF7FEFF 		bl	e_uart1_sending
 3244              	.LVL272:
 3245 1558 0028     		cmp	r0, #0
 3246 155a FBD1     		bne	.L207
 3247 155c FEF7BFBD 		b	.L650
 3248              	.L182:
 3249              		.loc 1 752 0 is_stmt 1
ARM GAS  C:\Users\osour\AppData\Local\Temp\ccsBkKuy.s 			page 58


 3250 1560 514B     		ldr	r3, .L722+44
 3251 1562 524A     		ldr	r2, .L722+48
 3252 1564 1B68     		ldr	r3, [r3]
 3253 1566 1268     		ldr	r2, [r2]
 3254 1568 5149     		ldr	r1, .L722+52
 3255 156a 4548     		ldr	r0, .L722+4
 3256 156c FFF7FEFF 		bl	sprintf
 3257              	.LVL273:
 3258              		.loc 1 753 0
 3259 1570 002F     		cmp	r7, #0
 3260 1572 7EF4B3AD 		bne	.L6
 3261 1576 4248     		ldr	r0, .L722+4
 3262 1578 FFF7FEFF 		bl	strlen
 3263              	.LVL274:
 3264              		.loc 1 755 0
 3265 157c 079B     		ldr	r3, [sp, #28]
 3266 157e 0146     		mov	r1, r0
 3267              		.loc 1 756 0
 3268 1580 3F48     		ldr	r0, .L722+4
 3269              		.loc 1 755 0
 3270 1582 002B     		cmp	r3, #0
 3271 1584 00F0E284 		beq	.L221
 3272              		.loc 1 756 0
 3273 1588 FFF7FEFF 		bl	e_send_uart1_char
 3274              	.LVL275:
 3275              	.L222:
 3276              		.loc 1 756 0 is_stmt 0 discriminator 2
 3277 158c FFF7FEFF 		bl	e_uart1_sending
 3278              	.LVL276:
 3279 1590 0028     		cmp	r0, #0
 3280 1592 FBD1     		bne	.L222
 3281 1594 FEF7A3BD 		b	.L650
 3282              	.L181:
 3283              		.loc 1 740 0 is_stmt 1
 3284 1598 434B     		ldr	r3, .L722+44
 3285 159a 444A     		ldr	r2, .L722+48
 3286 159c 4549     		ldr	r1, .L722+56
 3287 159e 3848     		ldr	r0, .L722+4
 3288 15a0 FFF7FEFF 		bl	sscanf
 3289              	.LVL277:
 3290              		.loc 1 741 0
 3291 15a4 414B     		ldr	r3, .L722+48
 3292 15a6 1868     		ldr	r0, [r3]
 3293 15a8 FFF7FEFF 		bl	e_set_speed_left
 3294              	.LVL278:
 3295              		.loc 1 742 0
 3296 15ac 3E4B     		ldr	r3, .L722+44
 3297 15ae 1868     		ldr	r0, [r3]
 3298 15b0 FFF7FEFF 		bl	e_set_speed_right
 3299              	.LVL279:
 3300              		.loc 1 743 0
 3301 15b4 002F     		cmp	r7, #0
 3302 15b6 7EF491AD 		bne	.L6
 3303              		.loc 1 745 0
 3304 15ba 079B     		ldr	r3, [sp, #28]
 3305              		.loc 1 746 0
 3306 15bc 3E48     		ldr	r0, .L722+60
ARM GAS  C:\Users\osour\AppData\Local\Temp\ccsBkKuy.s 			page 59


 3307 15be 0321     		movs	r1, #3
 3308              		.loc 1 745 0
 3309 15c0 002B     		cmp	r3, #0
 3310 15c2 00F0E384 		beq	.L218
 3311              		.loc 1 746 0
 3312 15c6 FFF7FEFF 		bl	e_send_uart1_char
 3313              	.LVL280:
 3314              	.L219:
 3315              		.loc 1 746 0 is_stmt 0 discriminator 2
 3316 15ca FFF7FEFF 		bl	e_uart1_sending
 3317              	.LVL281:
 3318 15ce 0028     		cmp	r0, #0
 3319 15d0 FBD1     		bne	.L219
 3320 15d2 FEF784BD 		b	.L650
 3321              	.L184:
 3322              		.loc 1 774 0 is_stmt 1
 3323 15d6 FFF7FEFF 		bl	e_get_check
 3324              	.LVL282:
 3325 15da 0446     		mov	r4, r0
 3326 15dc FFF7FEFF 		bl	e_get_address
 3327              	.LVL283:
 3328 15e0 0546     		mov	r5, r0
 3329 15e2 FFF7FEFF 		bl	e_get_data
 3330              	.LVL284:
 3331 15e6 2B46     		mov	r3, r5
 3332 15e8 0090     		str	r0, [sp]
 3333 15ea 2246     		mov	r2, r4
 3334 15ec 3349     		ldr	r1, .L722+64
 3335 15ee 2448     		ldr	r0, .L722+4
 3336 15f0 FFF7FEFF 		bl	sprintf
 3337              	.LVL285:
 3338              		.loc 1 775 0
 3339 15f4 002F     		cmp	r7, #0
 3340 15f6 7EF471AD 		bne	.L6
 3341 15fa 2148     		ldr	r0, .L722+4
 3342 15fc FFF7FEFF 		bl	strlen
 3343              	.LVL286:
 3344              		.loc 1 777 0
 3345 1600 079B     		ldr	r3, [sp, #28]
 3346 1602 0146     		mov	r1, r0
 3347              		.loc 1 778 0
 3348 1604 1E48     		ldr	r0, .L722+4
 3349              		.loc 1 777 0
 3350 1606 002B     		cmp	r3, #0
 3351 1608 00F0A884 		beq	.L227
 3352              		.loc 1 778 0
 3353 160c FFF7FEFF 		bl	e_send_uart1_char
 3354              	.LVL287:
 3355              	.L228:
 3356              		.loc 1 778 0 is_stmt 0 discriminator 2
 3357 1610 FFF7FEFF 		bl	e_uart1_sending
 3358              	.LVL288:
 3359 1614 0028     		cmp	r0, #0
 3360 1616 FBD1     		bne	.L228
 3361 1618 FEF761BD 		b	.L650
 3362              	.L180:
 3363              		.loc 1 729 0 is_stmt 1
ARM GAS  C:\Users\osour\AppData\Local\Temp\ccsBkKuy.s 			page 60


 3364 161c 284A     		ldr	r2, .L722+68
 3365 161e 2949     		ldr	r1, .L722+72
 3366 1620 1369     		ldr	r3, [r2, #16]
 3367 1622 1069     		ldr	r0, [r2, #16]
 3368 1624 0C69     		ldr	r4, [r1, #16]
 3369 1626 1269     		ldr	r2, [r2, #16]
 3370              		.loc 1 730 0
 3371 1628 2749     		ldr	r1, .L722+76
 3372              		.loc 1 729 0
 3373 162a C4F30014 		ubfx	r4, r4, #4, #1
 3374 162e C0F3C030 		ubfx	r0, r0, #15, #1
 3375 1632 00EB4400 		add	r0, r0, r4, lsl #1
 3376 1636 C2F38032 		ubfx	r2, r2, #14, #1
 3377 163a 02EB4002 		add	r2, r2, r0, lsl #1
 3378 163e C3F34033 		ubfx	r3, r3, #13, #1
 3379 1642 03EB4203 		add	r3, r3, r2, lsl #1
 3380 1646 214C     		ldr	r4, .L722+80
 3381              		.loc 1 730 0
 3382 1648 0D48     		ldr	r0, .L722+4
 3383              		.loc 1 729 0
 3384 164a 2360     		str	r3, [r4]
 3385              		.loc 1 730 0
 3386 164c 1A46     		mov	r2, r3
 3387 164e FFF7FEFF 		bl	sprintf
 3388              	.LVL289:
 3389              		.loc 1 731 0
 3390 1652 002F     		cmp	r7, #0
 3391 1654 7EF442AD 		bne	.L6
 3392 1658 0948     		ldr	r0, .L722+4
 3393 165a FFF7FEFF 		bl	strlen
 3394              	.LVL290:
 3395              		.loc 1 733 0
 3396 165e 079B     		ldr	r3, [sp, #28]
 3397 1660 0146     		mov	r1, r0
 3398              		.loc 1 734 0
 3399 1662 0748     		ldr	r0, .L722+4
 3400              		.loc 1 733 0
 3401 1664 002B     		cmp	r3, #0
 3402 1666 00F08984 		beq	.L215
 3403              		.loc 1 734 0
 3404 166a FFF7FEFF 		bl	e_send_uart1_char
 3405              	.LVL291:
 3406              	.L216:
 3407              		.loc 1 734 0 is_stmt 0 discriminator 2
 3408 166e FFF7FEFF 		bl	e_uart1_sending
 3409              	.LVL292:
 3410 1672 0028     		cmp	r0, #0
 3411 1674 FBD1     		bne	.L216
 3412 1676 FEF732BD 		b	.L650
 3413              	.L723:
 3414 167a 00BF     		.align	2
 3415              	.L722:
 3416 167c 500A0000 		.word	.LC77
 3417 1680 00000000 		.word	buffer
 3418 1684 00000000 		.word	.LANCHOR26
 3419 1688 00000000 		.word	.LANCHOR24
 3420 168c FC0A0000 		.word	.LC89
ARM GAS  C:\Users\osour\AppData\Local\Temp\ccsBkKuy.s 			page 61


 3421 1690 00000000 		.word	.LANCHOR25
 3422 1694 080B0000 		.word	.LC90
 3423 1698 C40A0000 		.word	.LC87
 3424 169c A40A0000 		.word	.LC82
 3425 16a0 BC090000 		.word	.LC70
 3426 16a4 5C000000 		.word	.LC1
 3427 16a8 00000000 		.word	.LANCHOR6
 3428 16ac 00000000 		.word	.LANCHOR7
 3429 16b0 AC000000 		.word	.LC9
 3430 16b4 9C000000 		.word	.LC7
 3431 16b8 A8000000 		.word	.LC8
 3432 16bc C4000000 		.word	.LC12
 3433 16c0 00080240 		.word	1073874944
 3434 16c4 000C0240 		.word	1073875968
 3435 16c8 94000000 		.word	.LC6
 3436 16cc 00000000 		.word	selector
 3437              	.L185:
 3438              		.loc 1 800 0 is_stmt 1
 3439 16d0 002F     		cmp	r7, #0
 3440 16d2 7EF403AD 		bne	.L6
 3441              		.loc 1 838 0
 3442 16d6 079B     		ldr	r3, [sp, #28]
 3443              		.loc 1 839 0
 3444 16d8 BC48     		ldr	r0, .L724
 3445 16da 0121     		movs	r1, #1
 3446              		.loc 1 838 0
 3447 16dc 002B     		cmp	r3, #0
 3448 16de 00F05B83 		beq	.L235
 3449              		.loc 1 839 0
 3450 16e2 FFF7FEFF 		bl	e_send_uart1_char
 3451              	.LVL293:
 3452              	.L236:
 3453              		.loc 1 839 0 is_stmt 0 discriminator 2
 3454 16e6 FFF7FEFF 		bl	e_uart1_sending
 3455              	.LVL294:
 3456 16ea 0028     		cmp	r0, #0
 3457 16ec FBD1     		bne	.L236
 3458              		.loc 1 840 0 is_stmt 1
 3459 16ee 2121     		movs	r1, #33
 3460 16f0 B748     		ldr	r0, .L724+4
 3461 16f2 FFF7FEFF 		bl	e_send_uart1_char
 3462              	.LVL295:
 3463              	.L237:
 3464              		.loc 1 840 0 is_stmt 0 discriminator 2
 3465 16f6 FFF7FEFF 		bl	e_uart1_sending
 3466              	.LVL296:
 3467 16fa 0028     		cmp	r0, #0
 3468 16fc FBD1     		bne	.L237
 3469              		.loc 1 841 0 is_stmt 1
 3470 16fe 3121     		movs	r1, #49
 3471 1700 B448     		ldr	r0, .L724+8
 3472 1702 FFF7FEFF 		bl	e_send_uart1_char
 3473              	.LVL297:
 3474              	.L238:
 3475              		.loc 1 841 0 is_stmt 0 discriminator 2
 3476 1706 FFF7FEFF 		bl	e_uart1_sending
 3477              	.LVL298:
ARM GAS  C:\Users\osour\AppData\Local\Temp\ccsBkKuy.s 			page 62


 3478 170a 0028     		cmp	r0, #0
 3479 170c FBD1     		bne	.L238
 3480              		.loc 1 842 0 is_stmt 1
 3481 170e FFF7FEFF 		bl	isEpuckVersion1_3
 3482              	.LVL299:
 3483 1712 0028     		cmp	r0, #0
 3484 1714 00F01885 		beq	.L239
 3485              		.loc 1 843 0
 3486 1718 2121     		movs	r1, #33
 3487 171a AF48     		ldr	r0, .L724+12
 3488 171c FFF7FEFF 		bl	e_send_uart1_char
 3489              	.LVL300:
 3490              	.L240:
 3491              		.loc 1 843 0 is_stmt 0 discriminator 2
 3492 1720 FFF7FEFF 		bl	e_uart1_sending
 3493              	.LVL301:
 3494 1724 0028     		cmp	r0, #0
 3495 1726 FBD1     		bne	.L240
 3496              	.L241:
 3497              		.loc 1 847 0 is_stmt 1
 3498 1728 2521     		movs	r1, #37
 3499 172a AC48     		ldr	r0, .L724+16
 3500 172c FFF7FEFF 		bl	e_send_uart1_char
 3501              	.LVL302:
 3502              	.L243:
 3503              		.loc 1 847 0 is_stmt 0 discriminator 2
 3504 1730 FFF7FEFF 		bl	e_uart1_sending
 3505              	.LVL303:
 3506 1734 0028     		cmp	r0, #0
 3507 1736 FBD1     		bne	.L243
 3508              		.loc 1 848 0 is_stmt 1
 3509 1738 2E21     		movs	r1, #46
 3510 173a A948     		ldr	r0, .L724+20
 3511 173c FFF7FEFF 		bl	e_send_uart1_char
 3512              	.LVL304:
 3513              	.L244:
 3514              		.loc 1 848 0 is_stmt 0 discriminator 2
 3515 1740 FFF7FEFF 		bl	e_uart1_sending
 3516              	.LVL305:
 3517 1744 0028     		cmp	r0, #0
 3518 1746 FBD1     		bne	.L244
 3519              		.loc 1 849 0 is_stmt 1
 3520 1748 2E21     		movs	r1, #46
 3521 174a A648     		ldr	r0, .L724+24
 3522 174c FFF7FEFF 		bl	e_send_uart1_char
 3523              	.LVL306:
 3524              	.L245:
 3525              		.loc 1 849 0 is_stmt 0 discriminator 2
 3526 1750 FFF7FEFF 		bl	e_uart1_sending
 3527              	.LVL307:
 3528 1754 0028     		cmp	r0, #0
 3529 1756 FBD1     		bne	.L245
 3530              		.loc 1 850 0 is_stmt 1
 3531 1758 3221     		movs	r1, #50
 3532 175a A348     		ldr	r0, .L724+28
 3533 175c FFF7FEFF 		bl	e_send_uart1_char
 3534              	.LVL308:
ARM GAS  C:\Users\osour\AppData\Local\Temp\ccsBkKuy.s 			page 63


 3535              	.L246:
 3536              		.loc 1 850 0 is_stmt 0 discriminator 2
 3537 1760 FFF7FEFF 		bl	e_uart1_sending
 3538              	.LVL309:
 3539 1764 0028     		cmp	r0, #0
 3540 1766 FBD1     		bne	.L246
 3541              		.loc 1 852 0 is_stmt 1
 3542 1768 1F21     		movs	r1, #31
 3543 176a A048     		ldr	r0, .L724+32
 3544 176c FFF7FEFF 		bl	e_send_uart1_char
 3545              	.LVL310:
 3546              	.L247:
 3547              		.loc 1 852 0 is_stmt 0 discriminator 2
 3548 1770 FFF7FEFF 		bl	e_uart1_sending
 3549              	.LVL311:
 3550 1774 0028     		cmp	r0, #0
 3551 1776 FBD1     		bne	.L247
 3552              		.loc 1 854 0 is_stmt 1
 3553 1778 FFF7FEFF 		bl	isEpuckVersion1_3
 3554              	.LVL312:
 3555 177c 0028     		cmp	r0, #0
 3556 177e 40F00D85 		bne	.L707
 3557              	.L248:
 3558              		.loc 1 857 0
 3559 1782 1821     		movs	r1, #24
 3560 1784 9A48     		ldr	r0, .L724+36
 3561 1786 FFF7FEFF 		bl	e_send_uart1_char
 3562              	.LVL313:
 3563              	.L250:
 3564              		.loc 1 857 0 is_stmt 0 discriminator 2
 3565 178a FFF7FEFF 		bl	e_uart1_sending
 3566              	.LVL314:
 3567 178e 0028     		cmp	r0, #0
 3568 1790 FBD1     		bne	.L250
 3569              		.loc 1 858 0 is_stmt 1
 3570 1792 2821     		movs	r1, #40
 3571 1794 9748     		ldr	r0, .L724+40
 3572 1796 FFF7FEFF 		bl	e_send_uart1_char
 3573              	.LVL315:
 3574              	.L251:
 3575              		.loc 1 858 0 is_stmt 0 discriminator 2
 3576 179a FFF7FEFF 		bl	e_uart1_sending
 3577              	.LVL316:
 3578 179e 0028     		cmp	r0, #0
 3579 17a0 FBD1     		bne	.L251
 3580              		.loc 1 859 0 is_stmt 1
 3581 17a2 4F21     		movs	r1, #79
 3582 17a4 9448     		ldr	r0, .L724+44
 3583 17a6 FFF7FEFF 		bl	e_send_uart1_char
 3584              	.LVL317:
 3585              	.L252:
 3586              		.loc 1 859 0 is_stmt 0 discriminator 2
 3587 17aa FFF7FEFF 		bl	e_uart1_sending
 3588              	.LVL318:
 3589 17ae 0028     		cmp	r0, #0
 3590 17b0 FBD1     		bne	.L252
 3591              		.loc 1 860 0 is_stmt 1
ARM GAS  C:\Users\osour\AppData\Local\Temp\ccsBkKuy.s 			page 64


 3592 17b2 2F21     		movs	r1, #47
 3593 17b4 9148     		ldr	r0, .L724+48
 3594 17b6 FFF7FEFF 		bl	e_send_uart1_char
 3595              	.LVL319:
 3596              	.L253:
 3597              		.loc 1 860 0 is_stmt 0 discriminator 2
 3598 17ba FFF7FEFF 		bl	e_uart1_sending
 3599              	.LVL320:
 3600 17be 0028     		cmp	r0, #0
 3601 17c0 FBD1     		bne	.L253
 3602              		.loc 1 861 0 is_stmt 1
 3603 17c2 3321     		movs	r1, #51
 3604 17c4 8E48     		ldr	r0, .L724+52
 3605 17c6 FFF7FEFF 		bl	e_send_uart1_char
 3606              	.LVL321:
 3607              	.L254:
 3608              		.loc 1 861 0 is_stmt 0 discriminator 2
 3609 17ca FFF7FEFF 		bl	e_uart1_sending
 3610              	.LVL322:
 3611 17ce 0028     		cmp	r0, #0
 3612 17d0 FBD1     		bne	.L254
 3613              		.loc 1 863 0 is_stmt 1
 3614 17d2 2121     		movs	r1, #33
 3615 17d4 8B48     		ldr	r0, .L724+56
 3616 17d6 FFF7FEFF 		bl	e_send_uart1_char
 3617              	.LVL323:
 3618              	.L255:
 3619              		.loc 1 863 0 is_stmt 0 discriminator 2
 3620 17da FFF7FEFF 		bl	e_uart1_sending
 3621              	.LVL324:
 3622 17de 0028     		cmp	r0, #0
 3623 17e0 FBD1     		bne	.L255
 3624              		.loc 1 865 0 is_stmt 1
 3625 17e2 1D21     		movs	r1, #29
 3626 17e4 8848     		ldr	r0, .L724+60
 3627 17e6 FFF7FEFF 		bl	e_send_uart1_char
 3628              	.LVL325:
 3629              	.L256:
 3630              		.loc 1 865 0 is_stmt 0 discriminator 2
 3631 17ea FFF7FEFF 		bl	e_uart1_sending
 3632              	.LVL326:
 3633 17ee 0028     		cmp	r0, #0
 3634 17f0 FBD1     		bne	.L256
 3635              		.loc 1 866 0 is_stmt 1
 3636 17f2 2121     		movs	r1, #33
 3637 17f4 8548     		ldr	r0, .L724+64
 3638 17f6 FFF7FEFF 		bl	e_send_uart1_char
 3639              	.LVL327:
 3640              	.L257:
 3641              		.loc 1 866 0 is_stmt 0 discriminator 2
 3642 17fa FFF7FEFF 		bl	e_uart1_sending
 3643              	.LVL328:
 3644 17fe 0028     		cmp	r0, #0
 3645 1800 FBD1     		bne	.L257
 3646              		.loc 1 867 0 is_stmt 1
 3647 1802 3121     		movs	r1, #49
 3648 1804 8248     		ldr	r0, .L724+68
ARM GAS  C:\Users\osour\AppData\Local\Temp\ccsBkKuy.s 			page 65


 3649 1806 FFF7FEFF 		bl	e_send_uart1_char
 3650              	.LVL329:
 3651              	.L258:
 3652              		.loc 1 867 0 is_stmt 0 discriminator 2
 3653 180a FFF7FEFF 		bl	e_uart1_sending
 3654              	.LVL330:
 3655 180e 0028     		cmp	r0, #0
 3656 1810 FBD1     		bne	.L258
 3657              		.loc 1 868 0 is_stmt 1
 3658 1812 3121     		movs	r1, #49
 3659 1814 7F48     		ldr	r0, .L724+72
 3660 1816 FFF7FEFF 		bl	e_send_uart1_char
 3661              	.LVL331:
 3662              	.L259:
 3663              		.loc 1 868 0 is_stmt 0 discriminator 2
 3664 181a FFF7FEFF 		bl	e_uart1_sending
 3665              	.LVL332:
 3666 181e 0028     		cmp	r0, #0
 3667 1820 FBD1     		bne	.L259
 3668              		.loc 1 869 0 is_stmt 1
 3669 1822 2021     		movs	r1, #32
 3670 1824 7C48     		ldr	r0, .L724+76
 3671 1826 FFF7FEFF 		bl	e_send_uart1_char
 3672              	.LVL333:
 3673              	.L260:
 3674              		.loc 1 869 0 is_stmt 0 discriminator 2
 3675 182a FFF7FEFF 		bl	e_uart1_sending
 3676              	.LVL334:
 3677 182e 0028     		cmp	r0, #0
 3678 1830 FBD1     		bne	.L260
 3679              		.loc 1 870 0 is_stmt 1
 3680 1832 3121     		movs	r1, #49
 3681 1834 7948     		ldr	r0, .L724+80
 3682 1836 FFF7FEFF 		bl	e_send_uart1_char
 3683              	.LVL335:
 3684              	.L261:
 3685              		.loc 1 870 0 is_stmt 0 discriminator 2
 3686 183a FFF7FEFF 		bl	e_uart1_sending
 3687              	.LVL336:
 3688 183e 0028     		cmp	r0, #0
 3689 1840 FBD1     		bne	.L261
 3690              		.loc 1 871 0 is_stmt 1
 3691 1842 3221     		movs	r1, #50
 3692 1844 7648     		ldr	r0, .L724+84
 3693 1846 FFF7FEFF 		bl	e_send_uart1_char
 3694              	.LVL337:
 3695              	.L262:
 3696              		.loc 1 871 0 is_stmt 0 discriminator 2
 3697 184a FFF7FEFF 		bl	e_uart1_sending
 3698              	.LVL338:
 3699 184e 0028     		cmp	r0, #0
 3700 1850 FBD1     		bne	.L262
 3701              		.loc 1 872 0 is_stmt 1
 3702 1852 FFF7FEFF 		bl	isEpuckVersion1_3
 3703              	.LVL339:
 3704 1856 0028     		cmp	r0, #0
 3705 1858 40F0B384 		bne	.L708
ARM GAS  C:\Users\osour\AppData\Local\Temp\ccsBkKuy.s 			page 66


 3706              	.L263:
 3707              		.loc 1 875 0
 3708 185c 2C21     		movs	r1, #44
 3709 185e 7148     		ldr	r0, .L724+88
 3710 1860 FFF7FEFF 		bl	e_send_uart1_char
 3711              	.LVL340:
 3712              	.L265:
 3713              		.loc 1 875 0 is_stmt 0 discriminator 2
 3714 1864 FFF7FEFF 		bl	e_uart1_sending
 3715              	.LVL341:
 3716 1868 0028     		cmp	r0, #0
 3717 186a FBD1     		bne	.L265
 3718              		.loc 1 876 0 is_stmt 1
 3719 186c 2521     		movs	r1, #37
 3720 186e 6E48     		ldr	r0, .L724+92
 3721 1870 FFF7FEFF 		bl	e_send_uart1_char
 3722              	.LVL342:
 3723              	.L266:
 3724              		.loc 1 876 0 is_stmt 0 discriminator 2
 3725 1874 FFF7FEFF 		bl	e_uart1_sending
 3726              	.LVL343:
 3727 1878 0028     		cmp	r0, #0
 3728 187a FBD1     		bne	.L266
 3729              		.loc 1 877 0 is_stmt 1
 3730 187c 2B21     		movs	r1, #43
 3731 187e 6B48     		ldr	r0, .L724+96
 3732 1880 FFF7FEFF 		bl	e_send_uart1_char
 3733              	.LVL344:
 3734              	.L267:
 3735              		.loc 1 877 0 is_stmt 0 discriminator 2
 3736 1884 FFF7FEFF 		bl	e_uart1_sending
 3737              	.LVL345:
 3738 1888 0028     		cmp	r0, #0
 3739 188a FBD1     		bne	.L267
 3740              		.loc 1 878 0 is_stmt 1
 3741 188c 2A21     		movs	r1, #42
 3742 188e 6848     		ldr	r0, .L724+100
 3743 1890 FFF7FEFF 		bl	e_send_uart1_char
 3744              	.LVL346:
 3745              	.L268:
 3746              		.loc 1 878 0 is_stmt 0 discriminator 2
 3747 1894 FFF7FEFF 		bl	e_uart1_sending
 3748              	.LVL347:
 3749 1898 0028     		cmp	r0, #0
 3750 189a FBD1     		bne	.L268
 3751 189c FEF71FBC 		b	.L650
 3752              	.L179:
 3753              		.loc 1 718 0 is_stmt 1
 3754 18a0 644A     		ldr	r2, .L724+104
 3755 18a2 6549     		ldr	r1, .L724+108
 3756 18a4 6548     		ldr	r0, .L724+112
 3757 18a6 FFF7FEFF 		bl	sscanf
 3758              	.LVL348:
 3759              		.loc 1 719 0
 3760 18aa 624B     		ldr	r3, .L724+104
 3761 18ac 1868     		ldr	r0, [r3]
 3762 18ae FFF7FEFF 		bl	e_set_body_led
ARM GAS  C:\Users\osour\AppData\Local\Temp\ccsBkKuy.s 			page 67


 3763              	.LVL349:
 3764              		.loc 1 720 0
 3765 18b2 002F     		cmp	r7, #0
 3766 18b4 7EF412AC 		bne	.L6
 3767              		.loc 1 722 0
 3768 18b8 079B     		ldr	r3, [sp, #28]
 3769              		.loc 1 723 0
 3770 18ba 6148     		ldr	r0, .L724+116
 3771 18bc 0321     		movs	r1, #3
 3772              		.loc 1 722 0
 3773 18be 002B     		cmp	r3, #0
 3774 18c0 00F06C83 		beq	.L212
 3775              		.loc 1 723 0
 3776 18c4 FFF7FEFF 		bl	e_send_uart1_char
 3777              	.LVL350:
 3778              	.L213:
 3779              		.loc 1 723 0 is_stmt 0 discriminator 2
 3780 18c8 FFF7FEFF 		bl	e_uart1_sending
 3781              	.LVL351:
 3782 18cc 0028     		cmp	r0, #0
 3783 18ce FBD1     		bne	.L213
 3784 18d0 FEF705BC 		b	.L650
 3785              	.L183:
 3786              		.loc 1 762 0 is_stmt 1
 3787 18d4 574A     		ldr	r2, .L724+104
 3788 18d6 5B49     		ldr	r1, .L724+120
 3789 18d8 5848     		ldr	r0, .L724+112
 3790 18da FFF7FEFF 		bl	sscanf
 3791              	.LVL352:
 3792              		.loc 1 763 0
 3793 18de 554B     		ldr	r3, .L724+104
 3794 18e0 1868     		ldr	r0, [r3]
 3795 18e2 FFF7FEFF 		bl	e_set_front_led
 3796              	.LVL353:
 3797              		.loc 1 764 0
 3798 18e6 002F     		cmp	r7, #0
 3799 18e8 7EF4F8AB 		bne	.L6
 3800              		.loc 1 766 0
 3801 18ec 079B     		ldr	r3, [sp, #28]
 3802              		.loc 1 767 0
 3803 18ee 5648     		ldr	r0, .L724+124
 3804 18f0 0321     		movs	r1, #3
 3805              		.loc 1 766 0
 3806 18f2 002B     		cmp	r3, #0
 3807 18f4 00F06283 		beq	.L224
 3808              		.loc 1 767 0
 3809 18f8 FFF7FEFF 		bl	e_send_uart1_char
 3810              	.LVL354:
 3811              	.L225:
 3812              		.loc 1 767 0 is_stmt 0 discriminator 2
 3813 18fc FFF7FEFF 		bl	e_uart1_sending
 3814              	.LVL355:
 3815 1900 0028     		cmp	r0, #0
 3816 1902 FBD1     		bne	.L225
 3817 1904 FEF7EBBB 		b	.L650
 3818              	.L353:
 3819              		.loc 1 1128 0 is_stmt 1
ARM GAS  C:\Users\osour\AppData\Local\Temp\ccsBkKuy.s 			page 68


 3820 1908 41F65071 		movw	r1, #8016
 3821 190c 42F61430 		movw	r0, #11028
 3822 1910 FFF7FEFF 		bl	e_play_sound
 3823              	.LVL356:
 3824              	.L354:
 3825              		.loc 1 1136 0
 3826 1914 002F     		cmp	r7, #0
 3827 1916 7EF4E1AB 		bne	.L6
 3828              		.loc 1 1138 0
 3829 191a 079B     		ldr	r3, [sp, #28]
 3830              		.loc 1 1139 0
 3831 191c 4B48     		ldr	r0, .L724+128
 3832 191e 0321     		movs	r1, #3
 3833              		.loc 1 1138 0
 3834 1920 002B     		cmp	r3, #0
 3835 1922 00F00B83 		beq	.L355
 3836              		.loc 1 1139 0
 3837 1926 FFF7FEFF 		bl	e_send_uart1_char
 3838              	.LVL357:
 3839              	.L356:
 3840              		.loc 1 1139 0 is_stmt 0 discriminator 2
 3841 192a FFF7FEFF 		bl	e_uart1_sending
 3842              	.LVL358:
 3843 192e 0028     		cmp	r0, #0
 3844 1930 FBD1     		bne	.L356
 3845 1932 FEF7D4BB 		b	.L650
 3846              	.L352:
 3847              		.loc 1 1126 0 is_stmt 1
 3848 1936 40F69461 		movw	r1, #3732
 3849 193a 41F67E40 		movw	r0, #7294
 3850 193e FFF7FEFF 		bl	e_play_sound
 3851              	.LVL359:
 3852              		.loc 1 1127 0
 3853 1942 E7E7     		b	.L354
 3854              	.L351:
 3855              		.loc 1 1124 0
 3856 1944 0022     		movs	r2, #0
 3857 1946 0221     		movs	r1, #2
 3858 1948 0B20     		movs	r0, #11
 3859 194a FFF7FEFF 		bl	playMelody
 3860              	.LVL360:
 3861              		.loc 1 1125 0
 3862 194e E1E7     		b	.L354
 3863              	.L350:
 3864              		.loc 1 1122 0
 3865 1950 0022     		movs	r2, #0
 3866 1952 0221     		movs	r1, #2
 3867 1954 0420     		movs	r0, #4
 3868 1956 FFF7FEFF 		bl	playMelody
 3869              	.LVL361:
 3870              		.loc 1 1123 0
 3871 195a DBE7     		b	.L354
 3872              	.L348:
 3873              		.loc 1 1120 0
 3874 195c 0022     		movs	r2, #0
 3875 195e 0221     		movs	r1, #2
 3876 1960 0320     		movs	r0, #3
ARM GAS  C:\Users\osour\AppData\Local\Temp\ccsBkKuy.s 			page 69


 3877 1962 FFF7FEFF 		bl	playMelody
 3878              	.LVL362:
 3879              		.loc 1 1121 0
 3880 1966 D5E7     		b	.L354
 3881              	.L176:
 3882              		.loc 1 1239 0
 3883 1968 002F     		cmp	r7, #0
 3884 196a 7EF4B7AB 		bne	.L6
 3885              		.loc 1 1241 0
 3886 196e 079B     		ldr	r3, [sp, #28]
 3887              		.loc 1 1242 0
 3888 1970 3748     		ldr	r0, .L724+132
 3889 1972 1521     		movs	r1, #21
 3890              		.loc 1 1241 0
 3891 1974 002B     		cmp	r3, #0
 3892 1976 00F03183 		beq	.L390
 3893              		.loc 1 1242 0
 3894 197a FFF7FEFF 		bl	e_send_uart1_char
 3895              	.LVL363:
 3896              	.L391:
 3897              		.loc 1 1242 0 is_stmt 0 discriminator 2
 3898 197e FFF7FEFF 		bl	e_uart1_sending
 3899              	.LVL364:
 3900 1982 0028     		cmp	r0, #0
 3901 1984 FBD1     		bne	.L391
 3902 1986 FEF7AABB 		b	.L650
 3903              	.L156:
 3904              	.LBE4:
 3905              		.loc 1 689 0 is_stmt 1
 3906 198a 1C46     		mov	r4, r3
 3907              		.loc 1 687 0
 3908 198c 0222     		movs	r2, #2
 3909              		.loc 1 676 0
 3910 198e 8AF80030 		strb	r3, [r10]
 3911              		.loc 1 689 0
 3912 1992 622C     		cmp	r4, #98
 3913              		.loc 1 687 0
 3914 1994 4FF00003 		mov	r3, #0
 3915 1998 CBF80020 		str	r2, [fp]
 3916 199c 8AF80130 		strb	r3, [r10, #1]
 3917              		.loc 1 689 0
 3918 19a0 7EF408AC 		bne	.L395
 3919              	.LBB5:
 3920              		.loc 1 708 0
 3921 19a4 FFF7FEFF 		bl	getBatteryValueRaw
 3922              	.LVL365:
 3923 19a8 0446     		mov	r4, r0
 3924 19aa FFF7FEFF 		bl	getBatteryValuePercentage
 3925              	.LVL366:
 3926 19ae 2246     		mov	r2, r4
 3927 19b0 0346     		mov	r3, r0
 3928 19b2 2849     		ldr	r1, .L724+136
 3929 19b4 2148     		ldr	r0, .L724+112
 3930 19b6 FFF7FEFF 		bl	sprintf
 3931              	.LVL367:
 3932 19ba FEF78FBB 		b	.L6
 3933              	.LVL368:
ARM GAS  C:\Users\osour\AppData\Local\Temp\ccsBkKuy.s 			page 70


 3934              	.L14:
 3935              	.LBE5:
 3936              		.loc 1 208 0
 3937 19be 264A     		ldr	r2, .L724+140
 3938 19c0 0023     		movs	r3, #0
 3939 19c2 1360     		str	r3, [r2]
 3940 19c4 254A     		ldr	r2, .L724+144
 3941 19c6 1360     		str	r3, [r2]
 3942 19c8 FEF769BC 		b	.L26
 3943              	.L725:
 3944              		.align	2
 3945              	.L724:
 3946 19cc 14010000 		.word	.LC15
 3947 19d0 18010000 		.word	.LC16
 3948 19d4 3C010000 		.word	.LC17
 3949 19d8 70010000 		.word	.LC18
 3950 19dc C4010000 		.word	.LC20
 3951 19e0 EC010000 		.word	.LC21
 3952 19e4 1C020000 		.word	.LC22
 3953 19e8 4C020000 		.word	.LC23
 3954 19ec 80020000 		.word	.LC24
 3955 19f0 BC020000 		.word	.LC26
 3956 19f4 D8020000 		.word	.LC27
 3957 19f8 04030000 		.word	.LC28
 3958 19fc 54030000 		.word	.LC29
 3959 1a00 84030000 		.word	.LC30
 3960 1a04 B8030000 		.word	.LC31
 3961 1a08 DC030000 		.word	.LC32
 3962 1a0c FC030000 		.word	.LC33
 3963 1a10 20040000 		.word	.LC34
 3964 1a14 54040000 		.word	.LC35
 3965 1a18 88040000 		.word	.LC36
 3966 1a1c AC040000 		.word	.LC37
 3967 1a20 E0040000 		.word	.LC38
 3968 1a24 34050000 		.word	.LC40
 3969 1a28 64050000 		.word	.LC41
 3970 1a2c 8C050000 		.word	.LC42
 3971 1a30 B8050000 		.word	.LC43
 3972 1a34 00000000 		.word	.LANCHOR27
 3973 1a38 88000000 		.word	.LC4
 3974 1a3c 00000000 		.word	buffer
 3975 1a40 90000000 		.word	.LC5
 3976 1a44 B8000000 		.word	.LC10
 3977 1a48 C0000000 		.word	.LC11
 3978 1a4c B00A0000 		.word	.LC84
 3979 1a50 380B0000 		.word	.LC95
 3980 1a54 78000000 		.word	.LC3
 3981 1a58 00000000 		.word	.LANCHOR7
 3982 1a5c 00000000 		.word	.LANCHOR6
 3983              	.LVL369:
 3984              	.L30:
 3985              		.loc 1 270 0
 3986 1a60 B74A     		ldr	r2, .L726
 3987 1a62 0023     		movs	r3, #0
 3988 1a64 1360     		str	r3, [r2]
 3989 1a66 B74A     		ldr	r2, .L726+4
 3990 1a68 1360     		str	r3, [r2]
ARM GAS  C:\Users\osour\AppData\Local\Temp\ccsBkKuy.s 			page 71


 3991 1a6a FEF78EBC 		b	.L42
 3992              	.LVL370:
 3993              	.L85:
 3994              		.loc 1 417 0
 3995 1a6e B64B     		ldr	r3, .L726+8
 3996 1a70 1A78     		ldrb	r2, [r3]	@ zero_extendqisi2
 3997 1a72 B64B     		ldr	r3, .L726+12
 3998 1a74 1B78     		ldrb	r3, [r3]	@ zero_extendqisi2
 3999 1a76 03EB0223 		add	r3, r3, r2, lsl #8
 4000 1a7a B14A     		ldr	r2, .L726
 4001 1a7c 1846     		mov	r0, r3
 4002 1a7e 1360     		str	r3, [r2]
 4003 1a80 FEF7DCBF 		b	.L97
 4004              	.L116:
 4005              		.loc 1 540 0
 4006 1a84 B04B     		ldr	r3, .L726+8
 4007 1a86 1A78     		ldrb	r2, [r3]	@ zero_extendqisi2
 4008 1a88 B04B     		ldr	r3, .L726+12
 4009 1a8a 1B78     		ldrb	r3, [r3]	@ zero_extendqisi2
 4010 1a8c 03EB0223 		add	r3, r3, r2, lsl #8
 4011 1a90 AF4A     		ldr	r2, .L726+16
 4012 1a92 1846     		mov	r0, r3
 4013 1a94 1360     		str	r3, [r2]
 4014 1a96 FEF7DEBD 		b	.L128
 4015              	.L80:
 4016              		.loc 1 339 0
 4017 1a9a 5A1C     		adds	r2, r3, #1
 4018 1a9c 0AF80300 		strb	r0, [r10, r3]
 4019 1aa0 CBF80020 		str	r2, [fp]
 4020 1aa4 FEF75DBD 		b	.L47
 4021              	.L697:
 4022              		.loc 1 663 0
 4023 1aa8 AA48     		ldr	r0, .L726+20
 4024 1aaa FFF7FEFF 		bl	e_send_uart2_char
 4025              	.LVL371:
 4026              	.L155:
 4027              		.loc 1 664 0 discriminator 1
 4028 1aae FFF7FEFF 		bl	e_uart2_sending
 4029              	.LVL372:
 4030 1ab2 0028     		cmp	r0, #0
 4031 1ab4 FBD1     		bne	.L155
 4032 1ab6 FEF7A5BB 		b	.L641
 4033              	.L695:
 4034              		.loc 1 486 0
 4035 1aba 0146     		mov	r1, r0
 4036 1abc 1846     		mov	r0, r3
 4037 1abe FFF7FEFF 		bl	e_set_led
 4038              	.LVL373:
 4039              		.loc 1 487 0
 4040 1ac2 FEF74EBD 		b	.L47
 4041              	.L105:
 4042              		.loc 1 480 0
 4043 1ac6 FFF7FEFF 		bl	e_set_body_led
 4044              	.LVL374:
 4045              		.loc 1 481 0
 4046 1aca FEF74ABD 		b	.L47
 4047              	.L129:
ARM GAS  C:\Users\osour\AppData\Local\Temp\ccsBkKuy.s 			page 72


 4048              		.loc 1 567 0
 4049 1ace FFF7FEFF 		bl	getTemperature
 4050              	.LVL375:
 4051 1ad2 DBF80020 		ldr	r2, [fp]
 4052 1ad6 99F80030 		ldrb	r3, [r9]	@ zero_extendqisi2
 4053 1ada 0AF80200 		strb	r0, [r10, r2]
 4054 1ade 0132     		adds	r2, r2, #1
 4055 1ae0 CBF80020 		str	r2, [fp]
 4056              		.loc 1 647 0
 4057 1ae4 002B     		cmp	r3, #0
 4058 1ae6 7EF4A0AC 		bne	.L673
 4059 1aea FEF747BD 		b	.L649
 4060              	.L699:
 4061              		.loc 1 345 0
 4062 1aee 0121     		movs	r1, #1
 4063 1af0 3846     		mov	r0, r7
 4064 1af2 FFF7FEFF 		bl	e_get_acc_filtered
 4065              	.LVL376:
 4066 1af6 984C     		ldr	r4, .L726+24
 4067              		.loc 1 346 0
 4068 1af8 984D     		ldr	r5, .L726+28
 4069              		.loc 1 345 0
 4070 1afa 2060     		str	r0, [r4]
 4071              		.loc 1 346 0
 4072 1afc 0121     		movs	r1, #1
 4073 1afe 0846     		mov	r0, r1
 4074 1b00 FFF7FEFF 		bl	e_get_acc_filtered
 4075              	.LVL377:
 4076              		.loc 1 347 0
 4077 1b04 0121     		movs	r1, #1
 4078              		.loc 1 346 0
 4079 1b06 2860     		str	r0, [r5]
 4080              		.loc 1 347 0
 4081 1b08 0220     		movs	r0, #2
 4082 1b0a FFF7FEFF 		bl	e_get_acc_filtered
 4083              	.LVL378:
 4084 1b0e 2A68     		ldr	r2, [r5]
 4085 1b10 2468     		ldr	r4, [r4]
 4086 1b12 934B     		ldr	r3, .L726+32
 4087 1b14 C5B2     		uxtb	r5, r0
 4088 1b16 1860     		str	r0, [r3]
 4089 1b18 5FFA84FE 		uxtb	lr, r4
 4090 1b1c C0F30723 		ubfx	r3, r0, #8, #8
 4091 1b20 C4F30724 		ubfx	r4, r4, #8, #8
 4092 1b24 5FFA82FC 		uxtb	ip, r2
 4093 1b28 C2F30720 		ubfx	r0, r2, #8, #8
 4094 1b2c FEF75EBE 		b	.L82
 4095              	.L701:
 4096              		.loc 1 326 0
 4097 1b30 FFF7FEFF 		bl	VL53L0X_get_dist_mm
 4098              	.LVL379:
 4099              		.loc 1 327 0
 4100 1b34 DBF80030 		ldr	r3, [fp]
 4101              		.loc 1 328 0
 4102 1b38 0AEB0302 		add	r2, r10, r3
 4103              		.loc 1 327 0
 4104 1b3c 0AF80300 		strb	r0, [r10, r3]
ARM GAS  C:\Users\osour\AppData\Local\Temp\ccsBkKuy.s 			page 73


 4105              		.loc 1 328 0
 4106 1b40 0112     		asrs	r1, r0, #8
 4107 1b42 0233     		adds	r3, r3, #2
 4108 1b44 5170     		strb	r1, [r2, #1]
 4109 1b46 CBF80030 		str	r3, [fp]
 4110 1b4a FEF70BBD 		b	.L78
 4111              	.L698:
 4112              		.loc 1 440 0
 4113 1b4e 854A     		ldr	r2, .L726+36
 4114 1b50 8549     		ldr	r1, .L726+40
 4115 1b52 8648     		ldr	r0, .L726+44
 4116 1b54 FFF7FEFF 		bl	getAllAxesGyro
 4117              	.LVL380:
 4118              		.loc 1 441 0
 4119 1b58 844B     		ldr	r3, .L726+44
 4120 1b5a DBF80020 		ldr	r2, [fp]
 4121 1b5e 1968     		ldr	r1, [r3]
 4122              		.loc 1 443 0
 4123 1b60 814B     		ldr	r3, .L726+40
 4124              		.loc 1 441 0
 4125 1b62 0AF80210 		strb	r1, [r10, r2]
 4126              		.loc 1 443 0
 4127 1b66 1C68     		ldr	r4, [r3]
 4128              		.loc 1 445 0
 4129 1b68 7E4B     		ldr	r3, .L726+36
 4130 1b6a 1868     		ldr	r0, [r3]
 4131              		.loc 1 442 0
 4132 1b6c 0AEB0203 		add	r3, r10, r2
 4133 1b70 0912     		asrs	r1, r1, #8
 4134              		.loc 1 446 0
 4135 1b72 0632     		adds	r2, r2, #6
 4136              		.loc 1 442 0
 4137 1b74 5970     		strb	r1, [r3, #1]
 4138              		.loc 1 446 0
 4139 1b76 CBF80020 		str	r2, [fp]
 4140              		.loc 1 444 0
 4141 1b7a 2112     		asrs	r1, r4, #8
 4142              		.loc 1 446 0
 4143 1b7c 0212     		asrs	r2, r0, #8
 4144              		.loc 1 443 0
 4145 1b7e 9C70     		strb	r4, [r3, #2]
 4146              		.loc 1 444 0
 4147 1b80 D970     		strb	r1, [r3, #3]
 4148              		.loc 1 445 0
 4149 1b82 1871     		strb	r0, [r3, #4]
 4150              		.loc 1 446 0
 4151 1b84 5A71     		strb	r2, [r3, #5]
 4152 1b86 FEF7EDBC 		b	.L78
 4153              	.L700:
 4154              		.loc 1 366 0
 4155 1b8a FFF7FEFF 		bl	e_read_acc_spheric
 4156              	.LVL381:
 4157 1b8e 784B     		ldr	r3, .L726+48
 4158 1b90 C3ED010A 		vstr.32	s1, [r3, #4]
 4159 1b94 5A79     		ldrb	r2, [r3, #5]	@ zero_extendqisi2
 4160 1b96 0892     		str	r2, [sp, #32]
 4161 1b98 9A79     		ldrb	r2, [r3, #6]	@ zero_extendqisi2
ARM GAS  C:\Users\osour\AppData\Local\Temp\ccsBkKuy.s 			page 74


 4162 1b9a 83ED021A 		vstr.32	s2, [r3, #8]
 4163 1b9e 0992     		str	r2, [sp, #36]
 4164 1ba0 DA79     		ldrb	r2, [r3, #7]	@ zero_extendqisi2
 4165 1ba2 0A92     		str	r2, [sp, #40]
 4166 1ba4 1A7A     		ldrb	r2, [r3, #8]	@ zero_extendqisi2
 4167 1ba6 0B92     		str	r2, [sp, #44]
 4168 1ba8 5A7A     		ldrb	r2, [r3, #9]	@ zero_extendqisi2
 4169 1baa 83ED000A 		vstr.32	s0, [r3]
 4170 1bae 0C92     		str	r2, [sp, #48]
 4171 1bb0 9A7A     		ldrb	r2, [r3, #10]	@ zero_extendqisi2
 4172 1bb2 0D92     		str	r2, [sp, #52]
 4173 1bb4 93F800E0 		ldrb	lr, [r3]	@ zero_extendqisi2
 4174 1bb8 93F801C0 		ldrb	ip, [r3, #1]	@ zero_extendqisi2
 4175 1bbc 9D78     		ldrb	r5, [r3, #2]	@ zero_extendqisi2
 4176 1bbe DC78     		ldrb	r4, [r3, #3]	@ zero_extendqisi2
 4177 1bc0 1879     		ldrb	r0, [r3, #4]	@ zero_extendqisi2
 4178 1bc2 DA7A     		ldrb	r2, [r3, #11]	@ zero_extendqisi2
 4179 1bc4 FEF779BF 		b	.L84
 4180              	.LVL382:
 4181              	.L693:
 4182              		.loc 1 202 0
 4183 1bc8 FFF7FEFF 		bl	e_init_sound
 4184              	.LVL383:
 4185              		.loc 1 203 0
 4186 1bcc 694A     		ldr	r2, .L726+52
 4187 1bce 0123     		movs	r3, #1
 4188 1bd0 1370     		strb	r3, [r2]
 4189 1bd2 FEF7CABB 		b	.L27
 4190              	.LVL384:
 4191              	.L694:
 4192              		.loc 1 264 0
 4193 1bd6 FFF7FEFF 		bl	e_init_sound
 4194              	.LVL385:
 4195              		.loc 1 265 0
 4196 1bda 664A     		ldr	r2, .L726+52
 4197 1bdc 0123     		movs	r3, #1
 4198 1bde 1370     		strb	r3, [r2]
 4199 1be0 FEF714BC 		b	.L43
 4200              	.LVL386:
 4201              	.L696:
 4202              		.loc 1 651 0
 4203 1be4 644B     		ldr	r3, .L726+56
 4204 1be6 1F70     		strb	r7, [r3]
 4205              		.loc 1 652 0
 4206 1be8 FFF7FEFF 		bl	e_poxxxx_wait_img_ready
 4207              	.LVL387:
 4208              		.loc 1 653 0
 4209 1bec FFF7FEFF 		bl	dcmi_get_last_image_ptr
 4210              	.LVL388:
 4211 1bf0 0E9B     		ldr	r3, [sp, #56]
 4212 1bf2 1A68     		ldr	r2, [r3]
 4213 1bf4 0F9B     		ldr	r3, [sp, #60]
 4214 1bf6 0146     		mov	r1, r0
 4215 1bf8 0AEB0300 		add	r0, r10, r3
 4216 1bfc FFF7FEFF 		bl	memcpy
 4217              	.LVL389:
 4218 1c00 DBF80010 		ldr	r1, [fp]
ARM GAS  C:\Users\osour\AppData\Local\Temp\ccsBkKuy.s 			page 75


 4219 1c04 FEF7C7BC 		b	.L153
 4220              	.L311:
 4221              	.LBB6:
 4222              		.loc 1 968 0
 4223 1c08 0121     		movs	r1, #1
 4224 1c0a 0820     		movs	r0, #8
 4225 1c0c FFF7FEFF 		bl	e_set_led
 4226              	.LVL390:
 4227              		.loc 1 970 0
 4228 1c10 4FF4C870 		mov	r0, #400
 4229 1c14 FFF7FEFF 		bl	chThdSleep
 4230              	.LVL391:
 4231              		.loc 1 971 0
 4232 1c18 FFF7FEFF 		bl	e_led_clear
 4233              	.LVL392:
 4234              		.loc 1 973 0
 4235 1c1c 6420     		movs	r0, #100
 4236 1c1e FFF7FEFF 		bl	chThdSleep
 4237              	.LVL393:
 4238              		.loc 1 974 0
 4239 1c22 FFF7FEFF 		bl	e_calibrate_ir
 4240              	.LVL394:
 4241 1c26 FEF759BA 		b	.L6
 4242              	.LVL395:
 4243              	.L366:
 4244              		.loc 1 1178 0
 4245 1c2a 544B     		ldr	r3, .L726+60
 4246 1c2c 5449     		ldr	r1, .L726+64
 4247 1c2e 1A68     		ldr	r2, [r3]
 4248 1c30 4848     		ldr	r0, .L726+20
 4249 1c32 FFF7FEFF 		bl	sprintf
 4250              	.LVL396:
 4251 1c36 FEF751BA 		b	.L6
 4252              	.L204:
 4253              		.loc 1 697 0
 4254 1c3a 524B     		ldr	r3, .L726+68
 4255              	.L668:
 4256              		.loc 1 788 0
 4257 1c3c 03CB     		ldmia	r3!, {r0, r1}
 4258 1c3e 1B88     		ldrh	r3, [r3]	@ unaligned
 4259 1c40 AAF80830 		strh	r3, [r10, #8]	@ unaligned
 4260 1c44 CAF80000 		str	r0, [r10]	@ unaligned
 4261 1c48 CAF80410 		str	r1, [r10, #4]	@ unaligned
 4262 1c4c FEF746BA 		b	.L6
 4263              	.L358:
 4264              		.loc 1 1149 0
 4265 1c50 4D4B     		ldr	r3, .L726+72
 4266 1c52 1868     		ldr	r0, [r3]
 4267 1c54 9B88     		ldrh	r3, [r3, #4]	@ unaligned
 4268 1c56 CAF80000 		str	r0, [r10]	@ unaligned
 4269 1c5a AAF80430 		strh	r3, [r10, #4]	@ unaligned
 4270 1c5e FEF73DBA 		b	.L6
 4271              	.L230:
 4272              		.loc 1 788 0
 4273 1c62 4A4B     		ldr	r3, .L726+76
 4274 1c64 EAE7     		b	.L668
 4275              	.L688:
ARM GAS  C:\Users\osour\AppData\Local\Temp\ccsBkKuy.s 			page 76


 4276              		.loc 1 708 0
 4277 1c66 FFF7FEFF 		bl	getBatteryValueRaw
 4278              	.LVL397:
 4279 1c6a 0446     		mov	r4, r0
 4280 1c6c FFF7FEFF 		bl	getBatteryValuePercentage
 4281              	.LVL398:
 4282 1c70 2246     		mov	r2, r4
 4283 1c72 0346     		mov	r3, r0
 4284 1c74 4649     		ldr	r1, .L726+80
 4285 1c76 3748     		ldr	r0, .L726+20
 4286 1c78 FFF7FEFF 		bl	sprintf
 4287              	.LVL399:
 4288              	.L397:
 4289 1c7c 3548     		ldr	r0, .L726+20
 4290 1c7e FFF7FEFF 		bl	strlen
 4291              	.LVL400:
 4292              		.loc 1 711 0
 4293 1c82 079B     		ldr	r3, [sp, #28]
 4294 1c84 0146     		mov	r1, r0
 4295              		.loc 1 712 0
 4296 1c86 3348     		ldr	r0, .L726+20
 4297              		.loc 1 711 0
 4298 1c88 002B     		cmp	r3, #0
 4299 1c8a 00F0E981 		beq	.L209
 4300              		.loc 1 712 0
 4301 1c8e FFF7FEFF 		bl	e_send_uart1_char
 4302              	.LVL401:
 4303              	.L210:
 4304              		.loc 1 712 0 is_stmt 0 discriminator 2
 4305 1c92 FFF7FEFF 		bl	e_uart1_sending
 4306              	.LVL402:
 4307 1c96 0028     		cmp	r0, #0
 4308 1c98 FBD1     		bne	.L210
 4309 1c9a FEF720BA 		b	.L650
 4310              	.L386:
 4311              		.loc 1 1232 0 is_stmt 1
 4312 1c9e FFF7FEFF 		bl	strlen
 4313              	.LVL403:
 4314 1ca2 0146     		mov	r1, r0
 4315 1ca4 2046     		mov	r0, r4
 4316 1ca6 FFF7FEFF 		bl	e_send_uart2_char
 4317              	.LVL404:
 4318              	.L388:
 4319              		.loc 1 1232 0 is_stmt 0 discriminator 2
 4320 1caa FFF7FEFF 		bl	e_uart2_sending
 4321              	.LVL405:
 4322 1cae 0028     		cmp	r0, #0
 4323 1cb0 FBD1     		bne	.L388
 4324 1cb2 FFF7BEB8 		b	.L385
 4325              	.L312:
 4326              		.loc 1 965 0 is_stmt 1
 4327 1cb6 FFF7FEFF 		bl	e_send_uart2_char
 4328              	.LVL406:
 4329              	.L315:
 4330              		.loc 1 965 0 is_stmt 0 discriminator 2
 4331 1cba FFF7FEFF 		bl	e_uart2_sending
 4332              	.LVL407:
ARM GAS  C:\Users\osour\AppData\Local\Temp\ccsBkKuy.s 			page 77


 4333 1cbe 0028     		cmp	r0, #0
 4334 1cc0 FBD1     		bne	.L315
 4335              		.loc 1 968 0 is_stmt 1
 4336 1cc2 0121     		movs	r1, #1
 4337 1cc4 0820     		movs	r0, #8
 4338 1cc6 FFF7FEFF 		bl	e_set_led
 4339              	.LVL408:
 4340              		.loc 1 970 0
 4341 1cca 4FF4C870 		mov	r0, #400
 4342 1cce FFF7FEFF 		bl	chThdSleep
 4343              	.LVL409:
 4344              		.loc 1 971 0
 4345 1cd2 FFF7FEFF 		bl	e_led_clear
 4346              	.LVL410:
 4347              		.loc 1 973 0
 4348 1cd6 6420     		movs	r0, #100
 4349 1cd8 FFF7FEFF 		bl	chThdSleep
 4350              	.LVL411:
 4351              		.loc 1 974 0
 4352 1cdc FFF7FEFF 		bl	e_calibrate_ir
 4353              	.LVL412:
 4354              		.loc 1 980 0
 4355 1ce0 1921     		movs	r1, #25
 4356 1ce2 2C48     		ldr	r0, .L726+84
 4357 1ce4 FFF7FEFF 		bl	e_send_uart2_char
 4358              	.LVL413:
 4359              	.L318:
 4360              		.loc 1 980 0 is_stmt 0 discriminator 2
 4361 1ce8 FFF7FEFF 		bl	e_uart2_sending
 4362              	.LVL414:
 4363 1cec 0028     		cmp	r0, #0
 4364 1cee FBD1     		bne	.L318
 4365 1cf0 FEF788BA 		b	.L641
 4366              	.LVL415:
 4367              	.L367:
 4368              		.loc 1 1176 0 is_stmt 1
 4369 1cf4 FFF7FEFF 		bl	e_send_uart2_char
 4370              	.LVL416:
 4371              	.L370:
 4372              		.loc 1 1176 0 is_stmt 0 discriminator 2
 4373 1cf8 FFF7FEFF 		bl	e_uart2_sending
 4374              	.LVL417:
 4375 1cfc 0028     		cmp	r0, #0
 4376 1cfe FBD1     		bne	.L370
 4377              		.loc 1 1178 0 is_stmt 1
 4378 1d00 1E4B     		ldr	r3, .L726+60
 4379 1d02 1F49     		ldr	r1, .L726+64
 4380 1d04 1A68     		ldr	r2, [r3]
 4381 1d06 1348     		ldr	r0, .L726+20
 4382 1d08 FFF7FEFF 		bl	sprintf
 4383              	.LVL418:
 4384              		.loc 1 1184 0
 4385 1d0c 1148     		ldr	r0, .L726+20
 4386 1d0e FFF7FEFF 		bl	strlen
 4387              	.LVL419:
 4388 1d12 0146     		mov	r1, r0
 4389 1d14 0F48     		ldr	r0, .L726+20
ARM GAS  C:\Users\osour\AppData\Local\Temp\ccsBkKuy.s 			page 78


 4390 1d16 FFF7FEFF 		bl	e_send_uart2_char
 4391              	.LVL420:
 4392              	.L373:
 4393              		.loc 1 1184 0 is_stmt 0 discriminator 2
 4394 1d1a FFF7FEFF 		bl	e_uart2_sending
 4395              	.LVL421:
 4396 1d1e 0028     		cmp	r0, #0
 4397 1d20 FBD1     		bne	.L373
 4398 1d22 FEF76FBA 		b	.L641
 4399              	.L690:
 4400              		.loc 1 795 0 is_stmt 1
 4401 1d26 0B48     		ldr	r0, .L726+20
 4402 1d28 FFF7FEFF 		bl	strlen
 4403              	.LVL422:
 4404 1d2c 0146     		mov	r1, r0
 4405 1d2e 0948     		ldr	r0, .L726+20
 4406 1d30 FFF7FEFF 		bl	e_send_uart2_char
 4407              	.LVL423:
 4408              	.L234:
 4409              		.loc 1 795 0 is_stmt 0 discriminator 2
 4410 1d34 FFF7FEFF 		bl	e_uart2_sending
 4411              	.LVL424:
 4412 1d38 0028     		cmp	r0, #0
 4413 1d3a FBD1     		bne	.L234
 4414 1d3c FEF762BA 		b	.L641
 4415              	.L727:
 4416              		.align	2
 4417              	.L726:
 4418 1d40 00000000 		.word	.LANCHOR7
 4419 1d44 00000000 		.word	.LANCHOR6
 4420 1d48 00000000 		.word	.LANCHOR17
 4421 1d4c 00000000 		.word	.LANCHOR16
 4422 1d50 00000000 		.word	.LANCHOR22
 4423 1d54 00000000 		.word	buffer
 4424 1d58 00000000 		.word	.LANCHOR12
 4425 1d5c 00000000 		.word	.LANCHOR13
 4426 1d60 00000000 		.word	.LANCHOR14
 4427 1d64 00000000 		.word	.LANCHOR18
 4428 1d68 00000000 		.word	.LANCHOR19
 4429 1d6c 00000000 		.word	.LANCHOR20
 4430 1d70 00000000 		.word	.LANCHOR15
 4431 1d74 00000000 		.word	.LANCHOR8
 4432 1d78 00000000 		.word	.LANCHOR21
 4433 1d7c 00000000 		.word	.LANCHOR0
 4434 1d80 500B0000 		.word	.LC96
 4435 1d84 6C000000 		.word	.LC2
 4436 1d88 BC0A0000 		.word	.LC86
 4437 1d8c 08010000 		.word	.LC14
 4438 1d90 78000000 		.word	.LC3
 4439 1d94 640B0000 		.word	.LC97
 4440              	.L235:
 4441              		.loc 1 880 0 is_stmt 1
 4442 1d98 FFF7FEFF 		bl	e_send_uart2_char
 4443              	.LVL425:
 4444              	.L269:
 4445              		.loc 1 880 0 is_stmt 0 discriminator 2
 4446 1d9c FFF7FEFF 		bl	e_uart2_sending
ARM GAS  C:\Users\osour\AppData\Local\Temp\ccsBkKuy.s 			page 79


 4447              	.LVL426:
 4448 1da0 0028     		cmp	r0, #0
 4449 1da2 FBD1     		bne	.L269
 4450              		.loc 1 881 0 is_stmt 1
 4451 1da4 FFF7FEFF 		bl	isEpuckVersion1_3
 4452              	.LVL427:
 4453 1da8 0028     		cmp	r0, #0
 4454 1daa 00F00182 		beq	.L709
 4455              	.L270:
 4456              		.loc 1 884 0
 4457 1dae FFF7FEFF 		bl	isEpuckVersion1_3
 4458              	.LVL428:
 4459 1db2 0028     		cmp	r0, #0
 4460 1db4 00F0BF81 		beq	.L272
 4461              		.loc 1 885 0
 4462 1db8 1921     		movs	r1, #25
 4463 1dba BF48     		ldr	r0, .L728
 4464 1dbc FFF7FEFF 		bl	e_send_uart2_char
 4465              	.LVL429:
 4466              	.L273:
 4467              		.loc 1 885 0 is_stmt 0 discriminator 2
 4468 1dc0 FFF7FEFF 		bl	e_uart2_sending
 4469              	.LVL430:
 4470 1dc4 0028     		cmp	r0, #0
 4471 1dc6 FBD1     		bne	.L273
 4472              	.L274:
 4473              		.loc 1 889 0 is_stmt 1
 4474 1dc8 2B21     		movs	r1, #43
 4475 1dca BC48     		ldr	r0, .L728+4
 4476 1dcc FFF7FEFF 		bl	e_send_uart2_char
 4477              	.LVL431:
 4478              	.L276:
 4479              		.loc 1 889 0 is_stmt 0 discriminator 2
 4480 1dd0 FFF7FEFF 		bl	e_uart2_sending
 4481              	.LVL432:
 4482 1dd4 0028     		cmp	r0, #0
 4483 1dd6 FBD1     		bne	.L276
 4484              		.loc 1 890 0 is_stmt 1
 4485 1dd8 1D21     		movs	r1, #29
 4486 1dda B948     		ldr	r0, .L728+8
 4487 1ddc FFF7FEFF 		bl	e_send_uart2_char
 4488              	.LVL433:
 4489              	.L277:
 4490              		.loc 1 890 0 is_stmt 0 discriminator 2
 4491 1de0 FFF7FEFF 		bl	e_uart2_sending
 4492              	.LVL434:
 4493 1de4 0028     		cmp	r0, #0
 4494 1de6 FBD1     		bne	.L277
 4495              		.loc 1 891 0 is_stmt 1
 4496 1de8 2621     		movs	r1, #38
 4497 1dea B648     		ldr	r0, .L728+12
 4498 1dec FFF7FEFF 		bl	e_send_uart2_char
 4499              	.LVL435:
 4500              	.L278:
 4501              		.loc 1 891 0 is_stmt 0 discriminator 2
 4502 1df0 FFF7FEFF 		bl	e_uart2_sending
 4503              	.LVL436:
ARM GAS  C:\Users\osour\AppData\Local\Temp\ccsBkKuy.s 			page 80


 4504 1df4 0028     		cmp	r0, #0
 4505 1df6 FBD1     		bne	.L278
 4506              		.loc 1 892 0 is_stmt 1
 4507 1df8 2621     		movs	r1, #38
 4508 1dfa B348     		ldr	r0, .L728+16
 4509 1dfc FFF7FEFF 		bl	e_send_uart2_char
 4510              	.LVL437:
 4511              	.L279:
 4512              		.loc 1 892 0 is_stmt 0 discriminator 2
 4513 1e00 FFF7FEFF 		bl	e_uart2_sending
 4514              	.LVL438:
 4515 1e04 0028     		cmp	r0, #0
 4516 1e06 FBD1     		bne	.L279
 4517              		.loc 1 893 0 is_stmt 1
 4518 1e08 2C21     		movs	r1, #44
 4519 1e0a B048     		ldr	r0, .L728+20
 4520 1e0c FFF7FEFF 		bl	e_send_uart2_char
 4521              	.LVL439:
 4522              	.L280:
 4523              		.loc 1 893 0 is_stmt 0 discriminator 2
 4524 1e10 FFF7FEFF 		bl	e_uart2_sending
 4525              	.LVL440:
 4526 1e14 0028     		cmp	r0, #0
 4527 1e16 FBD1     		bne	.L280
 4528              		.loc 1 895 0 is_stmt 1
 4529 1e18 1721     		movs	r1, #23
 4530 1e1a AD48     		ldr	r0, .L728+24
 4531 1e1c FFF7FEFF 		bl	e_send_uart2_char
 4532              	.LVL441:
 4533              	.L281:
 4534              		.loc 1 895 0 is_stmt 0 discriminator 2
 4535 1e20 FFF7FEFF 		bl	e_uart2_sending
 4536              	.LVL442:
 4537 1e24 0028     		cmp	r0, #0
 4538 1e26 FBD1     		bne	.L281
 4539              		.loc 1 897 0 is_stmt 1
 4540 1e28 1021     		movs	r1, #16
 4541 1e2a AA48     		ldr	r0, .L728+28
 4542 1e2c FFF7FEFF 		bl	e_send_uart2_char
 4543              	.LVL443:
 4544              	.L282:
 4545              		.loc 1 897 0 is_stmt 0 discriminator 2
 4546 1e30 FFF7FEFF 		bl	e_uart2_sending
 4547              	.LVL444:
 4548 1e34 0028     		cmp	r0, #0
 4549 1e36 FBD1     		bne	.L282
 4550              		.loc 1 898 0 is_stmt 1
 4551 1e38 2221     		movs	r1, #34
 4552 1e3a A748     		ldr	r0, .L728+32
 4553 1e3c FFF7FEFF 		bl	e_send_uart2_char
 4554              	.LVL445:
 4555              	.L283:
 4556              		.loc 1 898 0 is_stmt 0 discriminator 2
 4557 1e40 FFF7FEFF 		bl	e_uart2_sending
 4558              	.LVL446:
 4559 1e44 0028     		cmp	r0, #0
 4560 1e46 FBD1     		bne	.L283
ARM GAS  C:\Users\osour\AppData\Local\Temp\ccsBkKuy.s 			page 81


 4561              		.loc 1 899 0 is_stmt 1
 4562 1e48 4D21     		movs	r1, #77
 4563 1e4a A448     		ldr	r0, .L728+36
 4564 1e4c FFF7FEFF 		bl	e_send_uart2_char
 4565              	.LVL447:
 4566              	.L284:
 4567              		.loc 1 899 0 is_stmt 0 discriminator 2
 4568 1e50 FFF7FEFF 		bl	e_uart2_sending
 4569              	.LVL448:
 4570 1e54 0028     		cmp	r0, #0
 4571 1e56 FBD1     		bne	.L284
 4572              		.loc 1 900 0 is_stmt 1
 4573 1e58 2721     		movs	r1, #39
 4574 1e5a A148     		ldr	r0, .L728+40
 4575 1e5c FFF7FEFF 		bl	e_send_uart2_char
 4576              	.LVL449:
 4577              	.L285:
 4578              		.loc 1 900 0 is_stmt 0 discriminator 2
 4579 1e60 FFF7FEFF 		bl	e_uart2_sending
 4580              	.LVL450:
 4581 1e64 0028     		cmp	r0, #0
 4582 1e66 FBD1     		bne	.L285
 4583              		.loc 1 901 0 is_stmt 1
 4584 1e68 2B21     		movs	r1, #43
 4585 1e6a 9E48     		ldr	r0, .L728+44
 4586 1e6c FFF7FEFF 		bl	e_send_uart2_char
 4587              	.LVL451:
 4588              	.L286:
 4589              		.loc 1 901 0 is_stmt 0 discriminator 2
 4590 1e70 FFF7FEFF 		bl	e_uart2_sending
 4591              	.LVL452:
 4592 1e74 0028     		cmp	r0, #0
 4593 1e76 FBD1     		bne	.L286
 4594              		.loc 1 903 0 is_stmt 1
 4595 1e78 1921     		movs	r1, #25
 4596 1e7a 9B48     		ldr	r0, .L728+48
 4597 1e7c FFF7FEFF 		bl	e_send_uart2_char
 4598              	.LVL453:
 4599              	.L287:
 4600              		.loc 1 903 0 is_stmt 0 discriminator 2
 4601 1e80 FFF7FEFF 		bl	e_uart2_sending
 4602              	.LVL454:
 4603 1e84 0028     		cmp	r0, #0
 4604 1e86 FBD1     		bne	.L287
 4605              		.loc 1 905 0 is_stmt 1
 4606 1e88 1521     		movs	r1, #21
 4607 1e8a 9848     		ldr	r0, .L728+52
 4608 1e8c FFF7FEFF 		bl	e_send_uart2_char
 4609              	.LVL455:
 4610              	.L288:
 4611              		.loc 1 905 0 is_stmt 0 discriminator 2
 4612 1e90 FFF7FEFF 		bl	e_uart2_sending
 4613              	.LVL456:
 4614 1e94 0028     		cmp	r0, #0
 4615 1e96 FBD1     		bne	.L288
 4616              		.loc 1 906 0 is_stmt 1
 4617 1e98 1921     		movs	r1, #25
ARM GAS  C:\Users\osour\AppData\Local\Temp\ccsBkKuy.s 			page 82


 4618 1e9a 9548     		ldr	r0, .L728+56
 4619 1e9c FFF7FEFF 		bl	e_send_uart2_char
 4620              	.LVL457:
 4621              	.L289:
 4622              		.loc 1 906 0 is_stmt 0 discriminator 2
 4623 1ea0 FFF7FEFF 		bl	e_uart2_sending
 4624              	.LVL458:
 4625 1ea4 0028     		cmp	r0, #0
 4626 1ea6 FBD1     		bne	.L289
 4627              		.loc 1 907 0 is_stmt 1
 4628 1ea8 2921     		movs	r1, #41
 4629 1eaa 9248     		ldr	r0, .L728+60
 4630 1eac FFF7FEFF 		bl	e_send_uart2_char
 4631              	.LVL459:
 4632              	.L290:
 4633              		.loc 1 907 0 is_stmt 0 discriminator 2
 4634 1eb0 FFF7FEFF 		bl	e_uart2_sending
 4635              	.LVL460:
 4636 1eb4 0028     		cmp	r0, #0
 4637 1eb6 FBD1     		bne	.L290
 4638              		.loc 1 908 0 is_stmt 1
 4639 1eb8 2921     		movs	r1, #41
 4640 1eba 8F48     		ldr	r0, .L728+64
 4641 1ebc FFF7FEFF 		bl	e_send_uart2_char
 4642              	.LVL461:
 4643              	.L291:
 4644              		.loc 1 908 0 is_stmt 0 discriminator 2
 4645 1ec0 FFF7FEFF 		bl	e_uart2_sending
 4646              	.LVL462:
 4647 1ec4 0028     		cmp	r0, #0
 4648 1ec6 FBD1     		bne	.L291
 4649              		.loc 1 909 0 is_stmt 1
 4650 1ec8 1821     		movs	r1, #24
 4651 1eca 8C48     		ldr	r0, .L728+68
 4652 1ecc FFF7FEFF 		bl	e_send_uart2_char
 4653              	.LVL463:
 4654              	.L292:
 4655              		.loc 1 909 0 is_stmt 0 discriminator 2
 4656 1ed0 FFF7FEFF 		bl	e_uart2_sending
 4657              	.LVL464:
 4658 1ed4 0028     		cmp	r0, #0
 4659 1ed6 FBD1     		bne	.L292
 4660              		.loc 1 910 0 is_stmt 1
 4661 1ed8 2921     		movs	r1, #41
 4662 1eda 8948     		ldr	r0, .L728+72
 4663 1edc FFF7FEFF 		bl	e_send_uart2_char
 4664              	.LVL465:
 4665              	.L293:
 4666              		.loc 1 910 0 is_stmt 0 discriminator 2
 4667 1ee0 FFF7FEFF 		bl	e_uart2_sending
 4668              	.LVL466:
 4669 1ee4 0028     		cmp	r0, #0
 4670 1ee6 FBD1     		bne	.L293
 4671              		.loc 1 911 0 is_stmt 1
 4672 1ee8 2C21     		movs	r1, #44
 4673 1eea 8648     		ldr	r0, .L728+76
 4674 1eec FFF7FEFF 		bl	e_send_uart2_char
ARM GAS  C:\Users\osour\AppData\Local\Temp\ccsBkKuy.s 			page 83


 4675              	.LVL467:
 4676              	.L294:
 4677              		.loc 1 911 0 is_stmt 0 discriminator 2
 4678 1ef0 FFF7FEFF 		bl	e_uart2_sending
 4679              	.LVL468:
 4680 1ef4 0028     		cmp	r0, #0
 4681 1ef6 FBD1     		bne	.L294
 4682              		.loc 1 912 0 is_stmt 1
 4683 1ef8 2421     		movs	r1, #36
 4684 1efa 8348     		ldr	r0, .L728+80
 4685 1efc FFF7FEFF 		bl	e_send_uart2_char
 4686              	.LVL469:
 4687              	.L295:
 4688              		.loc 1 912 0 is_stmt 0 discriminator 2
 4689 1f00 FFF7FEFF 		bl	e_uart2_sending
 4690              	.LVL470:
 4691 1f04 0028     		cmp	r0, #0
 4692 1f06 FBD1     		bne	.L295
 4693              		.loc 1 913 0 is_stmt 1
 4694 1f08 1D21     		movs	r1, #29
 4695 1f0a 8048     		ldr	r0, .L728+84
 4696 1f0c FFF7FEFF 		bl	e_send_uart2_char
 4697              	.LVL471:
 4698              	.L296:
 4699              		.loc 1 913 0 is_stmt 0 discriminator 2
 4700 1f10 FFF7FEFF 		bl	e_uart2_sending
 4701              	.LVL472:
 4702 1f14 0028     		cmp	r0, #0
 4703 1f16 FBD1     		bne	.L296
 4704              		.loc 1 914 0 is_stmt 1
 4705 1f18 2521     		movs	r1, #37
 4706 1f1a 7D48     		ldr	r0, .L728+88
 4707 1f1c FFF7FEFF 		bl	e_send_uart2_char
 4708              	.LVL473:
 4709              	.L297:
 4710              		.loc 1 914 0 is_stmt 0 discriminator 2
 4711 1f20 FFF7FEFF 		bl	e_uart2_sending
 4712              	.LVL474:
 4713 1f24 0028     		cmp	r0, #0
 4714 1f26 FBD1     		bne	.L297
 4715              		.loc 1 915 0 is_stmt 1
 4716 1f28 2421     		movs	r1, #36
 4717 1f2a 7A48     		ldr	r0, .L728+92
 4718 1f2c FFF7FEFF 		bl	e_send_uart2_char
 4719              	.LVL475:
 4720              	.L298:
 4721              		.loc 1 915 0 is_stmt 0 discriminator 2
 4722 1f30 FFF7FEFF 		bl	e_uart2_sending
 4723              	.LVL476:
 4724 1f34 0028     		cmp	r0, #0
 4725 1f36 FBD1     		bne	.L298
 4726 1f38 FEF764B9 		b	.L641
 4727              	.L355:
 4728              		.loc 1 1141 0 is_stmt 1
 4729 1f3c FFF7FEFF 		bl	e_send_uart2_char
 4730              	.LVL477:
 4731              	.L357:
ARM GAS  C:\Users\osour\AppData\Local\Temp\ccsBkKuy.s 			page 84


 4732              		.loc 1 1141 0 is_stmt 0 discriminator 2
 4733 1f40 FFF7FEFF 		bl	e_uart2_sending
 4734              	.LVL478:
 4735 1f44 0028     		cmp	r0, #0
 4736 1f46 FBD1     		bne	.L357
 4737 1f48 FEF75CB9 		b	.L641
 4738              	.L221:
 4739              		.loc 1 758 0 is_stmt 1
 4740 1f4c FFF7FEFF 		bl	e_send_uart2_char
 4741              	.LVL479:
 4742              	.L223:
 4743              		.loc 1 758 0 is_stmt 0 discriminator 2
 4744 1f50 FFF7FEFF 		bl	e_uart2_sending
 4745              	.LVL480:
 4746 1f54 0028     		cmp	r0, #0
 4747 1f56 FBD1     		bne	.L223
 4748 1f58 FEF754B9 		b	.L641
 4749              	.L227:
 4750              		.loc 1 780 0 is_stmt 1
 4751 1f5c FFF7FEFF 		bl	e_send_uart2_char
 4752              	.LVL481:
 4753              	.L229:
 4754              		.loc 1 780 0 is_stmt 0 discriminator 2
 4755 1f60 FFF7FEFF 		bl	e_uart2_sending
 4756              	.LVL482:
 4757 1f64 0028     		cmp	r0, #0
 4758 1f66 FBD1     		bne	.L229
 4759 1f68 FEF74CB9 		b	.L641
 4760              	.L343:
 4761              		.loc 1 1110 0 is_stmt 1
 4762 1f6c FFF7FEFF 		bl	e_send_uart2_char
 4763              	.LVL483:
 4764              	.L345:
 4765              		.loc 1 1110 0 is_stmt 0 discriminator 2
 4766 1f70 FFF7FEFF 		bl	e_uart2_sending
 4767              	.LVL484:
 4768 1f74 0028     		cmp	r0, #0
 4769 1f76 FBD1     		bne	.L345
 4770 1f78 FEF744B9 		b	.L641
 4771              	.L215:
 4772              		.loc 1 736 0 is_stmt 1
 4773 1f7c FFF7FEFF 		bl	e_send_uart2_char
 4774              	.LVL485:
 4775              	.L217:
 4776              		.loc 1 736 0 is_stmt 0 discriminator 2
 4777 1f80 FFF7FEFF 		bl	e_uart2_sending
 4778              	.LVL486:
 4779 1f84 0028     		cmp	r0, #0
 4780 1f86 FBD1     		bne	.L217
 4781 1f88 FEF73CB9 		b	.L641
 4782              	.L218:
 4783              		.loc 1 748 0 is_stmt 1
 4784 1f8c FFF7FEFF 		bl	e_send_uart2_char
 4785              	.LVL487:
 4786              	.L220:
 4787              		.loc 1 748 0 is_stmt 0 discriminator 2
 4788 1f90 FFF7FEFF 		bl	e_uart2_sending
ARM GAS  C:\Users\osour\AppData\Local\Temp\ccsBkKuy.s 			page 85


 4789              	.LVL488:
 4790 1f94 0028     		cmp	r0, #0
 4791 1f96 FBD1     		bne	.L220
 4792 1f98 FEF734B9 		b	.L641
 4793              	.L212:
 4794              		.loc 1 725 0 is_stmt 1
 4795 1f9c FFF7FEFF 		bl	e_send_uart2_char
 4796              	.LVL489:
 4797              	.L214:
 4798              		.loc 1 725 0 is_stmt 0 discriminator 2
 4799 1fa0 FFF7FEFF 		bl	e_uart2_sending
 4800              	.LVL490:
 4801 1fa4 0028     		cmp	r0, #0
 4802 1fa6 FBD1     		bne	.L214
 4803 1fa8 FEF72CB9 		b	.L641
 4804              	.L319:
 4805              		.loc 1 991 0 is_stmt 1
 4806 1fac FFF7FEFF 		bl	e_send_uart2_char
 4807              	.LVL491:
 4808              	.L321:
 4809              		.loc 1 991 0 is_stmt 0 discriminator 2
 4810 1fb0 FFF7FEFF 		bl	e_uart2_sending
 4811              	.LVL492:
 4812 1fb4 0028     		cmp	r0, #0
 4813 1fb6 FBD1     		bne	.L321
 4814 1fb8 FEF724B9 		b	.L641
 4815              	.L224:
 4816              		.loc 1 769 0 is_stmt 1
 4817 1fbc FFF7FEFF 		bl	e_send_uart2_char
 4818              	.LVL493:
 4819              	.L226:
 4820              		.loc 1 769 0 is_stmt 0 discriminator 2
 4821 1fc0 FFF7FEFF 		bl	e_uart2_sending
 4822              	.LVL494:
 4823 1fc4 0028     		cmp	r0, #0
 4824 1fc6 FBD1     		bne	.L226
 4825 1fc8 FEF71CB9 		b	.L641
 4826              	.L337:
 4827              		.loc 1 1080 0 is_stmt 1
 4828 1fcc FFF7FEFF 		bl	e_send_uart2_char
 4829              	.LVL495:
 4830              	.L339:
 4831              		.loc 1 1080 0 is_stmt 0 discriminator 2
 4832 1fd0 FFF7FEFF 		bl	e_uart2_sending
 4833              	.LVL496:
 4834 1fd4 0028     		cmp	r0, #0
 4835 1fd6 FBD1     		bne	.L339
 4836 1fd8 FEF714B9 		b	.L641
 4837              	.L390:
 4838              		.loc 1 1244 0 is_stmt 1
 4839 1fdc FFF7FEFF 		bl	e_send_uart2_char
 4840              	.LVL497:
 4841              	.L392:
 4842              		.loc 1 1244 0 is_stmt 0 discriminator 2
 4843 1fe0 FFF7FEFF 		bl	e_uart2_sending
 4844              	.LVL498:
 4845 1fe4 0028     		cmp	r0, #0
ARM GAS  C:\Users\osour\AppData\Local\Temp\ccsBkKuy.s 			page 86


 4846 1fe6 FBD1     		bne	.L392
 4847 1fe8 FEF70CB9 		b	.L641
 4848              	.L334:
 4849              		.loc 1 1068 0 is_stmt 1
 4850 1fec FFF7FEFF 		bl	e_send_uart2_char
 4851              	.LVL499:
 4852              	.L336:
 4853              		.loc 1 1068 0 is_stmt 0 discriminator 2
 4854 1ff0 FFF7FEFF 		bl	e_uart2_sending
 4855              	.LVL500:
 4856 1ff4 0028     		cmp	r0, #0
 4857 1ff6 FBD1     		bne	.L336
 4858 1ff8 FEF704B9 		b	.L641
 4859              	.L363:
 4860              		.loc 1 1167 0 is_stmt 1
 4861 1ffc FFF7FEFF 		bl	e_send_uart2_char
 4862              	.LVL501:
 4863              	.L365:
 4864              		.loc 1 1167 0 is_stmt 0 discriminator 2
 4865 2000 FFF7FEFF 		bl	e_uart2_sending
 4866              	.LVL502:
 4867 2004 0028     		cmp	r0, #0
 4868 2006 FBD1     		bne	.L365
 4869 2008 FEF7FCB8 		b	.L641
 4870              	.L340:
 4871              		.loc 1 1090 0 is_stmt 1
 4872 200c FFF7FEFF 		bl	e_send_uart2_char
 4873              	.LVL503:
 4874              	.L342:
 4875              		.loc 1 1090 0 is_stmt 0 discriminator 2
 4876 2010 FFF7FEFF 		bl	e_uart2_sending
 4877              	.LVL504:
 4878 2014 0028     		cmp	r0, #0
 4879 2016 FBD1     		bne	.L342
 4880 2018 FEF7F4B8 		b	.L641
 4881              	.L706:
 4882              		.loc 1 704 0 is_stmt 1
 4883 201c 3E48     		ldr	r0, .L728+96
 4884 201e FFF7FEFF 		bl	strlen
 4885              	.LVL505:
 4886 2022 0146     		mov	r1, r0
 4887 2024 3C48     		ldr	r0, .L728+96
 4888 2026 FFF7FEFF 		bl	e_send_uart2_char
 4889              	.LVL506:
 4890              	.L208:
 4891              		.loc 1 704 0 is_stmt 0 discriminator 2
 4892 202a FFF7FEFF 		bl	e_uart2_sending
 4893              	.LVL507:
 4894 202e 0028     		cmp	r0, #0
 4895 2030 FBD1     		bne	.L208
 4896 2032 FEF7E7B8 		b	.L641
 4897              	.L705:
 4898              		.loc 1 1156 0 is_stmt 1
 4899 2036 3848     		ldr	r0, .L728+96
 4900 2038 FFF7FEFF 		bl	strlen
 4901              	.LVL508:
 4902 203c 0146     		mov	r1, r0
ARM GAS  C:\Users\osour\AppData\Local\Temp\ccsBkKuy.s 			page 87


 4903 203e 3648     		ldr	r0, .L728+96
 4904 2040 FFF7FEFF 		bl	e_send_uart2_char
 4905              	.LVL509:
 4906              	.L362:
 4907              		.loc 1 1156 0 is_stmt 0 discriminator 2
 4908 2044 FFF7FEFF 		bl	e_uart2_sending
 4909              	.LVL510:
 4910 2048 0028     		cmp	r0, #0
 4911 204a FBD1     		bne	.L362
 4912 204c FEF7DAB8 		b	.L641
 4913              	.L331:
 4914              		.loc 1 1056 0 is_stmt 1
 4915 2050 FFF7FEFF 		bl	e_send_uart2_char
 4916              	.LVL511:
 4917              	.L333:
 4918              		.loc 1 1056 0 is_stmt 0 discriminator 2
 4919 2054 FFF7FEFF 		bl	e_uart2_sending
 4920              	.LVL512:
 4921 2058 0028     		cmp	r0, #0
 4922 205a FBD1     		bne	.L333
 4923 205c FEF7D2B8 		b	.L641
 4924              	.L209:
 4925              		.loc 1 714 0 is_stmt 1
 4926 2060 FFF7FEFF 		bl	e_send_uart2_char
 4927              	.LVL513:
 4928              	.L211:
 4929              		.loc 1 714 0 is_stmt 0 discriminator 2
 4930 2064 FFF7FEFF 		bl	e_uart2_sending
 4931              	.LVL514:
 4932 2068 0028     		cmp	r0, #0
 4933 206a FBD1     		bne	.L211
 4934 206c FEF7CAB8 		b	.L641
 4935              	.L347:
 4936              		.loc 1 1131 0 is_stmt 1
 4937 2070 FFF7FEFF 		bl	e_close_sound
 4938              	.LVL515:
 4939              		.loc 1 1132 0
 4940 2074 FFF7FEFF 		bl	stopCurrentMelody
 4941              	.LVL516:
 4942              		.loc 1 1133 0
 4943 2078 284A     		ldr	r2, .L728+100
 4944 207a 0023     		movs	r3, #0
 4945 207c 1370     		strb	r3, [r2]
 4946              		.loc 1 1134 0
 4947 207e 49E4     		b	.L354
 4948              	.L374:
 4949              		.loc 1 1196 0
 4950 2080 FFF7FEFF 		bl	e_send_uart2_char
 4951              	.LVL517:
 4952              	.L376:
 4953              		.loc 1 1196 0 is_stmt 0 discriminator 2
 4954 2084 FFF7FEFF 		bl	e_uart2_sending
 4955              	.LVL518:
 4956 2088 0028     		cmp	r0, #0
 4957 208a FBD1     		bne	.L376
 4958 208c FEF7BAB8 		b	.L641
 4959              	.L308:
ARM GAS  C:\Users\osour\AppData\Local\Temp\ccsBkKuy.s 			page 88


 4960              		.loc 1 955 0 is_stmt 1
 4961 2090 FFF7FEFF 		bl	e_send_uart2_char
 4962              	.LVL519:
 4963              	.L310:
 4964              		.loc 1 955 0 is_stmt 0 discriminator 2
 4965 2094 FFF7FEFF 		bl	e_uart2_sending
 4966              	.LVL520:
 4967 2098 0028     		cmp	r0, #0
 4968 209a FBD1     		bne	.L310
 4969 209c FEF7B2B8 		b	.L641
 4970              	.L299:
 4971              		.loc 1 924 0 is_stmt 1
 4972 20a0 FFF7FEFF 		bl	strlen
 4973              	.LVL521:
 4974 20a4 0146     		mov	r1, r0
 4975 20a6 1C48     		ldr	r0, .L728+96
 4976 20a8 FFF7FEFF 		bl	e_send_uart2_char
 4977              	.LVL522:
 4978              	.L301:
 4979              		.loc 1 924 0 is_stmt 0 discriminator 2
 4980 20ac FFF7FEFF 		bl	e_uart2_sending
 4981              	.LVL523:
 4982 20b0 0028     		cmp	r0, #0
 4983 20b2 FBD1     		bne	.L301
 4984 20b4 FEF7A6B8 		b	.L641
 4985              	.L729:
 4986              		.align	2
 4987              	.L728:
 4988 20b8 00060000 		.word	.LC45
 4989 20bc 44060000 		.word	.LC47
 4990 20c0 70060000 		.word	.LC48
 4991 20c4 90060000 		.word	.LC49
 4992 20c8 B8060000 		.word	.LC50
 4993 20cc E0060000 		.word	.LC51
 4994 20d0 10070000 		.word	.LC52
 4995 20d4 28070000 		.word	.LC53
 4996 20d8 3C070000 		.word	.LC54
 4997 20dc 60070000 		.word	.LC55
 4998 20e0 B0070000 		.word	.LC56
 4999 20e4 D8070000 		.word	.LC57
 5000 20e8 04080000 		.word	.LC58
 5001 20ec 20080000 		.word	.LC59
 5002 20f0 38080000 		.word	.LC60
 5003 20f4 54080000 		.word	.LC61
 5004 20f8 80080000 		.word	.LC62
 5005 20fc AC080000 		.word	.LC63
 5006 2100 C8080000 		.word	.LC64
 5007 2104 F4080000 		.word	.LC65
 5008 2108 24090000 		.word	.LC66
 5009 210c 4C090000 		.word	.LC67
 5010 2110 6C090000 		.word	.LC68
 5011 2114 94090000 		.word	.LC69
 5012 2118 00000000 		.word	buffer
 5013 211c 00000000 		.word	.LANCHOR8
 5014              	.L302:
 5015              		.loc 1 936 0 is_stmt 1
 5016 2120 109B     		ldr	r3, [sp, #64]
ARM GAS  C:\Users\osour\AppData\Local\Temp\ccsBkKuy.s 			page 89


 5017 2122 1A68     		ldr	r2, [r3]
 5018 2124 119B     		ldr	r3, [sp, #68]
 5019 2126 1B68     		ldr	r3, [r3]
 5020 2128 03FB02F3 		mul	r3, r3, r2
 5021 212c 0E9A     		ldr	r2, [sp, #56]
 5022 212e 5B00     		lsls	r3, r3, #1
 5023 2130 1360     		str	r3, [r2]
 5024 2132 FEF7BDBF 		b	.L303
 5025              	.L272:
 5026              		.loc 1 887 0
 5027 2136 2721     		movs	r1, #39
 5028 2138 4848     		ldr	r0, .L730
 5029 213a FFF7FEFF 		bl	e_send_uart2_char
 5030              	.LVL524:
 5031              	.L275:
 5032              		.loc 1 887 0 is_stmt 0 discriminator 2
 5033 213e FFF7FEFF 		bl	e_uart2_sending
 5034              	.LVL525:
 5035 2142 0028     		cmp	r0, #0
 5036 2144 FBD1     		bne	.L275
 5037 2146 3FE6     		b	.L274
 5038              	.L239:
 5039              		.loc 1 845 0 is_stmt 1
 5040 2148 2F21     		movs	r1, #47
 5041 214a 4548     		ldr	r0, .L730+4
 5042 214c FFF7FEFF 		bl	e_send_uart1_char
 5043              	.LVL526:
 5044              	.L242:
 5045              		.loc 1 845 0 is_stmt 0 discriminator 2
 5046 2150 FFF7FEFF 		bl	e_uart1_sending
 5047              	.LVL527:
 5048 2154 0028     		cmp	r0, #0
 5049 2156 FBD1     		bne	.L242
 5050 2158 FFF7E6BA 		b	.L241
 5051              	.L328:
 5052              		.loc 1 1034 0 is_stmt 1
 5053 215c FFF7FEFF 		bl	strlen
 5054              	.LVL528:
 5055 2160 0146     		mov	r1, r0
 5056 2162 4048     		ldr	r0, .L730+8
 5057 2164 FFF7FEFF 		bl	e_send_uart2_char
 5058              	.LVL529:
 5059              	.L330:
 5060              		.loc 1 1034 0 is_stmt 0 discriminator 2
 5061 2168 FFF7FEFF 		bl	e_uart2_sending
 5062              	.LVL530:
 5063 216c 0028     		cmp	r0, #0
 5064 216e FBD1     		bne	.L330
 5065 2170 FEF748B8 		b	.L641
 5066              	.L382:
 5067              		.loc 1 1217 0 is_stmt 1
 5068 2174 FFF7FEFF 		bl	e_send_uart2_char
 5069              	.LVL531:
 5070              	.L384:
 5071              		.loc 1 1217 0 is_stmt 0 discriminator 2
 5072 2178 FFF7FEFF 		bl	e_uart2_sending
 5073              	.LVL532:
ARM GAS  C:\Users\osour\AppData\Local\Temp\ccsBkKuy.s 			page 90


 5074 217c 0028     		cmp	r0, #0
 5075 217e FBD1     		bne	.L384
 5076 2180 FEF740B8 		b	.L641
 5077              	.L377:
 5078              		.loc 1 1207 0 is_stmt 1
 5079 2184 FFF7FEFF 		bl	strlen
 5080              	.LVL533:
 5081 2188 0146     		mov	r1, r0
 5082 218a 3648     		ldr	r0, .L730+8
 5083 218c FFF7FEFF 		bl	e_send_uart2_char
 5084              	.LVL534:
 5085              	.L380:
 5086              		.loc 1 1207 0 is_stmt 0 discriminator 2
 5087 2190 FFF7FEFF 		bl	e_uart2_sending
 5088              	.LVL535:
 5089 2194 0028     		cmp	r0, #0
 5090 2196 FBD1     		bne	.L380
 5091 2198 FEF7F3BF 		b	.L379
 5092              	.L707:
 5093              		.loc 1 855 0 is_stmt 1
 5094 219c 1821     		movs	r1, #24
 5095 219e 3248     		ldr	r0, .L730+12
 5096 21a0 FFF7FEFF 		bl	e_send_uart1_char
 5097              	.LVL536:
 5098              	.L249:
 5099              		.loc 1 855 0 is_stmt 0 discriminator 2
 5100 21a4 FFF7FEFF 		bl	e_uart1_sending
 5101              	.LVL537:
 5102 21a8 0028     		cmp	r0, #0
 5103 21aa FBD1     		bne	.L249
 5104 21ac FFF7E9BA 		b	.L248
 5105              	.L709:
 5106              		.loc 1 882 0 is_stmt 1
 5107 21b0 1921     		movs	r1, #25
 5108 21b2 2E48     		ldr	r0, .L730+16
 5109 21b4 FFF7FEFF 		bl	e_send_uart2_char
 5110              	.LVL538:
 5111              	.L271:
 5112              		.loc 1 882 0 is_stmt 0 discriminator 2
 5113 21b8 FFF7FEFF 		bl	e_uart2_sending
 5114              	.LVL539:
 5115 21bc 0028     		cmp	r0, #0
 5116 21be FBD1     		bne	.L271
 5117 21c0 F5E5     		b	.L270
 5118              	.L708:
 5119              		.loc 1 873 0 is_stmt 1
 5120 21c2 1F21     		movs	r1, #31
 5121 21c4 2A48     		ldr	r0, .L730+20
 5122 21c6 FFF7FEFF 		bl	e_send_uart1_char
 5123              	.LVL540:
 5124              	.L264:
 5125              		.loc 1 873 0 is_stmt 0 discriminator 2
 5126 21ca FFF7FEFF 		bl	e_uart1_sending
 5127              	.LVL541:
 5128 21ce 0028     		cmp	r0, #0
 5129 21d0 FBD1     		bne	.L264
 5130 21d2 FFF743BB 		b	.L263
ARM GAS  C:\Users\osour\AppData\Local\Temp\ccsBkKuy.s 			page 91


 5131              	.L202:
 5132              		.loc 1 708 0 is_stmt 1
 5133 21d6 FFF7FEFF 		bl	getBatteryValueRaw
 5134              	.LVL542:
 5135 21da 0446     		mov	r4, r0
 5136 21dc FFF7FEFF 		bl	getBatteryValuePercentage
 5137              	.LVL543:
 5138 21e0 2246     		mov	r2, r4
 5139 21e2 0346     		mov	r3, r0
 5140 21e4 2349     		ldr	r1, .L730+24
 5141 21e6 1F48     		ldr	r0, .L730+8
 5142 21e8 FFF7FEFF 		bl	sprintf
 5143              	.LVL544:
 5144              		.loc 1 709 0
 5145 21ec 002F     		cmp	r7, #0
 5146 21ee 3FF445AD 		beq	.L397
 5147 21f2 FDF773BF 		b	.L6
 5148              	.LVL545:
 5149              	.L685:
 5150              	.LBE6:
 5151              		.loc 1 147 0
 5152 21f6 FFF7FEFF 		bl	e_acc_calibr
 5153              	.LVL546:
 5154              		.loc 1 148 0
 5155 21fa 5821     		movs	r1, #88
 5156 21fc 1E48     		ldr	r0, .L730+28
 5157 21fe FFF7FEFF 		bl	e_send_uart2_char
 5158              	.LVL547:
 5159              	.L8:
 5160              		.loc 1 148 0 is_stmt 0 discriminator 2
 5161 2202 FFF7FEFF 		bl	e_uart2_sending
 5162              	.LVL548:
 5163 2206 0790     		str	r0, [sp, #28]
 5164 2208 0028     		cmp	r0, #0
 5165 220a FAD1     		bne	.L8
 5166              		.loc 1 100 0 is_stmt 1
 5167 220c 0746     		mov	r7, r0
 5168 220e FDF75ABF 		b	.L3
 5169              	.LVL549:
 5170              	.L684:
 5171              		.loc 1 103 0
 5172 2212 FFF7FEFF 		bl	mountSDCard
 5173              	.LVL550:
 5174              		.loc 1 123 0
 5175 2216 194C     		ldr	r4, .L730+32
 5176              		.loc 1 127 0
 5177 2218 194B     		ldr	r3, .L730+36
 5178              		.loc 1 128 0
 5179 221a 1A49     		ldr	r1, .L730+40
 5180              		.loc 1 125 0
 5181 221c 1A4D     		ldr	r5, .L730+44
 5182              		.loc 1 126 0
 5183 221e 1B4E     		ldr	r6, .L730+48
 5184              		.loc 1 127 0
 5185 2220 1393     		str	r3, [sp, #76]
 5186              		.loc 1 128 0
 5187 2222 0E91     		str	r1, [sp, #56]
ARM GAS  C:\Users\osour\AppData\Local\Temp\ccsBkKuy.s 			page 92


 5188              		.loc 1 123 0
 5189 2224 1294     		str	r4, [sp, #72]
 5190              		.loc 1 125 0
 5191 2226 1095     		str	r5, [sp, #64]
 5192              		.loc 1 126 0
 5193 2228 1196     		str	r6, [sp, #68]
 5194              		.loc 1 112 0
 5195 222a FFF7FEFF 		bl	e_init_remote_control
 5196              	.LVL551:
 5197              		.loc 1 120 0
 5198 222e 0123     		movs	r3, #1
 5199 2230 174A     		ldr	r2, .L730+52
 5200 2232 4FF6FE71 		movw	r1, #65534
 5201 2236 7F20     		movs	r0, #127
 5202 2238 FFF7FEFF 		bl	ReadEE
 5203              	.LVL552:
 5204              		.loc 1 127 0
 5205 223c 104A     		ldr	r2, .L730+36
 5206 223e 0821     		movs	r1, #8
 5207              		.loc 1 125 0
 5208 2240 2823     		movs	r3, #40
 5209              		.loc 1 127 0
 5210 2242 1160     		str	r1, [r2]
 5211              		.loc 1 128 0
 5212 2244 0F49     		ldr	r1, .L730+40
 5213              		.loc 1 125 0
 5214 2246 2B60     		str	r3, [r5]
 5215              		.loc 1 126 0
 5216 2248 3360     		str	r3, [r6]
 5217              		.loc 1 128 0
 5218 224a 4FF44863 		mov	r3, #3200
 5219              		.loc 1 123 0
 5220 224e 0127     		movs	r7, #1
 5221              		.loc 1 128 0
 5222 2250 0B60     		str	r3, [r1]
 5223              		.loc 1 95 0
 5224 2252 0023     		movs	r3, #0
 5225              		.loc 1 123 0
 5226 2254 2760     		str	r7, [r4]
 5227              		.loc 1 95 0
 5228 2256 0793     		str	r3, [sp, #28]
 5229 2258 FDF735BF 		b	.L3
 5230              	.L731:
 5231              		.align	2
 5232              	.L730:
 5233 225c 1C060000 		.word	.LC46
 5234 2260 94010000 		.word	.LC19
 5235 2264 00000000 		.word	buffer
 5236 2268 A0020000 		.word	.LC25
 5237 226c E4050000 		.word	.LC44
 5238 2270 14050000 		.word	.LC39
 5239 2274 78000000 		.word	.LC3
 5240 2278 00000000 		.word	.LC0
 5241 227c 00000000 		.word	.LANCHOR1
 5242 2280 00000000 		.word	.LANCHOR4
 5243 2284 00000000 		.word	.LANCHOR5
 5244 2288 00000000 		.word	.LANCHOR2
ARM GAS  C:\Users\osour\AppData\Local\Temp\ccsBkKuy.s 			page 93


 5245 228c 00000000 		.word	.LANCHOR3
 5246 2290 00000000 		.word	.LANCHOR0
 5247              		.cfi_endproc
 5248              	.LFE260:
 5249              		.size	run_asercom2, .-run_asercom2
 5250              		.section	.bss.LED_action.13539,"aw",%nobits
 5251              		.align	2
 5252              		.set	.LANCHOR27,. + 0
 5253              		.type	LED_action.13539, %object
 5254              		.size	LED_action.13539, 4
 5255              	LED_action.13539:
 5256 0000 00000000 		.space	4
 5257              		.section	.bss.LED_nbr.13538,"aw",%nobits
 5258              		.align	2
 5259              		.set	.LANCHOR30,. + 0
 5260              		.type	LED_nbr.13538, %object
 5261              		.size	LED_nbr.13538, 4
 5262              	LED_nbr.13538:
 5263 0000 00000000 		.space	4
 5264              		.section	.bss.accelero.13563,"aw",%nobits
 5265              		.align	2
 5266              		.set	.LANCHOR15,. + 0
 5267              		.type	accelero.13563, %object
 5268              		.size	accelero.13563, 12
 5269              	accelero.13563:
 5270 0000 00000000 		.space	12
 5270      00000000 
 5270      00000000 
 5271              		.section	.bss.accx.13540,"aw",%nobits
 5272              		.align	2
 5273              		.set	.LANCHOR12,. + 0
 5274              		.type	accx.13540, %object
 5275              		.size	accx.13540, 4
 5276              	accx.13540:
 5277 0000 00000000 		.space	4
 5278              		.section	.bss.accy.13541,"aw",%nobits
 5279              		.align	2
 5280              		.set	.LANCHOR13,. + 0
 5281              		.type	accy.13541, %object
 5282              		.size	accy.13541, 4
 5283              	accy.13541:
 5284 0000 00000000 		.space	4
 5285              		.section	.bss.accz.13542,"aw",%nobits
 5286              		.align	2
 5287              		.set	.LANCHOR14,. + 0
 5288              		.type	accz.13542, %object
 5289              		.size	accz.13542, 4
 5290              	accz.13542:
 5291 0000 00000000 		.space	4
 5292              		.section	.bss.c1.13528,"aw",%nobits
 5293              		.set	.LANCHOR16,. + 0
 5294              		.type	c1.13528, %object
 5295              		.size	c1.13528, 1
 5296              	c1.13528:
 5297 0000 00       		.space	1
 5298              		.section	.bss.c2.13529,"aw",%nobits
 5299              		.set	.LANCHOR17,. + 0
ARM GAS  C:\Users\osour\AppData\Local\Temp\ccsBkKuy.s 			page 94


 5300              		.type	c2.13529, %object
 5301              		.size	c2.13529, 1
 5302              	c2.13529:
 5303 0000 00       		.space	1
 5304              		.section	.bss.cam_heigth.13549,"aw",%nobits
 5305              		.align	2
 5306              		.set	.LANCHOR3,. + 0
 5307              		.type	cam_heigth.13549, %object
 5308              		.size	cam_heigth.13549, 4
 5309              	cam_heigth.13549:
 5310 0000 00000000 		.space	4
 5311              		.section	.bss.cam_mode.13547,"aw",%nobits
 5312              		.align	2
 5313              		.set	.LANCHOR1,. + 0
 5314              		.type	cam_mode.13547, %object
 5315              		.size	cam_mode.13547, 4
 5316              	cam_mode.13547:
 5317 0000 00000000 		.space	4
 5318              		.section	.bss.cam_size.13551,"aw",%nobits
 5319              		.align	2
 5320              		.set	.LANCHOR5,. + 0
 5321              		.type	cam_size.13551, %object
 5322              		.size	cam_size.13551, 4
 5323              	cam_size.13551:
 5324 0000 00000000 		.space	4
 5325              		.section	.bss.cam_width.13548,"aw",%nobits
 5326              		.align	2
 5327              		.set	.LANCHOR2,. + 0
 5328              		.type	cam_width.13548, %object
 5329              		.size	cam_width.13548, 4
 5330              	cam_width.13548:
 5331 0000 00000000 		.space	4
 5332              		.section	.bss.cam_x1.13552,"aw",%nobits
 5333              		.align	2
 5334              		.set	.LANCHOR28,. + 0
 5335              		.type	cam_x1.13552, %object
 5336              		.size	cam_x1.13552, 4
 5337              	cam_x1.13552:
 5338 0000 00000000 		.space	4
 5339              		.section	.bss.cam_y1.13553,"aw",%nobits
 5340              		.align	2
 5341              		.set	.LANCHOR29,. + 0
 5342              		.type	cam_y1.13553, %object
 5343              		.size	cam_y1.13553, 4
 5344              	cam_y1.13553:
 5345 0000 00000000 		.space	4
 5346              		.section	.bss.cam_zoom.13550,"aw",%nobits
 5347              		.align	2
 5348              		.set	.LANCHOR4,. + 0
 5349              		.type	cam_zoom.13550, %object
 5350              		.size	cam_zoom.13550, 4
 5351              	cam_zoom.13550:
 5352 0000 00000000 		.space	4
 5353              		.section	.bss.first.13554,"aw",%nobits
 5354              		.set	.LANCHOR8,. + 0
 5355              		.type	first.13554, %object
 5356              		.size	first.13554, 1
ARM GAS  C:\Users\osour\AppData\Local\Temp\ccsBkKuy.s 			page 95


 5357              	first.13554:
 5358 0000 00       		.space	1
 5359              		.section	.bss.gyrox.13544,"aw",%nobits
 5360              		.align	2
 5361              		.set	.LANCHOR20,. + 0
 5362              		.type	gyrox.13544, %object
 5363              		.size	gyrox.13544, 4
 5364              	gyrox.13544:
 5365 0000 00000000 		.space	4
 5366              		.section	.bss.gyroy.13545,"aw",%nobits
 5367              		.align	2
 5368              		.set	.LANCHOR19,. + 0
 5369              		.type	gyroy.13545, %object
 5370              		.size	gyroy.13545, 4
 5371              	gyroy.13545:
 5372 0000 00000000 		.space	4
 5373              		.section	.bss.gyroz.13546,"aw",%nobits
 5374              		.align	2
 5375              		.set	.LANCHOR18,. + 0
 5376              		.type	gyroz.13546, %object
 5377              		.size	gyroz.13546, 4
 5378              	gyroz.13546:
 5379 0000 00000000 		.space	4
 5380              		.section	.bss.i.13531,"aw",%nobits
 5381              		.align	2
 5382              		.set	.LANCHOR9,. + 0
 5383              		.type	i.13531, %object
 5384              		.size	i.13531, 4
 5385              	i.13531:
 5386 0000 00000000 		.space	4
 5387              		.section	.bss.j.13532,"aw",%nobits
 5388              		.align	2
 5389              		.set	.LANCHOR10,. + 0
 5390              		.type	j.13532, %object
 5391              		.size	j.13532, 4
 5392              	j.13532:
 5393 0000 00000000 		.space	4
 5394              		.section	.bss.mod.13557,"aw",%nobits
 5395              		.align	2
 5396              		.set	.LANCHOR24,. + 0
 5397              		.type	mod.13557, %object
 5398              		.size	mod.13557, 4
 5399              	mod.13557:
 5400 0000 00000000 		.space	4
 5401              		.section	.bss.positionl.13537,"aw",%nobits
 5402              		.align	2
 5403              		.set	.LANCHOR22,. + 0
 5404              		.type	positionl.13537, %object
 5405              		.size	positionl.13537, 4
 5406              	positionl.13537:
 5407 0000 00000000 		.space	4
 5408              		.section	.bss.positionr.13536,"aw",%nobits
 5409              		.align	2
 5410              		.set	.LANCHOR23,. + 0
 5411              		.type	positionr.13536, %object
 5412              		.size	positionr.13536, 4
 5413              	positionr.13536:
ARM GAS  C:\Users\osour\AppData\Local\Temp\ccsBkKuy.s 			page 96


 5414 0000 00000000 		.space	4
 5415              		.section	.bss.reg.13558,"aw",%nobits
 5416              		.align	2
 5417              		.set	.LANCHOR25,. + 0
 5418              		.type	reg.13558, %object
 5419              		.size	reg.13558, 4
 5420              	reg.13558:
 5421 0000 00000000 		.space	4
 5422              		.section	.bss.rgb_value.13555,"aw",%nobits
 5423              		.align	2
 5424              		.set	.LANCHOR11,. + 0
 5425              		.type	rgb_value.13555, %object
 5426              		.size	rgb_value.13555, 12
 5427              	rgb_value.13555:
 5428 0000 00000000 		.space	12
 5428      00000000 
 5428      00000000 
 5429              		.section	.bss.sound.13543,"aw",%nobits
 5430              		.align	2
 5431              		.set	.LANCHOR31,. + 0
 5432              		.type	sound.13543, %object
 5433              		.size	sound.13543, 4
 5434              	sound.13543:
 5435 0000 00000000 		.space	4
 5436              		.section	.bss.speedl.13535,"aw",%nobits
 5437              		.align	2
 5438              		.set	.LANCHOR7,. + 0
 5439              		.type	speedl.13535, %object
 5440              		.size	speedl.13535, 4
 5441              	speedl.13535:
 5442 0000 00000000 		.space	4
 5443              		.section	.bss.speedr.13534,"aw",%nobits
 5444              		.align	2
 5445              		.set	.LANCHOR6,. + 0
 5446              		.type	speedr.13534, %object
 5447              		.size	speedr.13534, 4
 5448              	speedr.13534:
 5449 0000 00000000 		.space	4
 5450              		.section	.bss.val.13559,"aw",%nobits
 5451              		.align	2
 5452              		.set	.LANCHOR26,. + 0
 5453              		.type	val.13559, %object
 5454              		.size	val.13559, 4
 5455              	val.13559:
 5456 0000 00000000 		.space	4
 5457              		.section	.bss.wait_cam.13530,"aw",%nobits
 5458              		.set	.LANCHOR21,. + 0
 5459              		.type	wait_cam.13530, %object
 5460              		.size	wait_cam.13530, 1
 5461              	wait_cam.13530:
 5462 0000 00       		.space	1
 5463              		.section	.data.HWversion.13568,"aw",%progbits
 5464              		.align	2
 5465              		.set	.LANCHOR0,. + 0
 5466              		.type	HWversion.13568, %object
 5467              		.size	HWversion.13568, 4
 5468              	HWversion.13568:
ARM GAS  C:\Users\osour\AppData\Local\Temp\ccsBkKuy.s 			page 97


 5469 0000 FFFF0000 		.word	65535
 5470              		.section	.rodata.run_asercom2.str1.4,"aMS",%progbits,1
 5471              		.align	2
 5472              	.LC0:
 5473 0000 0C075745 		.ascii	"\014\007WELCOME to the SerCom protocol on e-Puck\015"
 5473      4C434F4D 
 5473      4520746F 
 5473      20746865 
 5473      20536572 
 5474 002b 0A746865 		.ascii	"\012the EPFL education robot type \"H\" for help\015"
 5474      20455046 
 5474      4C206564 
 5474      75636174 
 5474      696F6E20 
 5475 0057 0A00     		.ascii	"\012\000"
 5476 0059 000000   		.space	3
 5477              	.LC1:
 5478 005c 612C2564 		.ascii	"a,%d,%d,%d\015\012\000"
 5478      2C25642C 
 5478      25640D0A 
 5478      00
 5479 0069 000000   		.space	3
 5480              	.LC2:
 5481 006c 612C302C 		.ascii	"a,0,0,0\015\012\000"
 5481      302C300D 
 5481      0A00
 5482 0076 0000     		.space	2
 5483              	.LC3:
 5484 0078 622C2564 		.ascii	"b,%d (%d%%)\015\012\000"
 5484      20282564 
 5484      2525290D 
 5484      0A00
 5485 0086 0000     		.space	2
 5486              	.LC4:
 5487 0088 422C2564 		.ascii	"B,%d\015\000"
 5487      0D00
 5488 008e 0000     		.space	2
 5489              	.LC5:
 5490 0090 620D0A00 		.ascii	"b\015\012\000"
 5491              	.LC6:
 5492 0094 632C2564 		.ascii	"c,%d\015\012\000"
 5492      0D0A00
 5493 009b 00       		.space	1
 5494              	.LC7:
 5495 009c 442C2564 		.ascii	"D,%d,%d\015\000"
 5495      2C25640D 
 5495      00
 5496 00a5 000000   		.space	3
 5497              	.LC8:
 5498 00a8 640D0A00 		.ascii	"d\015\012\000"
 5499              	.LC9:
 5500 00ac 652C2564 		.ascii	"e,%d,%d\015\012\000"
 5500      2C25640D 
 5500      0A00
 5501 00b6 0000     		.space	2
 5502              	.LC10:
 5503 00b8 462C2564 		.ascii	"F,%d\015\000"
ARM GAS  C:\Users\osour\AppData\Local\Temp\ccsBkKuy.s 			page 98


 5503      0D00
 5504 00be 0000     		.space	2
 5505              	.LC11:
 5506 00c0 660D0A00 		.ascii	"f\015\012\000"
 5507              	.LC12:
 5508 00c4 67204952 		.ascii	"g IR check : 0x%x, address : 0x%x, data : 0x%x\015\012"
 5508      20636865 
 5508      636B203A 
 5508      20307825 
 5508      782C2061 
 5509 00f4 00       		.ascii	"\000"
 5510 00f5 000000   		.space	3
 5511              	.LC13:
 5512 00f8 672C2564 		.ascii	"g,%d,%d,%d\015\012\000"
 5512      2C25642C 
 5512      25640D0A 
 5512      00
 5513 0105 000000   		.space	3
 5514              	.LC14:
 5515 0108 672C302C 		.ascii	"g,0,0,0\015\012\000"
 5515      302C300D 
 5515      0A00
 5516 0112 0000     		.space	2
 5517              	.LC15:
 5518 0114 0A00     		.ascii	"\012\000"
 5519 0116 0000     		.space	2
 5520              	.LC16:
 5521 0118 22412220 		.ascii	"\"A\"               Accelerometer\015\012\000"
 5521      20202020 
 5521      20202020 
 5521      20202020 
 5521      20204163 
 5522 013a 0000     		.space	2
 5523              	.LC17:
 5524 013c 22422C23 		.ascii	"\"B,#\"             Body led 0=off 1=on 2=inverse\015"
 5524      22202020 
 5524      20202020 
 5524      20202020 
 5524      2020426F 
 5525 016c 0A00     		.ascii	"\012\000"
 5526 016e 0000     		.space	2
 5527              	.LC18:
 5528 0170 22622220 		.ascii	"\"b\"               Battery value\015\012\000"
 5528      20202020 
 5528      20202020 
 5528      20202020 
 5528      20204261 
 5529 0192 0000     		.space	2
 5530              	.LC19:
 5531 0194 22622220 		.ascii	"\"b\"               Battery state (1=ok, 0=low)\015"
 5531      20202020 
 5531      20202020 
 5531      20202020 
 5531      20204261 
 5532 01c2 0A00     		.ascii	"\012\000"
 5533              	.LC20:
 5534 01c4 22432220 		.ascii	"\"C\"               Selector position\015\012\000"
ARM GAS  C:\Users\osour\AppData\Local\Temp\ccsBkKuy.s 			page 99


 5534      20202020 
 5534      20202020 
 5534      20202020 
 5534      20205365 
 5535 01ea 0000     		.space	2
 5536              	.LC21:
 5537 01ec 22442C23 		.ascii	"\"D,#,#\"           Set motor speed left,right\015\012"
 5537      2C232220 
 5537      20202020 
 5537      20202020 
 5537      20205365 
 5538 021a 00       		.ascii	"\000"
 5539 021b 00       		.space	1
 5540              	.LC22:
 5541 021c 22452220 		.ascii	"\"E\"               Get motor speed left,right\015\012"
 5541      20202020 
 5541      20202020 
 5541      20202020 
 5541      20204765 
 5542 024a 00       		.ascii	"\000"
 5543 024b 00       		.space	1
 5544              	.LC23:
 5545 024c 22462C23 		.ascii	"\"F,#\"             Front led 0=off 1=on 2=inverse\015"
 5545      22202020 
 5545      20202020 
 5545      20202020 
 5545      20204672 
 5546 027d 0A00     		.ascii	"\012\000"
 5547 027f 00       		.space	1
 5548              	.LC24:
 5549 0280 22472220 		.ascii	"\"G\"               IR receiver\015\012\000"
 5549      20202020 
 5549      20202020 
 5549      20202020 
 5549      20204952 
 5550              	.LC25:
 5551 02a0 22672220 		.ascii	"\"g\"               Gyro\015\012\000"
 5551      20202020 
 5551      20202020 
 5551      20202020 
 5551      20204779 
 5552 02b9 000000   		.space	3
 5553              	.LC26:
 5554 02bc 22482220 		.ascii	"\"H\"               Help\015\012\000"
 5554      20202020 
 5554      20202020 
 5554      20202020 
 5554      20204865 
 5555 02d5 000000   		.space	3
 5556              	.LC27:
 5557 02d8 22492220 		.ascii	"\"I\"               Get camera parameter\015\012\000"
 5557      20202020 
 5557      20202020 
 5557      20202020 
 5557      20204765 
 5558 0301 000000   		.space	3
 5559              	.LC28:
ARM GAS  C:\Users\osour\AppData\Local\Temp\ccsBkKuy.s 			page 100


 5560 0304 224A2C23 		.ascii	"\"J,#,#,#,#,#,#\"   Set camera parameter mode,width"
 5560      2C232C23 
 5560      2C232C23 
 5560      2C232220 
 5560      20205365 
 5561 0335 2C686569 		.ascii	",heigth,zoom(1,4 or 8),x1,y1\015\012\000"
 5561      6774682C 
 5561      7A6F6F6D 
 5561      28312C34 
 5561      206F7220 
 5562              	.LC29:
 5563 0354 224B2220 		.ascii	"\"K\"               Calibrate proximity sensors\015"
 5563      20202020 
 5563      20202020 
 5563      20202020 
 5563      20204361 
 5564 0382 0A00     		.ascii	"\012\000"
 5565              	.LC30:
 5566 0384 224C2C23 		.ascii	"\"L,#,#\"           Led number,0=off 1=on 2=inverse"
 5566      2C232220 
 5566      20202020 
 5566      20202020 
 5566      20204C65 
 5567 03b5 0D0A00   		.ascii	"\015\012\000"
 5568              	.LC31:
 5569 03b8 224D2220 		.ascii	"\"M\"               Floor sensors\015\012\000"
 5569      20202020 
 5569      20202020 
 5569      20202020 
 5569      2020466C 
 5570 03da 0000     		.space	2
 5571              	.LC32:
 5572 03dc 224E2220 		.ascii	"\"N\"               Proximity\015\012\000"
 5572      20202020 
 5572      20202020 
 5572      20202020 
 5572      20205072 
 5573 03fa 0000     		.space	2
 5574              	.LC33:
 5575 03fc 224F2220 		.ascii	"\"O\"               Light sensors\015\012\000"
 5575      20202020 
 5575      20202020 
 5575      20202020 
 5575      20204C69 
 5576 041e 0000     		.space	2
 5577              	.LC34:
 5578 0420 22502C23 		.ascii	"\"P,#,#\"           Set motor position left,right\015"
 5578      2C232220 
 5578      20202020 
 5578      20202020 
 5578      20205365 
 5579 0450 0A00     		.ascii	"\012\000"
 5580 0452 0000     		.space	2
 5581              	.LC35:
 5582 0454 22512220 		.ascii	"\"Q\"               Get motor position left,right\015"
 5582      20202020 
 5582      20202020 
ARM GAS  C:\Users\osour\AppData\Local\Temp\ccsBkKuy.s 			page 101


 5582      20202020 
 5582      20204765 
 5583 0484 0A00     		.ascii	"\012\000"
 5584 0486 0000     		.space	2
 5585              	.LC36:
 5586 0488 22522220 		.ascii	"\"R\"               Reset e-puck\015\012\000"
 5586      20202020 
 5586      20202020 
 5586      20202020 
 5586      20205265 
 5587 04a9 000000   		.space	3
 5588              	.LC37:
 5589 04ac 22532220 		.ascii	"\"S\"               Stop e-puck and turn off leds\015"
 5589      20202020 
 5589      20202020 
 5589      20202020 
 5589      20205374 
 5590 04dc 0A00     		.ascii	"\012\000"
 5591 04de 0000     		.space	2
 5592              	.LC38:
 5593 04e0 22542C23 		.ascii	"\"T,#\"             Play sound 1-5 else stop sound\015"
 5593      22202020 
 5593      20202020 
 5593      20202020 
 5593      2020506C 
 5594 0511 0A00     		.ascii	"\012\000"
 5595 0513 00       		.space	1
 5596              	.LC39:
 5597 0514 22742220 		.ascii	"\"t\"               Temperature\015\012\000"
 5597      20202020 
 5597      20202020 
 5597      20202020 
 5597      20205465 
 5598              	.LC40:
 5599 0534 22552220 		.ascii	"\"U\"               Get microphone amplitude\015\012"
 5599      20202020 
 5599      20202020 
 5599      20202020 
 5599      20204765 
 5600 0560 00       		.ascii	"\000"
 5601 0561 000000   		.space	3
 5602              	.LC41:
 5603 0564 22562220 		.ascii	"\"V\"               Version of SerCom\015\012\000"
 5603      20202020 
 5603      20202020 
 5603      20202020 
 5603      20205665 
 5604 058a 0000     		.space	2
 5605              	.LC42:
 5606 058c 22572220 		.ascii	"\"W\"               Write I2C (mod,reg,val)\015\012"
 5606      20202020 
 5606      20202020 
 5606      20202020 
 5606      20205772 
 5607 05b7 00       		.ascii	"\000"
 5608              	.LC43:
 5609 05b8 22592220 		.ascii	"\"Y\"               Read I2C val=(mod,reg)\015\012\000"
ARM GAS  C:\Users\osour\AppData\Local\Temp\ccsBkKuy.s 			page 102


 5609      20202020 
 5609      20202020 
 5609      20202020 
 5609      20205265 
 5610 05e3 00       		.space	1
 5611              	.LC44:
 5612 05e4 22412220 		.ascii	"\"A\"       Accelerometer\015\012\000"
 5612      20202020 
 5612      20204163 
 5612      63656C65 
 5612      726F6D65 
 5613 05fe 0000     		.space	2
 5614              	.LC45:
 5615 0600 22622220 		.ascii	"\"b\"       Battery value\015\012\000"
 5615      20202020 
 5615      20204261 
 5615      74746572 
 5615      79207661 
 5616 061a 0000     		.space	2
 5617              	.LC46:
 5618 061c 22622220 		.ascii	"\"b\"       Battery state (1=ok, 0=low)\015\012\000"
 5618      20202020 
 5618      20204261 
 5618      74746572 
 5618      79207374 
 5619              	.LC47:
 5620 0644 22422C23 		.ascii	"\"B,#\"       Body led 0=off 1=on 2=inverse\015\012"
 5620      22202020 
 5620      20202020 
 5620      426F6479 
 5620      206C6564 
 5621 066f 00       		.ascii	"\000"
 5622              	.LC48:
 5623 0670 22432220 		.ascii	"\"C\"       Selector position\015\012\000"
 5623      20202020 
 5623      20205365 
 5623      6C656374 
 5623      6F722070 
 5624 068e 0000     		.space	2
 5625              	.LC49:
 5626 0690 22442C23 		.ascii	"\"D,#,#\"   Set motor speed left,right\015\012\000"
 5626      2C232220 
 5626      20205365 
 5626      74206D6F 
 5626      746F7220 
 5627 06b7 00       		.space	1
 5628              	.LC50:
 5629 06b8 22452220 		.ascii	"\"E\"       Get motor speed left,right\015\012\000"
 5629      20202020 
 5629      20204765 
 5629      74206D6F 
 5629      746F7220 
 5630 06df 00       		.space	1
 5631              	.LC51:
 5632 06e0 22462C23 		.ascii	"\"F,#\"       Front led 0=off 1=on 2=inverse\015\012"
 5632      22202020 
 5632      20202020 
ARM GAS  C:\Users\osour\AppData\Local\Temp\ccsBkKuy.s 			page 103


 5632      46726F6E 
 5632      74206C65 
 5633 070c 00       		.ascii	"\000"
 5634 070d 000000   		.space	3
 5635              	.LC52:
 5636 0710 22472220 		.ascii	"\"G\"       IR receiver\015\012\000"
 5636      20202020 
 5636      20204952 
 5636      20726563 
 5636      65697665 
 5637              	.LC53:
 5638 0728 22482220 		.ascii	"\"H\"       Help\015\012\000"
 5638      20202020 
 5638      20204865 
 5638      6C700D0A 
 5638      00
 5639 0739 000000   		.space	3
 5640              	.LC54:
 5641 073c 22492220 		.ascii	"\"I\"         Get camera parameter\015\012\000"
 5641      20202020 
 5641      20202020 
 5641      47657420 
 5641      63616D65 
 5642 075f 00       		.space	1
 5643              	.LC55:
 5644 0760 224A2C23 		.ascii	"\"J,#,#,#,#,#,#\" Set camera parameter mode,width,h"
 5644      2C232C23 
 5644      2C232C23 
 5644      2C232220 
 5644      53657420 
 5645 0791 65696774 		.ascii	"eigth,zoom(1,4 or 8),x1,y1\015\012\000"
 5645      682C7A6F 
 5645      6F6D2831 
 5645      2C34206F 
 5645      72203829 
 5646 07ae 0000     		.space	2
 5647              	.LC56:
 5648 07b0 224B2220 		.ascii	"\"K\"       Calibrate proximity sensors\015\012\000"
 5648      20202020 
 5648      20204361 
 5648      6C696272 
 5648      61746520 
 5649              	.LC57:
 5650 07d8 224C2C23 		.ascii	"\"L,#,#\"   Led number,0=off 1=on 2=inverse\015\012"
 5650      2C232220 
 5650      20204C65 
 5650      64206E75 
 5650      6D626572 
 5651 0803 00       		.ascii	"\000"
 5652              	.LC58:
 5653 0804 224D2220 		.ascii	"\"M\"       Floor sensors\015\012\000"
 5653      20202020 
 5653      2020466C 
 5653      6F6F7220 
 5653      73656E73 
 5654 081e 0000     		.space	2
 5655              	.LC59:
ARM GAS  C:\Users\osour\AppData\Local\Temp\ccsBkKuy.s 			page 104


 5656 0820 224E2220 		.ascii	"\"N\"       Proximity\015\012\000"
 5656      20202020 
 5656      20205072 
 5656      6F78696D 
 5656      6974790D 
 5657 0836 0000     		.space	2
 5658              	.LC60:
 5659 0838 224F2220 		.ascii	"\"O\"       Light sensors\015\012\000"
 5659      20202020 
 5659      20204C69 
 5659      67687420 
 5659      73656E73 
 5660 0852 0000     		.space	2
 5661              	.LC61:
 5662 0854 22502C23 		.ascii	"\"P,#,#\"   Set motor position left,right\015\012\000"
 5662      2C232220 
 5662      20205365 
 5662      74206D6F 
 5662      746F7220 
 5663 087e 0000     		.space	2
 5664              	.LC62:
 5665 0880 22512220 		.ascii	"\"Q\"       Get motor position left,right\015\012\000"
 5665      20202020 
 5665      20204765 
 5665      74206D6F 
 5665      746F7220 
 5666 08aa 0000     		.space	2
 5667              	.LC63:
 5668 08ac 22522220 		.ascii	"\"R\"       Reset e-puck\015\012\000"
 5668      20202020 
 5668      20205265 
 5668      73657420 
 5668      652D7075 
 5669 08c5 000000   		.space	3
 5670              	.LC64:
 5671 08c8 22532220 		.ascii	"\"S\"       Stop e-puck and turn off leds\015\012\000"
 5671      20202020 
 5671      20205374 
 5671      6F702065 
 5671      2D707563 
 5672 08f2 0000     		.space	2
 5673              	.LC65:
 5674 08f4 22542C23 		.ascii	"\"T,#\"       Play sound 1-5 else stop sound\015\012"
 5674      22202020 
 5674      20202020 
 5674      506C6179 
 5674      20736F75 
 5675 0920 00       		.ascii	"\000"
 5676 0921 000000   		.space	3
 5677              	.LC66:
 5678 0924 22552220 		.ascii	"\"U\"       Get microphone amplitude\015\012\000"
 5678      20202020 
 5678      20204765 
 5678      74206D69 
 5678      63726F70 
 5679 0949 000000   		.space	3
 5680              	.LC67:
ARM GAS  C:\Users\osour\AppData\Local\Temp\ccsBkKuy.s 			page 105


 5681 094c 22562220 		.ascii	"\"V\"       Version of SerCom\015\012\000"
 5681      20202020 
 5681      20205665 
 5681      7273696F 
 5681      6E206F66 
 5682 096a 0000     		.space	2
 5683              	.LC68:
 5684 096c 22572220 		.ascii	"\"W\"         Write I2C (mod,reg,val)\015\012\000"
 5684      20202020 
 5684      20202020 
 5684      57726974 
 5684      65204932 
 5685 0992 0000     		.space	2
 5686              	.LC69:
 5687 0994 22592220 		.ascii	"\"Y\"         Read I2C val=(mod,reg)\015\012\000"
 5687      20202020 
 5687      20202020 
 5687      52656164 
 5687      20493243 
 5688 09b9 000000   		.space	3
 5689              	.LC70:
 5690 09bc 692C2564 		.ascii	"i,%d,%d,%d,%d,%d\015\012\000"
 5690      2C25642C 
 5690      25642C25 
 5690      642C2564 
 5690      0D0A00
 5691 09cf 00       		.space	1
 5692              	.LC71:
 5693 09d0 4A2C2564 		.ascii	"J,%d,%d,%d,%d,%d,%d\015\000"
 5693      2C25642C 
 5693      25642C25 
 5693      642C2564 
 5693      2C25640D 
 5694 09e5 000000   		.space	3
 5695              	.LC72:
 5696 09e8 6A0D0A00 		.ascii	"j\015\012\000"
 5697              	.LC73:
 5698 09ec 6B2C2053 		.ascii	"k, Starting calibration - Remove any object in sens"
 5698      74617274 
 5698      696E6720 
 5698      63616C69 
 5698      62726174 
 5699 0a1f 6F727320 		.ascii	"ors range\015\012\000"
 5699      72616E67 
 5699      650D0A00 
 5700 0a2b 00       		.space	1
 5701              	.LC74:
 5702 0a2c 4C2C2564 		.ascii	"L,%d,%d\015\000"
 5702      2C25640D 
 5702      00
 5703 0a35 000000   		.space	3
 5704              	.LC75:
 5705 0a38 6C0D0A00 		.ascii	"l\015\012\000"
 5706              	.LC76:
 5707 0a3c 6D2C2564 		.ascii	"m,%d,%d,%d,%d,%d\015\012\000"
 5707      2C25642C 
 5707      25642C25 
ARM GAS  C:\Users\osour\AppData\Local\Temp\ccsBkKuy.s 			page 106


 5707      642C2564 
 5707      0D0A00
 5708 0a4f 00       		.space	1
 5709              	.LC77:
 5710 0a50 6E2C2564 		.ascii	"n,%d,%d,%d,%d,%d,%d,%d,%d\015\012\000"
 5710      2C25642C 
 5710      25642C25 
 5710      642C2564 
 5710      2C25642C 
 5711              	.LC78:
 5712 0a6c 6F2C2564 		.ascii	"o,%d,%d,%d,%d,%d,%d,%d,%d\015\012\000"
 5712      2C25642C 
 5712      25642C25 
 5712      642C2564 
 5712      2C25642C 
 5713              	.LC79:
 5714 0a88 502C2564 		.ascii	"P,%d,%d\015\000"
 5714      2C25640D 
 5714      00
 5715 0a91 000000   		.space	3
 5716              	.LC80:
 5717 0a94 700D0A00 		.ascii	"p\015\012\000"
 5718              	.LC81:
 5719 0a98 712C2564 		.ascii	"q,%d,%d\015\012\000"
 5719      2C25640D 
 5719      0A00
 5720 0aa2 0000     		.space	2
 5721              	.LC82:
 5722 0aa4 730D0A00 		.ascii	"s\015\012\000"
 5723              	.LC83:
 5724 0aa8 542C2564 		.ascii	"T,%d\000"
 5724      00
 5725 0aad 000000   		.space	3
 5726              	.LC84:
 5727 0ab0 740D0A00 		.ascii	"t\015\012\000"
 5728              	.LC85:
 5729 0ab4 742C2564 		.ascii	"t,%d\015\012\000"
 5729      0D0A00
 5730 0abb 00       		.space	1
 5731              	.LC86:
 5732 0abc 742C300D 		.ascii	"t,0\015\012\000"
 5732      0A00
 5733 0ac2 0000     		.space	2
 5734              	.LC87:
 5735 0ac4 752C2564 		.ascii	"u,%d,%d,%d\015\012\000"
 5735      2C25642C 
 5735      25640D0A 
 5735      00
 5736 0ad1 000000   		.space	3
 5737              	.LC88:
 5738 0ad4 762C5665 		.ascii	"v,Version 2.0 January 2018 GCtronic\015\012\000"
 5738      7273696F 
 5738      6E20322E 
 5738      30204A61 
 5738      6E756172 
 5739 0afa 0000     		.space	2
 5740              	.LC89:
ARM GAS  C:\Users\osour\AppData\Local\Temp\ccsBkKuy.s 			page 107


 5741 0afc 572C2564 		.ascii	"W,%d,%d,%d\015\000"
 5741      2C25642C 
 5741      25640D00 
 5742              	.LC90:
 5743 0b08 770D0A00 		.ascii	"w\015\012\000"
 5744              	.LC91:
 5745 0b0c 592C2564 		.ascii	"Y,%d,%d\015\000"
 5745      2C25640D 
 5745      00
 5746 0b15 000000   		.space	3
 5747              	.LC92:
 5748 0b18 792C2564 		.ascii	"y,%d,%d\015\012\000"
 5748      2C25640D 
 5748      0A00
 5749 0b22 0000     		.space	2
 5750              	.LC93:
 5751 0b24 792C2564 		.ascii	"y,%d\015\012\000"
 5751      0D0A00
 5752 0b2b 00       		.space	1
 5753              	.LC94:
 5754 0b2c 25643A20 		.ascii	"%d: %d\015\012\000"
 5754      25640D0A 
 5754      00
 5755 0b35 000000   		.space	3
 5756              	.LC95:
 5757 0b38 7A2C436F 		.ascii	"z,Command not found\015\012\000"
 5757      6D6D616E 
 5757      64206E6F 
 5757      7420666F 
 5757      756E640D 
 5758 0b4e 0000     		.space	2
 5759              	.LC96:
 5760 0b50 48572076 		.ascii	"HW version: %X\015\012\000"
 5760      65727369 
 5760      6F6E3A20 
 5760      25580D0A 
 5760      00
 5761 0b61 000000   		.space	3
 5762              	.LC97:
 5763 0b64 6B2C2043 		.ascii	"k, Calibration finished\015\012\000"
 5763      616C6962 
 5763      72617469 
 5763      6F6E2066 
 5763      696E6973 
 5764              		.text
 5765              	.Letext0:
 5766              		.file 2 "c:\\users\\osour\\desktop\\robotique\\eclipse_e-puck2\\tools\\gcc-arm-none-eabi-7-2017-q4
 5767              		.file 3 "c:\\users\\osour\\desktop\\robotique\\eclipse_e-puck2\\tools\\gcc-arm-none-eabi-7-2017-q4
 5768              		.file 4 "c:\\users\\osour\\desktop\\robotique\\eclipse_e-puck2\\tools\\gcc-arm-none-eabi-7-2017-q4
 5769              		.file 5 "../../lib/e-puck2_main-processor/ChibiOS//os/rt/ports/ARMCMx/compilers/GCC/chtypes.h"
 5770              		.file 6 "../../lib/e-puck2_main-processor/ChibiOS//os/rt/include/chsystypes.h"
 5771              		.file 7 "../../lib/e-puck2_main-processor/ChibiOS//os/rt/include/chschd.h"
 5772              		.file 8 "../../lib/e-puck2_main-processor/ChibiOS//os/ext/CMSIS/include/core_cm4.h"
 5773              		.file 9 "../../lib/e-puck2_main-processor/ChibiOS//os/ext/CMSIS/ST/system_stm32f4xx.h"
 5774              		.file 10 "../../lib/e-puck2_main-processor/ChibiOS//os/ext/CMSIS/ST/stm32f407xx.h"
 5775              		.file 11 "../../lib/e-puck2_main-processor/ChibiOS//os/rt/ports/ARMCMx/chcore.h"
 5776              		.file 12 "../../lib/e-puck2_main-processor/ChibiOS//os/rt/ports/ARMCMx/chcore_v7m.h"
ARM GAS  C:\Users\osour\AppData\Local\Temp\ccsBkKuy.s 			page 108


 5777              		.file 13 "../../lib/e-puck2_main-processor/ChibiOS//os/rt/include/chdebug.h"
 5778              		.file 14 "../../lib/e-puck2_main-processor/ChibiOS//os/rt/include/chtm.h"
 5779              		.file 15 "../../lib/e-puck2_main-processor/ChibiOS//os/rt/include/chstats.h"
 5780              		.file 16 "../../lib/e-puck2_main-processor/ChibiOS//os/rt/include/chsem.h"
 5781              		.file 17 "../../lib/e-puck2_main-processor/ChibiOS//os/rt/include/chmtx.h"
 5782              		.file 18 "../../lib/e-puck2_main-processor/ChibiOS//os/rt/include/chregistry.h"
 5783              		.file 19 "../../lib/e-puck2_main-processor/ChibiOS//os/rt/include/chevents.h"
 5784              		.file 20 "../../lib/e-puck2_main-processor/ChibiOS//os/rt/include/chqueues.h"
 5785              		.file 21 "../../lib/e-puck2_main-processor/ChibiOS//os/hal/ports/STM32/STM32F4xx/stm32_dma.h"
 5786              		.file 22 "../../lib/e-puck2_main-processor/ChibiOS//os/hal/include/hal_ioblock.h"
 5787              		.file 23 "../../lib/e-puck2_main-processor/ChibiOS//os/hal/ports/STM32/LLD/GPIOv2/pal_lld.h"
 5788              		.file 24 "../../lib/e-puck2_main-processor/ChibiOS//os/hal/include/adc.h"
 5789              		.file 25 "../../lib/e-puck2_main-processor/ChibiOS//os/hal/ports/STM32/STM32F4xx/adc_lld.h"
 5790              		.file 26 "../../lib/e-puck2_main-processor/ChibiOS//os/hal/include/can.h"
 5791              		.file 27 "../../lib/e-puck2_main-processor/ChibiOS//os/hal/ports/STM32/LLD/can_lld.h"
 5792              		.file 28 "../../lib/e-puck2_main-processor/ChibiOS//os/hal/include/dac.h"
 5793              		.file 29 "../../lib/e-puck2_main-processor/ChibiOS//os/hal/ports/STM32/LLD/DACv1/dac_lld.h"
 5794              		.file 30 "../../lib/e-puck2_main-processor/ChibiOS//os/hal/include/ext.h"
 5795              		.file 31 "../../lib/e-puck2_main-processor/ChibiOS//os/hal/ports/STM32/LLD/ext_lld.h"
 5796              		.file 32 "../../lib/e-puck2_main-processor/ChibiOS//os/hal/include/gpt.h"
 5797              		.file 33 "../../lib/e-puck2_main-processor/ChibiOS//os/hal/ports/STM32/LLD/TIMv1/gpt_lld.h"
 5798              		.file 34 "../../lib/e-puck2_main-processor/ChibiOS//os/hal/ports/STM32/LLD/TIMv1/stm32_tim.h"
 5799              		.file 35 "../../lib/e-puck2_main-processor/ChibiOS//os/hal/include/i2c.h"
 5800              		.file 36 "../../lib/e-puck2_main-processor/ChibiOS//os/hal/ports/STM32/LLD/I2Cv1/i2c_lld.h"
 5801              		.file 37 "../../lib/e-puck2_main-processor/ChibiOS//os/hal/include/i2s.h"
 5802              		.file 38 "../../lib/e-puck2_main-processor/ChibiOS//os/hal/ports/STM32/LLD/SPIv1/i2s_lld.h"
 5803              		.file 39 "../../lib/e-puck2_main-processor/ChibiOS//os/hal/include/pwm.h"
 5804              		.file 40 "../../lib/e-puck2_main-processor/ChibiOS//os/hal/ports/STM32/LLD/TIMv1/pwm_lld.h"
 5805              		.file 41 "../../lib/e-puck2_main-processor/ChibiOS//os/hal/include/serial.h"
 5806              		.file 42 "../../lib/e-puck2_main-processor/ChibiOS//os/hal/ports/STM32/LLD/USARTv1/serial_lld.h"
 5807              		.file 43 "../../lib/e-puck2_main-processor/ChibiOS//os/hal/include/sdc.h"
 5808              		.file 44 "../../lib/e-puck2_main-processor/ChibiOS//os/hal/ports/STM32/LLD/sdc_lld.h"
 5809              		.file 45 "../../lib/e-puck2_main-processor/ChibiOS//os/hal/include/spi.h"
 5810              		.file 46 "../../lib/e-puck2_main-processor/ChibiOS//os/hal/ports/STM32/LLD/SPIv1/spi_lld.h"
 5811              		.file 47 "../../lib/e-puck2_main-processor/ChibiOS//os/hal/include/usb.h"
 5812              		.file 48 "../../lib/e-puck2_main-processor/ChibiOS//os/hal/ports/STM32/LLD/OTGv1/usb_lld.h"
 5813              		.file 49 "../../lib/e-puck2_main-processor/ChibiOS//os/hal/ports/STM32/LLD/OTGv1/stm32_otg.h"
 5814              		.file 50 "../../lib/e-puck2_main-processor/ChibiOS_ext/os/hal/include/../ports/STM32/STM32F4xx/dcm
 5815              		.file 51 "c:\\users\\osour\\desktop\\robotique\\eclipse_e-puck2\\tools\\gcc-arm-none-eabi-7-2017-q
 5816              		.file 52 "c:\\users\\osour\\desktop\\robotique\\eclipse_e-puck2\\tools\\gcc-arm-none-eabi-7-2017-q
 5817              		.file 53 "c:\\users\\osour\\desktop\\robotique\\eclipse_e-puck2\\tools\\gcc-arm-none-eabi-7-2017-q
 5818              		.file 54 "../../lib/e-puck2_main-processor/src/msgbus/messagebus.h"
 5819              		.file 55 "c:\\users\\osour\\desktop\\robotique\\eclipse_e-puck2\\tools\\gcc-arm-none-eabi-7-2017-q
 5820              		.file 56 "c:\\users\\osour\\desktop\\robotique\\eclipse_e-puck2\\tools\\gcc-arm-none-eabi-7-2017-q
 5821              		.file 57 "../../lib/e-puck2_main-processor/src/parameter/parameter.h"
 5822              		.file 58 "./main.h"
 5823              		.file 59 "../../lib/e-puck2_main-processor/src/audio/play_melody.h"
 5824              		.file 60 "c:\\users\\osour\\desktop\\robotique\\eclipse_e-puck2\\tools\\gcc-arm-none-eabi-7-2017-q
 5825              		.file 61 "../../lib/e-puck2_main-processor/src/epuck1x/a_d/advance_ad_scan/e_acc.h"
 5826              		.file 62 "../../lib/e-puck2_main-processor/src/epuck1x/acc_gyro/e_lsm330.h"
 5827              		.file 63 "c:\\users\\osour\\desktop\\robotique\\eclipse_e-puck2\\tools\\gcc-arm-none-eabi-7-2017-q
 5828              		.file 64 "c:\\users\\osour\\desktop\\robotique\\eclipse_e-puck2\\tools\\gcc-arm-none-eabi-7-2017-q
 5829              		.file 65 "../../lib/e-puck2_main-processor/src/epuck1x/uart/e_uart_char.h"
 5830              		.file 66 "../../lib/e-puck2_main-processor/src/epuck1x/I2C/e_I2C_protocol.h"
 5831              		.file 67 "../../lib/e-puck2_main-processor/src/epuck1x/motor_led/advance_one_timer/e_motors.h"
 5832              		.file 68 "../../lib/e-puck2_main-processor/src/epuck1x/motor_led/advance_one_timer/e_led.h"
 5833              		.file 69 "../../lib/e-puck2_main-processor/ChibiOS//os/rt/include/chthreads.h"
ARM GAS  C:\Users\osour\AppData\Local\Temp\ccsBkKuy.s 			page 109


 5834              		.file 70 "../../lib/e-puck2_main-processor/src/epuck1x/a_d/advance_ad_scan/e_prox.h"
 5835              		.file 71 "../../lib/e-puck2_main-processor/src/epuck1x/camera/fast_2_timer/e_poxxxx.h"
 5836              		.file 72 "../../lib/e-puck2_main-processor/src/epuck1x/codec/e_sound.h"
 5837              		.file 73 "../../lib/e-puck2_main-processor/src/epuck1x/a_d/advance_ad_scan/e_micro.h"
 5838              		.file 74 "../../lib/e-puck2_main-processor/src/epuck1x/motor_led/advance_one_timer/e_remote_contro
 5839              		.file 75 "../../lib/e-puck2_main-processor/src/epuck1x/motor_led/e_init_port.h"
 5840              		.file 76 "../../lib/e-puck2_main-processor/src/epuck1x/utility/utility.h"
 5841              		.file 77 "../../lib/e-puck2_main-processor/src/fat.h"
 5842              		.file 78 "../../lib/e-puck2_main-processor/src/epuck1x/DataEEPROM.h"
 5843              		.file 79 "../../lib/e-puck2_main-processor/src/leds.h"
 5844              		.file 80 "../../lib/e-puck2_main-processor/src/button.h"
 5845              		.file 81 "../../lib/e-puck2_main-processor/src/sensors/VL53L0X/VL53L0X.h"
 5846              		.file 82 "../../lib/e-puck2_main-processor/src/camera/dcmi_camera.h"
 5847              		.file 83 "<built-in>"