ARM GAS  C:\Users\osour\AppData\Local\Temp\ccsBkKuy.s 			page 1


   1              		.cpu cortex-m4
   2              		.eabi_attribute 27, 1
   3              		.eabi_attribute 28, 1
   4              		.eabi_attribute 20, 1
   5              		.eabi_attribute 21, 1
   6              		.eabi_attribute 23, 3
   7              		.eabi_attribute 24, 1
   8              		.eabi_attribute 25, 1
   9              		.eabi_attribute 26, 1
  10              		.eabi_attribute 30, 2
  11              		.eabi_attribute 34, 1
  12              		.eabi_attribute 18, 4
  13              		.file	"Asercom2.c"
  14              		.text
  15              	.Ltext0:
  16              		.cfi_sections	.debug_frame
  17              		.section	.text.run_asercom2,"ax",%progbits
  18              		.align	1
  19              		.p2align 4,,15
  20              		.global	run_asercom2
  21              		.syntax unified
  22              		.thumb
  23              		.thumb_func
  24              		.fpu fpv4-sp-d16
  25              		.type	run_asercom2, %function
  26              	run_asercom2:
  27              	.LFB260:
  28              		.file 1 "../../lib/e-puck2_main-processor/src/epuck1x/Asercom2.c"
  29              		.loc 1 67 0
  30              		.cfi_startproc
  31              		@ args = 0, pretend = 0, frame = 64
  32              		@ frame_needed = 0, uses_anonymous_args = 0
  33 0000 2DE9F04F 		push	{r4, r5, r6, r7, r8, r9, r10, fp, lr}
  34              		.cfi_def_cfa_offset 36
  35              		.cfi_offset 4, -36
  36              		.cfi_offset 5, -32
  37              		.cfi_offset 6, -28
  38              		.cfi_offset 7, -24
  39              		.cfi_offset 8, -20
  40              		.cfi_offset 9, -16
  41              		.cfi_offset 10, -12
  42              		.cfi_offset 11, -8
  43              		.cfi_offset 14, -4
  44 0004 2DED028B 		vpush.64	{d8}
  45              		.cfi_def_cfa_offset 44
  46              		.cfi_offset 80, -44
  47              		.cfi_offset 81, -40
  48 0008 B24B     		ldr	r3, .L710
  49 000a 97B0     		sub	sp, sp, #92
  50              		.cfi_def_cfa_offset 136
  51              		.loc 1 67 0
  52 000c 1B68     		ldr	r3, [r3]
  53 000e 1593     		str	r3, [sp, #84]
  54              	.LVL0:
  55              		.loc 1 87 0
  56 0010 FFF7FEFF 		bl	e_init_motors
  57              	.LVL1:
ARM GAS  C:\Users\osour\AppData\Local\Temp\ccsBkKuy.s 			page 2


  58              		.loc 1 91 0
  59 0014 FFF7FEFF 		bl	getselector
  60              	.LVL2:
  61 0018 AF4B     		ldr	r3, .L710+4
  62              		.loc 1 92 0
  63 001a 0328     		cmp	r0, #3
  64              		.loc 1 91 0
  65 001c 1860     		str	r0, [r3]
  66              		.loc 1 92 0
  67 001e 00F08280 		beq	.L400
  68              		.loc 1 97 0
  69 0022 0A28     		cmp	r0, #10
  70 0024 02F0F580 		beq	.L684
  71              		.loc 1 95 0
  72 0028 0023     		movs	r3, #0
  73 002a 0793     		str	r3, [sp, #28]
  74              	.L2:
  75              	.LVL3:
  76              		.loc 1 103 0
  77 002c FFF7FEFF 		bl	mountSDCard
  78              	.LVL4:
  79              		.loc 1 123 0
  80 0030 AA4C     		ldr	r4, .L710+8
  81              		.loc 1 128 0
  82 0032 AB4B     		ldr	r3, .L710+12
  83              		.loc 1 125 0
  84 0034 AB4E     		ldr	r6, .L710+16
  85              		.loc 1 126 0
  86 0036 AC4F     		ldr	r7, .L710+20
  87              		.loc 1 127 0
  88 0038 AC4D     		ldr	r5, .L710+24
  89              		.loc 1 128 0
  90 003a 0E93     		str	r3, [sp, #56]
  91              		.loc 1 123 0
  92 003c 1294     		str	r4, [sp, #72]
  93              		.loc 1 127 0
  94 003e 1395     		str	r5, [sp, #76]
  95              		.loc 1 125 0
  96 0040 1096     		str	r6, [sp, #64]
  97              		.loc 1 126 0
  98 0042 1197     		str	r7, [sp, #68]
  99              		.loc 1 107 0
 100 0044 FFF7FEFF 		bl	e_i2cp_init
 101              	.LVL5:
 102              		.loc 1 112 0
 103 0048 FFF7FEFF 		bl	e_init_remote_control
 104              	.LVL6:
 105              		.loc 1 120 0
 106 004c 0123     		movs	r3, #1
 107 004e A84A     		ldr	r2, .L710+28
 108 0050 4FF6FE71 		movw	r1, #65534
 109 0054 7F20     		movs	r0, #127
 110 0056 FFF7FEFF 		bl	ReadEE
 111              	.LVL7:
 112              		.loc 1 125 0
 113 005a 2823     		movs	r3, #40
 114              		.loc 1 127 0
ARM GAS  C:\Users\osour\AppData\Local\Temp\ccsBkKuy.s 			page 3


 115 005c 139D     		ldr	r5, [sp, #76]
 116              		.loc 1 125 0
 117 005e 3360     		str	r3, [r6]
 118              		.loc 1 126 0
 119 0060 3B60     		str	r3, [r7]
 120              		.loc 1 128 0
 121 0062 0E9B     		ldr	r3, [sp, #56]
 122              		.loc 1 127 0
 123 0064 0821     		movs	r1, #8
 124              		.loc 1 128 0
 125 0066 4FF44862 		mov	r2, #3200
 126              		.loc 1 123 0
 127 006a 0120     		movs	r0, #1
 128              		.loc 1 127 0
 129 006c 2960     		str	r1, [r5]
 130              		.loc 1 128 0
 131 006e 1A60     		str	r2, [r3]
 132              		.loc 1 123 0
 133 0070 2060     		str	r0, [r4]
 134              		.loc 1 131 0
 135 0072 FFF7FEFF 		bl	e_poxxxx_init_cam
 136              	.LVL8:
 137              		.loc 1 132 0
 138 0076 2D68     		ldr	r5, [r5]
 139 0078 3268     		ldr	r2, [r6]
 140 007a 3B68     		ldr	r3, [r7]
 141 007c 2468     		ldr	r4, [r4]
 142 007e 0294     		str	r4, [sp, #8]
 143 0080 03FB05F3 		mul	r3, r3, r5
 144 0084 02FB05F2 		mul	r2, r2, r5
 145 0088 C3F5F071 		rsb	r1, r3, #480
 146 008c C2F52070 		rsb	r0, r2, #640
 147 0090 01EBD171 		add	r1, r1, r1, lsr #31
 148 0094 00EBD070 		add	r0, r0, r0, lsr #31
 149 0098 4910     		asrs	r1, r1, #1
 150 009a 0195     		str	r5, [sp, #4]
 151 009c 0095     		str	r5, [sp]
 152 009e 4010     		asrs	r0, r0, #1
 153 00a0 FFF7FEFF 		bl	e_poxxxx_config_cam
 154              	.LVL9:
 155              		.loc 1 133 0
 156 00a4 FFF7FEFF 		bl	e_poxxxx_write_cam_registers
 157              	.LVL10:
 158              		.loc 1 141 0
 159 00a8 079B     		ldr	r3, [sp, #28]
 160 00aa 002B     		cmp	r3, #0
 161 00ac 02F0A380 		beq	.L685
 162              		.loc 1 142 0
 163 00b0 FFF7FEFF 		bl	e_acc_calibr
 164              	.LVL11:
 165              		.loc 1 143 0
 166 00b4 5821     		movs	r1, #88
 167 00b6 8F48     		ldr	r0, .L710+32
 168 00b8 FFF7FEFF 		bl	e_send_uart1_char
 169              	.LVL12:
 170              	.L7:
 171              		.loc 1 143 0 is_stmt 0 discriminator 2
ARM GAS  C:\Users\osour\AppData\Local\Temp\ccsBkKuy.s 			page 4


 172 00bc FFF7FEFF 		bl	e_uart1_sending
 173              	.LVL13:
 174 00c0 0028     		cmp	r0, #0
 175 00c2 FBD1     		bne	.L7
 176              		.loc 1 100 0 is_stmt 1
 177 00c4 0746     		mov	r7, r0
 178              	.LVL14:
 179              	.L3:
 180 00c6 0023     		movs	r3, #0
 181 00c8 DFF82C92 		ldr	r9, .L710+36
 182 00cc DFF844B2 		ldr	fp, .L710+64
 183 00d0 DFF84482 		ldr	r8, .L710+68
 184 00d4 DFF828A2 		ldr	r10, .L710+44
 185 00d8 0F93     		str	r3, [sp, #60]
 186 00da 0693     		str	r3, [sp, #24]
 187              	.LVL15:
 188              	.L6:
 189              		.loc 1 154 0
 190 00dc 37BB     		cbnz	r7, .L10
 191              	.LVL16:
 192              	.L650:
 193              		.loc 1 156 0
 194 00de 079B     		ldr	r3, [sp, #28]
 195 00e0 002B     		cmp	r3, #0
 196 00e2 00F08F80 		beq	.L641
 197              	.L691:
 198              		.loc 1 157 0
 199 00e6 844D     		ldr	r5, .L710+36
 200              	.LVL17:
 201              	.L11:
 202 00e8 2846     		mov	r0, r5
 203 00ea FFF7FEFF 		bl	e_getchar_uart1
 204              	.LVL18:
 205 00ee 0446     		mov	r4, r0
 206 00f0 E0B9     		cbnz	r0, .L10
 207              		.loc 1 160 0
 208 00f2 FFF7FEFF 		bl	e_get_data
 209              	.LVL19:
 210 00f6 0646     		mov	r6, r0
 211              	.LVL20:
 212              		.loc 1 161 0
 213 00f8 FFF7FEFF 		bl	e_get_address
 214              	.LVL21:
 215              		.loc 1 162 0
 216 00fc 10F0F70F 		tst	r0, #247
 217 0100 F2D1     		bne	.L11
 218              		.loc 1 162 0 is_stmt 0 discriminator 3
 219 0102 069B     		ldr	r3, [sp, #24]
 220 0104 B342     		cmp	r3, r6
 221 0106 EFD0     		beq	.L11
 222              		.loc 1 163 0 is_stmt 1
 223 0108 092E     		cmp	r6, #9
 224 010a 01F25884 		bhi	.L14
 225 010e DFE816F0 		tbh	[pc, r6, lsl #1]
 226              	.L16:
 227 0112 2701     		.2byte	(.L15-.L16)/2
 228 0114 1E01     		.2byte	(.L17-.L16)/2
ARM GAS  C:\Users\osour\AppData\Local\Temp\ccsBkKuy.s 			page 5


 229 0116 1701     		.2byte	(.L18-.L16)/2
 230 0118 0E01     		.2byte	(.L19-.L16)/2
 231 011a 0B01     		.2byte	(.L20-.L16)/2
 232 011c 0501     		.2byte	(.L21-.L16)/2
 233 011e DD00     		.2byte	(.L22-.L16)/2
 234 0120 D600     		.2byte	(.L23-.L16)/2
 235 0122 CF00     		.2byte	(.L24-.L16)/2
 236 0124 BF00     		.2byte	(.L25-.L16)/2
 237              	.LVL22:
 238              		.p2align 1
 239              	.L400:
 240              		.loc 1 93 0
 241 0126 0123     		movs	r3, #1
 242 0128 0793     		str	r3, [sp, #28]
 243 012a 7FE7     		b	.L2
 244              	.LVL23:
 245              	.L10:
 246              		.loc 1 282 0
 247 012c 99F80030 		ldrb	r3, [r9]	@ zero_extendqisi2
 248 0130 1A06     		lsls	r2, r3, #24
 249 0132 00F17481 		bmi	.L686
 250              		.loc 1 668 0
 251 0136 002B     		cmp	r3, #0
 252 0138 D0D0     		beq	.L6
 253              		.loc 1 669 0
 254 013a 002F     		cmp	r7, #0
 255 013c 41F02584 		bne	.L156
 256              		.loc 1 671 0
 257 0140 079A     		ldr	r2, [sp, #28]
 258              		.loc 1 672 0
 259 0142 6D4C     		ldr	r4, .L710+36
 260              		.loc 1 671 0
 261 0144 002A     		cmp	r2, #0
 262 0146 00F08380 		beq	.L158
 263 014a 04E0     		b	.L157
 264              	.L159:
 265              		.loc 1 672 0 discriminator 4
 266 014c 2046     		mov	r0, r4
 267 014e FFF7FEFF 		bl	e_getchar_uart1
 268              	.LVL24:
 269 0152 99F80030 		ldrb	r3, [r9]	@ zero_extendqisi2
 270              	.L157:
 271              		.loc 1 672 0 is_stmt 0 discriminator 1
 272 0156 0A2B     		cmp	r3, #10
 273 0158 F8D0     		beq	.L159
 274              		.loc 1 672 0 discriminator 3
 275 015a 0D2B     		cmp	r3, #13
 276 015c F6D0     		beq	.L159
 277              		.loc 1 677 0 is_stmt 1
 278 015e 0122     		movs	r2, #1
 279              		.loc 1 676 0
 280 0160 8AF80030 		strb	r3, [r10]
 281              		.loc 1 677 0
 282 0164 CBF80020 		str	r2, [fp]
 283              		.loc 1 681 0
 284 0168 634C     		ldr	r4, .L710+36
 285 016a 05E0     		b	.L167
ARM GAS  C:\Users\osour\AppData\Local\Temp\ccsBkKuy.s 			page 6


 286              	.L687:
 287 016c 99F80030 		ldrb	r3, [r9]	@ zero_extendqisi2
 288              		.loc 1 682 0
 289 0170 0A2B     		cmp	r3, #10
 290 0172 12D0     		beq	.L173
 291              	.L165:
 292              		.loc 1 682 0 is_stmt 0 discriminator 1
 293 0174 0D2B     		cmp	r3, #13
 294 0176 10D0     		beq	.L173
 295              	.L167:
 296              		.loc 1 681 0 is_stmt 1
 297 0178 2046     		mov	r0, r4
 298 017a FFF7FEFF 		bl	e_getchar_uart1
 299              	.LVL25:
 300 017e 0028     		cmp	r0, #0
 301 0180 F4D0     		beq	.L687
 302              		.loc 1 681 0 is_stmt 0 discriminator 1
 303 0182 DBF80020 		ldr	r2, [fp]
 304 0186 99F80030 		ldrb	r3, [r9]	@ zero_extendqisi2
 305 018a 0AF80230 		strb	r3, [r10, r2]
 306              		.loc 1 682 0 is_stmt 1 discriminator 1
 307 018e 0A2B     		cmp	r3, #10
 308              		.loc 1 681 0 discriminator 1
 309 0190 02F10102 		add	r2, r2, #1
 310 0194 CBF80020 		str	r2, [fp]
 311              		.loc 1 682 0 discriminator 1
 312 0198 ECD1     		bne	.L165
 313              	.L173:
 314 019a DBF80030 		ldr	r3, [fp]
 315              		.loc 1 687 0
 316 019e 0022     		movs	r2, #0
 317 01a0 0AF80320 		strb	r2, [r10, r3]
 318              		.loc 1 689 0
 319 01a4 9AF80040 		ldrb	r4, [r10]	@ zero_extendqisi2
 320 01a8 591C     		adds	r1, r3, #1
 321 01aa 622C     		cmp	r4, #98
 322              		.loc 1 687 0
 323 01ac CBF80010 		str	r1, [fp]
 324              		.loc 1 689 0
 325 01b0 01F05985 		beq	.L688
 326              	.L395:
 327              		.loc 1 689 0 is_stmt 0 discriminator 1
 328 01b4 672C     		cmp	r4, #103
 329 01b6 40F09B85 		bne	.L689
 330              	.L174:
 331              	.LBB2:
 332              		.loc 1 785 0 is_stmt 1
 333 01ba 002F     		cmp	r7, #0
 334 01bc 41F05185 		bne	.L230
 335              		.loc 1 786 0
 336 01c0 FFF7FEFF 		bl	getXAxisGyro
 337              	.LVL26:
 338 01c4 0446     		mov	r4, r0
 339 01c6 FFF7FEFF 		bl	getYAxisGyro
 340              	.LVL27:
 341 01ca 0546     		mov	r5, r0
 342 01cc FFF7FEFF 		bl	getZAxisGyro
ARM GAS  C:\Users\osour\AppData\Local\Temp\ccsBkKuy.s 			page 7


 343              	.LVL28:
 344 01d0 2B46     		mov	r3, r5
 345 01d2 0090     		str	r0, [sp]
 346 01d4 2246     		mov	r2, r4
 347 01d6 4949     		ldr	r1, .L710+40
 348 01d8 4948     		ldr	r0, .L710+44
 349 01da FFF7FEFF 		bl	sprintf
 350              	.LVL29:
 351              		.loc 1 792 0
 352 01de 079B     		ldr	r3, [sp, #28]
 353 01e0 002B     		cmp	r3, #0
 354 01e2 01F0A085 		beq	.L690
 355              		.loc 1 793 0
 356 01e6 4648     		ldr	r0, .L710+44
 357 01e8 FFF7FEFF 		bl	strlen
 358              	.LVL30:
 359 01ec 0146     		mov	r1, r0
 360 01ee 4448     		ldr	r0, .L710+44
 361 01f0 FFF7FEFF 		bl	e_send_uart1_char
 362              	.LVL31:
 363              	.L233:
 364              		.loc 1 793 0 is_stmt 0 discriminator 2
 365 01f4 FFF7FEFF 		bl	e_uart1_sending
 366              	.LVL32:
 367 01f8 0028     		cmp	r0, #0
 368 01fa FBD1     		bne	.L233
 369              	.LVL33:
 370              	.LBE2:
 371              		.loc 1 156 0 is_stmt 1
 372 01fc 079B     		ldr	r3, [sp, #28]
 373 01fe 002B     		cmp	r3, #0
 374 0200 7FF471AF 		bne	.L691
 375              	.LVL34:
 376              	.L641:
 377              		.loc 1 219 0
 378 0204 3C4D     		ldr	r5, .L710+36
 379              	.LVL35:
 380              	.L12:
 381 0206 2846     		mov	r0, r5
 382 0208 FFF7FEFF 		bl	e_getchar_uart2
 383              	.LVL36:
 384 020c 0446     		mov	r4, r0
 385 020e 0028     		cmp	r0, #0
 386 0210 8CD1     		bne	.L10
 387              		.loc 1 222 0
 388 0212 FFF7FEFF 		bl	e_get_data
 389              	.LVL37:
 390 0216 0646     		mov	r6, r0
 391              	.LVL38:
 392              		.loc 1 223 0
 393 0218 FFF7FEFF 		bl	e_get_address
 394              	.LVL39:
 395              		.loc 1 224 0
 396 021c 10F0F70F 		tst	r0, #247
 397 0220 F1D1     		bne	.L12
 398              		.loc 1 224 0 is_stmt 0 discriminator 3
 399 0222 069B     		ldr	r3, [sp, #24]
ARM GAS  C:\Users\osour\AppData\Local\Temp\ccsBkKuy.s 			page 8


 400 0224 B342     		cmp	r3, r6
 401 0226 EED0     		beq	.L12
 402              		.loc 1 225 0 is_stmt 1
 403 0228 092E     		cmp	r6, #9
 404 022a 01F21984 		bhi	.L30
 405 022e DFE816F0 		tbh	[pc, r6, lsl #1]
 406              	.L32:
 407 0232 E800     		.2byte	(.L31-.L32)/2
 408 0234 DF00     		.2byte	(.L33-.L32)/2
 409 0236 D800     		.2byte	(.L34-.L32)/2
 410 0238 CF00     		.2byte	(.L35-.L32)/2
 411 023a CC00     		.2byte	(.L36-.L32)/2
 412 023c C600     		.2byte	(.L37-.L32)/2
 413 023e C300     		.2byte	(.L38-.L32)/2
 414 0240 BC00     		.2byte	(.L39-.L32)/2
 415 0242 B500     		.2byte	(.L40-.L32)/2
 416 0244 A500     		.2byte	(.L41-.L32)/2
 417              	.LVL40:
 418              		.p2align 1
 419              	.L161:
 420              		.loc 1 674 0 discriminator 4
 421 0246 2046     		mov	r0, r4
 422 0248 FFF7FEFF 		bl	e_getchar_uart2
 423              	.LVL41:
 424 024c 99F80030 		ldrb	r3, [r9]	@ zero_extendqisi2
 425              	.L158:
 426              		.loc 1 674 0 is_stmt 0 discriminator 1
 427 0250 0A2B     		cmp	r3, #10
 428 0252 F8D0     		beq	.L161
 429              		.loc 1 674 0 discriminator 3
 430 0254 0D2B     		cmp	r3, #13
 431 0256 F6D0     		beq	.L161
 432              		.loc 1 677 0 is_stmt 1
 433 0258 0122     		movs	r2, #1
 434              		.loc 1 676 0
 435 025a 8AF80030 		strb	r3, [r10]
 436              		.loc 1 677 0
 437 025e CBF80020 		str	r2, [fp]
 438              		.loc 1 684 0
 439 0262 254C     		ldr	r4, .L710+36
 440 0264 05E0     		b	.L172
 441              	.L692:
 442 0266 99F80030 		ldrb	r3, [r9]	@ zero_extendqisi2
 443              	.L170:
 444              		.loc 1 685 0
 445 026a 0A2B     		cmp	r3, #10
 446 026c 95D0     		beq	.L173
 447              		.loc 1 685 0 is_stmt 0 discriminator 1
 448 026e 0D2B     		cmp	r3, #13
 449 0270 93D0     		beq	.L173
 450              	.L172:
 451              		.loc 1 684 0 is_stmt 1
 452 0272 2046     		mov	r0, r4
 453 0274 FFF7FEFF 		bl	e_getchar_uart2
 454              	.LVL42:
 455 0278 0028     		cmp	r0, #0
 456 027a F4D0     		beq	.L692
ARM GAS  C:\Users\osour\AppData\Local\Temp\ccsBkKuy.s 			page 9


 457              		.loc 1 684 0 is_stmt 0 discriminator 1
 458 027c DBF80020 		ldr	r2, [fp]
 459 0280 99F80030 		ldrb	r3, [r9]	@ zero_extendqisi2
 460 0284 0AF80230 		strb	r3, [r10, r2]
 461 0288 0132     		adds	r2, r2, #1
 462 028a CBF80020 		str	r2, [fp]
 463 028e ECE7     		b	.L170
 464              	.LVL43:
 465              	.L25:
 466              		.loc 1 197 0 is_stmt 1
 467 0290 1C4B     		ldr	r3, .L710+48
 468              	.L669:
 469              		.loc 1 198 0
 470 0292 1D4A     		ldr	r2, .L710+52
 471 0294 1D49     		ldr	r1, .L710+56
 472 0296 1160     		str	r1, [r2]
 473              		.loc 1 197 0
 474 0298 1D4A     		ldr	r2, .L710+60
 475              		.loc 1 199 0
 476 029a 0C46     		mov	r4, r1
 477              		.loc 1 197 0
 478 029c 1360     		str	r3, [r2]
 479              	.LVL44:
 480              	.L26:
 481              		.loc 1 211 0
 482 029e 2046     		mov	r0, r4
 483 02a0 FFF7FEFF 		bl	e_set_speed_left
 484              	.LVL45:
 485              		.loc 1 212 0
 486 02a4 1A4B     		ldr	r3, .L710+60
 487 02a6 1868     		ldr	r0, [r3]
 488 02a8 FFF7FEFF 		bl	e_set_speed_right
 489              	.LVL46:
 490 02ac 0696     		str	r6, [sp, #24]
 491 02ae 1BE7     		b	.L11
 492              	.LVL47:
 493              	.L24:
 494              		.loc 1 193 0
 495 02b0 174A     		ldr	r2, .L710+60
 496 02b2 164B     		ldr	r3, .L710+56
 497 02b4 1360     		str	r3, [r2]
 498              		.loc 1 194 0
 499 02b6 144A     		ldr	r2, .L710+52
 500              		.loc 1 195 0
 501 02b8 1C46     		mov	r4, r3
 502              		.loc 1 194 0
 503 02ba 1360     		str	r3, [r2]
 504              		.loc 1 195 0
 505 02bc EFE7     		b	.L26
 506              	.L23:
 507              		.loc 1 190 0
 508 02be 114C     		ldr	r4, .L710+48
 509              	.L670:
 510              		.loc 1 189 0
 511 02c0 134B     		ldr	r3, .L710+60
 512 02c2 124A     		ldr	r2, .L710+56
 513 02c4 1A60     		str	r2, [r3]
ARM GAS  C:\Users\osour\AppData\Local\Temp\ccsBkKuy.s 			page 10


 514              		.loc 1 190 0
 515 02c6 104B     		ldr	r3, .L710+52
 516 02c8 1C60     		str	r4, [r3]
 517              		.loc 1 191 0
 518 02ca E8E7     		b	.L26
 519              	.L22:
 520              		.loc 1 186 0
 521 02cc 4FF41674 		mov	r4, #600
 522 02d0 F6E7     		b	.L670
 523              	.L711:
 524 02d2 00BF     		.align	2
 525              	.L710:
 526 02d4 00000000 		.word	__stack_chk_guard
 527 02d8 00000000 		.word	selector
 528 02dc 00000000 		.word	.LANCHOR1
 529 02e0 00000000 		.word	.LANCHOR5
 530 02e4 00000000 		.word	.LANCHOR2
 531 02e8 00000000 		.word	.LANCHOR3
 532 02ec 00000000 		.word	.LANCHOR4
 533 02f0 00000000 		.word	.LANCHOR0
 534 02f4 00000000 		.word	.LC0
 535 02f8 00000000 		.word	c
 536 02fc F8000000 		.word	.LC13
 537 0300 00000000 		.word	buffer
 538 0304 D4FEFFFF 		.word	-300
 539 0308 00000000 		.word	.LANCHOR7
 540 030c A8FDFFFF 		.word	-600
 541 0310 00000000 		.word	.LANCHOR6
 542 0314 00000000 		.word	.LANCHOR9
 543 0318 00000000 		.word	.LANCHOR10
 544              	.L21:
 545              		.loc 1 181 0
 546 031c 7E4A     		ldr	r2, .L712
 547 031e 0023     		movs	r3, #0
 548 0320 1360     		str	r3, [r2]
 549              		.loc 1 182 0
 550 0322 7E4A     		ldr	r2, .L712+4
 551 0324 1360     		str	r3, [r2]
 552              		.loc 1 183 0
 553 0326 BAE7     		b	.L26
 554              	.L20:
 555              		.loc 1 177 0
 556 0328 4FF41673 		mov	r3, #600
 557 032c B1E7     		b	.L669
 558              	.L19:
 559              		.loc 1 173 0
 560 032e 7A4A     		ldr	r2, .L712
 561 0330 4FF49673 		mov	r3, #300
 562 0334 1360     		str	r3, [r2]
 563              		.loc 1 174 0
 564 0336 794B     		ldr	r3, .L712+4
 565 0338 4FF41674 		mov	r4, #600
 566 033c 1C60     		str	r4, [r3]
 567              		.loc 1 175 0
 568 033e AEE7     		b	.L26
 569              	.L18:
 570              		.loc 1 169 0
ARM GAS  C:\Users\osour\AppData\Local\Temp\ccsBkKuy.s 			page 11


 571 0340 754B     		ldr	r3, .L712
 572 0342 4FF41674 		mov	r4, #600
 573 0346 1C60     		str	r4, [r3]
 574              		.loc 1 170 0
 575 0348 744B     		ldr	r3, .L712+4
 576 034a 1C60     		str	r4, [r3]
 577              		.loc 1 171 0
 578 034c A7E7     		b	.L26
 579              	.L17:
 580              		.loc 1 165 0
 581 034e 724A     		ldr	r2, .L712
 582 0350 4FF41673 		mov	r3, #600
 583 0354 1360     		str	r3, [r2]
 584              		.loc 1 166 0
 585 0356 714B     		ldr	r3, .L712+4
 586 0358 4FF49674 		mov	r4, #300
 587 035c 1C60     		str	r4, [r3]
 588              		.loc 1 167 0
 589 035e 9EE7     		b	.L26
 590              	.L15:
 591              		.loc 1 201 0
 592 0360 6F4B     		ldr	r3, .L712+8
 593 0362 1B78     		ldrb	r3, [r3]	@ zero_extendqisi2
 594 0364 002B     		cmp	r3, #0
 595 0366 01F02F84 		beq	.L693
 596              	.LVL48:
 597              	.L27:
 598              		.loc 1 205 0
 599 036a 41F65071 		movw	r1, #8016
 600 036e 42F61430 		movw	r0, #11028
 601 0372 FFF7FEFF 		bl	e_play_sound
 602              	.LVL49:
 603 0376 694B     		ldr	r3, .L712+4
 604 0378 1C68     		ldr	r4, [r3]
 605              		.loc 1 206 0
 606 037a 90E7     		b	.L26
 607              	.LVL50:
 608              	.L41:
 609              		.loc 1 259 0
 610 037c 694B     		ldr	r3, .L712+12
 611              	.L671:
 612              		.loc 1 260 0
 613 037e 674A     		ldr	r2, .L712+4
 614 0380 6949     		ldr	r1, .L712+16
 615 0382 1160     		str	r1, [r2]
 616              		.loc 1 259 0
 617 0384 644A     		ldr	r2, .L712
 618              		.loc 1 261 0
 619 0386 0C46     		mov	r4, r1
 620              		.loc 1 259 0
 621 0388 1360     		str	r3, [r2]
 622              	.LVL51:
 623              	.L42:
 624              		.loc 1 273 0
 625 038a 2046     		mov	r0, r4
 626 038c FFF7FEFF 		bl	e_set_speed_left
 627              	.LVL52:
ARM GAS  C:\Users\osour\AppData\Local\Temp\ccsBkKuy.s 			page 12


 628              		.loc 1 274 0
 629 0390 614B     		ldr	r3, .L712
 630 0392 1868     		ldr	r0, [r3]
 631 0394 FFF7FEFF 		bl	e_set_speed_right
 632              	.LVL53:
 633 0398 0696     		str	r6, [sp, #24]
 634 039a 34E7     		b	.L12
 635              	.LVL54:
 636              	.L40:
 637              		.loc 1 255 0
 638 039c 5E4A     		ldr	r2, .L712
 639 039e 624B     		ldr	r3, .L712+16
 640 03a0 1360     		str	r3, [r2]
 641              		.loc 1 256 0
 642 03a2 5E4A     		ldr	r2, .L712+4
 643              		.loc 1 257 0
 644 03a4 1C46     		mov	r4, r3
 645              		.loc 1 256 0
 646 03a6 1360     		str	r3, [r2]
 647              		.loc 1 257 0
 648 03a8 EFE7     		b	.L42
 649              	.L39:
 650              		.loc 1 252 0
 651 03aa 5E4C     		ldr	r4, .L712+12
 652              	.L672:
 653              		.loc 1 251 0
 654 03ac 5A4B     		ldr	r3, .L712
 655 03ae 5E4A     		ldr	r2, .L712+16
 656 03b0 1A60     		str	r2, [r3]
 657              		.loc 1 252 0
 658 03b2 5A4B     		ldr	r3, .L712+4
 659 03b4 1C60     		str	r4, [r3]
 660              		.loc 1 253 0
 661 03b6 E8E7     		b	.L42
 662              	.L38:
 663              		.loc 1 248 0
 664 03b8 4FF41674 		mov	r4, #600
 665 03bc F6E7     		b	.L672
 666              	.L37:
 667              		.loc 1 243 0
 668 03be 564A     		ldr	r2, .L712
 669 03c0 0023     		movs	r3, #0
 670 03c2 1360     		str	r3, [r2]
 671              		.loc 1 244 0
 672 03c4 554A     		ldr	r2, .L712+4
 673 03c6 1360     		str	r3, [r2]
 674              		.loc 1 245 0
 675 03c8 DFE7     		b	.L42
 676              	.L36:
 677              		.loc 1 239 0
 678 03ca 4FF41673 		mov	r3, #600
 679 03ce D6E7     		b	.L671
 680              	.L35:
 681              		.loc 1 235 0
 682 03d0 514A     		ldr	r2, .L712
 683 03d2 4FF49673 		mov	r3, #300
 684 03d6 1360     		str	r3, [r2]
ARM GAS  C:\Users\osour\AppData\Local\Temp\ccsBkKuy.s 			page 13


 685              		.loc 1 236 0
 686 03d8 504B     		ldr	r3, .L712+4
 687 03da 4FF41674 		mov	r4, #600
 688 03de 1C60     		str	r4, [r3]
 689              		.loc 1 237 0
 690 03e0 D3E7     		b	.L42
 691              	.L34:
 692              		.loc 1 231 0
 693 03e2 4D4B     		ldr	r3, .L712
 694 03e4 4FF41674 		mov	r4, #600
 695 03e8 1C60     		str	r4, [r3]
 696              		.loc 1 232 0
 697 03ea 4C4B     		ldr	r3, .L712+4
 698 03ec 1C60     		str	r4, [r3]
 699              		.loc 1 233 0
 700 03ee CCE7     		b	.L42
 701              	.L33:
 702              		.loc 1 227 0
 703 03f0 494A     		ldr	r2, .L712
 704 03f2 4FF41673 		mov	r3, #600
 705 03f6 1360     		str	r3, [r2]
 706              		.loc 1 228 0
 707 03f8 484B     		ldr	r3, .L712+4
 708 03fa 4FF49674 		mov	r4, #300
 709 03fe 1C60     		str	r4, [r3]
 710              		.loc 1 229 0
 711 0400 C3E7     		b	.L42
 712              	.L31:
 713              		.loc 1 263 0
 714 0402 474B     		ldr	r3, .L712+8
 715 0404 1B78     		ldrb	r3, [r3]	@ zero_extendqisi2
 716 0406 002B     		cmp	r3, #0
 717 0408 01F0E583 		beq	.L694
 718              	.LVL55:
 719              	.L43:
 720              		.loc 1 267 0
 721 040c 41F65071 		movw	r1, #8016
 722 0410 42F61430 		movw	r0, #11028
 723 0414 FFF7FEFF 		bl	e_play_sound
 724              	.LVL56:
 725 0418 404B     		ldr	r3, .L712+4
 726 041a 1C68     		ldr	r4, [r3]
 727              		.loc 1 268 0
 728 041c B5E7     		b	.L42
 729              	.LVL57:
 730              	.L686:
 731              		.loc 1 283 0
 732 041e 0022     		movs	r2, #0
 733              		.loc 1 643 0
 734 0420 424E     		ldr	r6, .L712+20
 735              		.loc 1 368 0
 736 0422 9FED438A 		vldr.32	s16, .L712+24
 737              		.loc 1 283 0
 738 0426 CBF80020 		str	r2, [fp]
 739              	.L673:
 740 042a 5B42     		negs	r3, r3
 741              	.L46:
ARM GAS  C:\Users\osour\AppData\Local\Temp\ccsBkKuy.s 			page 14


 742              		.loc 1 285 0
 743 042c DAB2     		uxtb	r2, r3
 744 042e 0A3A     		subs	r2, r2, #10
 745 0430 6D2A     		cmp	r2, #109
 746 0432 00F29680 		bhi	.L47
 747 0436 DFE812F0 		tbh	[pc, r2, lsl #1]
 748              	.L49:
 749 043a 4F01     		.2byte	(.L48-.L49)/2
 750 043c D803     		.2byte	(.L50-.L49)/2
 751 043e 9B03     		.2byte	(.L51-.L49)/2
 752 0440 C903     		.2byte	(.L52-.L49)/2
 753 0442 AD02     		.2byte	(.L53-.L49)/2
 754 0444 9400     		.2byte	(.L47-.L49)/2
 755 0446 9400     		.2byte	(.L47-.L49)/2
 756 0448 9400     		.2byte	(.L47-.L49)/2
 757 044a 9400     		.2byte	(.L47-.L49)/2
 758 044c 9400     		.2byte	(.L47-.L49)/2
 759 044e 9400     		.2byte	(.L47-.L49)/2
 760 0450 9400     		.2byte	(.L47-.L49)/2
 761 0452 9400     		.2byte	(.L47-.L49)/2
 762 0454 9400     		.2byte	(.L47-.L49)/2
 763 0456 9400     		.2byte	(.L47-.L49)/2
 764 0458 9400     		.2byte	(.L47-.L49)/2
 765 045a 9400     		.2byte	(.L47-.L49)/2
 766 045c 9400     		.2byte	(.L47-.L49)/2
 767 045e 9400     		.2byte	(.L47-.L49)/2
 768 0460 9400     		.2byte	(.L47-.L49)/2
 769 0462 9400     		.2byte	(.L47-.L49)/2
 770 0464 9400     		.2byte	(.L47-.L49)/2
 771 0466 9400     		.2byte	(.L47-.L49)/2
 772 0468 9400     		.2byte	(.L47-.L49)/2
 773 046a 9400     		.2byte	(.L47-.L49)/2
 774 046c 9400     		.2byte	(.L47-.L49)/2
 775 046e 9400     		.2byte	(.L47-.L49)/2
 776 0470 9400     		.2byte	(.L47-.L49)/2
 777 0472 9400     		.2byte	(.L47-.L49)/2
 778 0474 9400     		.2byte	(.L47-.L49)/2
 779 0476 9400     		.2byte	(.L47-.L49)/2
 780 0478 9400     		.2byte	(.L47-.L49)/2
 781 047a 9400     		.2byte	(.L47-.L49)/2
 782 047c 9400     		.2byte	(.L47-.L49)/2
 783 047e 9400     		.2byte	(.L47-.L49)/2
 784 0480 9400     		.2byte	(.L47-.L49)/2
 785 0482 9400     		.2byte	(.L47-.L49)/2
 786 0484 9400     		.2byte	(.L47-.L49)/2
 787 0486 9400     		.2byte	(.L47-.L49)/2
 788 0488 9400     		.2byte	(.L47-.L49)/2
 789 048a 9400     		.2byte	(.L47-.L49)/2
 790 048c 9400     		.2byte	(.L47-.L49)/2
 791 048e 9400     		.2byte	(.L47-.L49)/2
 792 0490 9400     		.2byte	(.L47-.L49)/2
 793 0492 9400     		.2byte	(.L47-.L49)/2
 794 0494 9400     		.2byte	(.L47-.L49)/2
 795 0496 9400     		.2byte	(.L47-.L49)/2
 796 0498 9400     		.2byte	(.L47-.L49)/2
 797 049a 9400     		.2byte	(.L47-.L49)/2
 798 049c 9400     		.2byte	(.L47-.L49)/2
ARM GAS  C:\Users\osour\AppData\Local\Temp\ccsBkKuy.s 			page 15


 799 049e 9400     		.2byte	(.L47-.L49)/2
 800 04a0 9400     		.2byte	(.L47-.L49)/2
 801 04a2 9400     		.2byte	(.L47-.L49)/2
 802 04a4 9400     		.2byte	(.L47-.L49)/2
 803 04a6 9400     		.2byte	(.L47-.L49)/2
 804 04a8 2A03     		.2byte	(.L54-.L49)/2
 805 04aa 9400     		.2byte	(.L47-.L49)/2
 806 04ac 9400     		.2byte	(.L47-.L49)/2
 807 04ae D302     		.2byte	(.L55-.L49)/2
 808 04b0 6203     		.2byte	(.L56-.L49)/2
 809 04b2 9400     		.2byte	(.L47-.L49)/2
 810 04b4 9400     		.2byte	(.L47-.L49)/2
 811 04b6 9400     		.2byte	(.L47-.L49)/2
 812 04b8 4002     		.2byte	(.L57-.L49)/2
 813 04ba 9400     		.2byte	(.L47-.L49)/2
 814 04bc 9400     		.2byte	(.L47-.L49)/2
 815 04be 7503     		.2byte	(.L58-.L49)/2
 816 04c0 6302     		.2byte	(.L59-.L49)/2
 817 04c2 BB02     		.2byte	(.L60-.L49)/2
 818 04c4 3701     		.2byte	(.L61-.L49)/2
 819 04c6 E000     		.2byte	(.L62-.L49)/2
 820 04c8 C500     		.2byte	(.L63-.L49)/2
 821 04ca 9400     		.2byte	(.L47-.L49)/2
 822 04cc 9400     		.2byte	(.L47-.L49)/2
 823 04ce 9400     		.2byte	(.L47-.L49)/2
 824 04d0 9400     		.2byte	(.L47-.L49)/2
 825 04d2 9400     		.2byte	(.L47-.L49)/2
 826 04d4 0B02     		.2byte	(.L64-.L49)/2
 827 04d6 9400     		.2byte	(.L47-.L49)/2
 828 04d8 9400     		.2byte	(.L47-.L49)/2
 829 04da 9400     		.2byte	(.L47-.L49)/2
 830 04dc 9400     		.2byte	(.L47-.L49)/2
 831 04de 9400     		.2byte	(.L47-.L49)/2
 832 04e0 9400     		.2byte	(.L47-.L49)/2
 833 04e2 9400     		.2byte	(.L47-.L49)/2
 834 04e4 9400     		.2byte	(.L47-.L49)/2
 835 04e6 9400     		.2byte	(.L47-.L49)/2
 836 04e8 C901     		.2byte	(.L65-.L49)/2
 837 04ea E901     		.2byte	(.L66-.L49)/2
 838 04ec 9400     		.2byte	(.L47-.L49)/2
 839 04ee 9400     		.2byte	(.L47-.L49)/2
 840 04f0 9400     		.2byte	(.L47-.L49)/2
 841 04f2 9400     		.2byte	(.L47-.L49)/2
 842 04f4 B601     		.2byte	(.L67-.L49)/2
 843 04f6 9400     		.2byte	(.L47-.L49)/2
 844 04f8 9400     		.2byte	(.L47-.L49)/2
 845 04fa 9400     		.2byte	(.L47-.L49)/2
 846 04fc 9400     		.2byte	(.L47-.L49)/2
 847 04fe 9400     		.2byte	(.L47-.L49)/2
 848 0500 9400     		.2byte	(.L47-.L49)/2
 849 0502 9400     		.2byte	(.L47-.L49)/2
 850 0504 9400     		.2byte	(.L47-.L49)/2
 851 0506 9400     		.2byte	(.L47-.L49)/2
 852 0508 9400     		.2byte	(.L47-.L49)/2
 853 050a 9400     		.2byte	(.L47-.L49)/2
 854 050c 9400     		.2byte	(.L47-.L49)/2
 855 050e AB01     		.2byte	(.L68-.L49)/2
ARM GAS  C:\Users\osour\AppData\Local\Temp\ccsBkKuy.s 			page 16


 856 0510 8B01     		.2byte	(.L69-.L49)/2
 857 0512 9400     		.2byte	(.L47-.L49)/2
 858 0514 E203     		.2byte	(.L70-.L49)/2
 859              		.p2align 1
 860              	.L713:
 861 0516 00BF     		.align	2
 862              	.L712:
 863 0518 00000000 		.word	.LANCHOR6
 864 051c 00000000 		.word	.LANCHOR7
 865 0520 00000000 		.word	.LANCHOR8
 866 0524 D4FEFFFF 		.word	-300
 867 0528 A8FDFFFF 		.word	-600
 868 052c 00000000 		.word	c
 869 0530 00000000 		.word	0
 870              	.L100:
 871              		.loc 1 475 0 discriminator 1
 872 0534 2046     		mov	r0, r4
 873 0536 FFF7FEFF 		bl	e_getchar_uart2
 874              	.LVL58:
 875 053a 0028     		cmp	r0, #0
 876 053c FAD0     		beq	.L100
 877              		.loc 1 476 0
 878 053e BA4C     		ldr	r4, .L714
 879              	.L103:
 880              		.loc 1 476 0 is_stmt 0 discriminator 1
 881 0540 2046     		mov	r0, r4
 882 0542 FFF7FEFF 		bl	e_getchar_uart2
 883              	.LVL59:
 884 0546 0028     		cmp	r0, #0
 885 0548 FAD0     		beq	.L103
 886              	.L99:
 887              		.loc 1 478 0 is_stmt 1
 888 054a B84B     		ldr	r3, .L714+4
 889 054c B64A     		ldr	r2, .L714
 890 054e 1B78     		ldrb	r3, [r3]	@ zero_extendqisi2
 891 0550 1078     		ldrb	r0, [r2]	@ zero_extendqisi2
 892 0552 082B     		cmp	r3, #8
 893 0554 01F0B782 		beq	.L105
 894 0558 092B     		cmp	r3, #9
 895 055a 41F0AE82 		bne	.L695
 896              		.loc 1 483 0
 897 055e FFF7FEFF 		bl	e_set_front_led
 898              	.LVL60:
 899              	.L47:
 900              		.loc 1 640 0
 901 0562 37B9     		cbnz	r7, .L679
 902              	.L78:
 903              		.loc 1 642 0
 904 0564 079B     		ldr	r3, [sp, #28]
 905 0566 13B3     		cbz	r3, .L150
 906              	.L151:
 907              		.loc 1 643 0 discriminator 1
 908 0568 3046     		mov	r0, r6
 909 056a FFF7FEFF 		bl	e_getchar_uart1
 910              	.LVL61:
 911 056e 0028     		cmp	r0, #0
 912 0570 FAD0     		beq	.L151
ARM GAS  C:\Users\osour\AppData\Local\Temp\ccsBkKuy.s 			page 17


 913              	.L679:
 914 0572 99F80030 		ldrb	r3, [r9]	@ zero_extendqisi2
 915              		.loc 1 647 0
 916 0576 002B     		cmp	r3, #0
 917 0578 7FF457AF 		bne	.L673
 918              	.L649:
 919              		.loc 1 648 0
 920 057c DBF80010 		ldr	r1, [fp]
 921 0580 0029     		cmp	r1, #0
 922 0582 3FF4ABAD 		beq	.L6
 923              		.loc 1 649 0
 924 0586 002F     		cmp	r7, #0
 925 0588 7FF4A8AD 		bne	.L6
 926              		.loc 1 650 0
 927 058c A84B     		ldr	r3, .L714+8
 928 058e 1B78     		ldrb	r3, [r3]	@ zero_extendqisi2
 929 0590 002B     		cmp	r3, #0
 930 0592 41F02783 		bne	.L696
 931              	.L153:
 932              		.loc 1 659 0
 933 0596 079B     		ldr	r3, [sp, #28]
 934 0598 002B     		cmp	r3, #0
 935 059a 01F08582 		beq	.L697
 936              		.loc 1 660 0
 937 059e A548     		ldr	r0, .L714+12
 938 05a0 FFF7FEFF 		bl	e_send_uart1_char
 939              	.LVL62:
 940              	.L154:
 941              		.loc 1 661 0 discriminator 1
 942 05a4 FFF7FEFF 		bl	e_uart1_sending
 943              	.LVL63:
 944 05a8 0028     		cmp	r0, #0
 945 05aa FBD1     		bne	.L154
 946 05ac 97E5     		b	.L650
 947              	.L150:
 948              		.loc 1 645 0 discriminator 1
 949 05ae 3046     		mov	r0, r6
 950 05b0 FFF7FEFF 		bl	e_getchar_uart2
 951              	.LVL64:
 952 05b4 0028     		cmp	r0, #0
 953 05b6 DCD1     		bne	.L679
 954              		.loc 1 645 0 is_stmt 0
 955 05b8 3046     		mov	r0, r6
 956 05ba FFF7FEFF 		bl	e_getchar_uart2
 957              	.LVL65:
 958 05be 0028     		cmp	r0, #0
 959 05c0 F5D0     		beq	.L150
 960 05c2 D6E7     		b	.L679
 961              	.L63:
 962              		.loc 1 555 0 is_stmt 1
 963 05c4 FFF7FEFF 		bl	e_get_steps_left
 964              	.LVL66:
 965              		.loc 1 556 0
 966 05c8 DBF80030 		ldr	r3, [fp]
 967              		.loc 1 557 0
 968 05cc 0AEB0302 		add	r2, r10, r3
 969              		.loc 1 556 0
ARM GAS  C:\Users\osour\AppData\Local\Temp\ccsBkKuy.s 			page 18


 970 05d0 0AF80300 		strb	r0, [r10, r3]
 971              		.loc 1 557 0
 972 05d4 0112     		asrs	r1, r0, #8
 973 05d6 0233     		adds	r3, r3, #2
 974 05d8 5170     		strb	r1, [r2, #1]
 975 05da CBF80030 		str	r3, [fp]
 976              		.loc 1 558 0
 977 05de FFF7FEFF 		bl	e_get_steps_right
 978              	.LVL67:
 979              	.L677:
 980              		.loc 1 559 0
 981 05e2 DBF80030 		ldr	r3, [fp]
 982              		.loc 1 560 0
 983 05e6 0AEB0302 		add	r2, r10, r3
 984              		.loc 1 559 0
 985 05ea 0AF80300 		strb	r0, [r10, r3]
 986              		.loc 1 560 0
 987 05ee 0112     		asrs	r1, r0, #8
 988 05f0 0233     		adds	r3, r3, #2
 989 05f2 5170     		strb	r1, [r2, #1]
 990 05f4 CBF80030 		str	r3, [fp]
 991              		.loc 1 561 0
 992 05f8 B3E7     		b	.L47
 993              	.L62:
 994              		.loc 1 531 0
 995 05fa 002F     		cmp	r7, #0
 996 05fc 41F04282 		bne	.L116
 997              		.loc 1 533 0
 998 0600 079B     		ldr	r3, [sp, #28]
 999              		.loc 1 534 0
 1000 0602 8A4C     		ldr	r4, .L714+4
 1001              		.loc 1 533 0
 1002 0604 002B     		cmp	r3, #0
 1003 0606 2FD0     		beq	.L117
 1004              	.L118:
 1005              		.loc 1 534 0 discriminator 1
 1006 0608 2046     		mov	r0, r4
 1007 060a FFF7FEFF 		bl	e_getchar_uart1
 1008              	.LVL68:
 1009 060e 0028     		cmp	r0, #0
 1010 0610 FAD0     		beq	.L118
 1011              		.loc 1 535 0
 1012 0612 854C     		ldr	r4, .L714
 1013              	.L119:
 1014              		.loc 1 535 0 is_stmt 0 discriminator 1
 1015 0614 2046     		mov	r0, r4
 1016 0616 FFF7FEFF 		bl	e_getchar_uart1
 1017              	.LVL69:
 1018 061a 0028     		cmp	r0, #0
 1019 061c FAD0     		beq	.L119
 1020              		.loc 1 540 0 is_stmt 1
 1021 061e 824B     		ldr	r3, .L714
 1022              		.loc 1 544 0
 1023 0620 824C     		ldr	r4, .L714+4
 1024              		.loc 1 540 0
 1025 0622 1A78     		ldrb	r2, [r3]	@ zero_extendqisi2
 1026 0624 814B     		ldr	r3, .L714+4
ARM GAS  C:\Users\osour\AppData\Local\Temp\ccsBkKuy.s 			page 19


 1027 0626 1B78     		ldrb	r3, [r3]	@ zero_extendqisi2
 1028 0628 03EB0223 		add	r3, r3, r2, lsl #8
 1029 062c 824A     		ldr	r2, .L714+16
 1030 062e 1360     		str	r3, [r2]
 1031              	.L123:
 1032              		.loc 1 544 0 discriminator 1
 1033 0630 2046     		mov	r0, r4
 1034 0632 FFF7FEFF 		bl	e_getchar_uart1
 1035              	.LVL70:
 1036 0636 0028     		cmp	r0, #0
 1037 0638 FAD0     		beq	.L123
 1038              		.loc 1 545 0
 1039 063a 7B4C     		ldr	r4, .L714
 1040              	.L124:
 1041              		.loc 1 545 0 is_stmt 0 discriminator 1
 1042 063c 2046     		mov	r0, r4
 1043 063e FFF7FEFF 		bl	e_getchar_uart1
 1044              	.LVL71:
 1045 0642 0028     		cmp	r0, #0
 1046 0644 FAD0     		beq	.L124
 1047              	.L648:
 1048 0646 784B     		ldr	r3, .L714
 1049 0648 7B49     		ldr	r1, .L714+16
 1050 064a 1A78     		ldrb	r2, [r3]	@ zero_extendqisi2
 1051 064c 774B     		ldr	r3, .L714+4
 1052 064e 0868     		ldr	r0, [r1]
 1053 0650 1B78     		ldrb	r3, [r3]	@ zero_extendqisi2
 1054 0652 03EB0223 		add	r3, r3, r2, lsl #8
 1055              	.L128:
 1056              		.loc 1 550 0 is_stmt 1
 1057 0656 794A     		ldr	r2, .L714+20
 1058 0658 1446     		mov	r4, r2
 1059 065a 1360     		str	r3, [r2]
 1060              		.loc 1 551 0
 1061 065c FFF7FEFF 		bl	e_set_steps_left
 1062              	.LVL72:
 1063              		.loc 1 552 0
 1064 0660 2068     		ldr	r0, [r4]
 1065 0662 FFF7FEFF 		bl	e_set_steps_right
 1066              	.LVL73:
 1067              		.loc 1 553 0
 1068 0666 7CE7     		b	.L47
 1069              	.L117:
 1070              		.loc 1 537 0 discriminator 1
 1071 0668 2046     		mov	r0, r4
 1072 066a FFF7FEFF 		bl	e_getchar_uart2
 1073              	.LVL74:
 1074 066e 0028     		cmp	r0, #0
 1075 0670 FAD0     		beq	.L117
 1076              		.loc 1 538 0
 1077 0672 6D4C     		ldr	r4, .L714
 1078              	.L121:
 1079              		.loc 1 538 0 is_stmt 0 discriminator 1
 1080 0674 2046     		mov	r0, r4
 1081 0676 FFF7FEFF 		bl	e_getchar_uart2
 1082              	.LVL75:
 1083 067a 0028     		cmp	r0, #0
ARM GAS  C:\Users\osour\AppData\Local\Temp\ccsBkKuy.s 			page 20


 1084 067c FAD0     		beq	.L121
 1085              		.loc 1 540 0 is_stmt 1
 1086 067e 6A4B     		ldr	r3, .L714
 1087              		.loc 1 547 0
 1088 0680 6A4C     		ldr	r4, .L714+4
 1089              		.loc 1 540 0
 1090 0682 1A78     		ldrb	r2, [r3]	@ zero_extendqisi2
 1091 0684 694B     		ldr	r3, .L714+4
 1092 0686 1B78     		ldrb	r3, [r3]	@ zero_extendqisi2
 1093 0688 03EB0223 		add	r3, r3, r2, lsl #8
 1094 068c 6A4A     		ldr	r2, .L714+16
 1095 068e 1360     		str	r3, [r2]
 1096              	.L126:
 1097              		.loc 1 547 0 discriminator 1
 1098 0690 2046     		mov	r0, r4
 1099 0692 FFF7FEFF 		bl	e_getchar_uart2
 1100              	.LVL76:
 1101 0696 0028     		cmp	r0, #0
 1102 0698 FAD0     		beq	.L126
 1103              		.loc 1 548 0
 1104 069a 634C     		ldr	r4, .L714
 1105              	.L127:
 1106              		.loc 1 548 0 is_stmt 0 discriminator 1
 1107 069c 2046     		mov	r0, r4
 1108 069e FFF7FEFF 		bl	e_getchar_uart2
 1109              	.LVL77:
 1110 06a2 0028     		cmp	r0, #0
 1111 06a4 FAD0     		beq	.L127
 1112 06a6 CEE7     		b	.L648
 1113              	.L61:
 1114              		.loc 1 523 0 is_stmt 1
 1115 06a8 0020     		movs	r0, #0
 1116 06aa C8F80000 		str	r0, [r8]
 1117              	.L114:
 1118              		.loc 1 524 0 discriminator 3
 1119 06ae FFF7FEFF 		bl	e_get_ambient_light
 1120              	.LVL78:
 1121              		.loc 1 525 0 discriminator 3
 1122 06b2 DBF80020 		ldr	r2, [fp]
 1123              		.loc 1 523 0 discriminator 3
 1124 06b6 D8F80030 		ldr	r3, [r8]
 1125              		.loc 1 525 0 discriminator 3
 1126 06ba 0AF80200 		strb	r0, [r10, r2]
 1127              		.loc 1 526 0 discriminator 3
 1128 06be 0AEB0204 		add	r4, r10, r2
 1129 06c2 0112     		asrs	r1, r0, #8
 1130              		.loc 1 523 0 discriminator 3
 1131 06c4 581C     		adds	r0, r3, #1
 1132              		.loc 1 526 0 discriminator 3
 1133 06c6 0232     		adds	r2, r2, #2
 1134              		.loc 1 523 0 discriminator 3
 1135 06c8 0728     		cmp	r0, #7
 1136              		.loc 1 526 0 discriminator 3
 1137 06ca 6170     		strb	r1, [r4, #1]
 1138 06cc CBF80020 		str	r2, [fp]
 1139              		.loc 1 523 0 discriminator 3
 1140 06d0 C8F80000 		str	r0, [r8]
ARM GAS  C:\Users\osour\AppData\Local\Temp\ccsBkKuy.s 			page 21


 1141 06d4 EBDD     		ble	.L114
 1142 06d6 44E7     		b	.L47
 1143              	.L48:
 1144              		.loc 1 287 0
 1145 06d8 0020     		movs	r0, #0
 1146 06da 079C     		ldr	r4, [sp, #28]
 1147 06dc C8F80000 		str	r0, [r8]
 1148              	.L76:
 1149              		.loc 1 288 0
 1150 06e0 5FB9     		cbnz	r7, .L71
 1151              		.loc 1 290 0
 1152 06e2 74B3     		cbz	r4, .L72
 1153 06e4 01E0     		b	.L74
 1154              	.L73:
 1155 06e6 D8F80000 		ldr	r0, [r8]
 1156              	.L74:
 1157              		.loc 1 291 0 discriminator 1
 1158 06ea 554B     		ldr	r3, .L714+24
 1159 06ec 1844     		add	r0, r0, r3
 1160 06ee FFF7FEFF 		bl	e_getchar_uart1
 1161              	.LVL79:
 1162 06f2 0028     		cmp	r0, #0
 1163 06f4 F7D0     		beq	.L73
 1164              	.L674:
 1165 06f6 D8F80000 		ldr	r0, [r8]
 1166              	.L71:
 1167              		.loc 1 287 0 discriminator 2
 1168 06fa 0130     		adds	r0, r0, #1
 1169 06fc 0B28     		cmp	r0, #11
 1170 06fe C8F80000 		str	r0, [r8]
 1171 0702 EDDD     		ble	.L76
 1172              		.loc 1 296 0
 1173 0704 4E4B     		ldr	r3, .L714+24
 1174 0706 1A46     		mov	r2, r3
 1175 0708 1146     		mov	r1, r2
 1176 070a 0C46     		mov	r4, r1
 1177 070c 9B78     		ldrb	r3, [r3, #2]	@ zero_extendqisi2
 1178 070e 5278     		ldrb	r2, [r2, #1]	@ zero_extendqisi2
 1179 0710 0978     		ldrb	r1, [r1]	@ zero_extendqisi2
 1180 0712 0020     		movs	r0, #0
 1181 0714 FFF7FEFF 		bl	set_rgb_led
 1182              	.LVL80:
 1183              		.loc 1 297 0
 1184 0718 6379     		ldrb	r3, [r4, #5]	@ zero_extendqisi2
 1185 071a 2279     		ldrb	r2, [r4, #4]	@ zero_extendqisi2
 1186 071c E178     		ldrb	r1, [r4, #3]	@ zero_extendqisi2
 1187 071e 0120     		movs	r0, #1
 1188 0720 FFF7FEFF 		bl	set_rgb_led
 1189              	.LVL81:
 1190              		.loc 1 298 0
 1191 0724 237A     		ldrb	r3, [r4, #8]	@ zero_extendqisi2
 1192 0726 E279     		ldrb	r2, [r4, #7]	@ zero_extendqisi2
 1193 0728 A179     		ldrb	r1, [r4, #6]	@ zero_extendqisi2
 1194 072a 0220     		movs	r0, #2
 1195 072c FFF7FEFF 		bl	set_rgb_led
 1196              	.LVL82:
 1197              		.loc 1 299 0
ARM GAS  C:\Users\osour\AppData\Local\Temp\ccsBkKuy.s 			page 22


 1198 0730 E37A     		ldrb	r3, [r4, #11]	@ zero_extendqisi2
 1199 0732 A27A     		ldrb	r2, [r4, #10]	@ zero_extendqisi2
 1200 0734 617A     		ldrb	r1, [r4, #9]	@ zero_extendqisi2
 1201 0736 0320     		movs	r0, #3
 1202 0738 FFF7FEFF 		bl	set_rgb_led
 1203              	.LVL83:
 1204              		.loc 1 300 0
 1205 073c 11E7     		b	.L47
 1206              	.L75:
 1207 073e D8F80000 		ldr	r0, [r8]
 1208              	.L72:
 1209              		.loc 1 293 0 discriminator 1
 1210 0742 3F4B     		ldr	r3, .L714+24
 1211 0744 1844     		add	r0, r0, r3
 1212 0746 FFF7FEFF 		bl	e_getchar_uart2
 1213              	.LVL84:
 1214 074a 0028     		cmp	r0, #0
 1215 074c F7D0     		beq	.L75
 1216 074e D2E7     		b	.L674
 1217              	.L69:
 1218              		.loc 1 572 0
 1219 0750 0020     		movs	r0, #0
 1220 0752 FFF7FEFF 		bl	e_get_micro_volume
 1221              	.LVL85:
 1222              		.loc 1 573 0
 1223 0756 DBF80030 		ldr	r3, [fp]
 1224              		.loc 1 574 0
 1225 075a 0AEB0302 		add	r2, r10, r3
 1226              		.loc 1 573 0
 1227 075e 0AF80300 		strb	r0, [r10, r3]
 1228              		.loc 1 574 0
 1229 0762 0112     		asrs	r1, r0, #8
 1230 0764 0233     		adds	r3, r3, #2
 1231              		.loc 1 576 0
 1232 0766 0120     		movs	r0, #1
 1233              		.loc 1 574 0
 1234 0768 5170     		strb	r1, [r2, #1]
 1235 076a CBF80030 		str	r3, [fp]
 1236              		.loc 1 576 0
 1237 076e FFF7FEFF 		bl	e_get_micro_volume
 1238              	.LVL86:
 1239              		.loc 1 577 0
 1240 0772 DBF80030 		ldr	r3, [fp]
 1241              		.loc 1 578 0
 1242 0776 0AEB0302 		add	r2, r10, r3
 1243              		.loc 1 577 0
 1244 077a 0AF80300 		strb	r0, [r10, r3]
 1245              		.loc 1 578 0
 1246 077e 0112     		asrs	r1, r0, #8
 1247 0780 0233     		adds	r3, r3, #2
 1248              		.loc 1 580 0
 1249 0782 0220     		movs	r0, #2
 1250              		.loc 1 578 0
 1251 0784 5170     		strb	r1, [r2, #1]
 1252 0786 CBF80030 		str	r3, [fp]
 1253              		.loc 1 580 0
 1254 078a FFF7FEFF 		bl	e_get_micro_volume
ARM GAS  C:\Users\osour\AppData\Local\Temp\ccsBkKuy.s 			page 23


 1255              	.LVL87:
 1256 078e 28E7     		b	.L677
 1257              	.L68:
 1258              		.loc 1 564 0
 1259 0790 002F     		cmp	r7, #0
 1260 0792 41F09C81 		bne	.L129
 1261              		.loc 1 565 0
 1262 0796 DBF80030 		ldr	r3, [fp]
 1263 079a 5A1C     		adds	r2, r3, #1
 1264 079c 0AF80370 		strb	r7, [r10, r3]
 1265 07a0 CBF80020 		str	r2, [fp]
 1266 07a4 DEE6     		b	.L78
 1267              	.L67:
 1268              		.loc 1 439 0
 1269 07a6 002F     		cmp	r7, #0
 1270 07a8 01F0D181 		beq	.L698
 1271              		.loc 1 448 0
 1272 07ac DBF80000 		ldr	r0, [fp]
 1273              		.loc 1 449 0
 1274 07b0 0AEB0001 		add	r1, r10, r0
 1275              		.loc 1 448 0
 1276 07b4 0022     		movs	r2, #0
 1277              		.loc 1 453 0
 1278 07b6 841D     		adds	r4, r0, #6
 1279              		.loc 1 448 0
 1280 07b8 0AF80020 		strb	r2, [r10, r0]
 1281              		.loc 1 453 0
 1282 07bc CBF80040 		str	r4, [fp]
 1283              		.loc 1 449 0
 1284 07c0 4A70     		strb	r2, [r1, #1]
 1285              		.loc 1 450 0
 1286 07c2 8A70     		strb	r2, [r1, #2]
 1287              		.loc 1 451 0
 1288 07c4 CA70     		strb	r2, [r1, #3]
 1289              		.loc 1 452 0
 1290 07c6 0A71     		strb	r2, [r1, #4]
 1291              		.loc 1 453 0
 1292 07c8 4A71     		strb	r2, [r1, #5]
 1293 07ca 2FE6     		b	.L46
 1294              	.L65:
 1295              		.loc 1 344 0
 1296 07cc 002F     		cmp	r7, #0
 1297 07ce 01F08E81 		beq	.L699
 1298              		.loc 1 352 0
 1299 07d2 1C49     		ldr	r1, .L714+28
 1300 07d4 0022     		movs	r2, #0
 1301 07d6 0A60     		str	r2, [r1]
 1302              		.loc 1 353 0
 1303 07d8 1B49     		ldr	r1, .L714+32
 1304 07da 0A60     		str	r2, [r1]
 1305              		.loc 1 354 0
 1306 07dc 1B49     		ldr	r1, .L714+36
 1307 07de 1346     		mov	r3, r2
 1308 07e0 0A60     		str	r2, [r1]
 1309 07e2 1546     		mov	r5, r2
 1310 07e4 1046     		mov	r0, r2
 1311 07e6 9446     		mov	ip, r2
ARM GAS  C:\Users\osour\AppData\Local\Temp\ccsBkKuy.s 			page 24


 1312 07e8 1446     		mov	r4, r2
 1313 07ea 9646     		mov	lr, r2
 1314              	.L82:
 1315              		.loc 1 356 0
 1316 07ec DBF80020 		ldr	r2, [fp]
 1317              		.loc 1 357 0
 1318 07f0 0AEB0201 		add	r1, r10, r2
 1319              		.loc 1 356 0
 1320 07f4 0AF802E0 		strb	lr, [r10, r2]
 1321              		.loc 1 361 0
 1322 07f8 0632     		adds	r2, r2, #6
 1323              		.loc 1 357 0
 1324 07fa 4C70     		strb	r4, [r1, #1]
 1325              		.loc 1 358 0
 1326 07fc 81F802C0 		strb	ip, [r1, #2]
 1327              		.loc 1 359 0
 1328 0800 C870     		strb	r0, [r1, #3]
 1329              		.loc 1 360 0
 1330 0802 0D71     		strb	r5, [r1, #4]
 1331              		.loc 1 361 0
 1332 0804 4B71     		strb	r3, [r1, #5]
 1333 0806 CBF80020 		str	r2, [fp]
 1334              		.loc 1 362 0
 1335 080a AAE6     		b	.L47
 1336              	.L66:
 1337              		.loc 1 402 0
 1338 080c FFF7FEFF 		bl	getBatteryValueRaw
 1339              	.LVL88:
 1340              		.loc 1 403 0
 1341 0810 DBF80030 		ldr	r3, [fp]
 1342              		.loc 1 404 0
 1343 0814 0AEB0302 		add	r2, r10, r3
 1344              		.loc 1 403 0
 1345 0818 0AF80300 		strb	r0, [r10, r3]
 1346              		.loc 1 404 0
 1347 081c 010A     		lsrs	r1, r0, #8
 1348 081e 0233     		adds	r3, r3, #2
 1349 0820 5170     		strb	r1, [r2, #1]
 1350 0822 CBF80030 		str	r3, [fp]
 1351              		.loc 1 405 0
 1352 0826 9CE6     		b	.L47
 1353              	.L715:
 1354              		.align	2
 1355              	.L714:
 1356 0828 00000000 		.word	.LANCHOR17
 1357 082c 00000000 		.word	.LANCHOR16
 1358 0830 00000000 		.word	.LANCHOR21
 1359 0834 00000000 		.word	buffer
 1360 0838 00000000 		.word	.LANCHOR22
 1361 083c 00000000 		.word	.LANCHOR23
 1362 0840 00000000 		.word	.LANCHOR11
 1363 0844 00000000 		.word	.LANCHOR12
 1364 0848 00000000 		.word	.LANCHOR13
 1365 084c 00000000 		.word	.LANCHOR14
 1366              	.LVL89:
 1367              	.L64:
 1368              		.loc 1 597 0
ARM GAS  C:\Users\osour\AppData\Local\Temp\ccsBkKuy.s 			page 25


 1369 0850 002F     		cmp	r7, #0
 1370 0852 7FF4EBAD 		bne	.L46
 1371              		.loc 1 598 0
 1372 0856 079B     		ldr	r3, [sp, #28]
 1373 0858 EBB1     		cbz	r3, .L131
 1374              	.L132:
 1375              		.loc 1 599 0 discriminator 1
 1376 085a BC48     		ldr	r0, .L716
 1377 085c FFF7FEFF 		bl	e_getchar_uart1
 1378              	.LVL90:
 1379 0860 0028     		cmp	r0, #0
 1380 0862 FAD0     		beq	.L132
 1381              		.loc 1 600 0
 1382 0864 BA4C     		ldr	r4, .L716+4
 1383              	.L133:
 1384              		.loc 1 600 0 is_stmt 0 discriminator 1
 1385 0866 2046     		mov	r0, r4
 1386 0868 FFF7FEFF 		bl	e_getchar_uart1
 1387              	.LVL91:
 1388 086c 0028     		cmp	r0, #0
 1389 086e FAD0     		beq	.L133
 1390              		.loc 1 601 0 is_stmt 1
 1391 0870 B84C     		ldr	r4, .L716+8
 1392              	.L134:
 1393              		.loc 1 601 0 is_stmt 0 discriminator 1
 1394 0872 2046     		mov	r0, r4
 1395 0874 FFF7FEFF 		bl	e_getchar_uart1
 1396              	.LVL92:
 1397 0878 0028     		cmp	r0, #0
 1398 087a FAD0     		beq	.L134
 1399              	.L135:
 1400              		.loc 1 607 0 is_stmt 1
 1401 087c FFF7FEFF 		bl	e_i2cp_enable
 1402              	.LVL93:
 1403              		.loc 1 608 0
 1404 0880 B44B     		ldr	r3, .L716+8
 1405 0882 1A78     		ldrb	r2, [r3]	@ zero_extendqisi2
 1406 0884 B24B     		ldr	r3, .L716+4
 1407 0886 1978     		ldrb	r1, [r3]	@ zero_extendqisi2
 1408 0888 B04B     		ldr	r3, .L716
 1409 088a 1878     		ldrb	r0, [r3]	@ zero_extendqisi2
 1410 088c FFF7FEFF 		bl	e_i2cp_write
 1411              	.LVL94:
 1412              	.L678:
 1413              		.loc 1 609 0
 1414 0890 FFF7FEFF 		bl	e_i2cp_disable
 1415              	.LVL95:
 1416 0894 66E6     		b	.L78
 1417              	.L131:
 1418              		.loc 1 603 0 discriminator 1
 1419 0896 AD48     		ldr	r0, .L716
 1420 0898 FFF7FEFF 		bl	e_getchar_uart2
 1421              	.LVL96:
 1422 089c 0028     		cmp	r0, #0
 1423 089e FAD0     		beq	.L131
 1424              		.loc 1 604 0
 1425 08a0 AB4C     		ldr	r4, .L716+4
ARM GAS  C:\Users\osour\AppData\Local\Temp\ccsBkKuy.s 			page 26


 1426              	.L136:
 1427              		.loc 1 604 0 is_stmt 0 discriminator 1
 1428 08a2 2046     		mov	r0, r4
 1429 08a4 FFF7FEFF 		bl	e_getchar_uart2
 1430              	.LVL97:
 1431 08a8 0028     		cmp	r0, #0
 1432 08aa FAD0     		beq	.L136
 1433              		.loc 1 605 0 is_stmt 1
 1434 08ac A94C     		ldr	r4, .L716+8
 1435              	.L137:
 1436              		.loc 1 605 0 is_stmt 0 discriminator 1
 1437 08ae 2046     		mov	r0, r4
 1438 08b0 FFF7FEFF 		bl	e_getchar_uart2
 1439              	.LVL98:
 1440 08b4 0028     		cmp	r0, #0
 1441 08b6 FAD0     		beq	.L137
 1442 08b8 E0E7     		b	.L135
 1443              	.L57:
 1444              		.loc 1 458 0 is_stmt 1
 1445 08ba 002F     		cmp	r7, #0
 1446 08bc 7FF4B6AD 		bne	.L46
 1447              		.loc 1 459 0
 1448 08c0 DBF80030 		ldr	r3, [fp]
 1449 08c4 0333     		adds	r3, r3, #3
 1450 08c6 0AEB0300 		add	r0, r10, r3
 1451 08ca FFF7FEFF 		bl	e_poxxxx_launch_capture
 1452              	.LVL99:
 1453              		.loc 1 461 0
 1454 08ce 1299     		ldr	r1, [sp, #72]
 1455 08d0 DBF80030 		ldr	r3, [fp]
 1456              		.loc 1 465 0
 1457 08d4 0E9A     		ldr	r2, [sp, #56]
 1458              		.loc 1 461 0
 1459 08d6 0968     		ldr	r1, [r1]
 1460              		.loc 1 462 0
 1461 08d8 1098     		ldr	r0, [sp, #64]
 1462              		.loc 1 461 0
 1463 08da 0AF80310 		strb	r1, [r10, r3]
 1464              		.loc 1 465 0
 1465 08de 1268     		ldr	r2, [r2]
 1466              		.loc 1 462 0
 1467 08e0 0068     		ldr	r0, [r0]
 1468              		.loc 1 463 0
 1469 08e2 D91C     		adds	r1, r3, #3
 1470              		.loc 1 462 0
 1471 08e4 5344     		add	r3, r3, r10
 1472              		.loc 1 465 0
 1473 08e6 0A44     		add	r2, r2, r1
 1474              		.loc 1 462 0
 1475 08e8 5870     		strb	r0, [r3, #1]
 1476              		.loc 1 463 0
 1477 08ea 1198     		ldr	r0, [sp, #68]
 1478              		.loc 1 465 0
 1479 08ec CBF80020 		str	r2, [fp]
 1480              		.loc 1 464 0
 1481 08f0 8AB2     		uxth	r2, r1
 1482              		.loc 1 463 0
ARM GAS  C:\Users\osour\AppData\Local\Temp\ccsBkKuy.s 			page 27


 1483 08f2 0068     		ldr	r0, [r0]
 1484              		.loc 1 464 0
 1485 08f4 0F92     		str	r2, [sp, #60]
 1486              	.LVL100:
 1487              		.loc 1 460 0
 1488 08f6 984A     		ldr	r2, .L716+12
 1489              	.LVL101:
 1490              		.loc 1 463 0
 1491 08f8 9870     		strb	r0, [r3, #2]
 1492              		.loc 1 460 0
 1493 08fa 0123     		movs	r3, #1
 1494 08fc 1370     		strb	r3, [r2]
 1495 08fe 31E6     		b	.L78
 1496              	.LVL102:
 1497              	.L59:
 1498              		.loc 1 492 0
 1499 0900 002F     		cmp	r7, #0
 1500 0902 7FF493AD 		bne	.L46
 1501              		.loc 1 493 0
 1502 0906 FFF7FEFF 		bl	e_i2cp_init
 1503              	.LVL103:
 1504              		.loc 1 494 0
 1505 090a FFF7FEFF 		bl	e_i2cp_enable
 1506              	.LVL104:
 1507              		.loc 1 495 0
 1508 090e 3946     		mov	r1, r7
 1509 0910 C020     		movs	r0, #192
 1510 0912 FFF7FEFF 		bl	e_i2cp_read
 1511              	.LVL105:
 1512              		.loc 1 496 0
 1513 0916 C8F80070 		str	r7, [r8]
 1514 091a 3B46     		mov	r3, r7
 1515              	.L109:
 1516 091c DAB2     		uxtb	r2, r3
 1517 091e DBF80040 		ldr	r4, [fp]
 1518              		.loc 1 497 0
 1519 0922 DB07     		lsls	r3, r3, #31
 1520 0924 02F10101 		add	r1, r2, #1
 1521              		.loc 1 498 0
 1522 0928 02F1FF32 		add	r2, r2, #-1
 1523              		.loc 1 497 0
 1524 092c 4FF0C000 		mov	r0, #192
 1525 0930 C9B2     		uxtb	r1, r1
 1526              		.loc 1 498 0
 1527 0932 44BF     		itt	mi
 1528 0934 C020     		movmi	r0, #192
 1529 0936 D1B2     		uxtbmi	r1, r2
 1530 0938 651C     		adds	r5, r4, #1
 1531 093a CBF80050 		str	r5, [fp]
 1532 093e FFF7FEFF 		bl	e_i2cp_read
 1533              	.LVL106:
 1534              		.loc 1 496 0
 1535 0942 D8F80030 		ldr	r3, [r8]
 1536              		.loc 1 498 0
 1537 0946 0AF80400 		strb	r0, [r10, r4]
 1538              		.loc 1 496 0
 1539 094a 0133     		adds	r3, r3, #1
ARM GAS  C:\Users\osour\AppData\Local\Temp\ccsBkKuy.s 			page 28


 1540 094c 052B     		cmp	r3, #5
 1541 094e C8F80030 		str	r3, [r8]
 1542 0952 E3DD     		ble	.L109
 1543              		.loc 1 501 0
 1544 0954 0D23     		movs	r3, #13
 1545 0956 C8F80030 		str	r3, [r8]
 1546              	.L112:
 1547 095a DAB2     		uxtb	r2, r3
 1548 095c DBF80040 		ldr	r4, [fp]
 1549              		.loc 1 502 0
 1550 0960 DB07     		lsls	r3, r3, #31
 1551 0962 02F1FF31 		add	r1, r2, #-1
 1552              		.loc 1 503 0
 1553 0966 02F10102 		add	r2, r2, #1
 1554              		.loc 1 502 0
 1555 096a 4FF0C000 		mov	r0, #192
 1556 096e C9B2     		uxtb	r1, r1
 1557              		.loc 1 503 0
 1558 0970 44BF     		itt	mi
 1559 0972 C020     		movmi	r0, #192
 1560 0974 D1B2     		uxtbmi	r1, r2
 1561 0976 651C     		adds	r5, r4, #1
 1562 0978 CBF80050 		str	r5, [fp]
 1563 097c FFF7FEFF 		bl	e_i2cp_read
 1564              	.LVL107:
 1565              		.loc 1 501 0
 1566 0980 D8F80030 		ldr	r3, [r8]
 1567              		.loc 1 503 0
 1568 0984 0AF80400 		strb	r0, [r10, r4]
 1569              		.loc 1 501 0
 1570 0988 0133     		adds	r3, r3, #1
 1571 098a 102B     		cmp	r3, #16
 1572 098c C8F80030 		str	r3, [r8]
 1573 0990 E3DD     		ble	.L112
 1574 0992 7DE7     		b	.L678
 1575              	.L53:
 1576              		.loc 1 336 0
 1577 0994 FFF7FEFF 		bl	isSDCardMounted
 1578              	.LVL108:
 1579              		.loc 1 337 0
 1580 0998 DBF80030 		ldr	r3, [fp]
 1581              		.loc 1 336 0
 1582 099c 0028     		cmp	r0, #0
 1583 099e 01F07C80 		beq	.L80
 1584              		.loc 1 337 0
 1585 09a2 0121     		movs	r1, #1
 1586 09a4 5A18     		adds	r2, r3, r1
 1587 09a6 0AF80310 		strb	r1, [r10, r3]
 1588 09aa CBF80020 		str	r2, [fp]
 1589 09ae D8E5     		b	.L47
 1590              	.L60:
 1591              		.loc 1 516 0
 1592 09b0 0020     		movs	r0, #0
 1593 09b2 C8F80000 		str	r0, [r8]
 1594              	.L113:
 1595              		.loc 1 517 0 discriminator 3
 1596 09b6 FFF7FEFF 		bl	e_get_calibrated_prox
ARM GAS  C:\Users\osour\AppData\Local\Temp\ccsBkKuy.s 			page 29


 1597              	.LVL109:
 1598              		.loc 1 518 0 discriminator 3
 1599 09ba DBF80020 		ldr	r2, [fp]
 1600              		.loc 1 516 0 discriminator 3
 1601 09be D8F80030 		ldr	r3, [r8]
 1602              		.loc 1 518 0 discriminator 3
 1603 09c2 0AF80200 		strb	r0, [r10, r2]
 1604              		.loc 1 519 0 discriminator 3
 1605 09c6 0AEB0204 		add	r4, r10, r2
 1606 09ca 0112     		asrs	r1, r0, #8
 1607              		.loc 1 516 0 discriminator 3
 1608 09cc 581C     		adds	r0, r3, #1
 1609              		.loc 1 519 0 discriminator 3
 1610 09ce 0232     		adds	r2, r2, #2
 1611              		.loc 1 516 0 discriminator 3
 1612 09d0 0728     		cmp	r0, #7
 1613              		.loc 1 519 0 discriminator 3
 1614 09d2 6170     		strb	r1, [r4, #1]
 1615 09d4 CBF80020 		str	r2, [fp]
 1616              		.loc 1 516 0 discriminator 3
 1617 09d8 C8F80000 		str	r0, [r8]
 1618 09dc EBDD     		ble	.L113
 1619 09de C0E5     		b	.L47
 1620              	.L55:
 1621              		.loc 1 408 0
 1622 09e0 002F     		cmp	r7, #0
 1623 09e2 41F04480 		bne	.L85
 1624              		.loc 1 410 0
 1625 09e6 079B     		ldr	r3, [sp, #28]
 1626              		.loc 1 411 0
 1627 09e8 5C4C     		ldr	r4, .L716+16
 1628              		.loc 1 410 0
 1629 09ea 002B     		cmp	r3, #0
 1630 09ec 2FD0     		beq	.L86
 1631              	.L87:
 1632              		.loc 1 411 0 discriminator 1
 1633 09ee 2046     		mov	r0, r4
 1634 09f0 FFF7FEFF 		bl	e_getchar_uart1
 1635              	.LVL110:
 1636 09f4 0028     		cmp	r0, #0
 1637 09f6 FAD0     		beq	.L87
 1638              		.loc 1 412 0
 1639 09f8 594C     		ldr	r4, .L716+20
 1640              	.L88:
 1641              		.loc 1 412 0 is_stmt 0 discriminator 1
 1642 09fa 2046     		mov	r0, r4
 1643 09fc FFF7FEFF 		bl	e_getchar_uart1
 1644              	.LVL111:
 1645 0a00 0028     		cmp	r0, #0
 1646 0a02 FAD0     		beq	.L88
 1647              		.loc 1 417 0 is_stmt 1
 1648 0a04 564B     		ldr	r3, .L716+20
 1649              		.loc 1 421 0
 1650 0a06 554C     		ldr	r4, .L716+16
 1651              		.loc 1 417 0
 1652 0a08 1A78     		ldrb	r2, [r3]	@ zero_extendqisi2
 1653 0a0a 544B     		ldr	r3, .L716+16
ARM GAS  C:\Users\osour\AppData\Local\Temp\ccsBkKuy.s 			page 30


 1654 0a0c 1B78     		ldrb	r3, [r3]	@ zero_extendqisi2
 1655 0a0e 03EB0223 		add	r3, r3, r2, lsl #8
 1656 0a12 544A     		ldr	r2, .L716+24
 1657 0a14 1360     		str	r3, [r2]
 1658              	.L92:
 1659              		.loc 1 421 0 discriminator 1
 1660 0a16 2046     		mov	r0, r4
 1661 0a18 FFF7FEFF 		bl	e_getchar_uart1
 1662              	.LVL112:
 1663 0a1c 0028     		cmp	r0, #0
 1664 0a1e FAD0     		beq	.L92
 1665              		.loc 1 422 0
 1666 0a20 4F4C     		ldr	r4, .L716+20
 1667              	.L93:
 1668              		.loc 1 422 0 is_stmt 0 discriminator 1
 1669 0a22 2046     		mov	r0, r4
 1670 0a24 FFF7FEFF 		bl	e_getchar_uart1
 1671              	.LVL113:
 1672 0a28 0028     		cmp	r0, #0
 1673 0a2a FAD0     		beq	.L93
 1674              	.L644:
 1675 0a2c 4C4B     		ldr	r3, .L716+20
 1676 0a2e 4D49     		ldr	r1, .L716+24
 1677 0a30 1A78     		ldrb	r2, [r3]	@ zero_extendqisi2
 1678 0a32 4A4B     		ldr	r3, .L716+16
 1679 0a34 0868     		ldr	r0, [r1]
 1680 0a36 1B78     		ldrb	r3, [r3]	@ zero_extendqisi2
 1681 0a38 03EB0223 		add	r3, r3, r2, lsl #8
 1682              	.L97:
 1683              		.loc 1 427 0 is_stmt 1
 1684 0a3c 4A4A     		ldr	r2, .L716+28
 1685 0a3e 1446     		mov	r4, r2
 1686 0a40 1360     		str	r3, [r2]
 1687              		.loc 1 428 0
 1688 0a42 FFF7FEFF 		bl	e_set_speed_left
 1689              	.LVL114:
 1690              		.loc 1 429 0
 1691 0a46 2068     		ldr	r0, [r4]
 1692 0a48 FFF7FEFF 		bl	e_set_speed_right
 1693              	.LVL115:
 1694              		.loc 1 430 0
 1695 0a4c 89E5     		b	.L47
 1696              	.L86:
 1697              		.loc 1 414 0 discriminator 1
 1698 0a4e 2046     		mov	r0, r4
 1699 0a50 FFF7FEFF 		bl	e_getchar_uart2
 1700              	.LVL116:
 1701 0a54 0028     		cmp	r0, #0
 1702 0a56 FAD0     		beq	.L86
 1703              		.loc 1 415 0
 1704 0a58 414C     		ldr	r4, .L716+20
 1705              	.L90:
 1706              		.loc 1 415 0 is_stmt 0 discriminator 1
 1707 0a5a 2046     		mov	r0, r4
 1708 0a5c FFF7FEFF 		bl	e_getchar_uart2
 1709              	.LVL117:
 1710 0a60 0028     		cmp	r0, #0
ARM GAS  C:\Users\osour\AppData\Local\Temp\ccsBkKuy.s 			page 31


 1711 0a62 FAD0     		beq	.L90
 1712              		.loc 1 417 0 is_stmt 1
 1713 0a64 3E4B     		ldr	r3, .L716+20
 1714              		.loc 1 424 0
 1715 0a66 3D4C     		ldr	r4, .L716+16
 1716              		.loc 1 417 0
 1717 0a68 1A78     		ldrb	r2, [r3]	@ zero_extendqisi2
 1718 0a6a 3C4B     		ldr	r3, .L716+16
 1719 0a6c 1B78     		ldrb	r3, [r3]	@ zero_extendqisi2
 1720 0a6e 03EB0223 		add	r3, r3, r2, lsl #8
 1721 0a72 3C4A     		ldr	r2, .L716+24
 1722 0a74 1360     		str	r3, [r2]
 1723              	.L95:
 1724              		.loc 1 424 0 discriminator 1
 1725 0a76 2046     		mov	r0, r4
 1726 0a78 FFF7FEFF 		bl	e_getchar_uart2
 1727              	.LVL118:
 1728 0a7c 0028     		cmp	r0, #0
 1729 0a7e FAD0     		beq	.L95
 1730              		.loc 1 425 0
 1731 0a80 374C     		ldr	r4, .L716+20
 1732              	.L96:
 1733              		.loc 1 425 0 is_stmt 0 discriminator 1
 1734 0a82 2046     		mov	r0, r4
 1735 0a84 FFF7FEFF 		bl	e_getchar_uart2
 1736              	.LVL119:
 1737 0a88 0028     		cmp	r0, #0
 1738 0a8a FAD0     		beq	.L96
 1739 0a8c CEE7     		b	.L644
 1740              	.L54:
 1741              		.loc 1 365 0 is_stmt 1
 1742 0a8e 002F     		cmp	r7, #0
 1743 0a90 01F07B80 		beq	.L700
 1744              		.loc 1 370 0
 1745 0a94 0022     		movs	r2, #0
 1746              		.loc 1 368 0
 1747 0a96 354B     		ldr	r3, .L716+32
 1748              		.loc 1 370 0
 1749 0a98 CDE90C22 		strd	r2, r2, [sp, #48]
 1750 0a9c CDE90A22 		strd	r2, r2, [sp, #40]
 1751 0aa0 CDE90822 		strd	r2, r2, [sp, #32]
 1752              		.loc 1 368 0
 1753 0aa4 83ED008A 		vstr.32	s16, [r3]
 1754              		.loc 1 369 0
 1755 0aa8 83ED028A 		vstr.32	s16, [r3, #8]
 1756              		.loc 1 370 0
 1757 0aac 83ED018A 		vstr.32	s16, [r3, #4]
 1758 0ab0 1046     		mov	r0, r2
 1759 0ab2 1446     		mov	r4, r2
 1760 0ab4 1546     		mov	r5, r2
 1761 0ab6 9446     		mov	ip, r2
 1762 0ab8 9646     		mov	lr, r2
 1763              	.L84:
 1764              	.LVL120:
 1765              		.loc 1 373 0
 1766 0aba DBF80010 		ldr	r1, [fp]
 1767              		.loc 1 375 0
ARM GAS  C:\Users\osour\AppData\Local\Temp\ccsBkKuy.s 			page 32


 1768 0abe 0AEB0103 		add	r3, r10, r1
 1769              		.loc 1 373 0
 1770 0ac2 0AF801E0 		strb	lr, [r10, r1]
 1771              	.LVL121:
 1772              		.loc 1 382 0
 1773 0ac6 1871     		strb	r0, [r3, #4]
 1774              		.loc 1 384 0
 1775 0ac8 9DF82000 		ldrb	r0, [sp, #32]	@ zero_extendqisi2
 1776 0acc 5871     		strb	r0, [r3, #5]
 1777              		.loc 1 386 0
 1778 0ace 9DF82400 		ldrb	r0, [sp, #36]	@ zero_extendqisi2
 1779 0ad2 9871     		strb	r0, [r3, #6]
 1780              		.loc 1 388 0
 1781 0ad4 9DF82800 		ldrb	r0, [sp, #40]	@ zero_extendqisi2
 1782 0ad8 D871     		strb	r0, [r3, #7]
 1783              		.loc 1 391 0
 1784 0ada 9DF82C00 		ldrb	r0, [sp, #44]	@ zero_extendqisi2
 1785 0ade 1872     		strb	r0, [r3, #8]
 1786              		.loc 1 393 0
 1787 0ae0 9DF83000 		ldrb	r0, [sp, #48]	@ zero_extendqisi2
 1788 0ae4 5872     		strb	r0, [r3, #9]
 1789              		.loc 1 397 0
 1790 0ae6 0C31     		adds	r1, r1, #12
 1791              		.loc 1 395 0
 1792 0ae8 9DF83400 		ldrb	r0, [sp, #52]	@ zero_extendqisi2
 1793              		.loc 1 375 0
 1794 0aec 83F801C0 		strb	ip, [r3, #1]
 1795              	.LVL122:
 1796              		.loc 1 377 0
 1797 0af0 9D70     		strb	r5, [r3, #2]
 1798              	.LVL123:
 1799              		.loc 1 379 0
 1800 0af2 DC70     		strb	r4, [r3, #3]
 1801              	.LVL124:
 1802              		.loc 1 395 0
 1803 0af4 9872     		strb	r0, [r3, #10]
 1804              	.LVL125:
 1805              		.loc 1 397 0
 1806 0af6 DA72     		strb	r2, [r3, #11]
 1807 0af8 CBF80010 		str	r1, [fp]
 1808              		.loc 1 398 0
 1809 0afc 31E5     		b	.L47
 1810              	.LVL126:
 1811              	.L56:
 1812              		.loc 1 432 0
 1813 0afe 194A     		ldr	r2, .L716+24
 1814 0b00 DBF80030 		ldr	r3, [fp]
 1815              		.loc 1 434 0
 1816 0b04 1849     		ldr	r1, .L716+28
 1817              		.loc 1 432 0
 1818 0b06 1268     		ldr	r2, [r2]
 1819              		.loc 1 434 0
 1820 0b08 0868     		ldr	r0, [r1]
 1821              		.loc 1 432 0
 1822 0b0a 0AF80320 		strb	r2, [r10, r3]
 1823              		.loc 1 433 0
 1824 0b0e 0AEB0301 		add	r1, r10, r3
ARM GAS  C:\Users\osour\AppData\Local\Temp\ccsBkKuy.s 			page 33


 1825 0b12 1212     		asrs	r2, r2, #8
 1826              		.loc 1 435 0
 1827 0b14 0433     		adds	r3, r3, #4
 1828              		.loc 1 433 0
 1829 0b16 4A70     		strb	r2, [r1, #1]
 1830              		.loc 1 435 0
 1831 0b18 0212     		asrs	r2, r0, #8
 1832 0b1a CBF80030 		str	r3, [fp]
 1833              		.loc 1 434 0
 1834 0b1e 8870     		strb	r0, [r1, #2]
 1835              		.loc 1 435 0
 1836 0b20 CA70     		strb	r2, [r1, #3]
 1837              		.loc 1 436 0
 1838 0b22 1EE5     		b	.L47
 1839              	.L58:
 1840              		.loc 1 469 0
 1841 0b24 002F     		cmp	r7, #0
 1842 0b26 7FF410AD 		bne	.L99
 1843              		.loc 1 471 0
 1844 0b2a 079B     		ldr	r3, [sp, #28]
 1845              		.loc 1 472 0
 1846 0b2c 0B4C     		ldr	r4, .L716+16
 1847              		.loc 1 471 0
 1848 0b2e 002B     		cmp	r3, #0
 1849 0b30 3FF400AD 		beq	.L100
 1850              	.L101:
 1851              		.loc 1 472 0 discriminator 1
 1852 0b34 2046     		mov	r0, r4
 1853 0b36 FFF7FEFF 		bl	e_getchar_uart1
 1854              	.LVL127:
 1855 0b3a 0028     		cmp	r0, #0
 1856 0b3c FAD0     		beq	.L101
 1857              		.loc 1 473 0
 1858 0b3e 084C     		ldr	r4, .L716+20
 1859              	.L102:
 1860              		.loc 1 473 0 is_stmt 0 discriminator 1
 1861 0b40 2046     		mov	r0, r4
 1862 0b42 FFF7FEFF 		bl	e_getchar_uart1
 1863              	.LVL128:
 1864 0b46 0028     		cmp	r0, #0
 1865 0b48 FAD0     		beq	.L102
 1866 0b4a FEE4     		b	.L99
 1867              	.L717:
 1868              		.align	2
 1869              	.L716:
 1870 0b4c 00000000 		.word	.LANCHOR24
 1871 0b50 00000000 		.word	.LANCHOR25
 1872 0b54 00000000 		.word	.LANCHOR26
 1873 0b58 00000000 		.word	.LANCHOR21
 1874 0b5c 00000000 		.word	.LANCHOR16
 1875 0b60 00000000 		.word	.LANCHOR17
 1876 0b64 00000000 		.word	.LANCHOR7
 1877 0b68 00000000 		.word	.LANCHOR6
 1878 0b6c 00000000 		.word	.LANCHOR15
 1879              	.L51:
 1880              		.loc 1 307 0 is_stmt 1
 1881 0b70 0020     		movs	r0, #0
ARM GAS  C:\Users\osour\AppData\Local\Temp\ccsBkKuy.s 			page 34


 1882 0b72 FFF7FEFF 		bl	e_get_micro_volume
 1883              	.LVL129:
 1884              		.loc 1 308 0
 1885 0b76 DBF80030 		ldr	r3, [fp]
 1886              		.loc 1 309 0
 1887 0b7a 0AEB0302 		add	r2, r10, r3
 1888              		.loc 1 308 0
 1889 0b7e 0AF80300 		strb	r0, [r10, r3]
 1890              		.loc 1 309 0
 1891 0b82 0112     		asrs	r1, r0, #8
 1892 0b84 0233     		adds	r3, r3, #2
 1893              		.loc 1 311 0
 1894 0b86 0120     		movs	r0, #1
 1895              		.loc 1 309 0
 1896 0b88 5170     		strb	r1, [r2, #1]
 1897 0b8a CBF80030 		str	r3, [fp]
 1898              		.loc 1 311 0
 1899 0b8e FFF7FEFF 		bl	e_get_micro_volume
 1900              	.LVL130:
 1901              		.loc 1 312 0
 1902 0b92 DBF80030 		ldr	r3, [fp]
 1903              		.loc 1 313 0
 1904 0b96 0AEB0302 		add	r2, r10, r3
 1905              		.loc 1 312 0
 1906 0b9a 0AF80300 		strb	r0, [r10, r3]
 1907              		.loc 1 313 0
 1908 0b9e 0112     		asrs	r1, r0, #8
 1909 0ba0 0233     		adds	r3, r3, #2
 1910              		.loc 1 315 0
 1911 0ba2 0220     		movs	r0, #2
 1912              		.loc 1 313 0
 1913 0ba4 5170     		strb	r1, [r2, #1]
 1914 0ba6 CBF80030 		str	r3, [fp]
 1915              		.loc 1 315 0
 1916 0baa FFF7FEFF 		bl	e_get_micro_volume
 1917              	.LVL131:
 1918              		.loc 1 316 0
 1919 0bae DBF80030 		ldr	r3, [fp]
 1920              		.loc 1 317 0
 1921 0bb2 0AEB0302 		add	r2, r10, r3
 1922              		.loc 1 316 0
 1923 0bb6 0AF80300 		strb	r0, [r10, r3]
 1924              		.loc 1 317 0
 1925 0bba 0112     		asrs	r1, r0, #8
 1926 0bbc 0233     		adds	r3, r3, #2
 1927              		.loc 1 319 0
 1928 0bbe 0320     		movs	r0, #3
 1929              		.loc 1 317 0
 1930 0bc0 5170     		strb	r1, [r2, #1]
 1931 0bc2 CBF80030 		str	r3, [fp]
 1932              		.loc 1 319 0
 1933 0bc6 FFF7FEFF 		bl	e_get_micro_volume
 1934              	.LVL132:
 1935 0bca 0AE5     		b	.L677
 1936              	.L52:
 1937              		.loc 1 325 0
 1938 0bcc 002F     		cmp	r7, #0
ARM GAS  C:\Users\osour\AppData\Local\Temp\ccsBkKuy.s 			page 35


 1939 0bce 00F0AF87 		beq	.L701
 1940              		.loc 1 330 0
 1941 0bd2 DBF80020 		ldr	r2, [fp]
 1942              		.loc 1 331 0
 1943 0bd6 0AEB0200 		add	r0, r10, r2
 1944              		.loc 1 330 0
 1945 0bda 0021     		movs	r1, #0
 1946              		.loc 1 331 0
 1947 0bdc 941C     		adds	r4, r2, #2
 1948              		.loc 1 330 0
 1949 0bde 0AF80210 		strb	r1, [r10, r2]
 1950              		.loc 1 331 0
 1951 0be2 CBF80040 		str	r4, [fp]
 1952 0be6 4170     		strb	r1, [r0, #1]
 1953 0be8 20E4     		b	.L46
 1954              	.L50:
 1955              		.loc 1 303 0
 1956 0bea DBF80040 		ldr	r4, [fp]
 1957 0bee 631C     		adds	r3, r4, #1
 1958 0bf0 CBF80030 		str	r3, [fp]
 1959 0bf4 FFF7FEFF 		bl	button_get_state
 1960              	.LVL133:
 1961 0bf8 0AF80400 		strb	r0, [r10, r4]
 1962              		.loc 1 304 0
 1963 0bfc B1E4     		b	.L47
 1964              	.L70:
 1965              		.loc 1 613 0
 1966 0bfe 002F     		cmp	r7, #0
 1967 0c00 7FF414AC 		bne	.L46
 1968              		.loc 1 614 0
 1969 0c04 FFF7FEFF 		bl	e_i2cp_enable
 1970              	.LVL134:
 1971              		.loc 1 615 0
 1972 0c08 C8F80070 		str	r7, [r8]
 1973 0c0c 3846     		mov	r0, r7
 1974 0c0e 01E0     		b	.L139
 1975              	.L702:
 1976 0c10 D8F80000 		ldr	r0, [r8]
 1977              	.L139:
 1978              		.loc 1 616 0 discriminator 1
 1979 0c14 5044     		add	r0, r0, r10
 1980 0c16 FFF7FEFF 		bl	e_getchar_uart1
 1981              	.LVL135:
 1982 0c1a 0028     		cmp	r0, #0
 1983 0c1c F8D0     		beq	.L702
 1984              		.loc 1 615 0 discriminator 2
 1985 0c1e D8F80000 		ldr	r0, [r8]
 1986 0c22 0130     		adds	r0, r0, #1
 1987 0c24 1728     		cmp	r0, #23
 1988 0c26 C8F80000 		str	r0, [r8]
 1989 0c2a F3DD     		ble	.L139
 1990              		.loc 1 618 0
 1991 0c2c 9220     		movs	r0, #146
 1992 0c2e C8F80000 		str	r0, [r8]
 1993 0c32 01E0     		b	.L142
 1994              	.L703:
 1995 0c34 D8F80000 		ldr	r0, [r8]
ARM GAS  C:\Users\osour\AppData\Local\Temp\ccsBkKuy.s 			page 36


 1996              	.L142:
 1997              		.loc 1 619 0 discriminator 1
 1998 0c38 7A38     		subs	r0, r0, #122
 1999 0c3a 5044     		add	r0, r0, r10
 2000 0c3c FFF7FEFF 		bl	e_getchar_uart1
 2001              	.LVL136:
 2002 0c40 0028     		cmp	r0, #0
 2003 0c42 F7D0     		beq	.L703
 2004              		.loc 1 618 0 discriminator 2
 2005 0c44 D8F80000 		ldr	r0, [r8]
 2006 0c48 0130     		adds	r0, r0, #1
 2007 0c4a 9428     		cmp	r0, #148
 2008 0c4c C8F80000 		str	r0, [r8]
 2009 0c50 F2DD     		ble	.L142
 2010              		.loc 1 621 0
 2011 0c52 A420     		movs	r0, #164
 2012 0c54 C8F80000 		str	r0, [r8]
 2013 0c58 01E0     		b	.L145
 2014              	.L704:
 2015 0c5a D8F80000 		ldr	r0, [r8]
 2016              	.L145:
 2017              		.loc 1 622 0 discriminator 1
 2018 0c5e 8938     		subs	r0, r0, #137
 2019 0c60 5044     		add	r0, r0, r10
 2020 0c62 FFF7FEFF 		bl	e_getchar_uart1
 2021              	.LVL137:
 2022 0c66 0028     		cmp	r0, #0
 2023 0c68 F7D0     		beq	.L704
 2024              		.loc 1 621 0 discriminator 2
 2025 0c6a D8F80000 		ldr	r0, [r8]
 2026 0c6e 0130     		adds	r0, r0, #1
 2027 0c70 AB28     		cmp	r0, #171
 2028 0c72 C8F80000 		str	r0, [r8]
 2029 0c76 F2DD     		ble	.L145
 2030              		.loc 1 624 0
 2031 0c78 0021     		movs	r1, #0
 2032 0c7a C8F80010 		str	r1, [r8]
 2033              	.L147:
 2034              		.loc 1 625 0 discriminator 3
 2035 0c7e 1AF80120 		ldrb	r2, [r10, r1]	@ zero_extendqisi2
 2036 0c82 B020     		movs	r0, #176
 2037 0c84 C9B2     		uxtb	r1, r1
 2038 0c86 FFF7FEFF 		bl	e_i2cp_write
 2039              	.LVL138:
 2040              		.loc 1 624 0 discriminator 3
 2041 0c8a D8F80010 		ldr	r1, [r8]
 2042 0c8e 0131     		adds	r1, r1, #1
 2043 0c90 1729     		cmp	r1, #23
 2044 0c92 C8F80010 		str	r1, [r8]
 2045 0c96 F2DD     		ble	.L147
 2046              		.loc 1 627 0
 2047 0c98 9221     		movs	r1, #146
 2048 0c9a C8F80010 		str	r1, [r8]
 2049              	.L148:
 2050              		.loc 1 628 0 discriminator 3
 2051 0c9e 0AEB0103 		add	r3, r10, r1
 2052 0ca2 B020     		movs	r0, #176
ARM GAS  C:\Users\osour\AppData\Local\Temp\ccsBkKuy.s 			page 37


 2053 0ca4 C9B2     		uxtb	r1, r1
 2054 0ca6 13F87A2C 		ldrb	r2, [r3, #-122]	@ zero_extendqisi2
 2055 0caa FFF7FEFF 		bl	e_i2cp_write
 2056              	.LVL139:
 2057              		.loc 1 627 0 discriminator 3
 2058 0cae D8F80010 		ldr	r1, [r8]
 2059 0cb2 0131     		adds	r1, r1, #1
 2060 0cb4 9429     		cmp	r1, #148
 2061 0cb6 C8F80010 		str	r1, [r8]
 2062 0cba F0DD     		ble	.L148
 2063              		.loc 1 630 0
 2064 0cbc A421     		movs	r1, #164
 2065 0cbe C8F80010 		str	r1, [r8]
 2066              	.L149:
 2067              		.loc 1 631 0 discriminator 3
 2068 0cc2 0AEB0103 		add	r3, r10, r1
 2069 0cc6 B020     		movs	r0, #176
 2070 0cc8 C9B2     		uxtb	r1, r1
 2071 0cca 13F8892C 		ldrb	r2, [r3, #-137]	@ zero_extendqisi2
 2072 0cce FFF7FEFF 		bl	e_i2cp_write
 2073              	.LVL140:
 2074              		.loc 1 630 0 discriminator 3
 2075 0cd2 D8F80010 		ldr	r1, [r8]
 2076 0cd6 0131     		adds	r1, r1, #1
 2077 0cd8 AB29     		cmp	r1, #171
 2078 0cda C8F80010 		str	r1, [r8]
 2079 0cde F0DD     		ble	.L149
 2080              		.loc 1 633 0
 2081 0ce0 0122     		movs	r2, #1
 2082 0ce2 9121     		movs	r1, #145
 2083 0ce4 B020     		movs	r0, #176
 2084 0ce6 FFF7FEFF 		bl	e_i2cp_write
 2085              	.LVL141:
 2086              		.loc 1 634 0
 2087 0cea FFF7FEFF 		bl	e_i2cp_disable
 2088              	.LVL142:
 2089 0cee 39E4     		b	.L78
 2090              	.L689:
 2091              	.LVL143:
 2092              	.LBB3:
 2093              		.loc 1 690 0
 2094 0cf0 FFF7FEFF 		bl	__locale_ctype_ptr
 2095              	.LVL144:
 2096 0cf4 2044     		add	r0, r0, r4
 2097 0cf6 4378     		ldrb	r3, [r0, #1]	@ zero_extendqisi2
 2098 0cf8 03F00303 		and	r3, r3, #3
 2099 0cfc 022B     		cmp	r3, #2
 2100 0cfe 08BF     		it	eq
 2101 0d00 203C     		subeq	r4, r4, #32
 2102              	.LVL145:
 2103              	.LBE3:
 2104 0d02 E4B2     		uxtb	r4, r4
 2105              		.loc 1 692 0
 2106 0d04 A4F14103 		sub	r3, r4, #65
 2107              		.loc 1 690 0
 2108 0d08 8AF80040 		strb	r4, [r10]
 2109              		.loc 1 692 0
ARM GAS  C:\Users\osour\AppData\Local\Temp\ccsBkKuy.s 			page 38


 2110 0d0c 332B     		cmp	r3, #51
 2111 0d0e 00F22B86 		bhi	.L176
 2112 0d12 01A2     		adr	r2, .L178
 2113 0d14 52F823F0 		ldr	pc, [r2, r3, lsl #2]
 2114              		.p2align 2
 2115              	.L178:
 2116 0d18 0F150000 		.word	.L177+1
 2117 0d1c A1180000 		.word	.L179+1
 2118 0d20 1D160000 		.word	.L180+1
 2119 0d24 99150000 		.word	.L181+1
 2120 0d28 61150000 		.word	.L182+1
 2121 0d2c D5180000 		.word	.L183+1
 2122 0d30 D7150000 		.word	.L184+1
 2123 0d34 D1160000 		.word	.L185+1
 2124 0d38 C5140000 		.word	.L186+1
 2125 0d3c 6D100000 		.word	.L187+1
 2126 0d40 EF0F0000 		.word	.L188+1
 2127 0d44 97120000 		.word	.L189+1
 2128 0d48 0D0F0000 		.word	.L190+1
 2129 0d4c 75130000 		.word	.L191+1
 2130 0d50 DF110000 		.word	.L192+1
 2131 0d54 D1120000 		.word	.L193+1
 2132 0d58 8B0E0000 		.word	.L194+1
 2133 0d5c DD000000 		.word	.L6+1
 2134 0d60 8F140000 		.word	.L195+1
 2135 0d64 63120000 		.word	.L196+1
 2136 0d68 43140000 		.word	.L197+1
 2137 0d6c C90E0000 		.word	.L198+1
 2138 0d70 F9130000 		.word	.L199+1
 2139 0d74 69190000 		.word	.L176+1
 2140 0d78 43110000 		.word	.L200+1
 2141 0d7c 1F0E0000 		.word	.L201+1
 2142 0d80 69190000 		.word	.L176+1
 2143 0d84 69190000 		.word	.L176+1
 2144 0d88 69190000 		.word	.L176+1
 2145 0d8c 69190000 		.word	.L176+1
 2146 0d90 69190000 		.word	.L176+1
 2147 0d94 69190000 		.word	.L176+1
 2148 0d98 69190000 		.word	.L176+1
 2149 0d9c D7210000 		.word	.L202+1
 2150 0da0 69190000 		.word	.L176+1
 2151 0da4 69190000 		.word	.L176+1
 2152 0da8 69190000 		.word	.L176+1
 2153 0dac 69190000 		.word	.L176+1
 2154 0db0 BB010000 		.word	.L174+1
 2155 0db4 69190000 		.word	.L176+1
 2156 0db8 69190000 		.word	.L176+1
 2157 0dbc 69190000 		.word	.L176+1
 2158 0dc0 69190000 		.word	.L176+1
 2159 0dc4 69190000 		.word	.L176+1
 2160 0dc8 69190000 		.word	.L176+1
 2161 0dcc 69190000 		.word	.L176+1
 2162 0dd0 69190000 		.word	.L176+1
 2163 0dd4 69190000 		.word	.L176+1
 2164 0dd8 69190000 		.word	.L176+1
 2165 0ddc 69190000 		.word	.L176+1
 2166 0de0 69190000 		.word	.L176+1
ARM GAS  C:\Users\osour\AppData\Local\Temp\ccsBkKuy.s 			page 39


 2167 0de4 E90D0000 		.word	.L203+1
 2168              		.p2align 1
 2169              	.L203:
 2170              	.LBB4:
 2171              		.loc 1 1146 0
 2172 0de8 002F     		cmp	r7, #0
 2173 0dea 40F03187 		bne	.L358
 2174              		.loc 1 1147 0
 2175 0dee FFF7FEFF 		bl	getTemperature
 2176              	.LVL146:
 2177 0df2 9349     		ldr	r1, .L718
 2178 0df4 0246     		mov	r2, r0
 2179 0df6 9348     		ldr	r0, .L718+4
 2180 0df8 FFF7FEFF 		bl	sprintf
 2181              	.LVL147:
 2182              		.loc 1 1153 0
 2183 0dfc 079B     		ldr	r3, [sp, #28]
 2184 0dfe 002B     		cmp	r3, #0
 2185 0e00 01F01981 		beq	.L705
 2186              		.loc 1 1154 0
 2187 0e04 8F48     		ldr	r0, .L718+4
 2188 0e06 FFF7FEFF 		bl	strlen
 2189              	.LVL148:
 2190 0e0a 0146     		mov	r1, r0
 2191 0e0c 8D48     		ldr	r0, .L718+4
 2192 0e0e FFF7FEFF 		bl	e_send_uart1_char
 2193              	.LVL149:
 2194              	.L361:
 2195              		.loc 1 1154 0 is_stmt 0 discriminator 2
 2196 0e12 FFF7FEFF 		bl	e_uart1_sending
 2197              	.LVL150:
 2198 0e16 0028     		cmp	r0, #0
 2199 0e18 FBD1     		bne	.L361
 2200 0e1a FFF760B9 		b	.L650
 2201              	.L201:
 2202              		.loc 1 1222 0 is_stmt 1
 2203 0e1e 002F     		cmp	r7, #0
 2204 0e20 7FF45CA9 		bne	.L6
 2205              		.loc 1 1223 0
 2206 0e24 0223     		movs	r3, #2
 2207              		.loc 1 1228 0
 2208 0e26 884D     		ldr	r5, .L718+8
 2209 0e28 864C     		ldr	r4, .L718+4
 2210              		.loc 1 1223 0
 2211 0e2a C8F80030 		str	r3, [r8]
 2212 0e2e 079E     		ldr	r6, [sp, #28]
 2213 0e30 07E0     		b	.L389
 2214              	.L385:
 2215 0e32 D8F80030 		ldr	r3, [r8]
 2216 0e36 0233     		adds	r3, r3, #2
 2217 0e38 FE2B     		cmp	r3, #254
 2218 0e3a C8F80030 		str	r3, [r8]
 2219 0e3e 3FF74EA9 		bgt	.L650
 2220              	.L389:
 2221              		.loc 1 1224 0
 2222 0e42 FFF7FEFF 		bl	e_i2cp_enable
 2223              	.LVL151:
ARM GAS  C:\Users\osour\AppData\Local\Temp\ccsBkKuy.s 			page 40


 2224              		.loc 1 1225 0
 2225 0e46 0021     		movs	r1, #0
 2226 0e48 98F80000 		ldrb	r0, [r8]	@ zero_extendqisi2
 2227 0e4c FFF7FEFF 		bl	e_i2cp_read
 2228              	.LVL152:
 2229 0e50 7E4B     		ldr	r3, .L718+12
 2230 0e52 1860     		str	r0, [r3]
 2231              		.loc 1 1226 0
 2232 0e54 FFF7FEFF 		bl	e_i2cp_disable
 2233              	.LVL153:
 2234              		.loc 1 1227 0
 2235 0e58 7C4B     		ldr	r3, .L718+12
 2236 0e5a 1B68     		ldr	r3, [r3]
 2237 0e5c 002B     		cmp	r3, #0
 2238 0e5e E8DB     		blt	.L385
 2239              		.loc 1 1228 0
 2240 0e60 D8F80020 		ldr	r2, [r8]
 2241 0e64 2946     		mov	r1, r5
 2242 0e66 2046     		mov	r0, r4
 2243 0e68 FFF7FEFF 		bl	sprintf
 2244              	.LVL154:
 2245              		.loc 1 1230 0
 2246 0e6c 2046     		mov	r0, r4
 2247              		.loc 1 1229 0
 2248 0e6e 002E     		cmp	r6, #0
 2249 0e70 00F01587 		beq	.L386
 2250              		.loc 1 1230 0
 2251 0e74 FFF7FEFF 		bl	strlen
 2252              	.LVL155:
 2253 0e78 0146     		mov	r1, r0
 2254 0e7a 2046     		mov	r0, r4
 2255 0e7c FFF7FEFF 		bl	e_send_uart1_char
 2256              	.LVL156:
 2257              	.L387:
 2258              		.loc 1 1230 0 is_stmt 0 discriminator 2
 2259 0e80 FFF7FEFF 		bl	e_uart1_sending
 2260              	.LVL157:
 2261 0e84 0028     		cmp	r0, #0
 2262 0e86 FBD1     		bne	.L387
 2263 0e88 D3E7     		b	.L385
 2264              	.L194:
 2265              		.loc 1 1084 0 is_stmt 1
 2266 0e8a FFF7FEFF 		bl	e_get_steps_left
 2267              	.LVL158:
 2268 0e8e 0446     		mov	r4, r0
 2269 0e90 FFF7FEFF 		bl	e_get_steps_right
 2270              	.LVL159:
 2271 0e94 2246     		mov	r2, r4
 2272 0e96 0346     		mov	r3, r0
 2273 0e98 6D49     		ldr	r1, .L718+16
 2274 0e9a 6A48     		ldr	r0, .L718+4
 2275 0e9c FFF7FEFF 		bl	sprintf
 2276              	.LVL160:
 2277              		.loc 1 1085 0
 2278 0ea0 002F     		cmp	r7, #0
 2279 0ea2 7FF41BA9 		bne	.L6
 2280 0ea6 6748     		ldr	r0, .L718+4
ARM GAS  C:\Users\osour\AppData\Local\Temp\ccsBkKuy.s 			page 41


 2281 0ea8 FFF7FEFF 		bl	strlen
 2282              	.LVL161:
 2283              		.loc 1 1087 0
 2284 0eac 079B     		ldr	r3, [sp, #28]
 2285 0eae 0146     		mov	r1, r0
 2286              		.loc 1 1088 0
 2287 0eb0 6448     		ldr	r0, .L718+4
 2288              		.loc 1 1087 0
 2289 0eb2 002B     		cmp	r3, #0
 2290 0eb4 01F0AA80 		beq	.L340
 2291              		.loc 1 1088 0
 2292 0eb8 FFF7FEFF 		bl	e_send_uart1_char
 2293              	.LVL162:
 2294              	.L341:
 2295              		.loc 1 1088 0 is_stmt 0 discriminator 2
 2296 0ebc FFF7FEFF 		bl	e_uart1_sending
 2297              	.LVL163:
 2298 0ec0 0028     		cmp	r0, #0
 2299 0ec2 FBD1     		bne	.L341
 2300 0ec4 FFF70BB9 		b	.L650
 2301              	.L198:
 2302              		.loc 1 1171 0 is_stmt 1
 2303 0ec8 002F     		cmp	r7, #0
 2304 0eca 40F0AE86 		bne	.L366
 2305              		.loc 1 1173 0
 2306 0ece 079B     		ldr	r3, [sp, #28]
 2307              		.loc 1 1174 0
 2308 0ed0 6048     		ldr	r0, .L718+20
 2309 0ed2 2521     		movs	r1, #37
 2310              		.loc 1 1173 0
 2311 0ed4 002B     		cmp	r3, #0
 2312 0ed6 00F00D87 		beq	.L367
 2313              		.loc 1 1174 0
 2314 0eda FFF7FEFF 		bl	e_send_uart1_char
 2315              	.LVL164:
 2316              	.L368:
 2317              		.loc 1 1174 0 is_stmt 0 discriminator 2
 2318 0ede FFF7FEFF 		bl	e_uart1_sending
 2319              	.LVL165:
 2320 0ee2 0028     		cmp	r0, #0
 2321 0ee4 FBD1     		bne	.L368
 2322              		.loc 1 1178 0 is_stmt 1
 2323 0ee6 5C4B     		ldr	r3, .L718+24
 2324 0ee8 5C49     		ldr	r1, .L718+28
 2325 0eea 1A68     		ldr	r2, [r3]
 2326 0eec 5548     		ldr	r0, .L718+4
 2327 0eee FFF7FEFF 		bl	sprintf
 2328              	.LVL166:
 2329              		.loc 1 1182 0
 2330 0ef2 5448     		ldr	r0, .L718+4
 2331 0ef4 FFF7FEFF 		bl	strlen
 2332              	.LVL167:
 2333 0ef8 0146     		mov	r1, r0
 2334 0efa 5248     		ldr	r0, .L718+4
 2335 0efc FFF7FEFF 		bl	e_send_uart1_char
 2336              	.LVL168:
 2337              	.L372:
ARM GAS  C:\Users\osour\AppData\Local\Temp\ccsBkKuy.s 			page 42


 2338              		.loc 1 1182 0 is_stmt 0 discriminator 2
 2339 0f00 FFF7FEFF 		bl	e_uart1_sending
 2340              	.LVL169:
 2341 0f04 0028     		cmp	r0, #0
 2342 0f06 FBD1     		bne	.L372
 2343 0f08 FFF7E9B8 		b	.L650
 2344              	.L190:
 2345              		.loc 1 996 0 is_stmt 1
 2346 0f0c 002F     		cmp	r7, #0
 2347 0f0e 7FF4E5A8 		bne	.L6
 2348              		.loc 1 997 0
 2349 0f12 FFF7FEFF 		bl	e_i2cp_enable
 2350              	.LVL170:
 2351              		.loc 1 998 0
 2352 0f16 3C46     		mov	r4, r7
 2353 0f18 C8F80070 		str	r7, [r8]
 2354              	.L324:
 2355 0f1c E3B2     		uxtb	r3, r4
 2356              		.loc 1 999 0
 2357 0f1e E207     		lsls	r2, r4, #31
 2358 0f20 03F10101 		add	r1, r3, #1
 2359              		.loc 1 1000 0
 2360 0f24 03F1FF33 		add	r3, r3, #-1
 2361              		.loc 1 999 0
 2362 0f28 4FF0C000 		mov	r0, #192
 2363 0f2c C9B2     		uxtb	r1, r1
 2364              		.loc 1 1000 0
 2365 0f2e 44BF     		itt	mi
 2366 0f30 C020     		movmi	r0, #192
 2367 0f32 D9B2     		uxtbmi	r1, r3
 2368 0f34 FFF7FEFF 		bl	e_i2cp_read
 2369              	.LVL171:
 2370 0f38 0AF80400 		strb	r0, [r10, r4]
 2371              		.loc 1 998 0
 2372 0f3c D8F80040 		ldr	r4, [r8]
 2373 0f40 0134     		adds	r4, r4, #1
 2374 0f42 052C     		cmp	r4, #5
 2375 0f44 C8F80040 		str	r4, [r8]
 2376 0f48 E8DD     		ble	.L324
 2377              		.loc 1 1003 0
 2378 0f4a 0D23     		movs	r3, #13
 2379 0f4c C8F80030 		str	r3, [r8]
 2380              	.L327:
 2381 0f50 DAB2     		uxtb	r2, r3
 2382 0f52 DC1F     		subs	r4, r3, #7
 2383              		.loc 1 1004 0
 2384 0f54 511E     		subs	r1, r2, #1
 2385 0f56 DB07     		lsls	r3, r3, #31
 2386              		.loc 1 1005 0
 2387 0f58 02F10102 		add	r2, r2, #1
 2388              		.loc 1 1004 0
 2389 0f5c 4FF0C000 		mov	r0, #192
 2390 0f60 C9B2     		uxtb	r1, r1
 2391              		.loc 1 1005 0
 2392 0f62 44BF     		itt	mi
 2393 0f64 C020     		movmi	r0, #192
 2394 0f66 D1B2     		uxtbmi	r1, r2
ARM GAS  C:\Users\osour\AppData\Local\Temp\ccsBkKuy.s 			page 43


 2395 0f68 FFF7FEFF 		bl	e_i2cp_read
 2396              	.LVL172:
 2397              		.loc 1 1003 0
 2398 0f6c D8F80030 		ldr	r3, [r8]
 2399              		.loc 1 1005 0
 2400 0f70 0AF80400 		strb	r0, [r10, r4]
 2401              		.loc 1 1003 0
 2402 0f74 0133     		adds	r3, r3, #1
 2403 0f76 102B     		cmp	r3, #16
 2404 0f78 C8F80030 		str	r3, [r8]
 2405 0f7c E8DD     		ble	.L327
 2406              		.loc 1 1008 0
 2407 0f7e FFF7FEFF 		bl	e_i2cp_disable
 2408              	.LVL173:
 2409              		.loc 1 1021 0
 2410 0f82 9AF80940 		ldrb	r4, [r10, #9]	@ zero_extendqisi2
 2411              		.loc 1 1019 0
 2412 0f86 9AF80700 		ldrb	r0, [r10, #7]	@ zero_extendqisi2
 2413              		.loc 1 1020 0
 2414 0f8a 9AF80830 		ldrb	r3, [r10, #8]	@ zero_extendqisi2
 2415              		.loc 1 1018 0
 2416 0f8e 9AF80620 		ldrb	r2, [r10, #6]	@ zero_extendqisi2
 2417              		.loc 1 1017 0
 2418 0f92 9AF80550 		ldrb	r5, [r10, #5]	@ zero_extendqisi2
 2419              		.loc 1 1016 0
 2420 0f96 9AF80410 		ldrb	r1, [r10, #4]	@ zero_extendqisi2
 2421              		.loc 1 1011 0
 2422 0f9a 03EB0423 		add	r3, r3, r4, lsl #8
 2423 0f9e 02EB0022 		add	r2, r2, r0, lsl #8
 2424              		.loc 1 1015 0
 2425 0fa2 9AF80340 		ldrb	r4, [r10, #3]	@ zero_extendqisi2
 2426              		.loc 1 1013 0
 2427 0fa6 9AF80100 		ldrb	r0, [r10, #1]	@ zero_extendqisi2
 2428              		.loc 1 1011 0
 2429 0faa 0293     		str	r3, [sp, #8]
 2430 0fac 0192     		str	r2, [sp, #4]
 2431              		.loc 1 1014 0
 2432 0fae 9AF80230 		ldrb	r3, [r10, #2]	@ zero_extendqisi2
 2433              		.loc 1 1012 0
 2434 0fb2 9AF80020 		ldrb	r2, [r10]	@ zero_extendqisi2
 2435              		.loc 1 1011 0
 2436 0fb6 01EB0521 		add	r1, r1, r5, lsl #8
 2437 0fba 0091     		str	r1, [sp]
 2438 0fbc 03EB0423 		add	r3, r3, r4, lsl #8
 2439 0fc0 02EB0022 		add	r2, r2, r0, lsl #8
 2440 0fc4 2649     		ldr	r1, .L718+32
 2441 0fc6 1F48     		ldr	r0, .L718+4
 2442 0fc8 FFF7FEFF 		bl	sprintf
 2443              	.LVL174:
 2444              		.loc 1 1031 0
 2445 0fcc 079B     		ldr	r3, [sp, #28]
 2446              		.loc 1 1032 0
 2447 0fce 1D48     		ldr	r0, .L718+4
 2448              		.loc 1 1031 0
 2449 0fd0 002B     		cmp	r3, #0
 2450 0fd2 01F0C380 		beq	.L328
 2451              		.loc 1 1032 0
ARM GAS  C:\Users\osour\AppData\Local\Temp\ccsBkKuy.s 			page 44


 2452 0fd6 FFF7FEFF 		bl	strlen
 2453              	.LVL175:
 2454 0fda 0146     		mov	r1, r0
 2455 0fdc 1948     		ldr	r0, .L718+4
 2456 0fde FFF7FEFF 		bl	e_send_uart1_char
 2457              	.LVL176:
 2458              	.L329:
 2459              		.loc 1 1032 0 is_stmt 0 discriminator 2
 2460 0fe2 FFF7FEFF 		bl	e_uart1_sending
 2461              	.LVL177:
 2462 0fe6 0028     		cmp	r0, #0
 2463 0fe8 FBD1     		bne	.L329
 2464 0fea FFF778B8 		b	.L650
 2465              	.L188:
 2466              		.loc 1 960 0 is_stmt 1
 2467 0fee 002F     		cmp	r7, #0
 2468 0ff0 40F00A86 		bne	.L311
 2469              		.loc 1 962 0
 2470 0ff4 079B     		ldr	r3, [sp, #28]
 2471              		.loc 1 963 0
 2472 0ff6 1B48     		ldr	r0, .L718+36
 2473 0ff8 3E21     		movs	r1, #62
 2474              		.loc 1 962 0
 2475 0ffa 002B     		cmp	r3, #0
 2476 0ffc 00F05B86 		beq	.L312
 2477              		.loc 1 963 0
 2478 1000 FFF7FEFF 		bl	e_send_uart1_char
 2479              	.LVL178:
 2480              	.L313:
 2481              		.loc 1 963 0 is_stmt 0 discriminator 2
 2482 1004 FFF7FEFF 		bl	e_uart1_sending
 2483              	.LVL179:
 2484 1008 0028     		cmp	r0, #0
 2485 100a FBD1     		bne	.L313
 2486              		.loc 1 968 0 is_stmt 1
 2487 100c 0121     		movs	r1, #1
 2488 100e 0820     		movs	r0, #8
 2489 1010 FFF7FEFF 		bl	e_set_led
 2490              	.LVL180:
 2491              		.loc 1 970 0
 2492 1014 4FF4C870 		mov	r0, #400
 2493 1018 FFF7FEFF 		bl	chThdSleep
 2494              	.LVL181:
 2495              		.loc 1 971 0
 2496 101c FFF7FEFF 		bl	e_led_clear
 2497              	.LVL182:
 2498              		.loc 1 973 0
 2499 1020 6420     		movs	r0, #100
 2500 1022 FFF7FEFF 		bl	chThdSleep
 2501              	.LVL183:
 2502              		.loc 1 974 0
 2503 1026 FFF7FEFF 		bl	e_calibrate_ir
 2504              	.LVL184:
 2505              		.loc 1 978 0
 2506 102a 1921     		movs	r1, #25
 2507 102c 0E48     		ldr	r0, .L718+40
 2508 102e FFF7FEFF 		bl	e_send_uart1_char
ARM GAS  C:\Users\osour\AppData\Local\Temp\ccsBkKuy.s 			page 45


 2509              	.LVL185:
 2510              	.L317:
 2511              		.loc 1 978 0 is_stmt 0 discriminator 2
 2512 1032 FFF7FEFF 		bl	e_uart1_sending
 2513              	.LVL186:
 2514 1036 0028     		cmp	r0, #0
 2515 1038 FBD1     		bne	.L317
 2516 103a FFF750B8 		b	.L650
 2517              	.L719:
 2518 103e 00BF     		.align	2
 2519              	.L718:
 2520 1040 B40A0000 		.word	.LC85
 2521 1044 00000000 		.word	buffer
 2522 1048 2C0B0000 		.word	.LC94
 2523 104c 00000000 		.word	.LANCHOR26
 2524 1050 980A0000 		.word	.LC81
 2525 1054 D40A0000 		.word	.LC88
 2526 1058 00000000 		.word	.LANCHOR0
 2527 105c 500B0000 		.word	.LC96
 2528 1060 3C0A0000 		.word	.LC76
 2529 1064 EC090000 		.word	.LC73
 2530 1068 640B0000 		.word	.LC97
 2531              	.LVL187:
 2532              	.L187:
 2533              		.loc 1 929 0 is_stmt 1
 2534 106c 002F     		cmp	r7, #0
 2535 106e 7FF435A8 		bne	.L6
 2536              		.loc 1 932 0
 2537 1072 139B     		ldr	r3, [sp, #76]
 2538 1074 A64D     		ldr	r5, .L720
 2539 1076 A74E     		ldr	r6, .L720+4
 2540 1078 0193     		str	r3, [sp, #4]
 2541              		.loc 1 930 0
 2542 107a 4FF0FF34 		mov	r4, #-1
 2543              		.loc 1 932 0
 2544 107e 119B     		ldr	r3, [sp, #68]
 2545 1080 0093     		str	r3, [sp]
 2546 1082 0395     		str	r5, [sp, #12]
 2547 1084 0296     		str	r6, [sp, #8]
 2548 1086 A44B     		ldr	r3, .L720+8
 2549 1088 A44A     		ldr	r2, .L720+12
 2550 108a A549     		ldr	r1, .L720+16
 2551 108c A548     		ldr	r0, .L720+20
 2552              		.loc 1 930 0
 2553 108e 3460     		str	r4, [r6]
 2554              		.loc 1 931 0
 2555 1090 2C60     		str	r4, [r5]
 2556              		.loc 1 932 0
 2557 1092 FFF7FEFF 		bl	sscanf
 2558              	.LVL188:
 2559              		.loc 1 933 0
 2560 1096 129A     		ldr	r2, [sp, #72]
 2561 1098 1368     		ldr	r3, [r2]
 2562 109a 002B     		cmp	r3, #0
 2563 109c 41F04080 		bne	.L302
 2564              		.loc 1 934 0
 2565 10a0 109A     		ldr	r2, [sp, #64]
ARM GAS  C:\Users\osour\AppData\Local\Temp\ccsBkKuy.s 			page 46


 2566 10a2 119B     		ldr	r3, [sp, #68]
 2567 10a4 1268     		ldr	r2, [r2]
 2568 10a6 1B68     		ldr	r3, [r3]
 2569 10a8 03FB02F3 		mul	r3, r3, r2
 2570 10ac 0E9A     		ldr	r2, [sp, #56]
 2571 10ae 1360     		str	r3, [r2]
 2572              	.L303:
 2573              		.loc 1 937 0
 2574 10b0 41F22802 		movw	r2, #4136
 2575 10b4 9342     		cmp	r3, r2
 2576 10b6 0BDD     		ble	.L304
 2577              		.loc 1 938 0
 2578 10b8 1299     		ldr	r1, [sp, #72]
 2579 10ba 0122     		movs	r2, #1
 2580 10bc 0A60     		str	r2, [r1]
 2581              		.loc 1 939 0
 2582 10be 1099     		ldr	r1, [sp, #64]
 2583 10c0 2823     		movs	r3, #40
 2584 10c2 0B60     		str	r3, [r1]
 2585              		.loc 1 940 0
 2586 10c4 1199     		ldr	r1, [sp, #68]
 2587 10c6 0B60     		str	r3, [r1]
 2588              		.loc 1 941 0
 2589 10c8 0E9B     		ldr	r3, [sp, #56]
 2590 10ca 4FF44862 		mov	r2, #3200
 2591 10ce 1A60     		str	r2, [r3]
 2592              	.L304:
 2593              		.loc 1 943 0
 2594 10d0 FFF7FEFF 		bl	e_poxxxx_init_cam
 2595              	.LVL189:
 2596              		.loc 1 944 0
 2597 10d4 8F4B     		ldr	r3, .L720+4
 2598 10d6 1868     		ldr	r0, [r3]
 2599              		.loc 1 945 0
 2600 10d8 139B     		ldr	r3, [sp, #76]
 2601 10da 1D68     		ldr	r5, [r3]
 2602 10dc 109B     		ldr	r3, [sp, #64]
 2603 10de 1A68     		ldr	r2, [r3]
 2604              		.loc 1 944 0
 2605 10e0 461C     		adds	r6, r0, #1
 2606              		.loc 1 945 0
 2607 10e2 02FB05F2 		mul	r2, r2, r5
 2608              		.loc 1 944 0
 2609 10e6 06D1     		bne	.L306
 2610              		.loc 1 945 0
 2611 10e8 C2F52070 		rsb	r0, r2, #640
 2612 10ec 00EBD070 		add	r0, r0, r0, lsr #31
 2613 10f0 884B     		ldr	r3, .L720+4
 2614 10f2 4010     		asrs	r0, r0, #1
 2615 10f4 1860     		str	r0, [r3]
 2616              	.L306:
 2617              		.loc 1 947 0
 2618 10f6 8649     		ldr	r1, .L720
 2619 10f8 119B     		ldr	r3, [sp, #68]
 2620 10fa 0968     		ldr	r1, [r1]
 2621 10fc 1B68     		ldr	r3, [r3]
 2622 10fe 4C1C     		adds	r4, r1, #1
ARM GAS  C:\Users\osour\AppData\Local\Temp\ccsBkKuy.s 			page 47


 2623 1100 03FB05F3 		mul	r3, r3, r5
 2624 1104 06D1     		bne	.L307
 2625              		.loc 1 948 0
 2626 1106 C3F5F071 		rsb	r1, r3, #480
 2627 110a 01EBD171 		add	r1, r1, r1, lsr #31
 2628 110e 804C     		ldr	r4, .L720
 2629 1110 4910     		asrs	r1, r1, #1
 2630 1112 2160     		str	r1, [r4]
 2631              	.L307:
 2632              		.loc 1 950 0
 2633 1114 129C     		ldr	r4, [sp, #72]
 2634 1116 2468     		ldr	r4, [r4]
 2635 1118 0294     		str	r4, [sp, #8]
 2636 111a CDE90055 		strd	r5, r5, [sp]
 2637 111e FFF7FEFF 		bl	e_poxxxx_config_cam
 2638              	.LVL190:
 2639              		.loc 1 951 0
 2640 1122 FFF7FEFF 		bl	e_poxxxx_write_cam_registers
 2641              	.LVL191:
 2642              		.loc 1 952 0
 2643 1126 079B     		ldr	r3, [sp, #28]
 2644              		.loc 1 953 0
 2645 1128 7F48     		ldr	r0, .L720+24
 2646 112a 0321     		movs	r1, #3
 2647              		.loc 1 952 0
 2648 112c 002B     		cmp	r3, #0
 2649 112e 00F0AF87 		beq	.L308
 2650              		.loc 1 953 0
 2651 1132 FFF7FEFF 		bl	e_send_uart1_char
 2652              	.LVL192:
 2653              	.L309:
 2654              		.loc 1 953 0 is_stmt 0 discriminator 2
 2655 1136 FFF7FEFF 		bl	e_uart1_sending
 2656              	.LVL193:
 2657 113a 0028     		cmp	r0, #0
 2658 113c FBD1     		bne	.L309
 2659 113e FEF7CEBF 		b	.L650
 2660              	.L200:
 2661              		.loc 1 1201 0 is_stmt 1
 2662 1142 002F     		cmp	r7, #0
 2663 1144 7EF4CAAF 		bne	.L6
 2664              		.loc 1 1202 0
 2665 1148 784B     		ldr	r3, .L720+28
 2666 114a 794A     		ldr	r2, .L720+32
 2667 114c 7949     		ldr	r1, .L720+36
 2668 114e 7548     		ldr	r0, .L720+20
 2669 1150 FFF7FEFF 		bl	sscanf
 2670              	.LVL194:
 2671              		.loc 1 1203 0
 2672 1154 754B     		ldr	r3, .L720+28
 2673 1156 764A     		ldr	r2, .L720+32
 2674 1158 1B68     		ldr	r3, [r3]
 2675 115a 1268     		ldr	r2, [r2]
 2676 115c 7649     		ldr	r1, .L720+40
 2677 115e 7148     		ldr	r0, .L720+20
 2678 1160 FFF7FEFF 		bl	sprintf
 2679              	.LVL195:
ARM GAS  C:\Users\osour\AppData\Local\Temp\ccsBkKuy.s 			page 48


 2680              		.loc 1 1204 0
 2681 1164 079B     		ldr	r3, [sp, #28]
 2682              		.loc 1 1205 0
 2683 1166 6F48     		ldr	r0, .L720+20
 2684              		.loc 1 1204 0
 2685 1168 002B     		cmp	r3, #0
 2686 116a 01F00B80 		beq	.L377
 2687              		.loc 1 1205 0
 2688 116e FFF7FEFF 		bl	strlen
 2689              	.LVL196:
 2690 1172 0146     		mov	r1, r0
 2691 1174 6B48     		ldr	r0, .L720+20
 2692 1176 FFF7FEFF 		bl	e_send_uart1_char
 2693              	.LVL197:
 2694              	.L378:
 2695              		.loc 1 1205 0 is_stmt 0 discriminator 2
 2696 117a FFF7FEFF 		bl	e_uart1_sending
 2697              	.LVL198:
 2698 117e 0028     		cmp	r0, #0
 2699 1180 FBD1     		bne	.L378
 2700              	.L379:
 2701              		.loc 1 1209 0 is_stmt 1
 2702 1182 FFF7FEFF 		bl	e_i2cp_enable
 2703              	.LVL199:
 2704              		.loc 1 1210 0
 2705 1186 694B     		ldr	r3, .L720+28
 2706 1188 1978     		ldrb	r1, [r3]	@ zero_extendqisi2
 2707 118a 694B     		ldr	r3, .L720+32
 2708 118c 1878     		ldrb	r0, [r3]	@ zero_extendqisi2
 2709 118e FFF7FEFF 		bl	e_i2cp_read
 2710              	.LVL200:
 2711 1192 6A4B     		ldr	r3, .L720+44
 2712 1194 1C46     		mov	r4, r3
 2713 1196 1860     		str	r0, [r3]
 2714              		.loc 1 1211 0
 2715 1198 FFF7FEFF 		bl	e_i2cp_disable
 2716              	.LVL201:
 2717              		.loc 1 1212 0
 2718 119c 6849     		ldr	r1, .L720+48
 2719 119e 2268     		ldr	r2, [r4]
 2720 11a0 6048     		ldr	r0, .L720+20
 2721 11a2 FFF7FEFF 		bl	sprintf
 2722              	.LVL202:
 2723              		.loc 1 1213 0
 2724 11a6 5F48     		ldr	r0, .L720+20
 2725 11a8 FFF7FEFF 		bl	strlen
 2726              	.LVL203:
 2727 11ac 0146     		mov	r1, r0
 2728 11ae 5D48     		ldr	r0, .L720+20
 2729 11b0 FFF7FEFF 		bl	e_send_uart1_char
 2730              	.LVL204:
 2731              	.L381:
 2732              		.loc 1 1213 0 is_stmt 0 discriminator 2
 2733 11b4 FFF7FEFF 		bl	e_uart1_sending
 2734              	.LVL205:
 2735 11b8 0028     		cmp	r0, #0
 2736 11ba FBD1     		bne	.L381
ARM GAS  C:\Users\osour\AppData\Local\Temp\ccsBkKuy.s 			page 49


 2737 11bc 5948     		ldr	r0, .L720+20
 2738 11be FFF7FEFF 		bl	strlen
 2739              	.LVL206:
 2740              		.loc 1 1214 0 is_stmt 1
 2741 11c2 079B     		ldr	r3, [sp, #28]
 2742 11c4 0146     		mov	r1, r0
 2743              		.loc 1 1215 0
 2744 11c6 5748     		ldr	r0, .L720+20
 2745              		.loc 1 1214 0
 2746 11c8 002B     		cmp	r3, #0
 2747 11ca 00F0D387 		beq	.L382
 2748              		.loc 1 1215 0
 2749 11ce FFF7FEFF 		bl	e_send_uart1_char
 2750              	.LVL207:
 2751              	.L383:
 2752              		.loc 1 1215 0 is_stmt 0 discriminator 2
 2753 11d2 FFF7FEFF 		bl	e_uart1_sending
 2754              	.LVL208:
 2755 11d6 0028     		cmp	r0, #0
 2756 11d8 FBD1     		bne	.L383
 2757 11da FEF780BF 		b	.L650
 2758              	.L192:
 2759              		.loc 1 1060 0 is_stmt 1
 2760 11de 0020     		movs	r0, #0
 2761 11e0 FFF7FEFF 		bl	e_get_ambient_light
 2762              	.LVL209:
 2763 11e4 0B90     		str	r0, [sp, #44]
 2764 11e6 0120     		movs	r0, #1
 2765 11e8 FFF7FEFF 		bl	e_get_ambient_light
 2766              	.LVL210:
 2767 11ec 0446     		mov	r4, r0
 2768 11ee 0220     		movs	r0, #2
 2769 11f0 FFF7FEFF 		bl	e_get_ambient_light
 2770              	.LVL211:
 2771 11f4 0890     		str	r0, [sp, #32]
 2772 11f6 0320     		movs	r0, #3
 2773 11f8 FFF7FEFF 		bl	e_get_ambient_light
 2774              	.LVL212:
 2775 11fc 0546     		mov	r5, r0
 2776 11fe 0420     		movs	r0, #4
 2777 1200 FFF7FEFF 		bl	e_get_ambient_light
 2778              	.LVL213:
 2779 1204 0646     		mov	r6, r0
 2780 1206 0520     		movs	r0, #5
 2781 1208 FFF7FEFF 		bl	e_get_ambient_light
 2782              	.LVL214:
 2783 120c 0A90     		str	r0, [sp, #40]
 2784 120e 0620     		movs	r0, #6
 2785 1210 FFF7FEFF 		bl	e_get_ambient_light
 2786              	.LVL215:
 2787 1214 0990     		str	r0, [sp, #36]
 2788 1216 0720     		movs	r0, #7
 2789 1218 FFF7FEFF 		bl	e_get_ambient_light
 2790              	.LVL216:
 2791 121c 089B     		ldr	r3, [sp, #32]
 2792 121e 0A99     		ldr	r1, [sp, #40]
 2793 1220 0093     		str	r3, [sp]
ARM GAS  C:\Users\osour\AppData\Local\Temp\ccsBkKuy.s 			page 50


 2794 1222 099B     		ldr	r3, [sp, #36]
 2795 1224 0590     		str	r0, [sp, #20]
 2796 1226 0493     		str	r3, [sp, #16]
 2797 1228 CDE90261 		strd	r6, r1, [sp, #8]
 2798 122c 0195     		str	r5, [sp, #4]
 2799 122e 2346     		mov	r3, r4
 2800 1230 0B9A     		ldr	r2, [sp, #44]
 2801 1232 4449     		ldr	r1, .L720+52
 2802 1234 3B48     		ldr	r0, .L720+20
 2803 1236 FFF7FEFF 		bl	sprintf
 2804              	.LVL217:
 2805              		.loc 1 1063 0
 2806 123a 002F     		cmp	r7, #0
 2807 123c 7EF44EAF 		bne	.L6
 2808 1240 3848     		ldr	r0, .L720+20
 2809 1242 FFF7FEFF 		bl	strlen
 2810              	.LVL218:
 2811              		.loc 1 1065 0
 2812 1246 079B     		ldr	r3, [sp, #28]
 2813 1248 0146     		mov	r1, r0
 2814              		.loc 1 1066 0
 2815 124a 3648     		ldr	r0, .L720+20
 2816              		.loc 1 1065 0
 2817 124c 002B     		cmp	r3, #0
 2818 124e 00F0CD86 		beq	.L334
 2819              		.loc 1 1066 0
 2820 1252 FFF7FEFF 		bl	e_send_uart1_char
 2821              	.LVL219:
 2822              	.L335:
 2823              		.loc 1 1066 0 is_stmt 0 discriminator 2
 2824 1256 FFF7FEFF 		bl	e_uart1_sending
 2825              	.LVL220:
 2826 125a 0028     		cmp	r0, #0
 2827 125c FBD1     		bne	.L335
 2828 125e FEF73EBF 		b	.L650
 2829              	.L196:
 2830              		.loc 1 1114 0 is_stmt 1
 2831 1262 394A     		ldr	r2, .L720+56
 2832 1264 3949     		ldr	r1, .L720+60
 2833 1266 2F48     		ldr	r0, .L720+20
 2834 1268 FFF7FEFF 		bl	sscanf
 2835              	.LVL221:
 2836              		.loc 1 1115 0
 2837 126c 384B     		ldr	r3, .L720+64
 2838 126e 1B78     		ldrb	r3, [r3]	@ zero_extendqisi2
 2839 1270 23B9     		cbnz	r3, .L346
 2840              		.loc 1 1116 0
 2841 1272 FFF7FEFF 		bl	e_init_sound
 2842              	.LVL222:
 2843              		.loc 1 1117 0
 2844 1276 364A     		ldr	r2, .L720+64
 2845 1278 0123     		movs	r3, #1
 2846 127a 1370     		strb	r3, [r2]
 2847              	.L346:
 2848              		.loc 1 1119 0
 2849 127c 324B     		ldr	r3, .L720+56
 2850 127e 1B68     		ldr	r3, [r3]
ARM GAS  C:\Users\osour\AppData\Local\Temp\ccsBkKuy.s 			page 51


 2851 1280 013B     		subs	r3, r3, #1
 2852 1282 042B     		cmp	r3, #4
 2853 1284 00F2F486 		bhi	.L347
 2854 1288 DFE813F0 		tbh	[pc, r3, lsl #1]
 2855              	.L349:
 2856 128c 6803     		.2byte	(.L348-.L349)/2
 2857 128e 6203     		.2byte	(.L350-.L349)/2
 2858 1290 5C03     		.2byte	(.L351-.L349)/2
 2859 1292 5503     		.2byte	(.L352-.L349)/2
 2860 1294 3E03     		.2byte	(.L353-.L349)/2
 2861              		.p2align 1
 2862              	.L189:
 2863              		.loc 1 984 0
 2864 1296 2F4B     		ldr	r3, .L720+68
 2865 1298 2F49     		ldr	r1, .L720+72
 2866 129a 304A     		ldr	r2, .L720+76
 2867 129c 2148     		ldr	r0, .L720+20
 2868 129e FFF7FEFF 		bl	sscanf
 2869              	.LVL223:
 2870              		.loc 1 985 0
 2871 12a2 2C4B     		ldr	r3, .L720+68
 2872 12a4 1968     		ldr	r1, [r3]
 2873 12a6 2D4B     		ldr	r3, .L720+76
 2874 12a8 1868     		ldr	r0, [r3]
 2875 12aa FFF7FEFF 		bl	e_set_led
 2876              	.LVL224:
 2877              		.loc 1 986 0
 2878 12ae 002F     		cmp	r7, #0
 2879 12b0 7EF414AF 		bne	.L6
 2880              		.loc 1 988 0
 2881 12b4 079B     		ldr	r3, [sp, #28]
 2882              		.loc 1 989 0
 2883 12b6 2A48     		ldr	r0, .L720+80
 2884 12b8 0321     		movs	r1, #3
 2885              		.loc 1 988 0
 2886 12ba 002B     		cmp	r3, #0
 2887 12bc 00F07686 		beq	.L319
 2888              		.loc 1 989 0
 2889 12c0 FFF7FEFF 		bl	e_send_uart1_char
 2890              	.LVL225:
 2891              	.L320:
 2892              		.loc 1 989 0 is_stmt 0 discriminator 2
 2893 12c4 FFF7FEFF 		bl	e_uart1_sending
 2894              	.LVL226:
 2895 12c8 0028     		cmp	r0, #0
 2896 12ca FBD1     		bne	.L320
 2897 12cc FEF707BF 		b	.L650
 2898              	.L193:
 2899              		.loc 1 1072 0 is_stmt 1
 2900 12d0 244B     		ldr	r3, .L720+84
 2901 12d2 254A     		ldr	r2, .L720+88
 2902 12d4 2549     		ldr	r1, .L720+92
 2903 12d6 1348     		ldr	r0, .L720+20
 2904 12d8 FFF7FEFF 		bl	sscanf
 2905              	.LVL227:
 2906              		.loc 1 1073 0
 2907 12dc 224B     		ldr	r3, .L720+88
ARM GAS  C:\Users\osour\AppData\Local\Temp\ccsBkKuy.s 			page 52


 2908 12de 1868     		ldr	r0, [r3]
 2909 12e0 FFF7FEFF 		bl	e_set_steps_left
 2910              	.LVL228:
 2911              		.loc 1 1074 0
 2912 12e4 1F4B     		ldr	r3, .L720+84
 2913 12e6 1868     		ldr	r0, [r3]
 2914 12e8 FFF7FEFF 		bl	e_set_steps_right
 2915              	.LVL229:
 2916              		.loc 1 1075 0
 2917 12ec 002F     		cmp	r7, #0
 2918 12ee 7EF4F5AE 		bne	.L6
 2919              		.loc 1 1077 0
 2920 12f2 079B     		ldr	r3, [sp, #28]
 2921              		.loc 1 1078 0
 2922 12f4 1E48     		ldr	r0, .L720+96
 2923 12f6 0321     		movs	r1, #3
 2924              		.loc 1 1077 0
 2925 12f8 002B     		cmp	r3, #0
 2926 12fa 00F06786 		beq	.L337
 2927              		.loc 1 1078 0
 2928 12fe FFF7FEFF 		bl	e_send_uart1_char
 2929              	.LVL230:
 2930              	.L338:
 2931              		.loc 1 1078 0 is_stmt 0 discriminator 2
 2932 1302 FFF7FEFF 		bl	e_uart1_sending
 2933              	.LVL231:
 2934 1306 0028     		cmp	r0, #0
 2935 1308 FBD1     		bne	.L338
 2936 130a FEF7E8BE 		b	.L650
 2937              	.L721:
 2938 130e 00BF     		.align	2
 2939              	.L720:
 2940 1310 00000000 		.word	.LANCHOR29
 2941 1314 00000000 		.word	.LANCHOR28
 2942 1318 00000000 		.word	.LANCHOR2
 2943 131c 00000000 		.word	.LANCHOR1
 2944 1320 D0090000 		.word	.LC71
 2945 1324 00000000 		.word	buffer
 2946 1328 E8090000 		.word	.LC72
 2947 132c 00000000 		.word	.LANCHOR25
 2948 1330 00000000 		.word	.LANCHOR24
 2949 1334 0C0B0000 		.word	.LC91
 2950 1338 180B0000 		.word	.LC92
 2951 133c 00000000 		.word	.LANCHOR26
 2952 1340 240B0000 		.word	.LC93
 2953 1344 6C0A0000 		.word	.LC78
 2954 1348 00000000 		.word	.LANCHOR31
 2955 134c A80A0000 		.word	.LC83
 2956 1350 00000000 		.word	.LANCHOR8
 2957 1354 00000000 		.word	.LANCHOR27
 2958 1358 2C0A0000 		.word	.LC74
 2959 135c 00000000 		.word	.LANCHOR30
 2960 1360 380A0000 		.word	.LC75
 2961 1364 00000000 		.word	.LANCHOR23
 2962 1368 00000000 		.word	.LANCHOR22
 2963 136c 880A0000 		.word	.LC79
 2964 1370 940A0000 		.word	.LC80
ARM GAS  C:\Users\osour\AppData\Local\Temp\ccsBkKuy.s 			page 53


 2965              	.L191:
 2966              		.loc 1 1048 0 is_stmt 1
 2967 1374 0020     		movs	r0, #0
 2968 1376 FFF7FEFF 		bl	e_get_calibrated_prox
 2969              	.LVL232:
 2970 137a 0B90     		str	r0, [sp, #44]
 2971 137c 0120     		movs	r0, #1
 2972 137e FFF7FEFF 		bl	e_get_calibrated_prox
 2973              	.LVL233:
 2974 1382 0446     		mov	r4, r0
 2975 1384 0220     		movs	r0, #2
 2976 1386 FFF7FEFF 		bl	e_get_calibrated_prox
 2977              	.LVL234:
 2978 138a 0890     		str	r0, [sp, #32]
 2979 138c 0320     		movs	r0, #3
 2980 138e FFF7FEFF 		bl	e_get_calibrated_prox
 2981              	.LVL235:
 2982 1392 0546     		mov	r5, r0
 2983 1394 0420     		movs	r0, #4
 2984 1396 FFF7FEFF 		bl	e_get_calibrated_prox
 2985              	.LVL236:
 2986 139a 0646     		mov	r6, r0
 2987 139c 0520     		movs	r0, #5
 2988 139e FFF7FEFF 		bl	e_get_calibrated_prox
 2989              	.LVL237:
 2990 13a2 0A90     		str	r0, [sp, #40]
 2991 13a4 0620     		movs	r0, #6
 2992 13a6 FFF7FEFF 		bl	e_get_calibrated_prox
 2993              	.LVL238:
 2994 13aa 0990     		str	r0, [sp, #36]
 2995 13ac 0720     		movs	r0, #7
 2996 13ae FFF7FEFF 		bl	e_get_calibrated_prox
 2997              	.LVL239:
 2998 13b2 089B     		ldr	r3, [sp, #32]
 2999 13b4 0A99     		ldr	r1, [sp, #40]
 3000 13b6 0093     		str	r3, [sp]
 3001 13b8 099B     		ldr	r3, [sp, #36]
 3002 13ba 0590     		str	r0, [sp, #20]
 3003 13bc 0493     		str	r3, [sp, #16]
 3004 13be CDE90261 		strd	r6, r1, [sp, #8]
 3005 13c2 0195     		str	r5, [sp, #4]
 3006 13c4 2346     		mov	r3, r4
 3007 13c6 0B9A     		ldr	r2, [sp, #44]
 3008 13c8 AC49     		ldr	r1, .L722
 3009 13ca AD48     		ldr	r0, .L722+4
 3010 13cc FFF7FEFF 		bl	sprintf
 3011              	.LVL240:
 3012              		.loc 1 1051 0
 3013 13d0 002F     		cmp	r7, #0
 3014 13d2 7EF483AE 		bne	.L6
 3015 13d6 AA48     		ldr	r0, .L722+4
 3016 13d8 FFF7FEFF 		bl	strlen
 3017              	.LVL241:
 3018              		.loc 1 1053 0
 3019 13dc 079B     		ldr	r3, [sp, #28]
 3020 13de 0146     		mov	r1, r0
 3021              		.loc 1 1054 0
ARM GAS  C:\Users\osour\AppData\Local\Temp\ccsBkKuy.s 			page 54


 3022 13e0 A748     		ldr	r0, .L722+4
 3023              		.loc 1 1053 0
 3024 13e2 002B     		cmp	r3, #0
 3025 13e4 00F03486 		beq	.L331
 3026              		.loc 1 1054 0
 3027 13e8 FFF7FEFF 		bl	e_send_uart1_char
 3028              	.LVL242:
 3029              	.L332:
 3030              		.loc 1 1054 0 is_stmt 0 discriminator 2
 3031 13ec FFF7FEFF 		bl	e_uart1_sending
 3032              	.LVL243:
 3033 13f0 0028     		cmp	r0, #0
 3034 13f2 FBD1     		bne	.L332
 3035 13f4 FEF773BE 		b	.L650
 3036              	.L199:
 3037              		.loc 1 1188 0 is_stmt 1
 3038 13f8 002F     		cmp	r7, #0
 3039 13fa 7EF46FAE 		bne	.L6
 3040              		.loc 1 1189 0
 3041 13fe A14B     		ldr	r3, .L722+8
 3042 1400 A14A     		ldr	r2, .L722+12
 3043 1402 A249     		ldr	r1, .L722+16
 3044 1404 0093     		str	r3, [sp]
 3045 1406 1C46     		mov	r4, r3
 3046 1408 9D48     		ldr	r0, .L722+4
 3047 140a A14B     		ldr	r3, .L722+20
 3048 140c FFF7FEFF 		bl	sscanf
 3049              	.LVL244:
 3050              		.loc 1 1190 0
 3051 1410 FFF7FEFF 		bl	e_i2cp_enable
 3052              	.LVL245:
 3053              		.loc 1 1191 0
 3054 1414 9E4B     		ldr	r3, .L722+20
 3055 1416 2278     		ldrb	r2, [r4]	@ zero_extendqisi2
 3056 1418 1978     		ldrb	r1, [r3]	@ zero_extendqisi2
 3057 141a 9B4B     		ldr	r3, .L722+12
 3058 141c 1878     		ldrb	r0, [r3]	@ zero_extendqisi2
 3059 141e FFF7FEFF 		bl	e_i2cp_write
 3060              	.LVL246:
 3061              		.loc 1 1192 0
 3062 1422 FFF7FEFF 		bl	e_i2cp_disable
 3063              	.LVL247:
 3064              		.loc 1 1193 0
 3065 1426 079B     		ldr	r3, [sp, #28]
 3066              		.loc 1 1194 0
 3067 1428 9A48     		ldr	r0, .L722+24
 3068 142a 0321     		movs	r1, #3
 3069              		.loc 1 1193 0
 3070 142c 002B     		cmp	r3, #0
 3071 142e 00F02786 		beq	.L374
 3072              		.loc 1 1194 0
 3073 1432 FFF7FEFF 		bl	e_send_uart1_char
 3074              	.LVL248:
 3075              	.L375:
 3076              		.loc 1 1194 0 is_stmt 0 discriminator 2
 3077 1436 FFF7FEFF 		bl	e_uart1_sending
 3078              	.LVL249:
ARM GAS  C:\Users\osour\AppData\Local\Temp\ccsBkKuy.s 			page 55


 3079 143a 0028     		cmp	r0, #0
 3080 143c FBD1     		bne	.L375
 3081 143e FEF74EBE 		b	.L650
 3082              	.L197:
 3083              		.loc 1 1161 0 is_stmt 1
 3084 1442 0020     		movs	r0, #0
 3085 1444 FFF7FEFF 		bl	e_get_micro_volume
 3086              	.LVL250:
 3087 1448 0446     		mov	r4, r0
 3088 144a 0120     		movs	r0, #1
 3089 144c FFF7FEFF 		bl	e_get_micro_volume
 3090              	.LVL251:
 3091 1450 0546     		mov	r5, r0
 3092 1452 0220     		movs	r0, #2
 3093 1454 FFF7FEFF 		bl	e_get_micro_volume
 3094              	.LVL252:
 3095 1458 2B46     		mov	r3, r5
 3096 145a 0090     		str	r0, [sp]
 3097 145c 2246     		mov	r2, r4
 3098 145e 8E49     		ldr	r1, .L722+28
 3099 1460 8748     		ldr	r0, .L722+4
 3100 1462 FFF7FEFF 		bl	sprintf
 3101              	.LVL253:
 3102              		.loc 1 1162 0
 3103 1466 002F     		cmp	r7, #0
 3104 1468 7EF438AE 		bne	.L6
 3105 146c 8448     		ldr	r0, .L722+4
 3106 146e FFF7FEFF 		bl	strlen
 3107              	.LVL254:
 3108              		.loc 1 1164 0
 3109 1472 079B     		ldr	r3, [sp, #28]
 3110 1474 0146     		mov	r1, r0
 3111              		.loc 1 1165 0
 3112 1476 8248     		ldr	r0, .L722+4
 3113              		.loc 1 1164 0
 3114 1478 002B     		cmp	r3, #0
 3115 147a 00F0BF85 		beq	.L363
 3116              		.loc 1 1165 0
 3117 147e FFF7FEFF 		bl	e_send_uart1_char
 3118              	.LVL255:
 3119              	.L364:
 3120              		.loc 1 1165 0 is_stmt 0 discriminator 2
 3121 1482 FFF7FEFF 		bl	e_uart1_sending
 3122              	.LVL256:
 3123 1486 0028     		cmp	r0, #0
 3124 1488 FBD1     		bne	.L364
 3125 148a FEF728BE 		b	.L650
 3126              	.L195:
 3127              		.loc 1 1102 0 is_stmt 1
 3128 148e 0020     		movs	r0, #0
 3129 1490 FFF7FEFF 		bl	e_set_speed_left
 3130              	.LVL257:
 3131              		.loc 1 1103 0
 3132 1494 0020     		movs	r0, #0
 3133 1496 FFF7FEFF 		bl	e_set_speed_right
 3134              	.LVL258:
 3135              		.loc 1 1104 0
ARM GAS  C:\Users\osour\AppData\Local\Temp\ccsBkKuy.s 			page 56


 3136 149a 0021     		movs	r1, #0
 3137 149c 0820     		movs	r0, #8
 3138 149e FFF7FEFF 		bl	e_set_led
 3139              	.LVL259:
 3140              		.loc 1 1105 0
 3141 14a2 002F     		cmp	r7, #0
 3142 14a4 7EF41AAE 		bne	.L6
 3143              		.loc 1 1107 0
 3144 14a8 079B     		ldr	r3, [sp, #28]
 3145              		.loc 1 1108 0
 3146 14aa 7C48     		ldr	r0, .L722+32
 3147 14ac 0321     		movs	r1, #3
 3148              		.loc 1 1107 0
 3149 14ae 002B     		cmp	r3, #0
 3150 14b0 00F05C85 		beq	.L343
 3151              		.loc 1 1108 0
 3152 14b4 FFF7FEFF 		bl	e_send_uart1_char
 3153              	.LVL260:
 3154              	.L344:
 3155              		.loc 1 1108 0 is_stmt 0 discriminator 2
 3156 14b8 FFF7FEFF 		bl	e_uart1_sending
 3157              	.LVL261:
 3158 14bc 0028     		cmp	r0, #0
 3159 14be FBD1     		bne	.L344
 3160 14c0 FEF70DBE 		b	.L650
 3161              	.L186:
 3162              		.loc 1 919 0 is_stmt 1
 3163 14c4 002F     		cmp	r7, #0
 3164 14c6 7EF409AE 		bne	.L6
 3165              		.loc 1 920 0
 3166 14ca 0E99     		ldr	r1, [sp, #56]
 3167 14cc 109B     		ldr	r3, [sp, #64]
 3168 14ce 0C68     		ldr	r4, [r1]
 3169 14d0 1399     		ldr	r1, [sp, #76]
 3170 14d2 129A     		ldr	r2, [sp, #72]
 3171 14d4 0868     		ldr	r0, [r1]
 3172 14d6 1199     		ldr	r1, [sp, #68]
 3173 14d8 1B68     		ldr	r3, [r3]
 3174 14da 0968     		ldr	r1, [r1]
 3175 14dc 1268     		ldr	r2, [r2]
 3176 14de 0091     		str	r1, [sp]
 3177 14e0 CDE90104 		strd	r0, r4, [sp, #4]
 3178 14e4 6E49     		ldr	r1, .L722+36
 3179 14e6 6648     		ldr	r0, .L722+4
 3180 14e8 FFF7FEFF 		bl	sprintf
 3181              	.LVL262:
 3182              		.loc 1 921 0
 3183 14ec 079B     		ldr	r3, [sp, #28]
 3184              		.loc 1 922 0
 3185 14ee 6448     		ldr	r0, .L722+4
 3186              		.loc 1 921 0
 3187 14f0 002B     		cmp	r3, #0
 3188 14f2 00F0D585 		beq	.L299
 3189              		.loc 1 922 0
 3190 14f6 FFF7FEFF 		bl	strlen
 3191              	.LVL263:
 3192 14fa 0146     		mov	r1, r0
ARM GAS  C:\Users\osour\AppData\Local\Temp\ccsBkKuy.s 			page 57


 3193 14fc 6048     		ldr	r0, .L722+4
 3194 14fe FFF7FEFF 		bl	e_send_uart1_char
 3195              	.LVL264:
 3196              	.L300:
 3197              		.loc 1 922 0 is_stmt 0 discriminator 2
 3198 1502 FFF7FEFF 		bl	e_uart1_sending
 3199              	.LVL265:
 3200 1506 0028     		cmp	r0, #0
 3201 1508 FBD1     		bne	.L300
 3202 150a FEF7E8BD 		b	.L650
 3203              	.L177:
 3204              		.loc 1 694 0 is_stmt 1
 3205 150e 002F     		cmp	r7, #0
 3206 1510 40F09383 		bne	.L204
 3207              		.loc 1 695 0
 3208 1514 0121     		movs	r1, #1
 3209 1516 3846     		mov	r0, r7
 3210 1518 FFF7FEFF 		bl	e_get_acc_filtered
 3211              	.LVL266:
 3212 151c 0121     		movs	r1, #1
 3213 151e 0446     		mov	r4, r0
 3214 1520 0846     		mov	r0, r1
 3215 1522 FFF7FEFF 		bl	e_get_acc_filtered
 3216              	.LVL267:
 3217 1526 0121     		movs	r1, #1
 3218 1528 0546     		mov	r5, r0
 3219 152a 0220     		movs	r0, #2
 3220 152c FFF7FEFF 		bl	e_get_acc_filtered
 3221              	.LVL268:
 3222 1530 2B46     		mov	r3, r5
 3223 1532 0090     		str	r0, [sp]
 3224 1534 2246     		mov	r2, r4
 3225 1536 5B49     		ldr	r1, .L722+40
 3226 1538 5148     		ldr	r0, .L722+4
 3227 153a FFF7FEFF 		bl	sprintf
 3228              	.LVL269:
 3229              		.loc 1 701 0
 3230 153e 079B     		ldr	r3, [sp, #28]
 3231 1540 002B     		cmp	r3, #0
 3232 1542 00F06B85 		beq	.L706
 3233              		.loc 1 702 0
 3234 1546 4E48     		ldr	r0, .L722+4
 3235 1548 FFF7FEFF 		bl	strlen
 3236              	.LVL270:
 3237 154c 0146     		mov	r1, r0
 3238 154e 4C48     		ldr	r0, .L722+4
 3239 1550 FFF7FEFF 		bl	e_send_uart1_char
 3240              	.LVL271:
 3241              	.L207:
 3242              		.loc 1 702 0 is_stmt 0 discriminator 2
 3243 1554 FFF7FEFF 		bl	e_uart1_sending
 3244              	.LVL272:
 3245 1558 0028     		cmp	r0, #0
 3246 155a FBD1     		bne	.L207
 3247 155c FEF7BFBD 		b	.L650
 3248              	.L182:
 3249              		.loc 1 752 0 is_stmt 1
ARM GAS  C:\Users\osour\AppData\Local\Temp\ccsBkKuy.s 			page 58


 3250 1560 514B     		ldr	r3, .L722+44
 3251 1562 524A     		ldr	r2, .L722+48
 3252 1564 1B68     		ldr	r3, [r3]
 3253 1566 1268     		ldr	r2, [r2]
 3254 1568 5149     		ldr	r1, .L722+52
 3255 156a 4548     		ldr	r0, .L722+4
 3256 156c FFF7FEFF 		bl	sprintf
 3257              	.LVL273:
 3258              		.loc 1 753 0
 3259 1570 002F     		cmp	r7, #0
 3260 1572 7EF4B3AD 		bne	.L6
 3261 1576 4248     		ldr	r0, .L722+4
 3262 1578 FFF7FEFF 		bl	strlen
 3263              	.LVL274:
 3264              		.loc 1 755 0
 3265 157c 079B     		ldr	r3, [sp, #28]
 3266 157e 0146     		mov	r1, r0
 3267              		.loc 1 756 0
 3268 1580 3F48     		ldr	r0, .L722+4
 3269              		.loc 1 755 0
 3270 1582 002B     		cmp	r3, #0
 3271 1584 00F0E284 		beq	.L221
 3272              		.loc 1 756 0
 3273 1588 FFF7FEFF 		bl	e_send_uart1_char
 3274              	.LVL275:
 3275              	.L222:
 3276              		.loc 1 756 0 is_stmt 0 discriminator 2
 3277 158c FFF7FEFF 		bl	e_uart1_sending
 3278              	.LVL276:
 3279 1590 0028     		cmp	r0, #0
 3280 1592 FBD1     		bne	.L222
 3281 1594 FEF7A3BD 		b	.L650
 3282              	.L181:
 3283              		.loc 1 740 0 is_stmt 1
 3284 1598 434B     		ldr	r3, .L722+44
 3285 159a 444A     		ldr	r2, .L722+48
 3286 159c 4549     		ldr	r1, .L722+56
 3287 159e 3848     		ldr	r0, .L722+4
 3288 15a0 FFF7FEFF 		bl	sscanf
 3289              	.LVL277:
 3290              		.loc 1 741 0
 3291 15a4 414B     		ldr	r3, .L722+48
 3292 15a6 1868     		ldr	r0, [r3]
 3293 15a8 FFF7FEFF 		bl	e_set_speed_left
 3294              	.LVL278:
 3295              		.loc 1 742 0
 3296 15ac 3E4B     		ldr	r3, .L722+44
 3297 15ae 1868     		ldr	r0, [r3]
 3298 15b0 FFF7FEFF 		bl	e_set_speed_right
 3299              	.LVL279:
 3300              		.loc 1 743 0
 3301 15b4 002F     		cmp	r7, #0
 3302 15b6 7EF491AD 		bne	.L6
 3303              		.loc 1 745 0
 3304 15ba 079B     		ldr	r3, [sp, #28]
 3305              		.loc 1 746 0
 3306 15bc 3E48     		ldr	r0, .L722+60
ARM GAS  C:\Users\osour\AppData\Local\Temp\ccsBkKuy.s 			page 59


 3307 15be 0321     		movs	r1, #3
 3308              		.loc 1 745 0
 3309 15c0 002B     		cmp	r3, #0
 3310 15c2 00F0E384 		beq	.L218
 3311              		.loc 1 746 0
 3312 15c6 FFF7FEFF 		bl	e_send_uart1_char
 3313              	.LVL280:
 3314              	.L219:
 3315              		.loc 1 746 0 is_stmt 0 discriminator 2
 3316 15ca FFF7FEFF 		bl	e_uart1_sending
 3317              	.LVL281:
 3318 15ce 0028     		cmp	r0, #0
 3319 15d0 FBD1     		bne	.L219
 3320 15d2 FEF784BD 		b	.L650
 3321              	.L184:
 3322              		.loc 1 774 0 is_stmt 1
 3323 15d6 FFF7FEFF 		bl	e_get_check
 3324              	.LVL282:
 3325 15da 0446     		mov	r4, r0
 3326 15dc FFF7FEFF 		bl	e_get_address
 3327              	.LVL283:
 3328 15e0 0546     		mov	r5, r0
 3329 15e2 FFF7FEFF 		bl	e_get_data
 3330              	.LVL284:
 3331 15e6 2B46     		mov	r3, r5
 3332 15e8 0090     		str	r0, [sp]
 3333 15ea 2246     		mov	r2, r4
 3334 15ec 3349     		ldr	r1, .L722+64
 3335 15ee 2448     		ldr	r0, .L722+4
 3336 15f0 FFF7FEFF 		bl	sprintf
 3337              	.LVL285:
 3338              		.loc 1 775 0
 3339 15f4 002F     		cmp	r7, #0
 3340 15f6 7EF471AD 		bne	.L6
 3341 15fa 2148     		ldr	r0, .L722+4
 3342 15fc FFF7FEFF 		bl	strlen
 3343              	.LVL286:
 3344              		.loc 1 777 0
 3345 1600 079B     		ldr	r3, [sp, #28]
 3346 1602 0146     		mov	r1, r0
 3347              		.loc 1 778 0
 3348 1604 1E48     		ldr	r0, .L722+4
 3349              		.loc 1 777 0
 3350 1606 002B     		cmp	r3, #0
 3351 1608 00F0A884 		beq	.L227
 3352              		.loc 1 778 0
 3353 160c FFF7FEFF 		bl	e_send_uart1_char
 3354              	.LVL287:
 3355              	.L228:
 3356              		.loc 1 778 0 is_stmt 0 discriminator 2
 3357 1610 FFF7FEFF 		bl	e_uart1_sending
 3358              	.LVL288:
 3359 1614 0028     		cmp	r0, #0
 3360 1616 FBD1     		bne	.L228
 3361 1618 FEF761BD 		b	.L650
 3362              	.L180:
 3363              		.loc 1 729 0 is_stmt 1
ARM GAS  C:\Users\osour\AppData\Local\Temp\ccsBkKuy.s 			page 60


 3364 161c 284A     		ldr	r2, .L722+68
 3365 161e 2949     		ldr	r1, .L722+72
 3366 1620 1369     		ldr	r3, [r2, #16]
 3367 1622 1069     		ldr	r0, [r2, #16]
 3368 1624 0C69     		ldr	r4, [r1, #16]
 3369 1626 1269     		ldr	r2, [r2, #16]
 3370              		.loc 1 730 0
 3371 1628 2749     		ldr	r1, .L722+76
 3372              		.loc 1 729 0
 3373 162a C4F30014 		ubfx	r4, r4, #4, #1
 3374 162e C0F3C030 		ubfx	r0, r0, #15, #1
 3375 1632 00EB4400 		add	r0, r0, r4, lsl #1
 3376 1636 C2F38032 		ubfx	r2, r2, #14, #1
 3377 163a 02EB4002 		add	r2, r2, r0, lsl #1
 3378 163e C3F34033 		ubfx	r3, r3, #13, #1
 3379 1642 03EB4203 		add	r3, r3, r2, lsl #1
 3380 1646 214C     		ldr	r4, .L722+80
 3381              		.loc 1 730 0
 3382 1648 0D48     		ldr	r0, .L722+4
 3383              		.loc 1 729 0
 3384 164a 2360     		str	r3, [r4]
 3385              		.loc 1 730 0
 3386 164c 1A46     		mov	r2, r3
 3387 164e FFF7FEFF 		bl	sprintf
 3388              	.LVL289:
 3389              		.loc 1 731 0
 3390 1652 002F     		cmp	r7, #0
 3391 1654 7EF442AD 		bne	.L6
 3392 1658 0948     		ldr	r0, .L722+4
 3393 165a FFF7FEFF 		bl	strlen
 3394              	.LVL290:
 3395              		.loc 1 733 0
 3396 165e 079B     		ldr	r3, [sp, #28]
 3397 1660 0146     		mov	r1, r0
 3398              		.loc 1 734 0
 3399 1662 0748     		ldr	r0, .L722+4
 3400              		.loc 1 733 0
 3401 1664 002B     		cmp	r3, #0
 3402 1666 00F08984 		beq	.L215
 3403              		.loc 1 734 0
 3404 166a FFF7FEFF 		bl	e_send_uart1_char
 3405              	.LVL291:
 3406              	.L216:
 3407              		.loc 1 734 0 is_stmt 0 discriminator 2
 3408 166e FFF7FEFF 		bl	e_uart1_sending
 3409              	.LVL292:
 3410 1672 0028     		cmp	r0, #0
 3411 1674 FBD1     		bne	.L216
 3412 1676 FEF732BD 		b	.L650
 3413              	.L723:
 3414 167a 00BF     		.align	2
 3415              	.L722:
 3416 167c 500A0000 		.word	.LC77
 3417 1680 00000000 		.word	buffer
 3418 1684 00000000 		.word	.LANCHOR26
 3419 1688 00000000 		.word	.LANCHOR24
 3420 168c FC0A0000 		.word	.LC89
ARM GAS  C:\Users\osour\AppData\Local\Temp\ccsBkKuy.s 			page 61


 3421 1690 00000000 		.word	.LANCHOR25
 3422 1694 080B0000 		.word	.LC90
 3423 1698 C40A0000 		.word	.LC87
 3424 169c A40A0000 		.word	.LC82
 3425 16a0 BC090000 		.word	.LC70
 3426 16a4 5C000000 		.word	.LC1
 3427 16a8 00000000 		.word	.LANCHOR6
 3428 16ac 00000000 		.word	.LANCHOR7
 3429 16b0 AC000000 		.word	.LC9
 3430 16b4 9C000000 		.word	.LC7
 3431 16b8 A8000000 		.word	.LC8
 3432 16bc C4000000 		.word	.LC12
 3433 16c0 00080240 		.word	1073874944
 3434 16c4 000C0240 		.word	1073875968
 3435 16c8 94000000 		.word	.LC6
 3436 16cc 00000000 		.word	selector
 3437              	.L185:
 3438              		.loc 1 800 0 is_stmt 1
 3439 16d0 002F     		cmp	r7, #0
 3440 16d2 7EF403AD 		bne	.L6
 3441              		.loc 1 838 0
 3442 16d6 079B     		ldr	r3, [sp, #28]
 3443              		.loc 1 839 0
 3444 16d8 BC48     		ldr	r0, .L724
 3445 16da 0121     		movs	r1, #1
 3446              		.loc 1 838 0
 3447 16dc 002B     		cmp	r3, #0
 3448 16de 00F05B83 		beq	.L235
 3449              		.loc 1 839 0
 3450 16e2 FFF7FEFF 		bl	e_send_uart1_char
 3451              	.LVL293:
 3452              	.L236:
 3453              		.loc 1 839 0 is_stmt 0 discriminator 2
 3454 16e6 FFF7FEFF 		bl	e_uart1_sending
 3455              	.LVL294:
 3456 16ea 0028     		cmp	r0, #0
 3457 16ec FBD1     		bne	.L236
 3458              		.loc 1 840 0 is_stmt 1
 3459 16ee 2121     		movs	r1, #33
 3460 16f0 B748     		ldr	r0, .L724+4
 3461 16f2 FFF7FEFF 		bl	e_send_uart1_char
 3462              	.LVL295:
 3463              	.L237:
 3464              		.loc 1 840 0 is_stmt 0 discriminator 2
 3465 16f6 FFF7FEFF 		bl	e_uart1_sending
 3466              	.LVL296:
 3467 16fa 0028     		cmp	r0, #0
 3468 16fc FBD1     		bne	.L237
 3469              		.loc 1 841 0 is_stmt 1
 3470 16fe 3121     		movs	r1, #49
 3471 1700 B448     		ldr	r0, .L724+8
 3472 1702 FFF7FEFF 		bl	e_send_uart1_char
 3473              	.LVL297:
 3474              	.L238:
 3475              		.loc 1 841 0 is_stmt 0 discriminator 2
 3476 1706 FFF7FEFF 		bl	e_uart1_sending
 3477              	.LVL298:
ARM GAS  C:\Users\osour\AppData\Local\Temp\ccsBkKuy.s 			page 62


 3478 170a 0028     		cmp	r0, #0
 3479 170c FBD1     		bne	.L238
 3480              		.loc 1 842 0 is_stmt 1
 3481 170e FFF7FEFF 		bl	isEpuckVersion1_3
 3482              	.LVL299:
 3483 1712 0028     		cmp	r0, #0
 3484 1714 00F01885 		beq	.L239
 3485              		.loc 1 843 0
 3486 1718 2121     		movs	r1, #33
 3487 171a AF48     		ldr	r0, .L724+12
 3488 171c FFF7FEFF 		bl	e_send_uart1_char
 3489              	.LVL300:
 3490              	.L240:
 3491              		.loc 1 843 0 is_stmt 0 discriminator 2
 3492 1720 FFF7FEFF 		bl	e_uart1_sending
 3493              	.LVL301:
 3494 1724 0028     		cmp	r0, #0
 3495 1726 FBD1     		bne	.L240
 3496              	.L241:
 3497              		.loc 1 847 0 is_stmt 1
 3498 1728 2521     		movs	r1, #37
 3499 172a AC48     		ldr	r0, .L724+16
 3500 172c FFF7FEFF 		bl	e_send_uart1_char
 3501              	.LVL302:
 3502              	.L243:
 3503              		.loc 1 847 0 is_stmt 0 discriminator 2
 3504 1730 FFF7FEFF 		bl	e_uart1_sending
 3505              	.LVL303:
 3506 1734 0028     		cmp	r0, #0
 3507 1736 FBD1     		bne	.L243
 3508              		.loc 1 848 0 is_stmt 1
 3509 1738 2E21     		movs	r1, #46
 3510 173a A948     		ldr	r0, .L724+20
 3511 173c FFF7FEFF 		bl	e_send_uart1_char
 3512              	.LVL304:
 3513              	.L244:
 3514              		.loc 1 848 0 is_stmt 0 discriminator 2
 3515 1740 FFF7FEFF 		bl	e_uart1_sending
 3516              	.LVL305:
 3517 1744 0028     		cmp	r0, #0
 3518 1746 FBD1     		bne	.L244
 3519              		.loc 1 849 0 is_stmt 1
 3520 1748 2E21     		movs	r1, #46
 3521 174a A648     		ldr	r0, .L724+24
 3522 174c FFF7FEFF 		bl	e_send_uart1_char
 3523              	.LVL306:
 3524              	.L245:
 3525              		.loc 1 849 0 is_stmt 0 discriminator 2
 3526 1750 FFF7FEFF 		bl	e_uart1_sending
 3527              	.LVL307:
 3528 1754 0028     		cmp	r0, #0
 3529 1756 FBD1     		bne	.L245
 3530              		.loc 1 850 0 is_stmt 1
 3531 1758 3221     		movs	r1, #50
 3532 175a A348     		ldr	r0, .L724+28
 3533 175c FFF7FEFF 		bl	e_send_uart1_char
 3534              	.LVL308:
ARM GAS  C:\Users\osour\AppData\Local\Temp\ccsBkKuy.s 			page 63


 3535              	.L246:
 3536              		.loc 1 850 0 is_stmt 0 discriminator 2
 3537 1760 FFF7FEFF 		bl	e_uart1_sending
 3538              	.LVL309:
 3539 1764 0028     		cmp	r0, #0
 3540 1766 FBD1     		bne	.L246
 3541              		.loc 1 852 0 is_stmt 1
 3542 1768 1F21     		movs	r1, #31
 3543 176a A048     		ldr	r0, .L724+32
 3544 176c FFF7FEFF 		bl	e_send_uart1_char
 3545              	.LVL310:
 3546              	.L247:
 3547              		.loc 1 852 0 is_stmt 0 discriminator 2
 3548 1770 FFF7FEFF 		bl	e_uart1_sending
 3549              	.LVL311:
 3550 1774 0028     		cmp	r0, #0
 3551 1776 FBD1     		bne	.L247
 3552              		.loc 1 854 0 is_stmt 1
 3553 1778 FFF7FEFF 		bl	isEpuckVersion1_3
 3554              	.LVL312:
 3555 177c 0028     		cmp	r0, #0
 3556 177e 40F00D85 		bne	.L707
 3557              	.L248:
 3558              		.loc 1 857 0
 3559 1782 1821     		movs	r1, #24
 3560 1784 9A48     		ldr	r0, .L724+36
 3561 1786 FFF7FEFF 		bl	e_send_uart1_char
 3562              	.LVL313:
 3563              	.L250:
 3564              		.loc 1 857 0 is_stmt 0 discriminator 2
 3565 178a FFF7FEFF 		bl	e_uart1_sending
 3566              	.LVL314:
 3567 178e 0028     		cmp	r0, #0
 3568 1790 FBD1     		bne	.L250
 3569              		.loc 1 858 0 is_stmt 1
 3570 1792 2821     		movs	r1, #40
 3571 1794 9748     		ldr	r0, .L724+40
 3572 1796 FFF7FEFF 		bl	e_send_uart1_char
 3573              	.LVL315:
 3574              	.L251:
 3575              		.loc 1 858 0 is_stmt 0 discriminator 2
 3576 179a FFF7FEFF 		bl	e_uart1_sending
 3577              	.LVL316:
 3578 179e 0028     		cmp	r0, #0
 3579 17a0 FBD1     		bne	.L251
 3580              		.loc 1 859 0 is_stmt 1
 3581 17a2 4F21     		movs	r1, #79
 3582 17a4 9448     		ldr	r0, .L724+44
 3583 17a6 FFF7FEFF 		bl	e_send_uart1_char
 3584              	.LVL317:
 3585              	.L252:
 3586              		.loc 1 859 0 is_stmt 0 discriminator 2
 3587 17aa FFF7FEFF 		bl	e_uart1_sending
 3588              	.LVL318:
 3589 17ae 0028     		cmp	r0, #0
 3590 17b0 FBD1     		bne	.L252
 3591              		.loc 1 860 0 is_stmt 1
ARM GAS  C:\Users\osour\AppData\Local\Temp\ccsBkKuy.s 			page 64


 3592 17b2 2F21     		movs	r1, #47
 3593 17b4 9148     		ldr	r0, .L724+48
 3594 17b6 FFF7FEFF 		bl	e_send_uart1_char
 3595              	.LVL319:
 3596              	.L253:
 3597              		.loc 1 860 0 is_stmt 0 discriminator 2
 3598 17ba FFF7FEFF 		bl	e_uart1_sending
 3599              	.LVL320:
 3600 17be 0028     		cmp	r0, #0
 3601 17c0 FBD1     		bne	.L253
 3602              		.loc 1 861 0 is_stmt 1
 3603 17c2 3321     		movs	r1, #51
 3604 17c4 8E48     		ldr	r0, .L724+52
 3605 17c6 FFF7FEFF 		bl	e_send_uart1_char
 3606              	.LVL321:
 3607              	.L254:
 3608              		.loc 1 861 0 is_stmt 0 discriminator 2
 3609 17ca FFF7FEFF 		bl	e_uart1_sending
 3610              	.LVL322:
 3611 17ce 0028     		cmp	r0, #0
 3612 17d0 FBD1     		bne	.L254
 3613              		.loc 1 863 0 is_stmt 1
 3614 17d2 2121     		movs	r1, #33
 3615 17d4 8B48     		ldr	r0, .L724+56
 3616 17d6 FFF7FEFF 		bl	e_send_uart1_char
 3617              	.LVL323:
 3618              	.L255:
 3619              		.loc 1 863 0 is_stmt 0 discriminator 2
 3620 17da FFF7FEFF 		bl	e_uart1_sending
 3621              	.LVL324:
 3622 17de 0028     		cmp	r0, #0
 3623 17e0 FBD1     		bne	.L255
 3624              		.loc 1 865 0 is_stmt 1
 3625 17e2 1D21     		movs	r1, #29
 3626 17e4 8848     		ldr	r0, .L724+60
 3627 17e6 FFF7FEFF 		bl	e_send_uart1_char
 3628              	.LVL325:
 3629              	.L256:
 3630              		.loc 1 865 0 is_stmt 0 discriminator 2
 3631 17ea FFF7FEFF 		bl	e_uart1_sending
 3632              	.LVL326:
 3633 17ee 0028     		cmp	r0, #0
 3634 17f0 FBD1     		bne	.L256
 3635              		.loc 1 866 0 is_stmt 1
 3636 17f2 2121     		movs	r1, #33
 3637 17f4 8548     		ldr	r0, .L724+64
 3638 17f6 FFF7FEFF 		bl	e_send_uart1_char
 3639              	.LVL327:
 3640              	.L257:
 3641              		.loc 1 866 0 is_stmt 0 discriminator 2
 3642 17fa FFF7FEFF 		bl	e_uart1_sending
 3643              	.LVL328:
 3644 17fe 0028     		cmp	r0, #0
 3645 1800 FBD1     		bne	.L257
 3646              		.loc 1 867 0 is_stmt 1
 3647 1802 3121     		movs	r1, #49
 3648 1804 8248     		ldr	r0, .L724+68
ARM GAS  C:\Users\osour\AppData\Local\Temp\ccsBkKuy.s 			page 65


 3649 1806 FFF7FEFF 		bl	e_send_uart1_char
 3650              	.LVL329:
 3651              	.L258:
 3652              		.loc 1 867 0 is_stmt 0 discriminator 2
 3653 180a FFF7FEFF 		bl	e_uart1_sending
 3654              	.LVL330:
 3655 180e 0028     		cmp	r0, #0
 3656 1810 FBD1     		bne	.L258
 3657              		.loc 1 868 0 is_stmt 1
 3658 1812 3121     		movs	r1, #49
 3659 1814 7F48     		ldr	r0, .L724+72
 3660 1816 FFF7FEFF 		bl	e_send_uart1_char
 3661              	.LVL331:
 3662              	.L259:
 3663              		.loc 1 868 0 is_stmt 0 discriminator 2
 3664 181a FFF7FEFF 		bl	e_uart1_sending
 3665              	.LVL332:
 3666 181e 0028     		cmp	r0, #0
 3667 1820 FBD1     		bne	.L259
 3668              		.loc 1 869 0 is_stmt 1
 3669 1822 2021     		movs	r1, #32
 3670 1824 7C48     		ldr	r0, .L724+76
 3671 1826 FFF7FEFF 		bl	e_send_uart1_char
 3672              	.LVL333:
 3673              	.L260:
 3674              		.loc 1 869 0 is_stmt 0 discriminator 2
 3675 182a FFF7FEFF 		bl	e_uart1_sending
 3676              	.LVL334:
 3677 182e 0028     		cmp	r0, #0
 3678 1830 FBD1     		bne	.L260
 3679              		.loc 1 870 0 is_stmt 1
 3680 1832 3121     		movs	r1, #49
 3681 1834 7948     		ldr	r0, .L724+80
 3682 1836 FFF7FEFF 		bl	e_send_uart1_char
 3683              	.LVL335:
 3684              	.L261:
 3685              		.loc 1 870 0 is_stmt 0 discriminator 2
 3686 183a FFF7FEFF 		bl	e_uart1_sending
 3687              	.LVL336:
 3688 183e 0028     		cmp	r0, #0
 3689 1840 FBD1     		bne	.L261
 3690              		.loc 1 871 0 is_stmt 1
 3691 1842 3221     		movs	r1, #50
 3692 1844 7648     		ldr	r0, .L724+84
 3693 1846 FFF7FEFF 		bl	e_send_uart1_char
 3694              	.LVL337:
 3695              	.L262:
 3696              		.loc 1 871 0 is_stmt 0 discriminator 2
 3697 184a FFF7FEFF 		bl	e_uart1_sending
 3698              	.LVL338:
 3699 184e 0028     		cmp	r0, #0
 3700 1850 FBD1     		bne	.L262
 3701              		.loc 1 872 0 is_stmt 1
 3702 1852 FFF7FEFF 		bl	isEpuckVersion1_3
 3703              	.LVL339:
 3704 1856 0028     		cmp	r0, #0
 3705 1858 40F0B384 		bne	.L708
ARM GAS  C:\Users\osour\AppData\Local\Temp\ccsBkKuy.s 			page 66


 3706              	.L263:
 3707              		.loc 1 875 0
 3708 185c 2C21     		movs	r1, #44
 3709 185e 7148     		ldr	r0, .L724+88
 3710 1860 FFF7FEFF 		bl	e_send_uart1_char
 3711              	.LVL340:
 3712              	.L265:
 3713              		.loc 1 875 0 is_stmt 0 discriminator 2
 3714 1864 FFF7FEFF 		bl	e_uart1_sending
 3715              	.LVL341:
 3716 1868 0028     		cmp	r0, #0
 3717 186a FBD1     		bne	.L265
 3718              		.loc 1 876 0 is_stmt 1
 3719 186c 2521     		movs	r1, #37
 3720 186e 6E48     		ldr	r0, .L724+92
 3721 1870 FFF7FEFF 		bl	e_send_uart1_char
 3722              	.LVL342:
 3723              	.L266:
 3724              		.loc 1 876 0 is_stmt 0 discriminator 2
 3725 1874 FFF7FEFF 		bl	e_uart1_sending
 3726              	.LVL343:
 3727 1878 0028     		cmp	r0, #0
 3728 187a FBD1     		bne	.L266
 3729              		.loc 1 877 0 is_stmt 1
 3730 187c 2B21     		movs	r1, #43
 3731 187e 6B48     		ldr	r0, .L724+96
 3732 1880 FFF7FEFF 		bl	e_send_uart1_char
 3733              	.LVL344:
 3734              	.L267:
 3735              		.loc 1 877 0 is_stmt 0 discriminator 2
 3736 1884 FFF7FEFF 		bl	e_uart1_sending
 3737              	.LVL345:
 3738 1888 0028     		cmp	r0, #0
 3739 188a FBD1     		bne	.L267
 3740              		.loc 1 878 0 is_stmt 1
 3741 188c 2A21     		movs	r1, #42
 3742 188e 6848     		ldr	r0, .L724+100
 3743 1890 FFF7FEFF 		bl	e_send_uart1_char
 3744              	.LVL346:
 3745              	.L268:
 3746              		.loc 1 878 0 is_stmt 0 discriminator 2
 3747 1894 FFF7FEFF 		bl	e_uart1_sending
 3748              	.LVL347:
 3749 1898 0028     		cmp	r0, #0
 3750 189a FBD1     		bne	.L268
 3751 189c FEF71FBC 		b	.L650
 3752              	.L179:
 3753              		.loc 1 718 0 is_stmt 1
 3754 18a0 644A     		ldr	r2, .L724+104
 3755 18a2 6549     		ldr	r1, .L724+108
 3756 18a4 6548     		ldr	r0, .L724+112
 3757 18a6 FFF7FEFF 		bl	sscanf
 3758              	.LVL348:
 3759              		.loc 1 719 0
 3760 18aa 624B     		ldr	r3, .L724+104
 3761 18ac 1868     		ldr	r0, [r3]
 3762 18ae FFF7FEFF 		bl	e_set_body_led
ARM GAS  C:\Users\osour\AppData\Local\Temp\ccsBkKuy.s 			page 67


 3763              	.LVL349:
 3764              		.loc 1 720 0
 3765 18b2 002F     		cmp	r7, #0
 3766 18b4 7EF412AC 		bne	.L6
 3767              		.loc 1 722 0
 3768 18b8 079B     		ldr	r3, [sp, #28]
 3769              		.loc 1 723 0
 3770 18ba 6148     		ldr	r0, .L724+116
 3771 18bc 0321     		movs	r1, #3
 3772              		.loc 1 722 0
 3773 18be 002B     		cmp	r3, #0
 3774 18c0 00F06C83 		beq	.L212
 3775              		.loc 1 723 0
 3776 18c4 FFF7FEFF 		bl	e_send_uart1_char
 3777              	.LVL350:
 3778              	.L213:
 3779              		.loc 1 723 0 is_stmt 0 discriminator 2
 3780 18c8 FFF7FEFF 		bl	e_uart1_sending
 3781              	.LVL351:
 3782 18cc 0028     		cmp	r0, #0
 3783 18ce FBD1     		bne	.L213
 3784 18d0 FEF705BC 		b	.L650
 3785              	.L183:
 3786              		.loc 1 762 0 is_stmt 1
 3787 18d4 574A     		ldr	r2, .L724+104
 3788 18d6 5B49     		ldr	r1, .L724+120
 3789 18d8 5848     		ldr	r0, .L724+112
 3790 18da FFF7FEFF 		bl	sscanf
 3791              	.LVL352:
 3792              		.loc 1 763 0
 3793 18de 554B     		ldr	r3, .L724+104
 3794 18e0 1868     		ldr	r0, [r3]
 3795 18e2 FFF7FEFF 		bl	e_set_front_led
 3796              	.LVL353:
 3797              		.loc 1 764 0
 3798 18e6 002F     		cmp	r7, #0
 3799 18e8 7EF4F8AB 		bne	.L6
 3800              		.loc 1 766 0
 3801 18ec 079B     		ldr	r3, [sp, #28]
 3802              		.loc 1 767 0
 3803 18ee 5648     		ldr	r0, .L724+124
 3804 18f0 0321     		movs	r1, #3
 3805              		.loc 1 766 0
 3806 18f2 002B     		cmp	r3, #0
 3807 18f4 00F06283 		beq	.L224
 3808              		.loc 1 767 0
 3809 18f8 FFF7FEFF 		bl	e_send_uart1_char
 3810              	.LVL354:
 3811              	.L225:
 3812              		.loc 1 767 0 is_stmt 0 discriminator 2
 3813 18fc FFF7FEFF 		bl	e_uart1_sending
 3814              	.LVL355:
 3815 1900 0028     		cmp	r0, #0
 3816 1902 FBD1     		bne	.L225
 3817 1904 FEF7EBBB 		b	.L650
 3818              	.L353:
 3819              		.loc 1 1128 0 is_stmt 1
ARM GAS  C:\Users\osour\AppData\Local\Temp\ccsBkKuy.s 			page 68


 3820 1908 41F65071 		movw	r1, #8016
 3821 190c 42F61430 		movw	r0, #11028
 3822 1910 FFF7FEFF 		bl	e_play_sound
 3823              	.LVL356:
 3824              	.L354:
 3825              		.loc 1 1136 0
 3826 1914 002F     		cmp	r7, #0
 3827 1916 7EF4E1AB 		bne	.L6
 3828              		.loc 1 1138 0
 3829 191a 079B     		ldr	r3, [sp, #28]
 3830              		.loc 1 1139 0
 3831 191c 4B48     		ldr	r0, .L724+128
 3832 191e 0321     		movs	r1, #3
 3833              		.loc 1 1138 0
 3834 1920 002B     		cmp	r3, #0
 3835 1922 00F00B83 		beq	.L355
 3836              		.loc 1 1139 0
 3837 1926 FFF7FEFF 		bl	e_send_uart1_char
 3838              	.LVL357:
 3839              	.L356:
 3840              		.loc 1 1139 0 is_stmt 0 discriminator 2
 3841 192a FFF7FEFF 		bl	e_uart1_sending
 3842              	.LVL358:
 3843 192e 0028     		cmp	r0, #0
 3844 1930 FBD1     		bne	.L356
 3845 1932 FEF7D4BB 		b	.L650
 3846              	.L352:
 3847              		.loc 1 1126 0 is_stmt 1
 3848 1936 40F69461 		movw	r1, #3732
 3849 193a 41F67E40 		movw	r0, #7294
 3850 193e FFF7FEFF 		bl	e_play_sound
 3851              	.LVL359:
 3852              		.loc 1 1127 0
 3853 1942 E7E7     		b	.L354
 3854              	.L351:
 3855              		.loc 1 1124 0
 3856 1944 0022     		movs	r2, #0
 3857 1946 0221     		movs	r1, #2
 3858 1948 0B20     		movs	r0, #11
 3859 194a FFF7FEFF 		bl	playMelody
 3860              	.LVL360:
 3861              		.loc 1 1125 0
 3862 194e E1E7     		b	.L354
 3863              	.L350:
 3864              		.loc 1 1122 0
 3865 1950 0022     		movs	r2, #0
 3866 1952 0221     		movs	r1, #2
 3867 1954 0420     		movs	r0, #4
 3868 1956 FFF7FEFF 		bl	playMelody
 3869              	.LVL361:
 3870              		.loc 1 1123 0
 3871 195a DBE7     		b	.L354
 3872              	.L348:
 3873              		.loc 1 1120 0
 3874 195c 0022     		movs	r2, #0
 3875 195e 0221     		movs	r1, #2
 3876 1960 0320     		movs	r0, #3
ARM GAS  C:\Users\osour\AppData\Local\Temp\ccsBkKuy.s 			page 69


 3877 1962 FFF7FEFF 		bl	playMelody
 3878              	.LVL362:
 3879              		.loc 1 1121 0
 3880 1966 D5E7     		b	.L354
 3881              	.L176:
 3882              		.loc 1 1239 0
 3883 1968 002F     		cmp	r7, #0
 3884 196a 7EF4B7AB 		bne	.L6
 3885              		.loc 1 1241 0
 3886 196e 079B     		ldr	r3, [sp, #28]
 3887              		.loc 1 1242 0
 3888 1970 3748     		ldr	r0, .L724+132
 3889 1972 1521     		movs	r1, #21
 3890              		.loc 1 1241 0
 3891 1974 002B     		cmp	r3, #0
 3892 1976 00F03183 		beq	.L390
 3893              		.loc 1 1242 0
 3894 197a FFF7FEFF 		bl	e_send_uart1_char
 3895              	.LVL363:
 3896              	.L391:
 3897              		.loc 1 1242 0 is_stmt 0 discriminator 2
 3898 197e FFF7FEFF 		bl	e_uart1_sending
 3899              	.LVL364:
 3900 1982 0028     		cmp	r0, #0
 3901 1984 FBD1     		bne	.L391
 3902 1986 FEF7AABB 		b	.L650
 3903              	.L156:
 3904              	.LBE4:
 3905              		.loc 1 689 0 is_stmt 1
 3906 198a 1C46     		mov	r4, r3
 3907              		.loc 1 687 0
 3908 198c 0222     		movs	r2, #2
 3909              		.loc 1 676 0
 3910 198e 8AF80030 		strb	r3, [r10]
 3911              		.loc 1 689 0
 3912 1992 622C     		cmp	r4, #98
 3913              		.loc 1 687 0
 3914 1994 4FF00003 		mov	r3, #0
 3915 1998 CBF80020 		str	r2, [fp]
 3916 199c 8AF80130 		strb	r3, [r10, #1]
 3917              		.loc 1 689 0
 3918 19a0 7EF408AC 		bne	.L395
 3919              	.LBB5:
 3920              		.loc 1 708 0
 3921 19a4 FFF7FEFF 		bl	getBatteryValueRaw
 3922              	.LVL365:
 3923 19a8 0446     		mov	r4, r0
 3924 19aa FFF7FEFF 		bl	getBatteryValuePercentage
 3925              	.LVL366:
 3926 19ae 2246     		mov	r2, r4
 3927 19b0 0346     		mov	r3, r0
 3928 19b2 2849     		ldr	r1, .L724+136
 3929 19b4 2148     		ldr	r0, .L724+112
 3930 19b6 FFF7FEFF 		bl	sprintf
 3931              	.LVL367:
 3932 19ba FEF78FBB 		b	.L6
 3933              	.LVL368:
ARM GAS  C:\Users\osour\AppData\Local\Temp\ccsBkKuy.s 			page 70


 3934              	.L14:
 3935              	.LBE5:
 3936              		.loc 1 208 0
 3937 19be 264A     		ldr	r2, .L724+140
 3938 19c0 0023     		movs	r3, #0
 3939 19c2 1360     		str	r3, [r2]
 3940 19c4 254A     		ldr	r2, .L724+144
 3941 19c6 1360     		str	r3, [r2]
 3942 19c8 FEF769BC 		b	.L26
 3943              	.L725:
 3944              		.align	2
 3945              	.L724:
 3946 19cc 14010000 		.word	.LC15
 3947 19d0 18010000 		.word	.LC16
 3948 19d4 3C010000 		.word	.LC17
 3949 19d8 70010000 		.word	.LC18
 3950 19dc C4010000 		.word	.LC20
 3951 19e0 EC010000 		.word	.LC21
 3952 19e4 1C020000 		.word	.LC22
 3953 19e8 4C020000 		.word	.LC23
 3954 19ec 80020000 		.word	.LC24
 3955 19f0 BC020000 		.word	.LC26
 3956 19f4 D8020000 		.word	.LC27
 3957 19f8 04030000 		.word	.LC28
 3958 19fc 54030000 		.word	.LC29
 3959 1a00 84030000 		.word	.LC30
 3960 1a04 B8030000 		.word	.LC31
 3961 1a08 DC030000 		.word	.LC32
 3962 1a0c FC030000 		.word	.LC33
 3963 1a10 20040000 		.word	.LC34
 3964 1a14 54040000 		.word	.LC35
 3965 1a18 88040000 		.word	.LC36
 3966 1a1c AC040000 		.word	.LC37
 3967 1a20 E0040000 		.word	.LC38
 3968 1a24 34050000 		.word	.LC40
 3969 1a28 64050000 		.word	.LC41
 3970 1a2c 8C050000 		.word	.LC42
 3971 1a30 B8050000 		.word	.LC43
 3972 1a34 00000000 		.word	.LANCHOR27
 3973 1a38 88000000 		.word	.LC4
 3974 1a3c 00000000 		.word	buffer
 3975 1a40 90000000 		.word	.LC5
 3976 1a44 B8000000 		.word	.LC10
 3977 1a48 C0000000 		.word	.LC11
 3978 1a4c B00A0000 		.word	.LC84
 3979 1a50 380B0000 		.word	.LC95
 3980 1a54 78000000 		.word	.LC3
 3981 1a58 00000000 		.word	.LANCHOR7
 3982 1a5c 00000000 		.word	.LANCHOR6
 3983              	.LVL369:
 3984              	.L30:
 3985              		.loc 1 270 0
 3986 1a60 B74A     		ldr	r2, .L726
 3987 1a62 0023     		movs	r3, #0
 3988 1a64 1360     		str	r3, [r2]
 3989 1a66 B74A     		ldr	r2, .L726+4
 3990 1a68 1360     		str	r3, [r2]
ARM GAS  C:\Users\osour\AppData\Local\Temp\ccsBkKuy.s 			page 71


 3991 1a6a FEF78EBC 		b	.L42
 3992              	.LVL370:
 3993              	.L85:
 3994              		.loc 1 417 0
 3995 1a6e B64B     		ldr	r3, .L726+8
 3996 1a70 1A78     		ldrb	r2, [r3]	@ zero_extendqisi2
 3997 1a72 B64B     		ldr	r3, .L726+12
 3998 1a74 1B78     		ldrb	r3, [r3]	@ zero_extendqisi2
 3999 1a76 03EB0223 		add	r3, r3, r2, lsl #8
 4000 1a7a B14A     		ldr	r2, .L726
 4001 1a7c 1846     		mov	r0, r3
 4002 1a7e 1360     		str	r3, [r2]
 4003 1a80 FEF7DCBF 		b	.L97
 4004              	.L116:
 4005              		.loc 1 540 0
 4006 1a84 B04B     		ldr	r3, .L726+8
 4007 1a86 1A78     		ldrb	r2, [r3]	@ zero_extendqisi2
 4008 1a88 B04B     		ldr	r3, .L726+12
 4009 1a8a 1B78     		ldrb	r3, [r3]	@ zero_extendqisi2
 4010 1a8c 03EB0223 		add	r3, r3, r2, lsl #8
 4011 1a90 AF4A     		ldr	r2, .L726+16
 4012 1a92 1846     		mov	r0, r3
 4013 1a94 1360     		str	r3, [r2]
 4014 1a96 FEF7DEBD 		b	.L128
 4015              	.L80:
 4016              		.loc 1 339 0
 4017 1a9a 5A1C     		adds	r2, r3, #1
 4018 1a9c 0AF80300 		strb	r0, [r10, r3]
 4019 1aa0 CBF80020 		str	r2, [fp]
 4020 1aa4 FEF75DBD 		b	.L47
 4021              	.L697:
 4022              		.loc 1 663 0
 4023 1aa8 AA48     		ldr	r0, .L726+20
 4024 1aaa FFF7FEFF 		bl	e_send_uart2_char
 4025              	.LVL371:
 4026              	.L155:
 4027              		.loc 1 664 0 discriminator 1
 4028 1aae FFF7FEFF 		bl	e_uart2_sending
 4029              	.LVL372:
 4030 1ab2 0028     		cmp	r0, #0
 4031 1ab4 FBD1     		bne	.L155
 4032 1ab6 FEF7A5BB 		b	.L641
 4033              	.L695:
 4034              		.loc 1 486 0
 4035 1aba 0146     		mov	r1, r0
 4036 1abc 1846     		mov	r0, r3
 4037 1abe FFF7FEFF 		bl	e_set_led
 4038              	.LVL373:
 4039              		.loc 1 487 0
 4040 1ac2 FEF74EBD 		b	.L47
 4041              	.L105:
 4042              		.loc 1 480 0
 4043 1ac6 FFF7FEFF 		bl	e_set_body_led
 4044              	.LVL374:
 4045              		.loc 1 481 0
 4046 1aca FEF74ABD 		b	.L47
 4047              	.L129:
ARM GAS  C:\Users\osour\AppData\Local\Temp\ccsBkKuy.s 			page 72


 4048              		.loc 1 567 0
 4049 1ace FFF7FEFF 		bl	getTemperature
 4050              	.LVL375:
 4051 1ad2 DBF80020 		ldr	r2, [fp]
 4052 1ad6 99F80030 		ldrb	r3, [r9]	@ zero_extendqisi2
 4053 1ada 0AF80200 		strb	r0, [r10, r2]
 4054 1ade 0132     		adds	r2, r2, #1
 4055 1ae0 CBF80020 		str	r2, [fp]
 4056              		.loc 1 647 0
 4057 1ae4 002B     		cmp	r3, #0
 4058 1ae6 7EF4A0AC 		bne	.L673
 4059 1aea FEF747BD 		b	.L649
 4060              	.L699:
 4061              		.loc 1 345 0
 4062 1aee 0121     		movs	r1, #1
 4063 1af0 3846     		mov	r0, r7
 4064 1af2 FFF7FEFF 		bl	e_get_acc_filtered
 4065              	.LVL376:
 4066 1af6 984C     		ldr	r4, .L726+24
 4067              		.loc 1 346 0
 4068 1af8 984D     		ldr	r5, .L726+28
 4069              		.loc 1 345 0
 4070 1afa 2060     		str	r0, [r4]
 4071              		.loc 1 346 0
 4072 1afc 0121     		movs	r1, #1
 4073 1afe 0846     		mov	r0, r1
 4074 1b00 FFF7FEFF 		bl	e_get_acc_filtered
 4075              	.LVL377:
 4076              		.loc 1 347 0
 4077 1b04 0121     		movs	r1, #1
 4078              		.loc 1 346 0
 4079 1b06 2860     		str	r0, [r5]
 4080              		.loc 1 347 0
 4081 1b08 0220     		movs	r0, #2
 4082 1b0a FFF7FEFF 		bl	e_get_acc_filtered
 4083              	.LVL378:
 4084 1b0e 2A68     		ldr	r2, [r5]
 4085 1b10 2468     		ldr	r4, [r4]
 4086 1b12 934B     		ldr	r3, .L726+32
 4087 1b14 C5B2     		uxtb	r5, r0
 4088 1b16 1860     		str	r0, [r3]
 4089 1b18 5FFA84FE 		uxtb	lr, r4
 4090 1b1c C0F30723 		ubfx	r3, r0, #8, #8
 4091 1b20 C4F30724 		ubfx	r4, r4, #8, #8
 4092 1b24 5FFA82FC 		uxtb	ip, r2
 4093 1b28 C2F30720 		ubfx	r0, r2, #8, #8
 4094 1b2c FEF75EBE 		b	.L82
 4095              	.L701:
 4096              		.loc 1 326 0
 4097 1b30 FFF7FEFF 		bl	VL53L0X_get_dist_mm
 4098              	.LVL379:
 4099              		.loc 1 327 0
 4100 1b34 DBF80030 		ldr	r3, [fp]
 4101              		.loc 1 328 0
 4102 1b38 0AEB0302 		add	r2, r10, r3
 4103              		.loc 1 327 0
 4104 1b3c 0AF80300 		strb	r0, [r10, r3]
ARM GAS  C:\Users\osour\AppData\Local\Temp\ccsBkKuy.s 			page 73


 4105              		.loc 1 328 0
 4106 1b40 0112     		asrs	r1, r0, #8
 4107 1b42 0233     		adds	r3, r3, #2
 4108 1b44 5170     		strb	r1, [r2, #1]
 4109 1b46 CBF80030 		str	r3, [fp]
 4110 1b4a FEF70BBD 		b	.L78
 4111              	.L698:
 4112              		.loc 1 440 0
 4113 1b4e 854A     		ldr	r2, .L726+36
 4114 1b50 8549     		ldr	r1, .L726+40
 4115 1b52 8648     		ldr	r0, .L726+44
 4116 1b54 FFF7FEFF 		bl	getAllAxesGyro
 4117              	.LVL380:
 4118              		.loc 1 441 0
 4119 1b58 844B     		ldr	r3, .L726+44
 4120 1b5a DBF80020 		ldr	r2, [fp]
 4121 1b5e 1968     		ldr	r1, [r3]
 4122              		.loc 1 443 0
 4123 1b60 814B     		ldr	r3, .L726+40
 4124              		.loc 1 441 0
 4125 1b62 0AF80210 		strb	r1, [r10, r2]
 4126              		.loc 1 443 0
 4127 1b66 1C68     		ldr	r4, [r3]
 4128              		.loc 1 445 0
 4129 1b68 7E4B     		ldr	r3, .L726+36
 4130 1b6a 1868     		ldr	r0, [r3]
 4131              		.loc 1 442 0
 4132 1b6c 0AEB0203 		add	r3, r10, r2
 4133 1b70 0912     		asrs	r1, r1, #8
 4134              		.loc 1 446 0
 4135 1b72 0632     		adds	r2, r2, #6
 4136              		.loc 1 442 0
 4137 1b74 5970     		strb	r1, [r3, #1]
 4138              		.loc 1 446 0
 4139 1b76 CBF80020 		str	r2, [fp]
 4140              		.loc 1 444 0
 4141 1b7a 2112     		asrs	r1, r4, #8
 4142              		.loc 1 446 0
 4143 1b7c 0212     		asrs	r2, r0, #8
 4144              		.loc 1 443 0
 4145 1b7e 9C70     		strb	r4, [r3, #2]
 4146              		.loc 1 444 0
 4147 1b80 D970     		strb	r1, [r3, #3]
 4148              		.loc 1 445 0
 4149 1b82 1871     		strb	r0, [r3, #4]
 4150              		.loc 1 446 0
 4151 1b84 5A71     		strb	r2, [r3, #5]
 4152 1b86 FEF7EDBC 		b	.L78
 4153              	.L700:
 4154              		.loc 1 366 0
 4155 1b8a FFF7FEFF 		bl	e_read_acc_spheric
 4156              	.LVL381:
 4157 1b8e 784B     		ldr	r3, .L726+48
 4158 1b90 C3ED010A 		vstr.32	s1, [r3, #4]
 4159 1b94 5A79     		ldrb	r2, [r3, #5]	@ zero_extendqisi2
 4160 1b96 0892     		str	r2, [sp, #32]
 4161 1b98 9A79     		ldrb	r2, [r3, #6]	@ zero_extendqisi2
ARM GAS  C:\Users\osour\AppData\Local\Temp\ccsBkKuy.s 			page 74


 4162 1b9a 83ED021A 		vstr.32	s2, [r3, #8]
 4163 1b9e 0992     		str	r2, [sp, #36]
 4164 1ba0 DA79     		ldrb	r2, [r3, #7]	@ zero_extendqisi2
 4165 1ba2 0A92     		str	r2, [sp, #40]
 4166 1ba4 1A7A     		ldrb	r2, [r3, #8]	@ zero_extendqisi2
 4167 1ba6 0B92     		str	r2, [sp, #44]
 4168 1ba8 5A7A     		ldrb	r2, [r3, #9]	@ zero_extendqisi2
 4169 1baa 83ED000A 		vstr.32	s0, [r3]
 4170 1bae 0C92     		str	r2, [sp, #48]
 4171 1bb0 9A7A     		ldrb	r2, [r3, #10]	@ zero_extendqisi2
 4172 1bb2 0D92     		str	r2, [sp, #52]
 4173 1bb4 93F800E0 		ldrb	lr, [r3]	@ zero_extendqisi2
 4174 1bb8 93F801C0 		ldrb	ip, [r3, #1]	@ zero_extendqisi2
 4175 1bbc 9D78     		ldrb	r5, [r3, #2]	@ zero_extendqisi2
 4176 1bbe DC78     		ldrb	r4, [r3, #3]	@ zero_extendqisi2
 4177 1bc0 1879     		ldrb	r0, [r3, #4]	@ zero_extendqisi2
 4178 1bc2 DA7A     		ldrb	r2, [r3, #11]	@ zero_extendqisi2
 4179 1bc4 FEF779BF 		b	.L84
 4180              	.LVL382:
 4181              	.L693:
 4182              		.loc 1 202 0
 4183 1bc8 FFF7FEFF 		bl	e_init_sound
 4184              	.LVL383:
 4185              		.loc 1 203 0
 4186 1bcc 694A     		ldr	r2, .L726+52
 4187 1bce 0123     		movs	r3, #1
 4188 1bd0 1370     		strb	r3, [r2]
 4189 1bd2 FEF7CABB 		b	.L27
 4190              	.LVL384:
 4191              	.L694:
 4192              		.loc 1 264 0
 4193 1bd6 FFF7FEFF 		bl	e_init_sound
 4194              	.LVL385:
 4195              		.loc 1 265 0
 4196 1bda 664A     		ldr	r2, .L726+52
 4197 1bdc 0123     		movs	r3, #1
 4198 1bde 1370     		strb	r3, [r2]
 4199 1be0 FEF714BC 		b	.L43
 4200              	.LVL386:
 4201              	.L696:
 4202              		.loc 1 651 0
 4203 1be4 644B     		ldr	r3, .L726+56
 4204 1be6 1F70     		strb	r7, [r3]
 4205              		.loc 1 652 0
 4206 1be8 FFF7FEFF 		bl	e_poxxxx_wait_img_ready
 4207              	.LVL387:
 4208              		.loc 1 653 0
 4209 1bec FFF7FEFF 		bl	dcmi_get_last_image_ptr
 4210              	.LVL388:
 4211 1bf0 0E9B     		ldr	r3, [sp, #56]
 4212 1bf2 1A68     		ldr	r2, [r3]
 4213 1bf4 0F9B     		ldr	r3, [sp, #60]
 4214 1bf6 0146     		mov	r1, r0
 4215 1bf8 0AEB0300 		add	r0, r10, r3
 4216 1bfc FFF7FEFF 		bl	memcpy
 4217              	.LVL389:
 4218 1c00 DBF80010 		ldr	r1, [fp]
ARM GAS  C:\Users\osour\AppData\Local\Temp\ccsBkKuy.s 			page 75


 4219 1c04 FEF7C7BC 		b	.L153
 4220              	.L311:
 4221              	.LBB6:
 4222              		.loc 1 968 0
 4223 1c08 0121     		movs	r1, #1
 4224 1c0a 0820     		movs	r0, #8
 4225 1c0c FFF7FEFF 		bl	e_set_led
 4226              	.LVL390:
 4227              		.loc 1 970 0
 4228 1c10 4FF4C870 		mov	r0, #400
 4229 1c14 FFF7FEFF 		bl	chThdSleep
 4230              	.LVL391:
 4231              		.loc 1 971 0
 4232 1c18 FFF7FEFF 		bl	e_led_clear
 4233              	.LVL392:
 4234              		.loc 1 973 0
 4235 1c1c 6420     		movs	r0, #100
 4236 1c1e FFF7FEFF 		bl	chThdSleep
 4237              	.LVL393:
 4238              		.loc 1 974 0
 4239 1c22 FFF7FEFF 		bl	e_calibrate_ir
 4240              	.LVL394:
 4241 1c26 FEF759BA 		b	.L6
 4242              	.LVL395:
 4243              	.L366:
 4244              		.loc 1 1178 0
 4245 1c2a 544B     		ldr	r3, .L726+60
 4246 1c2c 5449     		ldr	r1, .L726+64
 4247 1c2e 1A68     		ldr	r2, [r3]
 4248 1c30 4848     		ldr	r0, .L726+20
 4249 1c32 FFF7FEFF 		bl	sprintf
 4250              	.LVL396:
 4251 1c36 FEF751BA 		b	.L6
 4252              	.L204:
 4253              		.loc 1 697 0
 4254 1c3a 524B     		ldr	r3, .L726+68
 4255              	.L668:
 4256              		.loc 1 788 0
 4257 1c3c 03CB     		ldmia	r3!, {r0, r1}
 4258 1c3e 1B88     		ldrh	r3, [r3]	@ unaligned
 4259 1c40 AAF80830 		strh	r3, [r10, #8]	@ unaligned
 4260 1c44 CAF80000 		str	r0, [r10]	@ unaligned
 4261 1c48 CAF80410 		str	r1, [r10, #4]	@ unaligned
 4262 1c4c FEF746BA 		b	.L6
 4263              	.L358:
 4264              		.loc 1 1149 0
 4265 1c50 4D4B     		ldr	r3, .L726+72
 4266 1c52 1868     		ldr	r0, [r3]
 4267 1c54 9B88     		ldrh	r3, [r3, #4]	@ unaligned
 4268 1c56 CAF80000 		str	r0, [r10]	@ unaligned
 4269 1c5a AAF80430 		strh	r3, [r10, #4]	@ unaligned
 4270 1c5e FEF73DBA 		b	.L6
 4271              	.L230:
 4272              		.loc 1 788 0
 4273 1c62 4A4B     		ldr	r3, .L726+76
 4274 1c64 EAE7     		b	.L668
 4275              	.L688:
ARM GAS  C:\Users\osour\AppData\Local\Temp\ccsBkKuy.s 			page 76


 4276              		.loc 1 708 0
 4277 1c66 FFF7FEFF 		bl	getBatteryValueRaw
 4278              	.LVL397:
 4279 1c6a 0446     		mov	r4, r0
 4280 1c6c FFF7FEFF 		bl	getBatteryValuePercentage
 4281              	.LVL398:
 4282 1c70 2246     		mov	r2, r4
 4283 1c72 0346     		mov	r3, r0
 4284 1c74 4649     		ldr	r1, .L726+80
 4285 1c76 3748     		ldr	r0, .L726+20
 4286 1c78 FFF7FEFF 		bl	sprintf
 4287              	.LVL399:
 4288              	.L397:
 4289 1c7c 3548     		ldr	r0, .L726+20
 4290 1c7e FFF7FEFF 		bl	strlen
 4291              	.LVL400:
 4292              		.loc 1 711 0
 4293 1c82 079B     		ldr	r3, [sp, #28]
 4294 1c84 0146     		mov	r1, r0
 4295              		.loc 1 712 0
 4296 1c86 3348     		ldr	r0, .L726+20
 4297              		.loc 1 711 0
 4298 1c88 002B     		cmp	r3, #0
 4299 1c8a 00F0E981 		beq	.L209
 4300              		.loc 1 712 0
 4301 1c8e FFF7FEFF 		bl	e_send_uart1_char
 4302              	.LVL401:
 4303              	.L210:
 4304              		.loc 1 712 0 is_stmt 0 discriminator 2
 4305 1c92 FFF7FEFF 		bl	e_uart1_sending
 4306              	.LVL402:
 4307 1c96 0028     		cmp	r0, #0
 4308 1c98 FBD1     		bne	.L210
 4309 1c9a FEF720BA 		b	.L650
 4310              	.L386:
 4311              		.loc 1 1232 0 is_stmt 1
 4312 1c9e FFF7FEFF 		bl	strlen
 4313              	.LVL403:
 4314 1ca2 0146     		mov	r1, r0
 4315 1ca4 2046     		mov	r0, r4
 4316 1ca6 FFF7FEFF 		bl	e_send_uart2_char
 4317              	.LVL404:
 4318              	.L388:
 4319              		.loc 1 1232 0 is_stmt 0 discriminator 2
 4320 1caa FFF7FEFF 		bl	e_uart2_sending
 4321              	.LVL405:
 4322 1cae 0028     		cmp	r0, #0
 4323 1cb0 FBD1     		bne	.L388
 4324 1cb2 FFF7BEB8 		b	.L385
 4325              	.L312:
 4326              		.loc 1 965 0 is_stmt 1
 4327 1cb6 FFF7FEFF 		bl	e_send_uart2_char
 4328              	.LVL406:
 4329              	.L315:
 4330              		.loc 1 965 0 is_stmt 0 discriminator 2
 4331 1cba FFF7FEFF 		bl	e_uart2_sending
 4332              	.LVL407:
ARM GAS  C:\Users\osour\AppData\Local\Temp\ccsBkKuy.s 			page 77


 4333 1cbe 0028     		cmp	r0, #0
 4334 1cc0 FBD1     		bne	.L315
 4335              		.loc 1 968 0 is_stmt 1
 4336 1cc2 0121     		movs	r1, #1
 4337 1cc4 0820     		movs	r0, #8
 4338 1cc6 FFF7FEFF 		bl	e_set_led
 4339              	.LVL408:
 4340              		.loc 1 970 0
 4341 1cca 4FF4C870 		mov	r0, #400
 4342 1cce FFF7FEFF 		bl	chThdSleep
 4343              	.LVL409:
 4344              		.loc 1 971 0
 4345 1cd2 FFF7FEFF 		bl	e_led_clear
 4346              	.LVL410:
 4347              		.loc 1 973 0
 4348 1cd6 6420     		movs	r0, #100
 4349 1cd8 FFF7FEFF 		bl	chThdSleep
 4350              	.LVL411:
 4351              		.loc 1 974 0
 4352 1cdc FFF7FEFF 		bl	e_calibrate_ir
 4353              	.LVL412:
 4354              		.loc 1 980 0
 4355 1ce0 1921     		movs	r1, #25
 4356 1ce2 2C48     		ldr	r0, .L726+84
 4357 1ce4 FFF7FEFF 		bl	e_send_uart2_char
 4358              	.LVL413:
 4359              	.L318:
 4360              		.loc 1 980 0 is_stmt 0 discriminator 2
 4361 1ce8 FFF7FEFF 		bl	e_uart2_sending
 4362              	.LVL414:
 4363 1cec 0028     		cmp	r0, #0
 4364 1cee FBD1     		bne	.L318
 4365 1cf0 FEF788BA 		b	.L641
 4366              	.LVL415:
 4367              	.L367:
 4368              		.loc 1 1176 0 is_stmt 1
 4369 1cf4 FFF7FEFF 		bl	e_send_uart2_char
 4370              	.LVL416:
 4371              	.L370:
 4372              		.loc 1 1176 0 is_stmt 0 discriminator 2
 4373 1cf8 FFF7FEFF 		bl	e_uart2_sending
 4374              	.LVL417:
 4375 1cfc 0028     		cmp	r0, #0
 4376 1cfe FBD1     		bne	.L370
 4377              		.loc 1 1178 0 is_stmt 1
 4378 1d00 1E4B     		ldr	r3, .L726+60
 4379 1d02 1F49     		ldr	r1, .L726+64
 4380 1d04 1A68     		ldr	r2, [r3]
 4381 1d06 1348     		ldr	r0, .L726+20
 4382 1d08 FFF7FEFF 		bl	sprintf
 4383              	.LVL418:
 4384              		.loc 1 1184 0
 4385 1d0c 1148     		ldr	r0, .L726+20
 4386 1d0e FFF7FEFF 		bl	strlen
 4387              	.LVL419:
 4388 1d12 0146     		mov	r1, r0
 4389 1d14 0F48     		ldr	r0, .L726+20
ARM GAS  C:\Users\osour\AppData\Local\Temp\ccsBkKuy.s 			page 78


 4390 1d16 FFF7FEFF 		bl	e_send_uart2_char
 4391              	.LVL420:
 4392              	.L373:
 4393              		.loc 1 1184 0 is_stmt 0 discriminator 2
 4394 1d1a FFF7FEFF 		bl	e_uart2_sending
 4395              	.LVL421:
 4396 1d1e 0028     		cmp	r0, #0
 4397 1d20 FBD1     		bne	.L373
 4398 1d22 FEF76FBA 		b	.L641
 4399              	.L690:
 4400              		.loc 1 795 0 is_stmt 1
 4401 1d26 0B48     		ldr	r0, .L726+20
 4402 1d28 FFF7FEFF 		bl	strlen
 4403              	.LVL422:
 4404 1d2c 0146     		mov	r1, r0
 4405 1d2e 0948     		ldr	r0, .L726+20
 4406 1d30 FFF7FEFF 		bl	e_send_uart2_char
 4407              	.LVL423:
 4408              	.L234:
 4409              		.loc 1 795 0 is_stmt 0 discriminator 2
 4410 1d34 FFF7FEFF 		bl	e_uart2_sending
 4411              	.LVL424:
 4412 1d38 0028     		cmp	r0, #0
 4413 1d3a FBD1     		bne	.L234
 4414 1d3c FEF762BA 		b	.L641
 4415              	.L727:
 4416              		.align	2
 4417              	.L726:
 4418 1d40 00000000 		.word	.LANCHOR7
 4419 1d44 00000000 		.word	.LANCHOR6
 4420 1d48 00000000 		.word	.LANCHOR17
 4421 1d4c 00000000 		.word	.LANCHOR16
 4422 1d50 00000000 		.word	.LANCHOR22
 4423 1d54 00000000 		.word	buffer
 4424 1d58 00000000 		.word	.LANCHOR12
 4425 1d5c 00000000 		.word	.LANCHOR13
 4426 1d60 00000000 		.word	.LANCHOR14
 4427 1d64 00000000 		.word	.LANCHOR18
 4428 1d68 00000000 		.word	.LANCHOR19
 4429 1d6c 00000000 		.word	.LANCHOR20
 4430 1d70 00000000 		.word	.LANCHOR15
 4431 1d74 00000000 		.word	.LANCHOR8
 4432 1d78 00000000 		.word	.LANCHOR21
 4433 1d7c 00000000 		.word	.LANCHOR0
 4434 1d80 500B0000 		.word	.LC96
 4435 1d84 6C000000 		.word	.LC2
 4436 1d88 BC0A0000 		.word	.LC86
 4437 1d8c 08010000 		.word	.LC14
 4438 1d90 78000000 		.word	.LC3
 4439 1d94 640B0000 		.word	.LC97
 4440              	.L235:
 4441              		.loc 1 880 0 is_stmt 1
 4442 1d98 FFF7FEFF 		bl	e_send_uart2_char
 4443              	.LVL425:
 4444              	.L269:
 4445              		.loc 1 880 0 is_stmt 0 discriminator 2
 4446 1d9c FFF7FEFF 		bl	e_uart2_sending
ARM GAS  C:\Users\osour\AppData\Local\Temp\ccsBkKuy.s 			page 79


 4447              	.LVL426:
 4448 1da0 0028     		cmp	r0, #0
 4449 1da2 FBD1     		bne	.L269
 4450              		.loc 1 881 0 is_stmt 1
 4451 1da4 FFF7FEFF 		bl	isEpuckVersion1_3
 4452              	.LVL427:
 4453 1da8 0028     		cmp	r0, #0
 4454 1daa 00F00182 		beq	.L709
 4455              	.L270:
 4456              		.loc 1 884 0
 4457 1dae FFF7FEFF 		bl	isEpuckVersion1_3
 4458              	.LVL428:
 4459 1db2 0028     		cmp	r0, #0
 4460 1db4 00F0BF81 		beq	.L272
 4461              		.loc 1 885 0
 4462 1db8 1921     		movs	r1, #25
 4463 1dba BF48     		ldr	r0, .L728
 4464 1dbc FFF7FEFF 		bl	e_send_uart2_char
 4465              	.LVL429:
 4466              	.L273:
 4467              		.loc 1 885 0 is_stmt 0 discriminator 2
 4468 1dc0 FFF7FEFF 		bl	e_uart2_sending
 4469              	.LVL430:
 4470 1dc4 0028     		cmp	r0, #0
 4471 1dc6 FBD1     		bne	.L273
 4472              	.L274:
 4473              		.loc 1 889 0 is_stmt 1
 4474 1dc8 2B21     		movs	r1, #43
 4475 1dca BC48     		ldr	r0, .L728+4
 4476 1dcc FFF7FEFF 		bl	e_send_uart2_char
 4477              	.LVL431:
 4478              	.L276:
 4479              		.loc 1 889 0 is_stmt 0 discriminator 2
 4480 1dd0 FFF7FEFF 		bl	e_uart2_sending
 4481              	.LVL432:
 4482 1dd4 0028     		cmp	r0, #0
 4483 1dd6 FBD1     		bne	.L276
 4484              		.loc 1 890 0 is_stmt 1
 4485 1dd8 1D21     		movs	r1, #29
 4486 1dda B948     		ldr	r0, .L728+8
 4487 1ddc FFF7FEFF 		bl	e_send_uart2_char
 4488              	.LVL433:
 4489              	.L277:
 4490              		.loc 1 890 0 is_stmt 0 discriminator 2
 4491 1de0 FFF7FEFF 		bl	e_uart2_sending
 4492              	.LVL434:
 4493 1de4 0028     		cmp	r0, #0
 4494 1de6 FBD1     		bne	.L277
 4495              		.loc 1 891 0 is_stmt 1
 4496 1de8 2621     		movs	r1, #38
 4497 1dea B648     		ldr	r0, .L728+12
 4498 1dec FFF7FEFF 		bl	e_send_uart2_char
 4499              	.LVL435:
 4500              	.L278:
 4501              		.loc 1 891 0 is_stmt 0 discriminator 2
 4502 1df0 FFF7FEFF 		bl	e_uart2_sending
 4503              	.LVL436:
ARM GAS  C:\Users\osour\AppData\Local\Temp\ccsBkKuy.s 			page 80


 4504 1df4 0028     		cmp	r0, #0
 4505 1df6 FBD1     		bne	.L278
 4506              		.loc 1 892 0 is_stmt 1
 4507 1df8 2621     		movs	r1, #38
 4508 1dfa B348     		ldr	r0, .L728+16
 4509 1dfc FFF7FEFF 		bl	e_send_uart2_char
 4510              	.LVL437:
 4511              	.L279:
 4512              		.loc 1 892 0 is_stmt 0 discriminator 2
 4513 1e00 FFF7FEFF 		bl	e_uart2_sending
 4514              	.LVL438:
 4515 1e04 0028     		cmp	r0, #0
 4516 1e06 FBD1     		bne	.L279
 4517              		.loc 1 893 0 is_stmt 1
 4518 1e08 2C21     		movs	r1, #44
 4519 1e0a B048     		ldr	r0, .L728+20
 4520 1e0c FFF7FEFF 		bl	e_send_uart2_char
 4521              	.LVL439:
 4522              	.L280:
 4523              		.loc 1 893 0 is_stmt 0 discriminator 2
 4524 1e10 FFF7FEFF 		bl	e_uart2_sending
 4525              	.LVL440:
 4526 1e14 0028     		cmp	r0, #0
 4527 1e16 FBD1     		bne	.L280
 4528              		.loc 1 895 0 is_stmt 1
 4529 1e18 1721     		movs	r1, #23
 4530 1e1a AD48     		ldr	r0, .L728+24
 4531 1e1c FFF7FEFF 		bl	e_send_uart2_char
 4532              	.LVL441:
 4533              	.L281:
 4534              		.loc 1 895 0 is_stmt 0 discriminator 2
 4535 1e20 FFF7FEFF 		bl	e_uart2_sending
 4536              	.LVL442:
 4537 1e24 0028     		cmp	r0, #0
 4538 1e26 FBD1     		bne	.L281
 4539              		.loc 1 897 0 is_stmt 1
 4540 1e28 1021     		movs	r1, #16
 4541 1e2a AA48     		ldr	r0, .L728+28
 4542 1e2c FFF7FEFF 		bl	e_send_uart2_char
 4543              	.LVL443:
 4544              	.L282:
 4545              		.loc 1 897 0 is_stmt 0 discriminator 2
 4546 1e30 FFF7FEFF 		bl	e_uart2_sending
 4547              	.LVL444:
 4548 1e34 0028     		cmp	r0, #0
 4549 1e36 FBD1     		bne	.L282
 4550              		.loc 1 898 0 is_stmt 1
 4551 1e38 2221     		movs	r1, #34
 4552 1e3a A748     		ldr	r0, .L728+32
 4553 1e3c FFF7FEFF 		bl	e_send_uart2_char
 4554              	.LVL445:
 4555              	.L283:
 4556              		.loc 1 898 0 is_stmt 0 discriminator 2
 4557 1e40 FFF7FEFF 		bl	e_uart2_sending
 4558              	.LVL446:
 4559 1e44 0028     		cmp	r0, #0
 4560 1e46 FBD1     		bne	.L283
ARM GAS  C:\Users\osour\AppData\Local\Temp\ccsBkKuy.s 			page 81


 4561              		.loc 1 899 0 is_stmt 1
 4562 1e48 4D21     		movs	r1, #77
 4563 1e4a A448     		ldr	r0, .L728+36
 4564 1e4c FFF7FEFF 		bl	e_send_uart2_char
 4565              	.LVL447:
 4566              	.L284:
 4567              		.loc 1 899 0 is_stmt 0 discriminator 2
 4568 1e50 FFF7FEFF 		bl	e_uart2_sending
 4569              	.LVL448:
 4570 1e54 0028     		cmp	r0, #0
 4571 1e56 FBD1     		bne	.L284
 4572              		.loc 1 900 0 is_stmt 1
 4573 1e58 2721     		movs	r1, #39
 4574 1e5a A148     		ldr	r0, .L728+40
 4575 1e5c FFF7FEFF 		bl	e_send_uart2_char
 4576              	.LVL449:
 4577              	.L285:
 4578              		.loc 1 900 0 is_stmt 0 discriminator 2
 4579 1e60 FFF7FEFF 		bl	e_uart2_sending
 4580              	.LVL450:
 4581 1e64 0028     		cmp	r0, #0
 4582 1e66 FBD1     		bne	.L285
 4583              		.loc 1 901 0 is_stmt 1
 4584 1e68 2B21     		movs	r1, #43
 4585 1e6a 9E48     		ldr	r0, .L728+44
 4586 1e6c FFF7FEFF 		bl	e_send_uart2_char
 4587              	.LVL451:
 4588              	.L286:
 4589              		.loc 1 901 0 is_stmt 0 discriminator 2
 4590 1e70 FFF7FEFF 		bl	e_uart2_sending
 4591              	.LVL452:
 4592 1e74 0028     		cmp	r0, #0
 4593 1e76 FBD1     		bne	.L286
 4594              		.loc 1 903 0 is_stmt 1
 4595 1e78 1921     		movs	r1, #25
 4596 1e7a 9B48     		ldr	r0, .L728+48
 4597 1e7c FFF7FEFF 		bl	e_send_uart2_char
 4598              	.LVL453:
 4599              	.L287:
 4600              		.loc 1 903 0 is_stmt 0 discriminator 2
 4601 1e80 FFF7FEFF 		bl	e_uart2_sending
 4602              	.LVL454:
 4603 1e84 0028     		cmp	r0, #0
 4604 1e86 FBD1     		bne	.L287
 4605              		.loc 1 905 0 is_stmt 1
 4606 1e88 1521     		movs	r1, #21
 4607 1e8a 9848     		ldr	r0, .L728+52
 4608 1e8c FFF7FEFF 		bl	e_send_uart2_char
 4609              	.LVL455:
 4610              	.L288:
 4611              		.loc 1 905 0 is_stmt 0 discriminator 2
 4612 1e90 FFF7FEFF 		bl	e_uart2_sending
 4613              	.LVL456:
 4614 1e94 0028     		cmp	r0, #0
 4615 1e96 FBD1     		bne	.L288
 4616              		.loc 1 906 0 is_stmt 1
 4617 1e98 1921     		movs	r1, #25
ARM GAS  C:\Users\osour\AppData\Local\Temp\ccsBkKuy.s 			page 82


 4618 1e9a 9548     		ldr	r0, .L728+56
 4619 1e9c FFF7FEFF 		bl	e_send_uart2_char
 4620              	.LVL457:
 4621              	.L289:
 4622              		.loc 1 906 0 is_stmt 0 discriminator 2
 4623 1ea0 FFF7FEFF 		bl	e_uart2_sending
 4624              	.LVL458:
 4625 1ea4 0028     		cmp	r0, #0
 4626 1ea6 FBD1     		bne	.L289
 4627              		.loc 1 907 0 is_stmt 1
 4628 1ea8 2921     		movs	r1, #41
 4629 1eaa 9248     		ldr	r0, .L728+60
 4630 1eac FFF7FEFF 		bl	e_send_uart2_char
 4631              	.LVL459:
 4632              	.L290:
 4633              		.loc 1 907 0 is_stmt 0 discriminator 2
 4634 1eb0 FFF7FEFF 		bl	e_uart2_sending
 4635              	.LVL460:
 4636 1eb4 0028     		cmp	r0, #0
 4637 1eb6 FBD1     		bne	.L290
 4638              		.loc 1 908 0 is_stmt 1
 4639 1eb8 2921     		movs	r1, #41
 4640 1eba 8F48     		ldr	r0, .L728+64
 4641 1ebc FFF7FEFF 		bl	e_send_uart2_char
 4642              	.LVL461:
 4643              	.L291:
 4644              		.loc 1 908 0 is_stmt 0 discriminator 2
 4645 1ec0 FFF7FEFF 		bl	e_uart2_sending
 4646              	.LVL462:
 4647 1ec4 0028     		cmp	r0, #0
 4648 1ec6 FBD1     		bne	.L291
 4649              		.loc 1 909 0 is_stmt 1
 4650 1ec8 1821     		movs	r1, #24
 4651 1eca 8C48     		ldr	r0, .L728+68
 4652 1ecc FFF7FEFF 		bl	e_send_uart2_char
 4653              	.LVL463:
 4654              	.L292:
 4655              		.loc 1 909 0 is_stmt 0 discriminator 2
 4656 1ed0 FFF7FEFF 		bl	e_uart2_sending
 4657              	.LVL464:
 4658 1ed4 0028     		cmp	r0, #0
 4659 1ed6 FBD1     		bne	.L292
 4660              		.loc 1 910 0 is_stmt 1
 4661 1ed8 2921     		movs	r1, #41
 4662 1eda 8948     		ldr	r0, .L728+72
 4663 1edc FFF7FEFF 		bl	e_send_uart2_char
 4664              	.LVL465:
 4665              	.L293:
 4666              		.loc 1 910 0 is_stmt 0 discriminator 2
 4667 1ee0 FFF7FEFF 		bl	e_uart2_sending
 4668              	.LVL466:
 4669 1ee4 0028     		cmp	r0, #0
 4670 1ee6 FBD1     		bne	.L293
 4671              		.loc 1 911 0 is_stmt 1
 4672 1ee8 2C21     		movs	r1, #44
 4673 1eea 8648     		ldr	r0, .L728+76
 4674 1eec FFF7FEFF 		bl	e_send_uart2_char
ARM GAS  C:\Users\osour\AppData\Local\Temp\ccsBkKuy.s 			page 83


 4675              	.LVL467:
 4676              	.L294:
 4677              		.loc 1 911 0 is_stmt 0 discriminator 2
 4678 1ef0 FFF7FEFF 		bl	e_uart2_sending
 4679              	.LVL468:
 4680 1ef4 0028     		cmp	r0, #0
 4681 1ef6 FBD1     		bne	.L294
 4682              		.loc 1 912 0 is_stmt 1
 4683 1ef8 2421     		movs	r1, #36
 4684 1efa 8348     		ldr	r0, .L728+80
 4685 1efc FFF7FEFF 		bl	e_send_uart2_char
 4686              	.LVL469:
 4687              	.L295:
 4688              		.loc 1 912 0 is_stmt 0 discriminator 2
 4689 1f00 FFF7FEFF 		bl	e_uart2_sending
 4690              	.LVL470:
 4691 1f04 0028     		cmp	r0, #0
 4692 1f06 FBD1     		bne	.L295
 4693              		.loc 1 913 0 is_stmt 1
 4694 1f08 1D21     		movs	r1, #29
 4695 1f0a 8048     		ldr	r0, .L728+84
 4696 1f0c FFF7FEFF 		bl	e_send_uart2_char
 4697              	.LVL471:
 4698              	.L296:
 4699              		.loc 1 913 0 is_stmt 0 discriminator 2
 4700 1f10 FFF7FEFF 		bl	e_uart2_sending
 4701              	.LVL472:
 4702 1f14 0028     		cmp	r0, #0
 4703 1f16 FBD1     		bne	.L296
 4704              		.loc 1 914 0 is_stmt 1
 4705 1f18 2521     		movs	r1, #37
 4706 1f1a 7D48     		ldr	r0, .L728+88
 4707 1f1c FFF7FEFF 		bl	e_send_uart2_char
 4708              	.LVL473:
 4709              	.L297:
 4710              		.loc 1 914 0 is_stmt 0 discriminator 2
 4711 1f20 FFF7FEFF 		bl	e_uart2_sending
 4712              	.LVL474:
 4713 1f24 0028     		cmp	r0, #0
 4714 1f26 FBD1     		bne	.L297
 4715              		.loc 1 915 0 is_stmt 1
 4716 1f28 2421     		movs	r1, #36
 4717 1f2a 7A48     		ldr	r0, .L728+92
 4718 1f2c FFF7FEFF 		bl	e_send_uart2_char
 4719              	.LVL475:
 4720              	.L298:
 4721              		.loc 1 915 0 is_stmt 0 discriminator 2
 4722 1f30 FFF7FEFF 		bl	e_uart2_sending
 4723              	.LVL476:
 4724 1f34 0028     		cmp	r0, #0
 4725 1f36 FBD1     		bne	.L298
 4726 1f38 FEF764B9 		b	.L641
 4727              	.L355:
 4728              		.loc 1 1141 0 is_stmt 1
 4729 1f3c FFF7FEFF 		bl	e_send_uart2_char
 4730              	.LVL477:
 4731              	.L357:
ARM GAS  C:\Users\osour\AppData\Local\Temp\ccsBkKuy.s 			page 84


 4732              		.loc 1 1141 0 is_stmt 0 discriminator 2
 4733 1f40 FFF7FEFF 		bl	e_uart2_sending
 4734              	.LVL478:
 4735 1f44 0028     		cmp	r0, #0
 4736 1f46 FBD1     		bne	.L357
 4737 1f48 FEF75CB9 		b	.L641
 4738              	.L221:
 4739              		.loc 1 758 0 is_stmt 1
 4740 1f4c FFF7FEFF 		bl	e_send_uart2_char
 4741              	.LVL479:
 4742              	.L223:
 4743              		.loc 1 758 0 is_stmt 0 discriminator 2
 4744 1f50 FFF7FEFF 		bl	e_uart2_sending
 4745              	.LVL480:
 4746 1f54 0028     		cmp	r0, #0
 4747 1f56 FBD1     		bne	.L223
 4748 1f58 FEF754B9 		b	.L641
 4749              	.L227:
 4750              		.loc 1 780 0 is_stmt 1
 4751 1f5c FFF7FEFF 		bl	e_send_uart2_char
 4752              	.LVL481:
 4753              	.L229:
 4754              		.loc 1 780 0 is_stmt 0 discriminator 2
 4755 1f60 FFF7FEFF 		bl	e_uart2_sending
 4756              	.LVL482:
 4757 1f64 0028     		cmp	r0, #0
 4758 1f66 FBD1     		bne	.L229
 4759 1f68 FEF74CB9 		b	.L641
 4760              	.L343:
 4761              		.loc 1 1110 0 is_stmt 1
 4762 1f6c FFF7FEFF 		bl	e_send_uart2_char
 4763              	.LVL483:
 4764              	.L345:
 4765              		.loc 1 1110 0 is_stmt 0 discriminator 2
 4766 1f70 FFF7FEFF 		bl	e_uart2_sending
 4767              	.LVL484:
 4768 1f74 0028     		cmp	r0, #0
 4769 1f76 FBD1     		bne	.L345
 4770 1f78 FEF744B9 		b	.L641
 4771              	.L215:
 4772              		.loc 1 736 0 is_stmt 1
 4773 1f7c FFF7FEFF 		bl	e_send_uart2_char
 4774              	.LVL485:
 4775              	.L217:
 4776              		.loc 1 736 0 is_stmt 0 discriminator 2
 4777 1f80 FFF7FEFF 		bl	e_uart2_sending
 4778              	.LVL486:
 4779 1f84 0028     		cmp	r0, #0
 4780 1f86 FBD1     		bne	.L217
 4781 1f88 FEF73CB9 		b	.L641
 4782              	.L218:
 4783              		.loc 1 748 0 is_stmt 1
 4784 1f8c FFF7FEFF 		bl	e_send_uart2_char
 4785              	.LVL487:
 4786              	.L220:
 4787              		.loc 1 748 0 is_stmt 0 discriminator 2
 4788 1f90 FFF7FEFF 		bl	e_uart2_sending
ARM GAS  C:\Users\osour\AppData\Local\Temp\ccsBkKuy.s 			page 85


 4789              	.LVL488:
 4790 1f94 0028     		cmp	r0, #0
 4791 1f96 FBD1     		bne	.L220
 4792 1f98 FEF734B9 		b	.L641
 4793              	.L212:
 4794              		.loc 1 725 0 is_stmt 1
 4795 1f9c FFF7FEFF 		bl	e_send_uart2_char
 4796              	.LVL489:
 4797              	.L214:
 4798              		.loc 1 725 0 is_stmt 0 discriminator 2
 4799 1fa0 FFF7FEFF 		bl	e_uart2_sending
 4800              	.LVL490:
 4801 1fa4 0028     		cmp	r0, #0
 4802 1fa6 FBD1     		bne	.L214
 4803 1fa8 FEF72CB9 		b	.L641
 4804              	.L319:
 4805              		.loc 1 991 0 is_stmt 1
 4806 1fac FFF7FEFF 		bl	e_send_uart2_char
 4807              	.LVL491:
 4808              	.L321:
 4809              		.loc 1 991 0 is_stmt 0 discriminator 2
 4810 1fb0 FFF7FEFF 		bl	e_uart2_sending
 4811              	.LVL492:
 4812 1fb4 0028     		cmp	r0, #0
 4813 1fb6 FBD1     		bne	.L321
 4814 1fb8 FEF724B9 		b	.L641
 4815              	.L224:
 4816              		.loc 1 769 0 is_stmt 1
 4817 1fbc FFF7FEFF 		bl	e_send_uart2_char
 4818              	.LVL493:
 4819              	.L226:
 4820              		.loc 1 769 0 is_stmt 0 discriminator 2
 4821 1fc0 FFF7FEFF 		bl	e_uart2_sending
 4822              	.LVL494:
 4823 1fc4 0028     		cmp	r0, #0
 4824 1fc6 FBD1     		bne	.L226
 4825 1fc8 FEF71CB9 		b	.L641
 4826              	.L337:
 4827              		.loc 1 1080 0 is_stmt 1
 4828 1fcc FFF7FEFF 		bl	e_send_uart2_char
 4829              	.LVL495:
 4830              	.L339:
 4831              		.loc 1 1080 0 is_stmt 0 discriminator 2
 4832 1fd0 FFF7FEFF 		bl	e_uart2_sending
 4833              	.LVL496:
 4834 1fd4 0028     		cmp	r0, #0
 4835 1fd6 FBD1     		bne	.L339
 4836 1fd8 FEF714B9 		b	.L641
 4837              	.L390:
 4838              		.loc 1 1244 0 is_stmt 1
 4839 1fdc FFF7FEFF 		bl	e_send_uart2_char
 4840              	.LVL497:
 4841              	.L392:
 4842              		.loc 1 1244 0 is_stmt 0 discriminator 2
 4843 1fe0 FFF7FEFF 		bl	e_uart2_sending
 4844              	.LVL498:
 4845 1fe4 0028     		cmp	r0, #0
ARM GAS  C:\Users\osour\AppData\Local\Temp\ccsBkKuy.s 			page 86


 4846 1fe6 FBD1     		bne	.L392
 4847 1fe8 FEF70CB9 		b	.L641
 4848              	.L334:
 4849              		.loc 1 1068 0 is_stmt 1
 4850 1fec FFF7FEFF 		bl	e_send_uart2_char
 4851              	.LVL499:
 4852              	.L336:
 4853              		.loc 1 1068 0 is_stmt 0 discriminator 2
 4854 1ff0 FFF7FEFF 		bl	e_uart2_sending
 4855              	.LVL500:
 4856 1ff4 0028     		cmp	r0, #0
 4857 1ff6 FBD1     		bne	.L336
 4858 1ff8 FEF704B9 		b	.L641
 4859              	.L363:
 4860              		.loc 1 1167 0 is_stmt 1
 4861 1ffc FFF7FEFF 		bl	e_send_uart2_char
 4862              	.LVL501:
 4863              	.L365:
 4864              		.loc 1 1167 0 is_stmt 0 discriminator 2
 4865 2000 FFF7FEFF 		bl	e_uart2_sending
 4866              	.LVL502:
 4867 2004 0028     		cmp	r0, #0
 4868 2006 FBD1     		bne	.L365
 4869 2008 FEF7FCB8 		b	.L641
 4870              	.L340:
 4871              		.loc 1 1090 0 is_stmt 1
 4872 200c FFF7FEFF 		bl	e_send_uart2_char
 4873              	.LVL503:
 4874              	.L342:
 4875              		.loc 1 1090 0 is_stmt 0 discriminator 2
 4876 2010 FFF7FEFF 		bl	e_uart2_sending
 4877              	.LVL504:
 4878 2014 0028     		cmp	r0, #0
 4879 2016 FBD1     		bne	.L342
 4880 2018 FEF7F4B8 		b	.L641
 4881              	.L706:
 4882              		.loc 1 704 0 is_stmt 1
 4883 201c 3E48     		ldr	r0, .L728+96
 4884 201e FFF7FEFF 		bl	strlen
 4885              	.LVL505:
 4886 2022 0146     		mov	r1, r0
 4887 2024 3C48     		ldr	r0, .L728+96
 4888 2026 FFF7FEFF 		bl	e_send_uart2_char
 4889              	.LVL506:
 4890              	.L208:
 4891              		.loc 1 704 0 is_stmt 0 discriminator 2
 4892 202a FFF7FEFF 		bl	e_uart2_sending
 4893              	.LVL507:
 4894 202e 0028     		cmp	r0, #0
 4895 2030 FBD1     		bne	.L208
 4896 2032 FEF7E7B8 		b	.L641
 4897              	.L705:
 4898              		.loc 1 1156 0 is_stmt 1
 4899 2036 3848     		ldr	r0, .L728+96
 4900 2038 FFF7FEFF 		bl	strlen
 4901              	.LVL508:
 4902 203c 0146     		mov	r1, r0
ARM GAS  C:\Users\osour\AppData\Local\Temp\ccsBkKuy.s 			page 87


 4903 203e 3648     		ldr	r0, .L728+96
 4904 2040 FFF7FEFF 		bl	e_send_uart2_char
 4905              	.LVL509:
 4906              	.L362:
 4907              		.loc 1 1156 0 is_stmt 0 discriminator 2
 4908 2044 FFF7FEFF 		bl	e_uart2_sending
 4909              	.LVL510:
 4910 2048 0028     		cmp	r0, #0
 4911 204a FBD1     		bne	.L362
 4912 204c FEF7DAB8 		b	.L641
 4913              	.L331:
 4914              		.loc 1 1056 0 is_stmt 1
 4915 2050 FFF7FEFF 		bl	e_send_uart2_char
 4916              	.LVL511:
 4917              	.L333:
 4918              		.loc 1 1056 0 is_stmt 0 discriminator 2
 4919 2054 FFF7FEFF 		bl	e_uart2_sending
 4920              	.LVL512:
 4921 2058 0028     		cmp	r0, #0
 4922 205a FBD1     		bne	.L333
 4923 205c FEF7D2B8 		b	.L641
 4924              	.L209:
 4925              		.loc 1 714 0 is_stmt 1
 4926 2060 FFF7FEFF 		bl	e_send_uart2_char
 4927              	.LVL513:
 4928              	.L211:
 4929              		.loc 1 714 0 is_stmt 0 discriminator 2
 4930 2064 FFF7FEFF 		bl	e_uart2_sending
 4931              	.LVL514:
 4932 2068 0028     		cmp	r0, #0
 4933 206a FBD1     		bne	.L211
 4934 206c FEF7CAB8 		b	.L641
 4935              	.L347:
 4936              		.loc 1 1131 0 is_stmt 1
 4937 2070 FFF7FEFF 		bl	e_close_sound
 4938              	.LVL515:
 4939              		.loc 1 1132 0
 4940 2074 FFF7FEFF 		bl	stopCurrentMelody
 4941              	.LVL516:
 4942              		.loc 1 1133 0
 4943 2078 284A     		ldr	r2, .L728+100
 4944 207a 0023     		movs	r3, #0
 4945 207c 1370     		strb	r3, [r2]
 4946              		.loc 1 1134 0
 4947 207e 49E4     		b	.L354
 4948              	.L374:
 4949              		.loc 1 1196 0
 4950 2080 FFF7FEFF 		bl	e_send_uart2_char
 4951              	.LVL517:
 4952              	.L376:
 4953              		.loc 1 1196 0 is_stmt 0 discriminator 2
 4954 2084 FFF7FEFF 		bl	e_uart2_sending
 4955              	.LVL518:
 4956 2088 0028     		cmp	r0, #0
 4957 208a FBD1     		bne	.L376
 4958 208c FEF7BAB8 		b	.L641
 4959              	.L308:
ARM GAS  C:\Users\osour\AppData\Local\Temp\ccsBkKuy.s 			page 88


 4960              		.loc 1 955 0 is_stmt 1
 4961 2090 FFF7FEFF 		bl	e_send_uart2_char
 4962              	.LVL519:
 4963              	.L310:
 4964              		.loc 1 955 0 is_stmt 0 discriminator 2
 4965 2094 FFF7FEFF 		bl	e_uart2_sending
 4966              	.LVL520:
 4967 2098 0028     		cmp	r0, #0
 4968 209a FBD1     		bne	.L310
 4969 209c FEF7B2B8 		b	.L641
 4970              	.L299:
 4971              		.loc 1 924 0 is_stmt 1
 4972 20a0 FFF7FEFF 		bl	strlen
 4973              	.LVL521:
 4974 20a4 0146     		mov	r1, r0
 4975 20a6 1C48     		ldr	r0, .L728+96
 4976 20a8 FFF7FEFF 		bl	e_send_uart2_char
 4977              	.LVL522:
 4978              	.L301:
 4979              		.loc 1 924 0 is_stmt 0 discriminator 2
 4980 20ac FFF7FEFF 		bl	e_uart2_sending
 4981              	.LVL523:
 4982 20b0 0028     		cmp	r0, #0
 4983 20b2 FBD1     		bne	.L301
 4984 20b4 FEF7A6B8 		b	.L641
 4985              	.L729:
 4986              		.align	2
 4987              	.L728:
 4988 20b8 00060000 		.word	.LC45
 4989 20bc 44060000 		.word	.LC47
 4990 20c0 70060000 		.word	.LC48
 4991 20c4 90060000 		.word	.LC49
 4992 20c8 B8060000 		.word	.LC50
 4993 20cc E0060000 		.word	.LC51
 4994 20d0 10070000 		.word	.LC52
 4995 20d4 28070000 		.word	.LC53
 4996 20d8 3C070000 		.word	.LC54
 4997 20dc 60070000 		.word	.LC55
 4998 20e0 B0070000 		.word	.LC56
 4999 20e4 D8070000 		.word	.LC57
 5000 20e8 04080000 		.word	.LC58
 5001 20ec 20080000 		.word	.LC59
 5002 20f0 38080000 		.word	.LC60
 5003 20f4 54080000 		.word	.LC61
 5004 20f8 80080000 		.word	.LC62
 5005 20fc AC080000 		.word	.LC63
 5006 2100 C8080000 		.word	.LC64
 5007 2104 F4080000 		.word	.LC65
 5008 2108 24090000 		.word	.LC66
 5009 210c 4C090000 		.word	.LC67
 5010 2110 6C090000 		.word	.LC68
 5011 2114 94090000 		.word	.LC69
 5012 2118 00000000 		.word	buffer
 5013 211c 00000000 		.word	.LANCHOR8
 5014              	.L302:
 5015              		.loc 1 936 0 is_stmt 1
 5016 2120 109B     		ldr	r3, [sp, #64]
ARM GAS  C:\Users\osour\AppData\Local\Temp\ccsBkKuy.s 			page 89


 5017 2122 1A68     		ldr	r2, [r3]
 5018 2124 119B     		ldr	r3, [sp, #68]
 5019 2126 1B68     		ldr	r3, [r3]
 5020 2128 03FB02F3 		mul	r3, r3, r2
 5021 212c 0E9A     		ldr	r2, [sp, #56]
 5022 212e 5B00     		lsls	r3, r3, #1
 5023 2130 1360     		str	r3, [r2]
 5024 2132 FEF7BDBF 		b	.L303
 5025              	.L272:
 5026              		.loc 1 887 0
 5027 2136 2721     		movs	r1, #39
 5028 2138 4848     		ldr	r0, .L730
 5029 213a FFF7FEFF 		bl	e_send_uart2_char
 5030              	.LVL524:
 5031              	.L275:
 5032              		.loc 1 887 0 is_stmt 0 discriminator 2
 5033 213e FFF7FEFF 		bl	e_uart2_sending
 5034              	.LVL525:
 5035 2142 0028     		cmp	r0, #0
 5036 2144 FBD1     		bne	.L275
 5037 2146 3FE6     		b	.L274
 5038              	.L239:
 5039              		.loc 1 845 0 is_stmt 1
 5040 2148 2F21     		movs	r1, #47
 5041 214a 4548     		ldr	r0, .L730+4
 5042 214c FFF7FEFF 		bl	e_send_uart1_char
 5043              	.LVL526:
 5044              	.L242:
 5045              		.loc 1 845 0 is_stmt 0 discriminator 2
 5046 2150 FFF7FEFF 		bl	e_uart1_sending
 5047              	.LVL527:
 5048 2154 0028     		cmp	r0, #0
 5049 2156 FBD1     		bne	.L242
 5050 2158 FFF7E6BA 		b	.L241
 5051              	.L328:
 5052              		.loc 1 1034 0 is_stmt 1
 5053 215c FFF7FEFF 		bl	strlen
 5054              	.LVL528:
 5055 2160 0146     		mov	r1, r0
 5056 2162 4048     		ldr	r0, .L730+8
 5057 2164 FFF7FEFF 		bl	e_send_uart2_char
 5058              	.LVL529:
 5059              	.L330:
 5060              		.loc 1 1034 0 is_stmt 0 discriminator 2
 5061 2168 FFF7FEFF 		bl	e_uart2_sending
 5062              	.LVL530:
 5063 216c 0028     		cmp	r0, #0
 5064 216e FBD1     		bne	.L330
 5065 2170 FEF748B8 		b	.L641
 5066              	.L382:
 5067              		.loc 1 1217 0 is_stmt 1
 5068 2174 FFF7FEFF 		bl	e_send_uart2_char
 5069              	.LVL531:
 5070              	.L384:
 5071              		.loc 1 1217 0 is_stmt 0 discriminator 2
 5072 2178 FFF7FEFF 		bl	e_uart2_sending
 5073              	.LVL532:
ARM GAS  C:\Users\osour\AppData\Local\Temp\ccsBkKuy.s 			page 90


 5074 217c 0028     		cmp	r0, #0
 5075 217e FBD1     		bne	.L384
 5076 2180 FEF740B8 		b	.L641
 5077              	.L377:
 5078              		.loc 1 1207 0 is_stmt 1
 5079 2184 FFF7FEFF 		bl	strlen
 5080              	.LVL533:
 5081 2188 0146     		mov	r1, r0
 5082 218a 3648     		ldr	r0, .L730+8
 5083 218c FFF7FEFF 		bl	e_send_uart2_char
 5084              	.LVL534:
 5085              	.L380:
 5086              		.loc 1 1207 0 is_stmt 0 discriminator 2
 5087 2190 FFF7FEFF 		bl	e_uart2_sending
 5088              	.LVL535:
 5089 2194 0028     		cmp	r0, #0
 5090 2196 FBD1     		bne	.L380
 5091 2198 FEF7F3BF 		b	.L379
 5092              	.L707:
 5093              		.loc 1 855 0 is_stmt 1
 5094 219c 1821     		movs	r1, #24
 5095 219e 3248     		ldr	r0, .L730+12
 5096 21a0 FFF7FEFF 		bl	e_send_uart1_char
 5097              	.LVL536:
 5098              	.L249:
 5099              		.loc 1 855 0 is_stmt 0 discriminator 2
 5100 21a4 FFF7FEFF 		bl	e_uart1_sending
 5101              	.LVL537:
 5102 21a8 0028     		cmp	r0, #0
 5103 21aa FBD1     		bne	.L249
 5104 21ac FFF7E9BA 		b	.L248
 5105              	.L709:
 5106              		.loc 1 882 0 is_stmt 1
 5107 21b0 1921     		movs	r1, #25
 5108 21b2 2E48     		ldr	r0, .L730+16
 5109 21b4 FFF7FEFF 		bl	e_send_uart2_char
 5110              	.LVL538:
 5111              	.L271:
 5112              		.loc 1 882 0 is_stmt 0 discriminator 2
 5113 21b8 FFF7FEFF 		bl	e_uart2_sending
 5114              	.LVL539:
 5115 21bc 0028     		cmp	r0, #0
 5116 21be FBD1     		bne	.L271
 5117 21c0 F5E5     		b	.L270
 5118              	.L708:
 5119              		.loc 1 873 0 is_stmt 1
 5120 21c2 1F21     		movs	r1, #31
 5121 21c4 2A48     		ldr	r0, .L730+20
 5122 21c6 FFF7FEFF 		bl	e_send_uart1_char
 5123              	.LVL540:
 5124              	.L264:
 5125              		.loc 1 873 0 is_stmt 0 discriminator 2
 5126 21ca FFF7FEFF 		bl	e_uart1_sending
 5127              	.LVL541:
 5128 21ce 0028     		cmp	r0, #0
 5129 21d0 FBD1     		bne	.L264
 5130 21d2 FFF743BB 		b	.L263
ARM GAS  C:\Users\osour\AppData\Local\Temp\ccsBkKuy.s 			page 91


 5131              	.L202:
 5132              		.loc 1 708 0 is_stmt 1
 5133 21d6 FFF7FEFF 		bl	getBatteryValueRaw
 5134              	.LVL542:
 5135 21da 0446     		mov	r4, r0
 5136 21dc FFF7FEFF 		bl	getBatteryValuePercentage
 5137              	.LVL543:
 5138 21e0 2246     		mov	r2, r4
 5139 21e2 0346     		mov	r3, r0
 5140 21e4 2349     		ldr	r1, .L730+24
 5141 21e6 1F48     		ldr	r0, .L730+8
 5142 21e8 FFF7FEFF 		bl	sprintf
 5143              	.LVL544:
 5144              		.loc 1 709 0
 5145 21ec 002F     		cmp	r7, #0
 5146 21ee 3FF445AD 		beq	.L397
 5147 21f2 FDF773BF 		b	.L6
 5148              	.LVL545:
 5149              	.L685:
 5150              	.LBE6:
 5151              		.loc 1 147 0
 5152 21f6 FFF7FEFF 		bl	e_acc_calibr
 5153              	.LVL546:
 5154              		.loc 1 148 0
 5155 21fa 5821     		movs	r1, #88
 5156 21fc 1E48     		ldr	r0, .L730+28
 5157 21fe FFF7FEFF 		bl	e_send_uart2_char
 5158              	.LVL547:
 5159              	.L8:
 5160              		.loc 1 148 0 is_stmt 0 discriminator 2
 5161 2202 FFF7FEFF 		bl	e_uart2_sending
 5162              	.LVL548:
 5163 2206 0790     		str	r0, [sp, #28]
 5164 2208 0028     		cmp	r0, #0
 5165 220a FAD1     		bne	.L8
 5166              		.loc 1 100 0 is_stmt 1
 5167 220c 0746     		mov	r7, r0
 5168 220e FDF75ABF 		b	.L3
 5169              	.LVL549:
 5170              	.L684:
 5171              		.loc 1 103 0
 5172 2212 FFF7FEFF 		bl	mountSDCard
 5173              	.LVL550:
 5174              		.loc 1 123 0
 5175 2216 194C     		ldr	r4, .L730+32
 5176              		.loc 1 127 0
 5177 2218 194B     		ldr	r3, .L730+36
 5178              		.loc 1 128 0
 5179 221a 1A49     		ldr	r1, .L730+40
 5180              		.loc 1 125 0
 5181 221c 1A4D     		ldr	r5, .L730+44
 5182              		.loc 1 126 0
 5183 221e 1B4E     		ldr	r6, .L730+48
 5184              		.loc 1 127 0
 5185 2220 1393     		str	r3, [sp, #76]
 5186              		.loc 1 128 0
 5187 2222 0E91     		str	r1, [sp, #56]
ARM GAS  C:\Users\osour\AppData\Local\Temp\ccsBkKuy.s 			page 92


 5188              		.loc 1 123 0
 5189 2224 1294     		str	r4, [sp, #72]
 5190              		.loc 1 125 0
 5191 2226 1095     		str	r5, [sp, #64]
 5192              		.loc 1 126 0
 5193 2228 1196     		str	r6, [sp, #68]
 5194              		.loc 1 112 0
 5195 222a FFF7FEFF 		bl	e_init_remote_control
 5196              	.LVL551:
 5197              		.loc 1 120 0
 5198 222e 0123     		movs	r3, #1
 5199 2230 174A     		ldr	r2, .L730+52
 5200 2232 4FF6FE71 		movw	r1, #65534
 5201 2236 7F20     		movs	r0, #127
 5202 2238 FFF7FEFF 		bl	ReadEE
 5203              	.LVL552:
 5204              		.loc 1 127 0
 5205 223c 104A     		ldr	r2, .L730+36
 5206 223e 0821     		movs	r1, #8
 5207              		.loc 1 125 0
 5208 2240 2823     		movs	r3, #40
 5209              		.loc 1 127 0
 5210 2242 1160     		str	r1, [r2]
 5211              		.loc 1 128 0
 5212 2244 0F49     		ldr	r1, .L730+40
 5213              		.loc 1 125 0
 5214 2246 2B60     		str	r3, [r5]
 5215              		.loc 1 126 0
 5216 2248 3360     		str	r3, [r6]
 5217              		.loc 1 128 0
 5218 224a 4FF44863 		mov	r3, #3200
 5219              		.loc 1 123 0
 5220 224e 0127     		movs	r7, #1
 5221              		.loc 1 128 0
 5222 2250 0B60     		str	r3, [r1]
 5223              		.loc 1 95 0
 5224 2252 0023     		movs	r3, #0
 5225              		.loc 1 123 0
 5226 2254 2760     		str	r7, [r4]
 5227              		.loc 1 95 0
 5228 2256 0793     		str	r3, [sp, #28]
 5229 2258 FDF735BF 		b	.L3
 5230              	.L731:
 5231              		.align	2
 5232              	.L730:
 5233 225c 1C060000 		.word	.LC46
 5234 2260 94010000 		.word	.LC19
 5235 2264 00000000 		.word	buffer
 5236 2268 A0020000 		.word	.LC25
 5237 226c E4050000 		.word	.LC44
 5238 2270 14050000 		.word	.LC39
 5239 2274 78000000 		.word	.LC3
 5240 2278 00000000 		.word	.LC0
 5241 227c 00000000 		.word	.LANCHOR1
 5242 2280 00000000 		.word	.LANCHOR4
 5243 2284 00000000 		.word	.LANCHOR5
 5244 2288 00000000 		.word	.LANCHOR2
ARM GAS  C:\Users\osour\AppData\Local\Temp\ccsBkKuy.s 			page 93


 5245 228c 00000000 		.word	.LANCHOR3
 5246 2290 00000000 		.word	.LANCHOR0
 5247              		.cfi_endproc
 5248              	.LFE260:
 5249              		.size	run_asercom2, .-run_asercom2
 5250              		.section	.bss.LED_action.13539,"aw",%nobits
 5251              		.align	2
 5252              		.set	.LANCHOR27,. + 0
 5253              		.type	LED_action.13539, %object
 5254              		.size	LED_action.13539, 4
 5255              	LED_action.13539:
 5256 0000 00000000 		.space	4
 5257              		.section	.bss.LED_nbr.13538,"aw",%nobits
 5258              		.align	2
 5259              		.set	.LANCHOR30,. + 0
 5260              		.type	LED_nbr.13538, %object
 5261              		.size	LED_nbr.13538, 4
 5262              	LED_nbr.13538:
 5263 0000 00000000 		.space	4
 5264              		.section	.bss.accelero.13563,"aw",%nobits
 5265              		.align	2
 5266              		.set	.LANCHOR15,. + 0
 5267              		.type	accelero.13563, %object
 5268              		.size	accelero.13563, 12
 5269              	accelero.13563:
 5270 0000 00000000 		.space	12
 5270      00000000 
 5270      00000000 
 5271              		.section	.bss.accx.13540,"aw",%nobits
 5272              		.align	2
 5273              		.set	.LANCHOR12,. + 0
 5274              		.type	accx.13540, %object
 5275              		.size	accx.13540, 4
 5276              	accx.13540:
 5277 0000 00000000 		.space	4
 5278              		.section	.bss.accy.13541,"aw",%nobits
 5279              		.align	2
 5280              		.set	.LANCHOR13,. + 0
 5281              		.type	accy.13541, %object
 5282              		.size	accy.13541, 4
 5283              	accy.13541:
 5284 0000 00000000 		.space	4
 5285              		.section	.bss.accz.13542,"aw",%nobits
 5286              		.align	2
 5287              		.set	.LANCHOR14,. + 0
 5288              		.type	accz.13542, %object
 5289              		.size	accz.13542, 4
 5290              	accz.13542:
 5291 0000 00000000 		.space	4
 5292              		.section	.bss.c1.13528,"aw",%nobits
 5293              		.set	.LANCHOR16,. + 0
 5294              		.type	c1.13528, %object
 5295              		.size	c1.13528, 1
 5296              	c1.13528:
 5297 0000 00       		.space	1
 5298              		.section	.bss.c2.13529,"aw",%nobits
 5299              		.set	.LANCHOR17,. + 0
ARM GAS  C:\Users\osour\AppData\Local\Temp\ccsBkKuy.s 			page 94


 5300              		.type	c2.13529, %object
 5301              		.size	c2.13529, 1
 5302              	c2.13529:
 5303 0000 00       		.space	1
 5304              		.section	.bss.cam_heigth.13549,"aw",%nobits
 5305              		.align	2
 5306              		.set	.LANCHOR3,. + 0
 5307              		.type	cam_heigth.13549, %object
 5308              		.size	cam_heigth.13549, 4
 5309              	cam_heigth.13549:
 5310 0000 00000000 		.space	4
 5311              		.section	.bss.cam_mode.13547,"aw",%nobits
 5312              		.align	2
 5313              		.set	.LANCHOR1,. + 0
 5314              		.type	cam_mode.13547, %object
 5315              		.size	cam_mode.13547, 4
 5316              	cam_mode.13547:
 5317 0000 00000000 		.space	4
 5318              		.section	.bss.cam_size.13551,"aw",%nobits
 5319              		.align	2
 5320              		.set	.LANCHOR5,. + 0
 5321              		.type	cam_size.13551, %object
 5322              		.size	cam_size.13551, 4
 5323              	cam_size.13551:
 5324 0000 00000000 		.space	4
 5325              		.section	.bss.cam_width.13548,"aw",%nobits
 5326              		.align	2
 5327              		.set	.LANCHOR2,. + 0
 5328              		.type	cam_width.13548, %object
 5329              		.size	cam_width.13548, 4
 5330              	cam_width.13548:
 5331 0000 00000000 		.space	4
 5332              		.section	.bss.cam_x1.13552,"aw",%nobits
 5333              		.align	2
 5334              		.set	.LANCHOR28,. + 0
 5335              		.type	cam_x1.13552, %object
 5336              		.size	cam_x1.13552, 4
 5337              	cam_x1.13552:
 5338 0000 00000000 		.space	4
 5339              		.section	.bss.cam_y1.13553,"aw",%nobits
 5340              		.align	2
 5341              		.set	.LANCHOR29,. + 0
 5342              		.type	cam_y1.13553, %object
 5343              		.size	cam_y1.13553, 4
 5344              	cam_y1.13553:
 5345 0000 00000000 		.space	4
 5346              		.section	.bss.cam_zoom.13550,"aw",%nobits
 5347              		.align	2
 5348              		.set	.LANCHOR4,. + 0
 5349              		.type	cam_zoom.13550, %object
 5350              		.size	cam_zoom.13550, 4
 5351              	cam_zoom.13550:
 5352 0000 00000000 		.space	4
 5353              		.section	.bss.first.13554,"aw",%nobits
 5354              		.set	.LANCHOR8,. + 0
 5355              		.type	first.13554, %object
 5356              		.size	first.13554, 1
ARM GAS  C:\Users\osour\AppData\Local\Temp\ccsBkKuy.s 			page 95


 5357              	first.13554:
 5358 0000 00       		.space	1
 5359              		.section	.bss.gyrox.13544,"aw",%nobits
 5360              		.align	2
 5361              		.set	.LANCHOR20,. + 0
 5362              		.type	gyrox.13544, %object
 5363              		.size	gyrox.13544, 4
 5364              	gyrox.13544:
 5365 0000 00000000 		.space	4
 5366              		.section	.bss.gyroy.13545,"aw",%nobits
 5367              		.align	2
 5368              		.set	.LANCHOR19,. + 0
 5369              		.type	gyroy.13545, %object
 5370              		.size	gyroy.13545, 4
 5371              	gyroy.13545:
 5372 0000 00000000 		.space	4
 5373              		.section	.bss.gyroz.13546,"aw",%nobits
 5374              		.align	2
 5375              		.set	.LANCHOR18,. + 0
 5376              		.type	gyroz.13546, %object
 5377              		.size	gyroz.13546, 4
 5378              	gyroz.13546:
 5379 0000 00000000 		.space	4
 5380              		.section	.bss.i.13531,"aw",%nobits
 5381              		.align	2
 5382              		.set	.LANCHOR9,. + 0
 5383              		.type	i.13531, %object
 5384              		.size	i.13531, 4
 5385              	i.13531:
 5386 0000 00000000 		.space	4
 5387              		.section	.bss.j.13532,"aw",%nobits
 5388              		.align	2
 5389              		.set	.LANCHOR10,. + 0
 5390              		.type	j.13532, %object
 5391              		.size	j.13532, 4
 5392              	j.13532:
 5393 0000 00000000 		.space	4
 5394              		.section	.bss.mod.13557,"aw",%nobits
 5395              		.align	2
 5396              		.set	.LANCHOR24,. + 0
 5397              		.type	mod.13557, %object
 5398              		.size	mod.13557, 4
 5399              	mod.13557:
 5400 0000 00000000 		.space	4
 5401              		.section	.bss.positionl.13537,"aw",%nobits
 5402              		.align	2
 5403              		.set	.LANCHOR22,. + 0
 5404              		.type	positionl.13537, %object
 5405              		.size	positionl.13537, 4
 5406              	positionl.13537:
 5407 0000 00000000 		.space	4
 5408              		.section	.bss.positionr.13536,"aw",%nobits
 5409              		.align	2
 5410              		.set	.LANCHOR23,. + 0
 5411              		.type	positionr.13536, %object
 5412              		.size	positionr.13536, 4
 5413              	positionr.13536:
ARM GAS  C:\Users\osour\AppData\Local\Temp\ccsBkKuy.s 			page 96


 5414 0000 00000000 		.space	4
 5415              		.section	.bss.reg.13558,"aw",%nobits
 5416              		.align	2
 5417              		.set	.LANCHOR25,. + 0
 5418              		.type	reg.13558, %object
 5419              		.size	reg.13558, 4
 5420              	reg.13558:
 5421 0000 00000000 		.space	4
 5422              		.section	.bss.rgb_value.13555,"aw",%nobits
 5423              		.align	2
 5424              		.set	.LANCHOR11,. + 0
 5425              		.type	rgb_value.13555, %object
 5426              		.size	rgb_value.13555, 12
 5427              	rgb_value.13555:
 5428 0000 00000000 		.space	12
 5428      00000000 
 5428      00000000 
 5429              		.section	.bss.sound.13543,"aw",%nobits
 5430              		.align	2
 5431              		.set	.LANCHOR31,. + 0
 5432              		.type	sound.13543, %object
 5433              		.size	sound.13543, 4
 5434              	sound.13543:
 5435 0000 00000000 		.space	4
 5436              		.section	.bss.speedl.13535,"aw",%nobits
 5437              		.align	2
 5438              		.set	.LANCHOR7,. + 0
 5439              		.type	speedl.13535, %object
 5440              		.size	speedl.13535, 4
 5441              	speedl.13535:
 5442 0000 00000000 		.space	4
 5443              		.section	.bss.speedr.13534,"aw",%nobits
 5444              		.align	2
 5445              		.set	.LANCHOR6,. + 0
 5446              		.type	speedr.13534, %object
 5447              		.size	speedr.13534, 4
 5448              	speedr.13534:
 5449 0000 00000000 		.space	4
 5450              		.section	.bss.val.13559,"aw",%nobits
 5451              		.align	2
 5452              		.set	.LANCHOR26,. + 0
 5453              		.type	val.13559, %object
 5454              		.size	val.13559, 4
 5455              	val.13559:
 5456 0000 00000000 		.space	4
 5457              		.section	.bss.wait_cam.13530,"aw",%nobits
 5458              		.set	.LANCHOR21,. + 0
 5459              		.type	wait_cam.13530, %object
 5460              		.size	wait_cam.13530, 1
 5461              	wait_cam.13530:
 5462 0000 00       		.space	1
 5463              		.section	.data.HWversion.13568,"aw",%progbits
 5464              		.align	2
 5465              		.set	.LANCHOR0,. + 0
 5466              		.type	HWversion.13568, %object
 5467              		.size	HWversion.13568, 4
 5468              	HWversion.13568:
ARM GAS  C:\Users\osour\AppData\Local\Temp\ccsBkKuy.s 			page 97


 5469 0000 FFFF0000 		.word	65535
 5470              		.section	.rodata.run_asercom2.str1.4,"aMS",%progbits,1
 5471              		.align	2
 5472              	.LC0:
 5473 0000 0C075745 		.ascii	"\014\007WELCOME to the SerCom protocol on e-Puck\015"
 5473      4C434F4D 
 5473      4520746F 
 5473      20746865 
 5473      20536572 
 5474 002b 0A746865 		.ascii	"\012the EPFL education robot type \"H\" for help\015"
 5474      20455046 
 5474      4C206564 
 5474      75636174 
 5474      696F6E20 
 5475 0057 0A00     		.ascii	"\012\000"
 5476 0059 000000   		.space	3
 5477              	.LC1:
 5478 005c 612C2564 		.ascii	"a,%d,%d,%d\015\012\000"
 5478      2C25642C 
 5478      25640D0A 
 5478      00
 5479 0069 000000   		.space	3
 5480              	.LC2:
 5481 006c 612C302C 		.ascii	"a,0,0,0\015\012\000"
 5481      302C300D 
 5481      0A00
 5482 0076 0000     		.space	2
 5483              	.LC3:
 5484 0078 622C2564 		.ascii	"b,%d (%d%%)\015\012\000"
 5484      20282564 
 5484      2525290D 
 5484      0A00
 5485 0086 0000     		.space	2
 5486              	.LC4:
 5487 0088 422C2564 		.ascii	"B,%d\015\000"
 5487      0D00
 5488 008e 0000     		.space	2
 5489              	.LC5:
 5490 0090 620D0A00 		.ascii	"b\015\012\000"
 5491              	.LC6:
 5492 0094 632C2564 		.ascii	"c,%d\015\012\000"
 5492      0D0A00
 5493 009b 00       		.space	1
 5494              	.LC7:
 5495 009c 442C2564 		.ascii	"D,%d,%d\015\000"
 5495      2C25640D 
 5495      00
 5496 00a5 000000   		.space	3
 5497              	.LC8:
 5498 00a8 640D0A00 		.ascii	"d\015\012\000"
 5499              	.LC9:
 5500 00ac 652C2564 		.ascii	"e,%d,%d\015\012\000"
 5500      2C25640D 
 5500      0A00
 5501 00b6 0000     		.space	2
 5502              	.LC10:
 5503 00b8 462C2564 		.ascii	"F,%d\015\000"
ARM GAS  C:\Users\osour\AppData\Local\Temp\ccsBkKuy.s 			page 98


 5503      0D00
 5504 00be 0000     		.space	2
 5505              	.LC11:
 5506 00c0 660D0A00 		.ascii	"f\015\012\000"
 5507              	.LC12:
 5508 00c4 67204952 		.ascii	"g IR check : 0x%x, address : 0x%x, data : 0x%x\015\012"
 5508      20636865 
 5508      636B203A 
 5508      20307825 
 5508      782C2061 
 5509 00f4 00       		.ascii	"\000"
 5510 00f5 000000   		.space	3
 5511              	.LC13:
 5512 00f8 672C2564 		.ascii	"g,%d,%d,%d\015\012\000"
 5512      2C25642C 
 5512      25640D0A 
 5512      00
 5513 0105 000000   		.space	3
 5514              	.LC14:
 5515 0108 672C302C 		.ascii	"g,0,0,0\015\012\000"
 5515      302C300D 
 5515      0A00
 5516 0112 0000     		.space	2
 5517              	.LC15:
 5518 0114 0A00     		.ascii	"\012\000"
 5519 0116 0000     		.space	2
 5520              	.LC16:
 5521 0118 22412220 		.ascii	"\"A\"               Accelerometer\015\012\000"
 5521      20202020 
 5521      20202020 
 5521      20202020 
 5521      20204163 
 5522 013a 0000     		.space	2
 5523              	.LC17:
 5524 013c 22422C23 		.ascii	"\"B,#\"             Body led 0=off 1=on 2=inverse\015"
 5524      22202020 
 5524      20202020 
 5524      20202020 
 5524      2020426F 
 5525 016c 0A00     		.ascii	"\012\000"
 5526 016e 0000     		.space	2
 5527              	.LC18:
 5528 0170 22622220 		.ascii	"\"b\"               Battery value\015\012\000"
 5528      20202020 
 5528      20202020 
 5528      20202020 
 5528      20204261 
 5529 0192 0000     		.space	2
 5530              	.LC19:
 5531 0194 22622220 		.ascii	"\"b\"               Battery state (1=ok, 0=low)\015"
 5531      20202020 
 5531      20202020 
 5531      20202020 
 5531      20204261 
 5532 01c2 0A00     		.ascii	"\012\000"
 5533              	.LC20:
 5534 01c4 22432220 		.ascii	"\"C\"               Selector position\015\012\000"
ARM GAS  C:\Users\osour\AppData\Local\Temp\ccsBkKuy.s 			page 99


 5534      20202020 
 5534      20202020 
 5534      20202020 
 5534      20205365 
 5535 01ea 0000     		.space	2
 5536              	.LC21:
 5537 01ec 22442C23 		.ascii	"\"D,#,#\"           Set motor speed left,right\015\012"
 5537      2C232220 
 5537      20202020 
 5537      20202020 
 5537      20205365 
 5538 021a 00       		.ascii	"\000"
 5539 021b 00       		.space	1
 5540              	.LC22:
 5541 021c 22452220 		.ascii	"\"E\"               Get motor speed left,right\015\012"
 5541      20202020 
 5541      20202020 
 5541      20202020 
 5541      20204765 
 5542 024a 00       		.ascii	"\000"
 5543 024b 00       		.space	1
 5544              	.LC23:
 5545 024c 22462C23 		.ascii	"\"F,#\"             Front led 0=off 1=on 2=inverse\015"
 5545      22202020 
 5545      20202020 
 5545      20202020 
 5545      20204672 
 5546 027d 0A00     		.ascii	"\012\000"
 5547 027f 00       		.space	1
 5548              	.LC24:
 5549 0280 22472220 		.ascii	"\"G\"               IR receiver\015\012\000"
 5549      20202020 
 5549      20202020 
 5549      20202020 
 5549      20204952 
 5550              	.LC25:
 5551 02a0 22672220 		.ascii	"\"g\"               Gyro\015\012\000"
 5551      20202020 
 5551      20202020 
 5551      20202020 
 5551      20204779 
 5552 02b9 000000   		.space	3
 5553              	.LC26:
 5554 02bc 22482220 		.ascii	"\"H\"               Help\015\012\000"
 5554      20202020 
 5554      20202020 
 5554      20202020 
 5554      20204865 
 5555 02d5 000000   		.space	3
 5556              	.LC27:
 5557 02d8 22492220 		.ascii	"\"I\"               Get camera parameter\015\012\000"
 5557      20202020 
 5557      20202020 
 5557      20202020 
 5557      20204765 
 5558 0301 000000   		.space	3
 5559              	.LC28:
ARM GAS  C:\Users\osour\AppData\Local\Temp\ccsBkKuy.s 			page 100


 5560 0304 224A2C23 		.ascii	"\"J,#,#,#,#,#,#\"   Set camera parameter mode,width"
 5560      2C232C23 
 5560      2C232C23 
 5560      2C232220 
 5560      20205365 
 5561 0335 2C686569 		.ascii	",heigth,zoom(1,4 or 8),x1,y1\015\012\000"
 5561      6774682C 
 5561      7A6F6F6D 
 5561      28312C34 
 5561      206F7220 
 5562              	.LC29:
 5563 0354 224B2220 		.ascii	"\"K\"               Calibrate proximity sensors\015"
 5563      20202020 
 5563      20202020 
 5563      20202020 
 5563      20204361 
 5564 0382 0A00     		.ascii	"\012\000"
 5565              	.LC30:
 5566 0384 224C2C23 		.ascii	"\"L,#,#\"           Led number,0=off 1=on 2=inverse"
 5566      2C232220 
 5566      20202020 
 5566      20202020 
 5566      20204C65 
 5567 03b5 0D0A00   		.ascii	"\015\012\000"
 5568              	.LC31:
 5569 03b8 224D2220 		.ascii	"\"M\"               Floor sensors\015\012\000"
 5569      20202020 
 5569      20202020 
 5569      20202020 
 5569      2020466C 
 5570 03da 0000     		.space	2
 5571              	.LC32:
 5572 03dc 224E2220 		.ascii	"\"N\"               Proximity\015\012\000"
 5572      20202020 
 5572      20202020 
 5572      20202020 
 5572      20205072 
 5573 03fa 0000     		.space	2
 5574              	.LC33:
 5575 03fc 224F2220 		.ascii	"\"O\"               Light sensors\015\012\000"
 5575      20202020 
 5575      20202020 
 5575      20202020 
 5575      20204C69 
 5576 041e 0000     		.space	2
 5577              	.LC34:
 5578 0420 22502C23 		.ascii	"\"P,#,#\"           Set motor position left,right\015"
 5578      2C232220 
 5578      20202020 
 5578      20202020 
 5578      20205365 
 5579 0450 0A00     		.ascii	"\012\000"
 5580 0452 0000     		.space	2
 5581              	.LC35:
 5582 0454 22512220 		.ascii	"\"Q\"               Get motor position left,right\015"
 5582      20202020 
 5582      20202020 
ARM GAS  C:\Users\osour\AppData\Local\Temp\ccsBkKuy.s 			page 101


 5582      20202020 
 5582      20204765 
 5583 0484 0A00     		.ascii	"\012\000"
 5584 0486 0000     		.space	2
 5585              	.LC36:
 5586 0488 22522220 		.ascii	"\"R\"               Reset e-puck\015\012\000"
 5586      20202020 
 5586      20202020 
 5586      20202020 
 5586      20205265 
 5587 04a9 000000   		.space	3
 5588              	.LC37:
 5589 04ac 22532220 		.ascii	"\"S\"               Stop e-puck and turn off leds\015"
 5589      20202020 
 5589      20202020 
 5589      20202020 
 5589      20205374 
 5590 04dc 0A00     		.ascii	"\012\000"
 5591 04de 0000     		.space	2
 5592              	.LC38:
 5593 04e0 22542C23 		.ascii	"\"T,#\"             Play sound 1-5 else stop sound\015"
 5593      22202020 
 5593      20202020 
 5593      20202020 
 5593      2020506C 
 5594 0511 0A00     		.ascii	"\012\000"
 5595 0513 00       		.space	1
 5596              	.LC39:
 5597 0514 22742220 		.ascii	"\"t\"               Temperature\015\012\000"
 5597      20202020 
 5597      20202020 
 5597      20202020 
 5597      20205465 
 5598              	.LC40:
 5599 0534 22552220 		.ascii	"\"U\"               Get microphone amplitude\015\012"
 5599      20202020 
 5599      20202020 
 5599      20202020 
 5599      20204765 
 5600 0560 00       		.ascii	"\000"
 5601 0561 000000   		.space	3
 5602              	.LC41:
 5603 0564 22562220 		.ascii	"\"V\"               Version of SerCom\015\012\000"
 5603      20202020 
 5603      20202020 
 5603      20202020 
 5603      20205665 
 5604 058a 0000     		.space	2
 5605              	.LC42:
 5606 058c 22572220 		.ascii	"\"W\"               Write I2C (mod,reg,val)\015\012"
 5606      20202020 
 5606      20202020 
 5606      20202020 
 5606      20205772 
 5607 05b7 00       		.ascii	"\000"
 5608              	.LC43:
 5609 05b8 22592220 		.ascii	"\"Y\"               Read I2C val=(mod,reg)\015\012\000"
ARM GAS  C:\Users\osour\AppData\Local\Temp\ccsBkKuy.s 			page 102


 5609      20202020 
 5609      20202020 
 5609      20202020 
 5609      20205265 
 5610 05e3 00       		.space	1
 5611              	.LC44:
 5612 05e4 22412220 		.ascii	"\"A\"       Accelerometer\015\012\000"
 5612      20202020 
 5612      20204163 
 5612      63656C65 
 5612      726F6D65 
 5613 05fe 0000     		.space	2
 5614              	.LC45:
 5615 0600 22622220 		.ascii	"\"b\"       Battery value\015\012\000"
 5615      20202020 
 5615      20204261 
 5615      74746572 
 5615      79207661 
 5616 061a 0000     		.space	2
 5617              	.LC46:
 5618 061c 22622220 		.ascii	"\"b\"       Battery state (1=ok, 0=low)\015\012\000"
 5618      20202020 
 5618      20204261 
 5618      74746572 
 5618      79207374 
 5619              	.LC47:
 5620 0644 22422C23 		.ascii	"\"B,#\"       Body led 0=off 1=on 2=inverse\015\012"
 5620      22202020 
 5620      20202020 
 5620      426F6479 
 5620      206C6564 
 5621 066f 00       		.ascii	"\000"
 5622              	.LC48:
 5623 0670 22432220 		.ascii	"\"C\"       Selector position\015\012\000"
 5623      20202020 
 5623      20205365 
 5623      6C656374 
 5623      6F722070 
 5624 068e 0000     		.space	2
 5625              	.LC49:
 5626 0690 22442C23 		.ascii	"\"D,#,#\"   Set motor speed left,right\015\012\000"
 5626      2C232220 
 5626      20205365 
 5626      74206D6F 
 5626      746F7220 
 5627 06b7 00       		.space	1
 5628              	.LC50:
 5629 06b8 22452220 		.ascii	"\"E\"       Get motor speed left,right\015\012\000"
 5629      20202020 
 5629      20204765 
 5629      74206D6F 
 5629      746F7220 
 5630 06df 00       		.space	1
 5631              	.LC51:
 5632 06e0 22462C23 		.ascii	"\"F,#\"       Front led 0=off 1=on 2=inverse\015\012"
 5632      22202020 
 5632      20202020 
ARM GAS  C:\Users\osour\AppData\Local\Temp\ccsBkKuy.s 			page 103


 5632      46726F6E 
 5632      74206C65 
 5633 070c 00       		.ascii	"\000"
 5634 070d 000000   		.space	3
 5635              	.LC52:
 5636 0710 22472220 		.ascii	"\"G\"       IR receiver\015\012\000"
 5636      20202020 
 5636      20204952 
 5636      20726563 
 5636      65697665 
 5637              	.LC53:
 5638 0728 22482220 		.ascii	"\"H\"       Help\015\012\000"
 5638      20202020 
 5638      20204865 
 5638      6C700D0A 
 5638      00
 5639 0739 000000   		.space	3
 5640              	.LC54:
 5641 073c 22492220 		.ascii	"\"I\"         Get camera parameter\015\012\000"
 5641      20202020 
 5641      20202020 
 5641      47657420 
 5641      63616D65 
 5642 075f 00       		.space	1
 5643              	.LC55:
 5644 0760 224A2C23 		.ascii	"\"J,#,#,#,#,#,#\" Set camera parameter mode,width,h"
 5644      2C232C23 
 5644      2C232C23 
 5644      2C232220 
 5644      53657420 
 5645 0791 65696774 		.ascii	"eigth,zoom(1,4 or 8),x1,y1\015\012\000"
 5645      682C7A6F 
 5645      6F6D2831 
 5645      2C34206F 
 5645      72203829 
 5646 07ae 0000     		.space	2
 5647              	.LC56:
 5648 07b0 224B2220 		.ascii	"\"K\"       Calibrate proximity sensors\015\012\000"
 5648      20202020 
 5648      20204361 
 5648      6C696272 
 5648      61746520 
 5649              	.LC57:
 5650 07d8 224C2C23 		.ascii	"\"L,#,#\"   Led number,0=off 1=on 2=inverse\015\012"
 5650      2C232220 
 5650      20204C65 
 5650      64206E75 
 5650      6D626572 
 5651 0803 00       		.ascii	"\000"
 5652              	.LC58:
 5653 0804 224D2220 		.ascii	"\"M\"       Floor sensors\015\012\000"
 5653      20202020 
 5653      2020466C 
 5653      6F6F7220 
 5653      73656E73 
 5654 081e 0000     		.space	2
 5655              	.LC59:
ARM GAS  C:\Users\osour\AppData\Local\Temp\ccsBkKuy.s 			page 104


 5656 0820 224E2220 		.ascii	"\"N\"       Proximity\015\012\000"
 5656      20202020 
 5656      20205072 
 5656      6F78696D 
 5656      6974790D 
 5657 0836 0000     		.space	2
 5658              	.LC60:
 5659 0838 224F2220 		.ascii	"\"O\"       Light sensors\015\012\000"
 5659      20202020 
 5659      20204C69 
 5659      67687420 
 5659      73656E73 
 5660 0852 0000     		.space	2
 5661              	.LC61:
 5662 0854 22502C23 		.ascii	"\"P,#,#\"   Set motor position left,right\015\012\000"
 5662      2C232220 
 5662      20205365 
 5662      74206D6F 
 5662      746F7220 
 5663 087e 0000     		.space	2
 5664              	.LC62:
 5665 0880 22512220 		.ascii	"\"Q\"       Get motor position left,right\015\012\000"
 5665      20202020 
 5665      20204765 
 5665      74206D6F 
 5665      746F7220 
 5666 08aa 0000     		.space	2
 5667              	.LC63:
 5668 08ac 22522220 		.ascii	"\"R\"       Reset e-puck\015\012\000"
 5668      20202020 
 5668      20205265 
 5668      73657420 
 5668      652D7075 
 5669 08c5 000000   		.space	3
 5670              	.LC64:
 5671 08c8 22532220 		.ascii	"\"S\"       Stop e-puck and turn off leds\015\012\000"
 5671      20202020 
 5671      20205374 
 5671      6F702065 
 5671      2D707563 
 5672 08f2 0000     		.space	2
 5673              	.LC65:
 5674 08f4 22542C23 		.ascii	"\"T,#\"       Play sound 1-5 else stop sound\015\012"
 5674      22202020 
 5674      20202020 
 5674      506C6179 
 5674      20736F75 
 5675 0920 00       		.ascii	"\000"
 5676 0921 000000   		.space	3
 5677              	.LC66:
 5678 0924 22552220 		.ascii	"\"U\"       Get microphone amplitude\015\012\000"
 5678      20202020 
 5678      20204765 
 5678      74206D69 
 5678      63726F70 
 5679 0949 000000   		.space	3
 5680              	.LC67:
ARM GAS  C:\Users\osour\AppData\Local\Temp\ccsBkKuy.s 			page 105


 5681 094c 22562220 		.ascii	"\"V\"       Version of SerCom\015\012\000"
 5681      20202020 
 5681      20205665 
 5681      7273696F 
 5681      6E206F66 
 5682 096a 0000     		.space	2
 5683              	.LC68:
 5684 096c 22572220 		.ascii	"\"W\"         Write I2C (mod,reg,val)\015\012\000"
 5684      20202020 
 5684      20202020 
 5684      57726974 
 5684      65204932 
 5685 0992 0000     		.space	2
 5686              	.LC69:
 5687 0994 22592220 		.ascii	"\"Y\"         Read I2C val=(mod,reg)\015\012\000"
 5687      20202020 
 5687      20202020 
 5687      52656164 
 5687      20493243 
 5688 09b9 000000   		.space	3
 5689              	.LC70:
 5690 09bc 692C2564 		.ascii	"i,%d,%d,%d,%d,%d\015\012\000"
 5690      2C25642C 
 5690      25642C25 
 5690      642C2564 
 5690      0D0A00
 5691 09cf 00       		.space	1
 5692              	.LC71:
 5693 09d0 4A2C2564 		.ascii	"J,%d,%d,%d,%d,%d,%d\015\000"
 5693      2C25642C 
 5693      25642C25 
 5693      642C2564 
 5693      2C25640D 
 5694 09e5 000000   		.space	3
 5695              	.LC72:
 5696 09e8 6A0D0A00 		.ascii	"j\015\012\000"
 5697              	.LC73:
 5698 09ec 6B2C2053 		.ascii	"k, Starting calibration - Remove any object in sens"
 5698      74617274 
 5698      696E6720 
 5698      63616C69 
 5698      62726174 
 5699 0a1f 6F727320 		.ascii	"ors range\015\012\000"
 5699      72616E67 
 5699      650D0A00 
 5700 0a2b 00       		.space	1
 5701              	.LC74:
 5702 0a2c 4C2C2564 		.ascii	"L,%d,%d\015\000"
 5702      2C25640D 
 5702      00
 5703 0a35 000000   		.space	3
 5704              	.LC75:
 5705 0a38 6C0D0A00 		.ascii	"l\015\012\000"
 5706              	.LC76:
 5707 0a3c 6D2C2564 		.ascii	"m,%d,%d,%d,%d,%d\015\012\000"
 5707      2C25642C 
 5707      25642C25 
ARM GAS  C:\Users\osour\AppData\Local\Temp\ccsBkKuy.s 			page 106


 5707      642C2564 
 5707      0D0A00
 5708 0a4f 00       		.space	1
 5709              	.LC77:
 5710 0a50 6E2C2564 		.ascii	"n,%d,%d,%d,%d,%d,%d,%d,%d\015\012\000"
 5710      2C25642C 
 5710      25642C25 
 5710      642C2564 
 5710      2C25642C 
 5711              	.LC78:
 5712 0a6c 6F2C2564 		.ascii	"o,%d,%d,%d,%d,%d,%d,%d,%d\015\012\000"
 5712      2C25642C 
 5712      25642C25 
 5712      642C2564 
 5712      2C25642C 
 5713              	.LC79:
 5714 0a88 502C2564 		.ascii	"P,%d,%d\015\000"
 5714      2C25640D 
 5714      00
 5715 0a91 000000   		.space	3
 5716              	.LC80:
 5717 0a94 700D0A00 		.ascii	"p\015\012\000"
 5718              	.LC81:
 5719 0a98 712C2564 		.ascii	"q,%d,%d\015\012\000"
 5719      2C25640D 
 5719      0A00
 5720 0aa2 0000     		.space	2
 5721              	.LC82:
 5722 0aa4 730D0A00 		.ascii	"s\015\012\000"
 5723              	.LC83:
 5724 0aa8 542C2564 		.ascii	"T,%d\000"
 5724      00
 5725 0aad 000000   		.space	3
 5726              	.LC84:
 5727 0ab0 740D0A00 		.ascii	"t\015\012\000"
 5728              	.LC85:
 5729 0ab4 742C2564 		.ascii	"t,%d\015\012\000"
 5729      0D0A00
 5730 0abb 00       		.space	1
 5731              	.LC86:
 5732 0abc 742C300D 		.ascii	"t,0\015\012\000"
 5732      0A00
 5733 0ac2 0000     		.space	2
 5734              	.LC87:
 5735 0ac4 752C2564 		.ascii	"u,%d,%d,%d\015\012\000"
 5735      2C25642C 
 5735      25640D0A 
 5735      00
 5736 0ad1 000000   		.space	3
 5737              	.LC88:
 5738 0ad4 762C5665 		.ascii	"v,Version 2.0 January 2018 GCtronic\015\012\000"
 5738      7273696F 
 5738      6E20322E 
 5738      30204A61 
 5738      6E756172 
 5739 0afa 0000     		.space	2
 5740              	.LC89:
ARM GAS  C:\Users\osour\AppData\Local\Temp\ccsBkKuy.s 			page 107


 5741 0afc 572C2564 		.ascii	"W,%d,%d,%d\015\000"
 5741      2C25642C 
 5741      25640D00 
 5742              	.LC90:
 5743 0b08 770D0A00 		.ascii	"w\015\012\000"
 5744              	.LC91:
 5745 0b0c 592C2564 		.ascii	"Y,%d,%d\015\000"
 5745      2C25640D 
 5745      00
 5746 0b15 000000   		.space	3
 5747              	.LC92:
 5748 0b18 792C2564 		.ascii	"y,%d,%d\015\012\000"
 5748      2C25640D 
 5748      0A00
 5749 0b22 0000     		.space	2
 5750              	.LC93:
 5751 0b24 792C2564 		.ascii	"y,%d\015\012\000"
 5751      0D0A00
 5752 0b2b 00       		.space	1
 5753              	.LC94:
 5754 0b2c 25643A20 		.ascii	"%d: %d\015\012\000"
 5754      25640D0A 
 5754      00
 5755 0b35 000000   		.space	3
 5756              	.LC95:
 5757 0b38 7A2C436F 		.ascii	"z,Command not found\015\012\000"
 5757      6D6D616E 
 5757      64206E6F 
 5757      7420666F 
 5757      756E640D 
 5758 0b4e 0000     		.space	2
 5759              	.LC96:
 5760 0b50 48572076 		.ascii	"HW version: %X\015\012\000"
 5760      65727369 
 5760      6F6E3A20 
 5760      25580D0A 
 5760      00
 5761 0b61 000000   		.space	3
 5762              	.LC97:
 5763 0b64 6B2C2043 		.ascii	"k, Calibration finished\015\012\000"
 5763      616C6962 
 5763      72617469 
 5763      6F6E2066 
 5763      696E6973 
 5764              		.text
 5765              	.Letext0:
 5766              		.file 2 "c:\\users\\osour\\desktop\\robotique\\eclipse_e-puck2\\tools\\gcc-arm-none-eabi-7-2017-q4
 5767              		.file 3 "c:\\users\\osour\\desktop\\robotique\\eclipse_e-puck2\\tools\\gcc-arm-none-eabi-7-2017-q4
 5768              		.file 4 "c:\\users\\osour\\desktop\\robotique\\eclipse_e-puck2\\tools\\gcc-arm-none-eabi-7-2017-q4
 5769              		.file 5 "../../lib/e-puck2_main-processor/ChibiOS//os/rt/ports/ARMCMx/compilers/GCC/chtypes.h"
 5770              		.file 6 "../../lib/e-puck2_main-processor/ChibiOS//os/rt/include/chsystypes.h"
 5771              		.file 7 "../../lib/e-puck2_main-processor/ChibiOS//os/rt/include/chschd.h"
 5772              		.file 8 "../../lib/e-puck2_main-processor/ChibiOS//os/ext/CMSIS/include/core_cm4.h"
 5773              		.file 9 "../../lib/e-puck2_main-processor/ChibiOS//os/ext/CMSIS/ST/system_stm32f4xx.h"
 5774              		.file 10 "../../lib/e-puck2_main-processor/ChibiOS//os/ext/CMSIS/ST/stm32f407xx.h"
 5775              		.file 11 "../../lib/e-puck2_main-processor/ChibiOS//os/rt/ports/ARMCMx/chcore.h"
 5776              		.file 12 "../../lib/e-puck2_main-processor/ChibiOS//os/rt/ports/ARMCMx/chcore_v7m.h"
ARM GAS  C:\Users\osour\AppData\Local\Temp\ccsBkKuy.s 			page 108


 5777              		.file 13 "../../lib/e-puck2_main-processor/ChibiOS//os/rt/include/chdebug.h"
 5778              		.file 14 "../../lib/e-puck2_main-processor/ChibiOS//os/rt/include/chtm.h"
 5779              		.file 15 "../../lib/e-puck2_main-processor/ChibiOS//os/rt/include/chstats.h"
 5780              		.file 16 "../../lib/e-puck2_main-processor/ChibiOS//os/rt/include/chsem.h"
 5781              		.file 17 "../../lib/e-puck2_main-processor/ChibiOS//os/rt/include/chmtx.h"
 5782              		.file 18 "../../lib/e-puck2_main-processor/ChibiOS//os/rt/include/chregistry.h"
 5783              		.file 19 "../../lib/e-puck2_main-processor/ChibiOS//os/rt/include/chevents.h"
 5784              		.file 20 "../../lib/e-puck2_main-processor/ChibiOS//os/rt/include/chqueues.h"
 5785              		.file 21 "../../lib/e-puck2_main-processor/ChibiOS//os/hal/ports/STM32/STM32F4xx/stm32_dma.h"
 5786              		.file 22 "../../lib/e-puck2_main-processor/ChibiOS//os/hal/include/hal_ioblock.h"
 5787              		.file 23 "../../lib/e-puck2_main-processor/ChibiOS//os/hal/ports/STM32/LLD/GPIOv2/pal_lld.h"
 5788              		.file 24 "../../lib/e-puck2_main-processor/ChibiOS//os/hal/include/adc.h"
 5789              		.file 25 "../../lib/e-puck2_main-processor/ChibiOS//os/hal/ports/STM32/STM32F4xx/adc_lld.h"
 5790              		.file 26 "../../lib/e-puck2_main-processor/ChibiOS//os/hal/include/can.h"
 5791              		.file 27 "../../lib/e-puck2_main-processor/ChibiOS//os/hal/ports/STM32/LLD/can_lld.h"
 5792              		.file 28 "../../lib/e-puck2_main-processor/ChibiOS//os/hal/include/dac.h"
 5793              		.file 29 "../../lib/e-puck2_main-processor/ChibiOS//os/hal/ports/STM32/LLD/DACv1/dac_lld.h"
 5794              		.file 30 "../../lib/e-puck2_main-processor/ChibiOS//os/hal/include/ext.h"
 5795              		.file 31 "../../lib/e-puck2_main-processor/ChibiOS//os/hal/ports/STM32/LLD/ext_lld.h"
 5796              		.file 32 "../../lib/e-puck2_main-processor/ChibiOS//os/hal/include/gpt.h"
 5797              		.file 33 "../../lib/e-puck2_main-processor/ChibiOS//os/hal/ports/STM32/LLD/TIMv1/gpt_lld.h"
 5798              		.file 34 "../../lib/e-puck2_main-processor/ChibiOS//os/hal/ports/STM32/LLD/TIMv1/stm32_tim.h"
 5799              		.file 35 "../../lib/e-puck2_main-processor/ChibiOS//os/hal/include/i2c.h"
 5800              		.file 36 "../../lib/e-puck2_main-processor/ChibiOS//os/hal/ports/STM32/LLD/I2Cv1/i2c_lld.h"
 5801              		.file 37 "../../lib/e-puck2_main-processor/ChibiOS//os/hal/include/i2s.h"
 5802              		.file 38 "../../lib/e-puck2_main-processor/ChibiOS//os/hal/ports/STM32/LLD/SPIv1/i2s_lld.h"
 5803              		.file 39 "../../lib/e-puck2_main-processor/ChibiOS//os/hal/include/pwm.h"
 5804              		.file 40 "../../lib/e-puck2_main-processor/ChibiOS//os/hal/ports/STM32/LLD/TIMv1/pwm_lld.h"
 5805              		.file 41 "../../lib/e-puck2_main-processor/ChibiOS//os/hal/include/serial.h"
 5806              		.file 42 "../../lib/e-puck2_main-processor/ChibiOS//os/hal/ports/STM32/LLD/USARTv1/serial_lld.h"
 5807              		.file 43 "../../lib/e-puck2_main-processor/ChibiOS//os/hal/include/sdc.h"
 5808              		.file 44 "../../lib/e-puck2_main-processor/ChibiOS//os/hal/ports/STM32/LLD/sdc_lld.h"
 5809              		.file 45 "../../lib/e-puck2_main-processor/ChibiOS//os/hal/include/spi.h"
 5810              		.file 46 "../../lib/e-puck2_main-processor/ChibiOS//os/hal/ports/STM32/LLD/SPIv1/spi_lld.h"
 5811              		.file 47 "../../lib/e-puck2_main-processor/ChibiOS//os/hal/include/usb.h"
 5812              		.file 48 "../../lib/e-puck2_main-processor/ChibiOS//os/hal/ports/STM32/LLD/OTGv1/usb_lld.h"
 5813              		.file 49 "../../lib/e-puck2_main-processor/ChibiOS//os/hal/ports/STM32/LLD/OTGv1/stm32_otg.h"
 5814              		.file 50 "../../lib/e-puck2_main-processor/ChibiOS_ext/os/hal/include/../ports/STM32/STM32F4xx/dcm
 5815              		.file 51 "c:\\users\\osour\\desktop\\robotique\\eclipse_e-puck2\\tools\\gcc-arm-none-eabi-7-2017-q
 5816              		.file 52 "c:\\users\\osour\\desktop\\robotique\\eclipse_e-puck2\\tools\\gcc-arm-none-eabi-7-2017-q
 5817              		.file 53 "c:\\users\\osour\\desktop\\robotique\\eclipse_e-puck2\\tools\\gcc-arm-none-eabi-7-2017-q
 5818              		.file 54 "../../lib/e-puck2_main-processor/src/msgbus/messagebus.h"
 5819              		.file 55 "c:\\users\\osour\\desktop\\robotique\\eclipse_e-puck2\\tools\\gcc-arm-none-eabi-7-2017-q
 5820              		.file 56 "c:\\users\\osour\\desktop\\robotique\\eclipse_e-puck2\\tools\\gcc-arm-none-eabi-7-2017-q
 5821              		.file 57 "../../lib/e-puck2_main-processor/src/parameter/parameter.h"
 5822              		.file 58 "./main.h"
 5823              		.file 59 "../../lib/e-puck2_main-processor/src/audio/play_melody.h"
 5824              		.file 60 "c:\\users\\osour\\desktop\\robotique\\eclipse_e-puck2\\tools\\gcc-arm-none-eabi-7-2017-q
 5825              		.file 61 "../../lib/e-puck2_main-processor/src/epuck1x/a_d/advance_ad_scan/e_acc.h"
 5826              		.file 62 "../../lib/e-puck2_main-processor/src/epuck1x/acc_gyro/e_lsm330.h"
 5827              		.file 63 "c:\\users\\osour\\desktop\\robotique\\eclipse_e-puck2\\tools\\gcc-arm-none-eabi-7-2017-q
 5828              		.file 64 "c:\\users\\osour\\desktop\\robotique\\eclipse_e-puck2\\tools\\gcc-arm-none-eabi-7-2017-q
 5829              		.file 65 "../../lib/e-puck2_main-processor/src/epuck1x/uart/e_uart_char.h"
 5830              		.file 66 "../../lib/e-puck2_main-processor/src/epuck1x/I2C/e_I2C_protocol.h"
 5831              		.file 67 "../../lib/e-puck2_main-processor/src/epuck1x/motor_led/advance_one_timer/e_motors.h"
 5832              		.file 68 "../../lib/e-puck2_main-processor/src/epuck1x/motor_led/advance_one_timer/e_led.h"
 5833              		.file 69 "../../lib/e-puck2_main-processor/ChibiOS//os/rt/include/chthreads.h"
ARM GAS  C:\Users\osour\AppData\Local\Temp\ccsBkKuy.s 			page 109


 5834              		.file 70 "../../lib/e-puck2_main-processor/src/epuck1x/a_d/advance_ad_scan/e_prox.h"
 5835              		.file 71 "../../lib/e-puck2_main-processor/src/epuck1x/camera/fast_2_timer/e_poxxxx.h"
 5836              		.file 72 "../../lib/e-puck2_main-processor/src/epuck1x/codec/e_sound.h"
 5837              		.file 73 "../../lib/e-puck2_main-processor/src/epuck1x/a_d/advance_ad_scan/e_micro.h"
 5838              		.file 74 "../../lib/e-puck2_main-processor/src/epuck1x/motor_led/advance_one_timer/e_remote_contro
 5839              		.file 75 "../../lib/e-puck2_main-processor/src/epuck1x/motor_led/e_init_port.h"
 5840              		.file 76 "../../lib/e-puck2_main-processor/src/epuck1x/utility/utility.h"
 5841              		.file 77 "../../lib/e-puck2_main-processor/src/fat.h"
 5842              		.file 78 "../../lib/e-puck2_main-processor/src/epuck1x/DataEEPROM.h"
 5843              		.file 79 "../../lib/e-puck2_main-processor/src/leds.h"
 5844              		.file 80 "../../lib/e-puck2_main-processor/src/button.h"
 5845              		.file 81 "../../lib/e-puck2_main-processor/src/sensors/VL53L0X/VL53L0X.h"
 5846              		.file 82 "../../lib/e-puck2_main-processor/src/camera/dcmi_camera.h"
 5847              		.file 83 "<built-in>"
 5848              		.section	.debug_info,"",%progbits
 5849              	.Ldebug_info0:
 5850 0000 BC6B0000 		.4byte	0x6bbc
 5851 0004 0400     		.2byte	0x4
 5852 0006 00000000 		.4byte	.Ldebug_abbrev0
 5853 000a 04       		.byte	0x4
 5854 000b 01       		.uleb128 0x1
 5855 000c 4E110000 		.4byte	.LASF1014
 5856 0010 0C       		.byte	0xc
 5857 0011 25100000 		.4byte	.LASF1015
 5858 0015 B5200000 		.4byte	.LASF1016
 5859 0019 28000000 		.4byte	.Ldebug_ranges0+0x28
 5860 001d 00000000 		.4byte	0
 5861 0021 00000000 		.4byte	.Ldebug_line0
 5862 0025 02       		.uleb128 0x2
 5863 0026 8D280000 		.4byte	.LASF0
 5864 002a 02       		.byte	0x2
 5865 002b 29       		.byte	0x29
 5866 002c 30000000 		.4byte	0x30
 5867 0030 03       		.uleb128 0x3
 5868 0031 01       		.byte	0x1
 5869 0032 06       		.byte	0x6
 5870 0033 F6170000 		.4byte	.LASF2
 5871 0037 02       		.uleb128 0x2
 5872 0038 3F010000 		.4byte	.LASF1
 5873 003c 02       		.byte	0x2
 5874 003d 2B       		.byte	0x2b
 5875 003e 42000000 		.4byte	0x42
 5876 0042 03       		.uleb128 0x3
 5877 0043 01       		.byte	0x1
 5878 0044 08       		.byte	0x8
 5879 0045 830A0000 		.4byte	.LASF3
 5880 0049 02       		.uleb128 0x2
 5881 004a C0080000 		.4byte	.LASF4
 5882 004e 02       		.byte	0x2
 5883 004f 37       		.byte	0x37
 5884 0050 54000000 		.4byte	0x54
 5885 0054 03       		.uleb128 0x3
 5886 0055 02       		.byte	0x2
 5887 0056 05       		.byte	0x5
 5888 0057 6B290000 		.4byte	.LASF5
 5889 005b 02       		.uleb128 0x2
 5890 005c CA080000 		.4byte	.LASF6
ARM GAS  C:\Users\osour\AppData\Local\Temp\ccsBkKuy.s 			page 110


 5891 0060 02       		.byte	0x2
 5892 0061 39       		.byte	0x39
 5893 0062 66000000 		.4byte	0x66
 5894 0066 03       		.uleb128 0x3
 5895 0067 02       		.byte	0x2
 5896 0068 07       		.byte	0x7
 5897 0069 DB170000 		.4byte	.LASF7
 5898 006d 02       		.uleb128 0x2
 5899 006e E4210000 		.4byte	.LASF8
 5900 0072 02       		.byte	0x2
 5901 0073 4D       		.byte	0x4d
 5902 0074 78000000 		.4byte	0x78
 5903 0078 03       		.uleb128 0x3
 5904 0079 04       		.byte	0x4
 5905 007a 05       		.byte	0x5
 5906 007b BA1A0000 		.4byte	.LASF9
 5907 007f 02       		.uleb128 0x2
 5908 0080 FE210000 		.4byte	.LASF10
 5909 0084 02       		.byte	0x2
 5910 0085 4F       		.byte	0x4f
 5911 0086 8A000000 		.4byte	0x8a
 5912 008a 03       		.uleb128 0x3
 5913 008b 04       		.byte	0x4
 5914 008c 07       		.byte	0x7
 5915 008d 5F1C0000 		.4byte	.LASF11
 5916 0091 03       		.uleb128 0x3
 5917 0092 08       		.byte	0x8
 5918 0093 05       		.byte	0x5
 5919 0094 91260000 		.4byte	.LASF12
 5920 0098 02       		.uleb128 0x2
 5921 0099 9E130000 		.4byte	.LASF13
 5922 009d 02       		.byte	0x2
 5923 009e 69       		.byte	0x69
 5924 009f A3000000 		.4byte	0xa3
 5925 00a3 03       		.uleb128 0x3
 5926 00a4 08       		.byte	0x8
 5927 00a5 07       		.byte	0x7
 5928 00a6 2D240000 		.4byte	.LASF14
 5929 00aa 04       		.uleb128 0x4
 5930 00ab 04       		.byte	0x4
 5931 00ac 05       		.byte	0x5
 5932 00ad 696E7400 		.ascii	"int\000"
 5933 00b1 03       		.uleb128 0x3
 5934 00b2 04       		.byte	0x4
 5935 00b3 07       		.byte	0x7
 5936 00b4 F3280000 		.4byte	.LASF15
 5937 00b8 02       		.uleb128 0x2
 5938 00b9 A0160000 		.4byte	.LASF16
 5939 00bd 03       		.byte	0x3
 5940 00be 14       		.byte	0x14
 5941 00bf 25000000 		.4byte	0x25
 5942 00c3 02       		.uleb128 0x2
 5943 00c4 E30E0000 		.4byte	.LASF17
 5944 00c8 03       		.byte	0x3
 5945 00c9 18       		.byte	0x18
 5946 00ca 37000000 		.4byte	0x37
 5947 00ce 05       		.uleb128 0x5
ARM GAS  C:\Users\osour\AppData\Local\Temp\ccsBkKuy.s 			page 111


 5948 00cf C3000000 		.4byte	0xc3
 5949 00d3 02       		.uleb128 0x2
 5950 00d4 BE170000 		.4byte	.LASF18
 5951 00d8 03       		.byte	0x3
 5952 00d9 20       		.byte	0x20
 5953 00da 49000000 		.4byte	0x49
 5954 00de 02       		.uleb128 0x2
 5955 00df A7020000 		.4byte	.LASF19
 5956 00e3 03       		.byte	0x3
 5957 00e4 24       		.byte	0x24
 5958 00e5 5B000000 		.4byte	0x5b
 5959 00e9 02       		.uleb128 0x2
 5960 00ea 86040000 		.4byte	.LASF20
 5961 00ee 03       		.byte	0x3
 5962 00ef 2C       		.byte	0x2c
 5963 00f0 6D000000 		.4byte	0x6d
 5964 00f4 06       		.uleb128 0x6
 5965 00f5 E9000000 		.4byte	0xe9
 5966 00f9 02       		.uleb128 0x2
 5967 00fa D01B0000 		.4byte	.LASF21
 5968 00fe 03       		.byte	0x3
 5969 00ff 30       		.byte	0x30
 5970 0100 7F000000 		.4byte	0x7f
 5971 0104 06       		.uleb128 0x6
 5972 0105 F9000000 		.4byte	0xf9
 5973 0109 05       		.uleb128 0x5
 5974 010a 04010000 		.4byte	0x104
 5975 010e 02       		.uleb128 0x2
 5976 010f FE0B0000 		.4byte	.LASF22
 5977 0113 03       		.byte	0x3
 5978 0114 3C       		.byte	0x3c
 5979 0115 98000000 		.4byte	0x98
 5980 0119 02       		.uleb128 0x2
 5981 011a A70E0000 		.4byte	.LASF23
 5982 011e 04       		.byte	0x4
 5983 011f D8       		.byte	0xd8
 5984 0120 B1000000 		.4byte	0xb1
 5985 0124 03       		.uleb128 0x3
 5986 0125 08       		.byte	0x8
 5987 0126 04       		.byte	0x4
 5988 0127 141C0000 		.4byte	.LASF24
 5989 012b 02       		.uleb128 0x2
 5990 012c 340E0000 		.4byte	.LASF25
 5991 0130 05       		.byte	0x5
 5992 0131 45       		.byte	0x45
 5993 0132 F9000000 		.4byte	0xf9
 5994 0136 02       		.uleb128 0x2
 5995 0137 D5060000 		.4byte	.LASF26
 5996 013b 05       		.byte	0x5
 5997 013c 46       		.byte	0x46
 5998 013d 0E010000 		.4byte	0x10e
 5999 0141 02       		.uleb128 0x2
 6000 0142 6B150000 		.4byte	.LASF27
 6001 0146 05       		.byte	0x5
 6002 0147 48       		.byte	0x48
 6003 0148 C3000000 		.4byte	0xc3
 6004 014c 02       		.uleb128 0x2
ARM GAS  C:\Users\osour\AppData\Local\Temp\ccsBkKuy.s 			page 112


 6005 014d 26250000 		.4byte	.LASF28
 6006 0151 05       		.byte	0x5
 6007 0152 49       		.byte	0x49
 6008 0153 C3000000 		.4byte	0xc3
 6009 0157 02       		.uleb128 0x2
 6010 0158 F2140000 		.4byte	.LASF29
 6011 015c 05       		.byte	0x5
 6012 015d 4A       		.byte	0x4a
 6013 015e C3000000 		.4byte	0xc3
 6014 0162 02       		.uleb128 0x2
 6015 0163 3D170000 		.4byte	.LASF30
 6016 0167 05       		.byte	0x5
 6017 0168 4B       		.byte	0x4b
 6018 0169 C3000000 		.4byte	0xc3
 6019 016d 02       		.uleb128 0x2
 6020 016e 8D070000 		.4byte	.LASF31
 6021 0172 05       		.byte	0x5
 6022 0173 4C       		.byte	0x4c
 6023 0174 F9000000 		.4byte	0xf9
 6024 0178 02       		.uleb128 0x2
 6025 0179 B1000000 		.4byte	.LASF32
 6026 017d 05       		.byte	0x5
 6027 017e 4D       		.byte	0x4d
 6028 017f E9000000 		.4byte	0xe9
 6029 0183 02       		.uleb128 0x2
 6030 0184 291C0000 		.4byte	.LASF33
 6031 0188 05       		.byte	0x5
 6032 0189 4F       		.byte	0x4f
 6033 018a F9000000 		.4byte	0xf9
 6034 018e 02       		.uleb128 0x2
 6035 018f 3B270000 		.4byte	.LASF34
 6036 0193 05       		.byte	0x5
 6037 0194 50       		.byte	0x50
 6038 0195 F9000000 		.4byte	0xf9
 6039 0199 02       		.uleb128 0x2
 6040 019a 541F0000 		.4byte	.LASF35
 6041 019e 05       		.byte	0x5
 6042 019f 51       		.byte	0x51
 6043 01a0 E9000000 		.4byte	0xe9
 6044 01a4 02       		.uleb128 0x2
 6045 01a5 21180000 		.4byte	.LASF36
 6046 01a9 05       		.byte	0x5
 6047 01aa 52       		.byte	0x52
 6048 01ab F9000000 		.4byte	0xf9
 6049 01af 02       		.uleb128 0x2
 6050 01b0 B2040000 		.4byte	.LASF37
 6051 01b4 06       		.byte	0x6
 6052 01b5 33       		.byte	0x33
 6053 01b6 F9000000 		.4byte	0xf9
 6054 01ba 06       		.uleb128 0x6
 6055 01bb AF010000 		.4byte	0x1af
 6056 01bf 02       		.uleb128 0x2
 6057 01c0 3E040000 		.4byte	.LASF38
 6058 01c4 06       		.byte	0x6
 6059 01c5 3F       		.byte	0x3f
 6060 01c6 CA010000 		.4byte	0x1ca
 6061 01ca 07       		.uleb128 0x7
ARM GAS  C:\Users\osour\AppData\Local\Temp\ccsBkKuy.s 			page 113


 6062 01cb C80A0000 		.4byte	.LASF62
 6063 01cf 68       		.byte	0x68
 6064 01d0 07       		.byte	0x7
 6065 01d1 C2       		.byte	0xc2
 6066 01d2 E8020000 		.4byte	0x2e8
 6067 01d6 08       		.uleb128 0x8
 6068 01d7 8E140000 		.4byte	.LASF39
 6069 01db 07       		.byte	0x7
 6070 01dc C3       		.byte	0xc3
 6071 01dd F3020000 		.4byte	0x2f3
 6072 01e1 00       		.byte	0
 6073 01e2 08       		.uleb128 0x8
 6074 01e3 090F0000 		.4byte	.LASF40
 6075 01e7 07       		.byte	0x7
 6076 01e8 C5       		.byte	0xc5
 6077 01e9 F3020000 		.4byte	0x2f3
 6078 01ed 04       		.byte	0x4
 6079 01ee 08       		.uleb128 0x8
 6080 01ef 7F130000 		.4byte	.LASF41
 6081 01f3 07       		.byte	0x7
 6082 01f4 C7       		.byte	0xc7
 6083 01f5 6D010000 		.4byte	0x16d
 6084 01f9 08       		.byte	0x8
 6085 01fa 08       		.uleb128 0x8
 6086 01fb 860B0000 		.4byte	.LASF42
 6087 01ff 07       		.byte	0x7
 6088 0200 C8       		.byte	0xc8
 6089 0201 9F0D0000 		.4byte	0xd9f
 6090 0205 0C       		.byte	0xc
 6091 0206 08       		.uleb128 0x8
 6092 0207 4E030000 		.4byte	.LASF43
 6093 020b 07       		.byte	0x7
 6094 020c CA       		.byte	0xca
 6095 020d F3020000 		.4byte	0x2f3
 6096 0211 10       		.byte	0x10
 6097 0212 08       		.uleb128 0x8
 6098 0213 BD270000 		.4byte	.LASF44
 6099 0217 07       		.byte	0x7
 6100 0218 CB       		.byte	0xcb
 6101 0219 F3020000 		.4byte	0x2f3
 6102 021d 14       		.byte	0x14
 6103 021e 08       		.uleb128 0x8
 6104 021f B2250000 		.4byte	.LASF45
 6105 0223 07       		.byte	0x7
 6106 0224 D2       		.byte	0xd2
 6107 0225 15110000 		.4byte	0x1115
 6108 0229 18       		.byte	0x18
 6109 022a 08       		.uleb128 0x8
 6110 022b 491F0000 		.4byte	.LASF46
 6111 022f 07       		.byte	0x7
 6112 0230 D8       		.byte	0xd8
 6113 0231 2C110000 		.4byte	0x112c
 6114 0235 1C       		.byte	0x1c
 6115 0236 08       		.uleb128 0x8
 6116 0237 2F2A0000 		.4byte	.LASF47
 6117 023b 07       		.byte	0x7
 6118 023c DD       		.byte	0xdd
ARM GAS  C:\Users\osour\AppData\Local\Temp\ccsBkKuy.s 			page 114


 6119 023d 4C010000 		.4byte	0x14c
 6120 0241 20       		.byte	0x20
 6121 0242 08       		.uleb128 0x8
 6122 0243 CC240000 		.4byte	.LASF48
 6123 0247 07       		.byte	0x7
 6124 0248 E1       		.byte	0xe1
 6125 0249 41010000 		.4byte	0x141
 6126 024d 21       		.byte	0x21
 6127 024e 08       		.uleb128 0x8
 6128 024f 991A0000 		.4byte	.LASF49
 6129 0253 07       		.byte	0x7
 6130 0254 E6       		.byte	0xe6
 6131 0255 57010000 		.4byte	0x157
 6132 0259 22       		.byte	0x22
 6133 025a 08       		.uleb128 0x8
 6134 025b 17180000 		.4byte	.LASF50
 6135 025f 07       		.byte	0x7
 6136 0260 EC       		.byte	0xec
 6137 0261 62010000 		.4byte	0x162
 6138 0265 23       		.byte	0x23
 6139 0266 08       		.uleb128 0x8
 6140 0267 921A0000 		.4byte	.LASF51
 6141 026b 07       		.byte	0x7
 6142 026c F3       		.byte	0xf3
 6143 026d BA010000 		.4byte	0x1ba
 6144 0271 24       		.byte	0x24
 6145 0272 09       		.uleb128 0x9
 6146 0273 705F7500 		.ascii	"p_u\000"
 6147 0277 07       		.byte	0x7
 6148 0278 3101     		.2byte	0x131
 6149 027a 44100000 		.4byte	0x1044
 6150 027e 28       		.byte	0x28
 6151 027f 0A       		.uleb128 0xa
 6152 0280 16060000 		.4byte	.LASF52
 6153 0284 07       		.byte	0x7
 6154 0285 3601     		.2byte	0x136
 6155 0287 F9020000 		.4byte	0x2f9
 6156 028b 2C       		.byte	0x2c
 6157 028c 0A       		.uleb128 0xa
 6158 028d B7180000 		.4byte	.LASF53
 6159 0291 07       		.byte	0x7
 6160 0292 3C01     		.2byte	0x13c
 6161 0294 1D030000 		.4byte	0x31d
 6162 0298 30       		.byte	0x30
 6163 0299 0A       		.uleb128 0xa
 6164 029a ED080000 		.4byte	.LASF54
 6165 029e 07       		.byte	0x7
 6166 029f 4001     		.2byte	0x140
 6167 02a1 78010000 		.4byte	0x178
 6168 02a5 38       		.byte	0x38
 6169 02a6 0A       		.uleb128 0xa
 6170 02a7 BF220000 		.4byte	.LASF55
 6171 02ab 07       		.byte	0x7
 6172 02ac 4601     		.2byte	0x146
 6173 02ae 83010000 		.4byte	0x183
 6174 02b2 3C       		.byte	0x3c
 6175 02b3 0A       		.uleb128 0xa
ARM GAS  C:\Users\osour\AppData\Local\Temp\ccsBkKuy.s 			page 115


 6176 02b4 11250000 		.4byte	.LASF56
 6177 02b8 07       		.byte	0x7
 6178 02b9 4D01     		.2byte	0x14d
 6179 02bb 0F110000 		.4byte	0x110f
 6180 02bf 40       		.byte	0x40
 6181 02c0 0A       		.uleb128 0xa
 6182 02c1 08210000 		.4byte	.LASF57
 6183 02c5 07       		.byte	0x7
 6184 02c6 5101     		.2byte	0x151
 6185 02c8 6D010000 		.4byte	0x16d
 6186 02cc 44       		.byte	0x44
 6187 02cd 0A       		.uleb128 0xa
 6188 02ce FA140000 		.4byte	.LASF58
 6189 02d2 07       		.byte	0x7
 6190 02d3 5801     		.2byte	0x158
 6191 02d5 D0030000 		.4byte	0x3d0
 6192 02d9 48       		.byte	0x48
 6193 02da 0A       		.uleb128 0xa
 6194 02db 702A0000 		.4byte	.LASF59
 6195 02df 07       		.byte	0x7
 6196 02e0 5E01     		.2byte	0x15e
 6197 02e2 F50F0000 		.4byte	0xff5
 6198 02e6 50       		.byte	0x50
 6199 02e7 00       		.byte	0
 6200 02e8 02       		.uleb128 0x2
 6201 02e9 26280000 		.4byte	.LASF60
 6202 02ed 06       		.byte	0x6
 6203 02ee 44       		.byte	0x44
 6204 02ef F3020000 		.4byte	0x2f3
 6205 02f3 0B       		.uleb128 0xb
 6206 02f4 04       		.byte	0x4
 6207 02f5 BF010000 		.4byte	0x1bf
 6208 02f9 02       		.uleb128 0x2
 6209 02fa 60060000 		.4byte	.LASF61
 6210 02fe 06       		.byte	0x6
 6211 02ff 49       		.byte	0x49
 6212 0300 04030000 		.4byte	0x304
 6213 0304 07       		.uleb128 0x7
 6214 0305 492A0000 		.4byte	.LASF63
 6215 0309 04       		.byte	0x4
 6216 030a 07       		.byte	0x7
 6217 030b B0       		.byte	0xb0
 6218 030c 1D030000 		.4byte	0x31d
 6219 0310 08       		.uleb128 0x8
 6220 0311 8E140000 		.4byte	.LASF39
 6221 0315 07       		.byte	0x7
 6222 0316 B1       		.byte	0xb1
 6223 0317 F3020000 		.4byte	0x2f3
 6224 031b 00       		.byte	0
 6225 031c 00       		.byte	0
 6226 031d 02       		.uleb128 0x2
 6227 031e 771A0000 		.4byte	.LASF64
 6228 0322 06       		.byte	0x6
 6229 0323 50       		.byte	0x50
 6230 0324 28030000 		.4byte	0x328
 6231 0328 07       		.uleb128 0x7
 6232 0329 33030000 		.4byte	.LASF65
ARM GAS  C:\Users\osour\AppData\Local\Temp\ccsBkKuy.s 			page 116


 6233 032d 08       		.byte	0x8
 6234 032e 07       		.byte	0x7
 6235 032f B7       		.byte	0xb7
 6236 0330 4D030000 		.4byte	0x34d
 6237 0334 08       		.uleb128 0x8
 6238 0335 8E140000 		.4byte	.LASF39
 6239 0339 07       		.byte	0x7
 6240 033a B8       		.byte	0xb8
 6241 033b F3020000 		.4byte	0x2f3
 6242 033f 00       		.byte	0
 6243 0340 08       		.uleb128 0x8
 6244 0341 090F0000 		.4byte	.LASF40
 6245 0345 07       		.byte	0x7
 6246 0346 B9       		.byte	0xb9
 6247 0347 F3020000 		.4byte	0x2f3
 6248 034b 04       		.byte	0x4
 6249 034c 00       		.byte	0
 6250 034d 02       		.uleb128 0x2
 6251 034e BB0A0000 		.4byte	.LASF66
 6252 0352 06       		.byte	0x6
 6253 0353 57       		.byte	0x57
 6254 0354 58030000 		.4byte	0x358
 6255 0358 0C       		.uleb128 0xc
 6256 0359 CA210000 		.4byte	.LASF67
 6257 035d 1C       		.byte	0x1c
 6258 035e 07       		.byte	0x7
 6259 035f 9001     		.2byte	0x190
 6260 0361 B4030000 		.4byte	0x3b4
 6261 0365 0A       		.uleb128 0xa
 6262 0366 391D0000 		.4byte	.LASF68
 6263 036a 07       		.byte	0x7
 6264 036b 9101     		.2byte	0x191
 6265 036d 1D030000 		.4byte	0x31d
 6266 0371 00       		.byte	0
 6267 0372 0A       		.uleb128 0xa
 6268 0373 F4230000 		.4byte	.LASF69
 6269 0377 07       		.byte	0x7
 6270 0378 9201     		.2byte	0x192
 6271 037a 6D010000 		.4byte	0x16d
 6272 037e 08       		.byte	0x8
 6273 037f 0A       		.uleb128 0xa
 6274 0380 140E0000 		.4byte	.LASF70
 6275 0384 07       		.byte	0x7
 6276 0385 9401     		.2byte	0x194
 6277 0387 9F0D0000 		.4byte	0xd9f
 6278 038b 0C       		.byte	0xc
 6279 038c 0A       		.uleb128 0xa
 6280 038d CD160000 		.4byte	.LASF71
 6281 0391 07       		.byte	0x7
 6282 0392 9701     		.2byte	0x197
 6283 0394 F3020000 		.4byte	0x2f3
 6284 0398 10       		.byte	0x10
 6285 0399 0A       		.uleb128 0xa
 6286 039a 010F0000 		.4byte	.LASF72
 6287 039e 07       		.byte	0x7
 6288 039f 9801     		.2byte	0x198
 6289 03a1 F3020000 		.4byte	0x2f3
ARM GAS  C:\Users\osour\AppData\Local\Temp\ccsBkKuy.s 			page 117


 6290 03a5 14       		.byte	0x14
 6291 03a6 0A       		.uleb128 0xa
 6292 03a7 B20B0000 		.4byte	.LASF73
 6293 03ab 07       		.byte	0x7
 6294 03ac 9B01     		.2byte	0x19b
 6295 03ae F3020000 		.4byte	0x2f3
 6296 03b2 18       		.byte	0x18
 6297 03b3 00       		.byte	0
 6298 03b4 02       		.uleb128 0x2
 6299 03b5 79200000 		.4byte	.LASF74
 6300 03b9 06       		.byte	0x6
 6301 03ba 5C       		.byte	0x5c
 6302 03bb BF030000 		.4byte	0x3bf
 6303 03bf 0B       		.uleb128 0xb
 6304 03c0 04       		.byte	0x4
 6305 03c1 C5030000 		.4byte	0x3c5
 6306 03c5 0D       		.uleb128 0xd
 6307 03c6 D0030000 		.4byte	0x3d0
 6308 03ca 0E       		.uleb128 0xe
 6309 03cb D0030000 		.4byte	0x3d0
 6310 03cf 00       		.byte	0
 6311 03d0 0F       		.uleb128 0xf
 6312 03d1 04       		.byte	0x4
 6313 03d2 02       		.uleb128 0x2
 6314 03d3 EC0D0000 		.4byte	.LASF75
 6315 03d7 06       		.byte	0x6
 6316 03d8 61       		.byte	0x61
 6317 03d9 DD030000 		.4byte	0x3dd
 6318 03dd 0C       		.uleb128 0xc
 6319 03de BB240000 		.4byte	.LASF76
 6320 03e2 14       		.byte	0x14
 6321 03e3 07       		.byte	0x7
 6322 03e4 6B01     		.2byte	0x16b
 6323 03e6 2C040000 		.4byte	0x42c
 6324 03ea 0A       		.uleb128 0xa
 6325 03eb 1A0E0000 		.4byte	.LASF77
 6326 03ef 07       		.byte	0x7
 6327 03f0 6C01     		.2byte	0x16c
 6328 03f2 32110000 		.4byte	0x1132
 6329 03f6 00       		.byte	0
 6330 03f7 0A       		.uleb128 0xa
 6331 03f8 610A0000 		.4byte	.LASF78
 6332 03fc 07       		.byte	0x7
 6333 03fd 6D01     		.2byte	0x16d
 6334 03ff 32110000 		.4byte	0x1132
 6335 0403 04       		.byte	0x4
 6336 0404 0A       		.uleb128 0xa
 6337 0405 88170000 		.4byte	.LASF79
 6338 0409 07       		.byte	0x7
 6339 040a 6E01     		.2byte	0x16e
 6340 040c AF010000 		.4byte	0x1af
 6341 0410 08       		.byte	0x8
 6342 0411 0A       		.uleb128 0xa
 6343 0412 A6240000 		.4byte	.LASF80
 6344 0416 07       		.byte	0x7
 6345 0417 6F01     		.2byte	0x16f
 6346 0419 B4030000 		.4byte	0x3b4
ARM GAS  C:\Users\osour\AppData\Local\Temp\ccsBkKuy.s 			page 118


 6347 041d 0C       		.byte	0xc
 6348 041e 0A       		.uleb128 0xa
 6349 041f 8C0B0000 		.4byte	.LASF81
 6350 0423 07       		.byte	0x7
 6351 0424 7101     		.2byte	0x171
 6352 0426 D0030000 		.4byte	0x3d0
 6353 042a 10       		.byte	0x10
 6354 042b 00       		.byte	0
 6355 042c 02       		.uleb128 0x2
 6356 042d 06260000 		.4byte	.LASF82
 6357 0431 06       		.byte	0x6
 6358 0432 66       		.byte	0x66
 6359 0433 37040000 		.4byte	0x437
 6360 0437 0C       		.uleb128 0xc
 6361 0438 68040000 		.4byte	.LASF83
 6362 043c 10       		.byte	0x10
 6363 043d 07       		.byte	0x7
 6364 043e 7B01     		.2byte	0x17b
 6365 0440 79040000 		.4byte	0x479
 6366 0444 0A       		.uleb128 0xa
 6367 0445 1A0E0000 		.4byte	.LASF77
 6368 0449 07       		.byte	0x7
 6369 044a 7C01     		.2byte	0x17c
 6370 044c 32110000 		.4byte	0x1132
 6371 0450 00       		.byte	0
 6372 0451 0A       		.uleb128 0xa
 6373 0452 610A0000 		.4byte	.LASF78
 6374 0456 07       		.byte	0x7
 6375 0457 7E01     		.2byte	0x17e
 6376 0459 32110000 		.4byte	0x1132
 6377 045d 04       		.byte	0x4
 6378 045e 0A       		.uleb128 0xa
 6379 045f 88170000 		.4byte	.LASF79
 6380 0463 07       		.byte	0x7
 6381 0464 8001     		.2byte	0x180
 6382 0466 AF010000 		.4byte	0x1af
 6383 046a 08       		.byte	0x8
 6384 046b 0A       		.uleb128 0xa
 6385 046c 16020000 		.4byte	.LASF84
 6386 0470 07       		.byte	0x7
 6387 0471 8201     		.2byte	0x182
 6388 0473 BA010000 		.4byte	0x1ba
 6389 0477 0C       		.byte	0xc
 6390 0478 00       		.byte	0
 6391 0479 02       		.uleb128 0x2
 6392 047a 550B0000 		.4byte	.LASF85
 6393 047e 06       		.byte	0x6
 6394 047f 6B       		.byte	0x6b
 6395 0480 84040000 		.4byte	0x484
 6396 0484 10       		.uleb128 0x10
 6397 0485 14220000 		.4byte	.LASF86
 6398 0489 1404     		.2byte	0x414
 6399 048b 07       		.byte	0x7
 6400 048c A201     		.2byte	0x1a2
 6401 048e C7040000 		.4byte	0x4c7
 6402 0492 0A       		.uleb128 0xa
 6403 0493 AF160000 		.4byte	.LASF87
ARM GAS  C:\Users\osour\AppData\Local\Temp\ccsBkKuy.s 			page 119


 6404 0497 07       		.byte	0x7
 6405 0498 AA01     		.2byte	0x1aa
 6406 049a 1B110000 		.4byte	0x111b
 6407 049e 00       		.byte	0
 6408 049f 0A       		.uleb128 0xa
 6409 04a0 48160000 		.4byte	.LASF88
 6410 04a4 07       		.byte	0x7
 6411 04a5 AF01     		.2byte	0x1af
 6412 04a7 99010000 		.4byte	0x199
 6413 04ab 04       		.byte	0x4
 6414 04ac 0A       		.uleb128 0xa
 6415 04ad 2A030000 		.4byte	.LASF89
 6416 04b1 07       		.byte	0x7
 6417 04b2 B301     		.2byte	0x1b3
 6418 04b4 99010000 		.4byte	0x199
 6419 04b8 08       		.byte	0x8
 6420 04b9 0A       		.uleb128 0xa
 6421 04ba CE190000 		.4byte	.LASF90
 6422 04be 07       		.byte	0x7
 6423 04bf B901     		.2byte	0x1b9
 6424 04c1 870F0000 		.4byte	0xf87
 6425 04c5 0C       		.byte	0xc
 6426 04c6 00       		.byte	0
 6427 04c7 02       		.uleb128 0x2
 6428 04c8 33010000 		.4byte	.LASF91
 6429 04cc 06       		.byte	0x6
 6430 04cd 70       		.byte	0x70
 6431 04ce D2040000 		.4byte	0x4d2
 6432 04d2 10       		.uleb128 0x10
 6433 04d3 B7190000 		.4byte	.LASF92
 6434 04d7 7006     		.2byte	0x670
 6435 04d9 07       		.byte	0x7
 6436 04da C201     		.2byte	0x1c2
 6437 04dc 3F050000 		.4byte	0x53f
 6438 04e0 0A       		.uleb128 0xa
 6439 04e1 5A060000 		.4byte	.LASF93
 6440 04e5 07       		.byte	0x7
 6441 04e6 C601     		.2byte	0x1c6
 6442 04e8 4D030000 		.4byte	0x34d
 6443 04ec 00       		.byte	0
 6444 04ed 0A       		.uleb128 0xa
 6445 04ee 00060000 		.4byte	.LASF94
 6446 04f2 07       		.byte	0x7
 6447 04f3 CA01     		.2byte	0x1ca
 6448 04f5 2C040000 		.4byte	0x42c
 6449 04f9 1C       		.byte	0x1c
 6450 04fa 09       		.uleb128 0x9
 6451 04fb 64626700 		.ascii	"dbg\000"
 6452 04ff 07       		.byte	0x7
 6453 0500 CE01     		.2byte	0x1ce
 6454 0502 79040000 		.4byte	0x479
 6455 0506 2C       		.byte	0x2c
 6456 0507 11       		.uleb128 0x11
 6457 0508 C31A0000 		.4byte	.LASF95
 6458 050c 07       		.byte	0x7
 6459 050d D201     		.2byte	0x1d2
 6460 050f BF010000 		.4byte	0x1bf
ARM GAS  C:\Users\osour\AppData\Local\Temp\ccsBkKuy.s 			page 120


 6461 0513 4004     		.2byte	0x440
 6462 0515 12       		.uleb128 0x12
 6463 0516 746D00   		.ascii	"tm\000"
 6464 0519 07       		.byte	0x7
 6465 051a D701     		.2byte	0x1d7
 6466 051c A70F0000 		.4byte	0xfa7
 6467 0520 A804     		.2byte	0x4a8
 6468 0522 11       		.uleb128 0x11
 6469 0523 AE0E0000 		.4byte	.LASF96
 6470 0527 07       		.byte	0x7
 6471 0528 DD01     		.2byte	0x1dd
 6472 052a 39100000 		.4byte	0x1039
 6473 052e B004     		.2byte	0x4b0
 6474 0530 11       		.uleb128 0x11
 6475 0531 83240000 		.4byte	.LASF97
 6476 0535 07       		.byte	0x7
 6477 0536 E301     		.2byte	0x1e3
 6478 0538 38110000 		.4byte	0x1138
 6479 053c E804     		.2byte	0x4e8
 6480 053e 00       		.byte	0
 6481 053f 13       		.uleb128 0x13
 6482 0540 F9000000 		.4byte	0xf9
 6483 0544 4F050000 		.4byte	0x54f
 6484 0548 14       		.uleb128 0x14
 6485 0549 B1000000 		.4byte	0xb1
 6486 054d 01       		.byte	0x1
 6487 054e 00       		.byte	0
 6488 054f 13       		.uleb128 0x13
 6489 0550 F9000000 		.4byte	0xf9
 6490 0554 5F050000 		.4byte	0x55f
 6491 0558 14       		.uleb128 0x14
 6492 0559 B1000000 		.4byte	0xb1
 6493 055d 07       		.byte	0x7
 6494 055e 00       		.byte	0
 6495 055f 15       		.uleb128 0x15
 6496 0560 00240000 		.4byte	.LASF98
 6497 0564 08       		.byte	0x8
 6498 0565 A706     		.2byte	0x6a7
 6499 0567 F4000000 		.4byte	0xf4
 6500 056b 16       		.uleb128 0x16
 6501 056c FC180000 		.4byte	.LASF99
 6502 0570 09       		.byte	0x9
 6503 0571 4C       		.byte	0x4c
 6504 0572 F9000000 		.4byte	0xf9
 6505 0576 17       		.uleb128 0x17
 6506 0577 50       		.byte	0x50
 6507 0578 0A       		.byte	0xa
 6508 0579 C4       		.byte	0xc4
 6509 057a 6D060000 		.4byte	0x66d
 6510 057e 18       		.uleb128 0x18
 6511 057f 535200   		.ascii	"SR\000"
 6512 0582 0A       		.byte	0xa
 6513 0583 C6       		.byte	0xc6
 6514 0584 04010000 		.4byte	0x104
 6515 0588 00       		.byte	0
 6516 0589 18       		.uleb128 0x18
 6517 058a 43523100 		.ascii	"CR1\000"
ARM GAS  C:\Users\osour\AppData\Local\Temp\ccsBkKuy.s 			page 121


 6518 058e 0A       		.byte	0xa
 6519 058f C7       		.byte	0xc7
 6520 0590 04010000 		.4byte	0x104
 6521 0594 04       		.byte	0x4
 6522 0595 18       		.uleb128 0x18
 6523 0596 43523200 		.ascii	"CR2\000"
 6524 059a 0A       		.byte	0xa
 6525 059b C8       		.byte	0xc8
 6526 059c 04010000 		.4byte	0x104
 6527 05a0 08       		.byte	0x8
 6528 05a1 08       		.uleb128 0x8
 6529 05a2 78030000 		.4byte	.LASF100
 6530 05a6 0A       		.byte	0xa
 6531 05a7 C9       		.byte	0xc9
 6532 05a8 04010000 		.4byte	0x104
 6533 05ac 0C       		.byte	0xc
 6534 05ad 08       		.uleb128 0x8
 6535 05ae 7E030000 		.4byte	.LASF101
 6536 05b2 0A       		.byte	0xa
 6537 05b3 CA       		.byte	0xca
 6538 05b4 04010000 		.4byte	0x104
 6539 05b8 10       		.byte	0x10
 6540 05b9 08       		.uleb128 0x8
 6541 05ba 930B0000 		.4byte	.LASF102
 6542 05be 0A       		.byte	0xa
 6543 05bf CB       		.byte	0xcb
 6544 05c0 04010000 		.4byte	0x104
 6545 05c4 14       		.byte	0x14
 6546 05c5 08       		.uleb128 0x8
 6547 05c6 990B0000 		.4byte	.LASF103
 6548 05ca 0A       		.byte	0xa
 6549 05cb CC       		.byte	0xcc
 6550 05cc 04010000 		.4byte	0x104
 6551 05d0 18       		.byte	0x18
 6552 05d1 08       		.uleb128 0x8
 6553 05d2 9F0B0000 		.4byte	.LASF104
 6554 05d6 0A       		.byte	0xa
 6555 05d7 CD       		.byte	0xcd
 6556 05d8 04010000 		.4byte	0x104
 6557 05dc 1C       		.byte	0x1c
 6558 05dd 08       		.uleb128 0x8
 6559 05de A50B0000 		.4byte	.LASF105
 6560 05e2 0A       		.byte	0xa
 6561 05e3 CE       		.byte	0xce
 6562 05e4 04010000 		.4byte	0x104
 6563 05e8 20       		.byte	0x20
 6564 05e9 18       		.uleb128 0x18
 6565 05ea 48545200 		.ascii	"HTR\000"
 6566 05ee 0A       		.byte	0xa
 6567 05ef CF       		.byte	0xcf
 6568 05f0 04010000 		.4byte	0x104
 6569 05f4 24       		.byte	0x24
 6570 05f5 18       		.uleb128 0x18
 6571 05f6 4C545200 		.ascii	"LTR\000"
 6572 05fa 0A       		.byte	0xa
 6573 05fb D0       		.byte	0xd0
 6574 05fc 04010000 		.4byte	0x104
ARM GAS  C:\Users\osour\AppData\Local\Temp\ccsBkKuy.s 			page 122


 6575 0600 28       		.byte	0x28
 6576 0601 08       		.uleb128 0x8
 6577 0602 8F150000 		.4byte	.LASF106
 6578 0606 0A       		.byte	0xa
 6579 0607 D1       		.byte	0xd1
 6580 0608 04010000 		.4byte	0x104
 6581 060c 2C       		.byte	0x2c
 6582 060d 08       		.uleb128 0x8
 6583 060e 94150000 		.4byte	.LASF107
 6584 0612 0A       		.byte	0xa
 6585 0613 D2       		.byte	0xd2
 6586 0614 04010000 		.4byte	0x104
 6587 0618 30       		.byte	0x30
 6588 0619 08       		.uleb128 0x8
 6589 061a 99150000 		.4byte	.LASF108
 6590 061e 0A       		.byte	0xa
 6591 061f D3       		.byte	0xd3
 6592 0620 04010000 		.4byte	0x104
 6593 0624 34       		.byte	0x34
 6594 0625 08       		.uleb128 0x8
 6595 0626 A60D0000 		.4byte	.LASF109
 6596 062a 0A       		.byte	0xa
 6597 062b D4       		.byte	0xd4
 6598 062c 04010000 		.4byte	0x104
 6599 0630 38       		.byte	0x38
 6600 0631 08       		.uleb128 0x8
 6601 0632 D1250000 		.4byte	.LASF110
 6602 0636 0A       		.byte	0xa
 6603 0637 D5       		.byte	0xd5
 6604 0638 04010000 		.4byte	0x104
 6605 063c 3C       		.byte	0x3c
 6606 063d 08       		.uleb128 0x8
 6607 063e D6250000 		.4byte	.LASF111
 6608 0642 0A       		.byte	0xa
 6609 0643 D6       		.byte	0xd6
 6610 0644 04010000 		.4byte	0x104
 6611 0648 40       		.byte	0x40
 6612 0649 08       		.uleb128 0x8
 6613 064a DB250000 		.4byte	.LASF112
 6614 064e 0A       		.byte	0xa
 6615 064f D7       		.byte	0xd7
 6616 0650 04010000 		.4byte	0x104
 6617 0654 44       		.byte	0x44
 6618 0655 08       		.uleb128 0x8
 6619 0656 E0250000 		.4byte	.LASF113
 6620 065a 0A       		.byte	0xa
 6621 065b D8       		.byte	0xd8
 6622 065c 04010000 		.4byte	0x104
 6623 0660 48       		.byte	0x48
 6624 0661 18       		.uleb128 0x18
 6625 0662 445200   		.ascii	"DR\000"
 6626 0665 0A       		.byte	0xa
 6627 0666 D9       		.byte	0xd9
 6628 0667 04010000 		.4byte	0x104
 6629 066b 4C       		.byte	0x4c
 6630 066c 00       		.byte	0
 6631 066d 02       		.uleb128 0x2
ARM GAS  C:\Users\osour\AppData\Local\Temp\ccsBkKuy.s 			page 123


 6632 066e CF170000 		.4byte	.LASF114
 6633 0672 0A       		.byte	0xa
 6634 0673 DA       		.byte	0xda
 6635 0674 76050000 		.4byte	0x576
 6636 0678 17       		.uleb128 0x17
 6637 0679 10       		.byte	0x10
 6638 067a 0A       		.byte	0xa
 6639 067b E9       		.byte	0xe9
 6640 067c B1060000 		.4byte	0x6b1
 6641 0680 18       		.uleb128 0x18
 6642 0681 54495200 		.ascii	"TIR\000"
 6643 0685 0A       		.byte	0xa
 6644 0686 EB       		.byte	0xeb
 6645 0687 04010000 		.4byte	0x104
 6646 068b 00       		.byte	0
 6647 068c 08       		.uleb128 0x8
 6648 068d 2B130000 		.4byte	.LASF115
 6649 0691 0A       		.byte	0xa
 6650 0692 EC       		.byte	0xec
 6651 0693 04010000 		.4byte	0x104
 6652 0697 04       		.byte	0x4
 6653 0698 08       		.uleb128 0x8
 6654 0699 B51A0000 		.4byte	.LASF116
 6655 069d 0A       		.byte	0xa
 6656 069e ED       		.byte	0xed
 6657 069f 04010000 		.4byte	0x104
 6658 06a3 08       		.byte	0x8
 6659 06a4 08       		.uleb128 0x8
 6660 06a5 28180000 		.4byte	.LASF117
 6661 06a9 0A       		.byte	0xa
 6662 06aa EE       		.byte	0xee
 6663 06ab 04010000 		.4byte	0x104
 6664 06af 0C       		.byte	0xc
 6665 06b0 00       		.byte	0
 6666 06b1 02       		.uleb128 0x2
 6667 06b2 44060000 		.4byte	.LASF118
 6668 06b6 0A       		.byte	0xa
 6669 06b7 EF       		.byte	0xef
 6670 06b8 78060000 		.4byte	0x678
 6671 06bc 17       		.uleb128 0x17
 6672 06bd 10       		.byte	0x10
 6673 06be 0A       		.byte	0xa
 6674 06bf F5       		.byte	0xf5
 6675 06c0 F5060000 		.4byte	0x6f5
 6676 06c4 18       		.uleb128 0x18
 6677 06c5 52495200 		.ascii	"RIR\000"
 6678 06c9 0A       		.byte	0xa
 6679 06ca F7       		.byte	0xf7
 6680 06cb 04010000 		.4byte	0x104
 6681 06cf 00       		.byte	0
 6682 06d0 08       		.uleb128 0x8
 6683 06d1 AD210000 		.4byte	.LASF119
 6684 06d5 0A       		.byte	0xa
 6685 06d6 F8       		.byte	0xf8
 6686 06d7 04010000 		.4byte	0x104
 6687 06db 04       		.byte	0x4
 6688 06dc 08       		.uleb128 0x8
ARM GAS  C:\Users\osour\AppData\Local\Temp\ccsBkKuy.s 			page 124


 6689 06dd F81B0000 		.4byte	.LASF120
 6690 06e1 0A       		.byte	0xa
 6691 06e2 F9       		.byte	0xf9
 6692 06e3 04010000 		.4byte	0x104
 6693 06e7 08       		.byte	0x8
 6694 06e8 08       		.uleb128 0x8
 6695 06e9 98190000 		.4byte	.LASF121
 6696 06ed 0A       		.byte	0xa
 6697 06ee FA       		.byte	0xfa
 6698 06ef 04010000 		.4byte	0x104
 6699 06f3 0C       		.byte	0xc
 6700 06f4 00       		.byte	0
 6701 06f5 02       		.uleb128 0x2
 6702 06f6 82200000 		.4byte	.LASF122
 6703 06fa 0A       		.byte	0xa
 6704 06fb FB       		.byte	0xfb
 6705 06fc BC060000 		.4byte	0x6bc
 6706 0700 19       		.uleb128 0x19
 6707 0701 08       		.byte	0x8
 6708 0702 0A       		.byte	0xa
 6709 0703 0101     		.2byte	0x101
 6710 0705 24070000 		.4byte	0x724
 6711 0709 09       		.uleb128 0x9
 6712 070a 46523100 		.ascii	"FR1\000"
 6713 070e 0A       		.byte	0xa
 6714 070f 0301     		.2byte	0x103
 6715 0711 04010000 		.4byte	0x104
 6716 0715 00       		.byte	0
 6717 0716 09       		.uleb128 0x9
 6718 0717 46523200 		.ascii	"FR2\000"
 6719 071b 0A       		.byte	0xa
 6720 071c 0401     		.2byte	0x104
 6721 071e 04010000 		.4byte	0x104
 6722 0722 04       		.byte	0x4
 6723 0723 00       		.byte	0
 6724 0724 1A       		.uleb128 0x1a
 6725 0725 30130000 		.4byte	.LASF123
 6726 0729 0A       		.byte	0xa
 6727 072a 0501     		.2byte	0x105
 6728 072c 00070000 		.4byte	0x700
 6729 0730 1B       		.uleb128 0x1b
 6730 0731 2003     		.2byte	0x320
 6731 0733 0A       		.byte	0xa
 6732 0734 0B01     		.2byte	0x10b
 6733 0736 66080000 		.4byte	0x866
 6734 073a 09       		.uleb128 0x9
 6735 073b 4D435200 		.ascii	"MCR\000"
 6736 073f 0A       		.byte	0xa
 6737 0740 0D01     		.2byte	0x10d
 6738 0742 04010000 		.4byte	0x104
 6739 0746 00       		.byte	0
 6740 0747 09       		.uleb128 0x9
 6741 0748 4D535200 		.ascii	"MSR\000"
 6742 074c 0A       		.byte	0xa
 6743 074d 0E01     		.2byte	0x10e
 6744 074f 04010000 		.4byte	0x104
 6745 0753 04       		.byte	0x4
ARM GAS  C:\Users\osour\AppData\Local\Temp\ccsBkKuy.s 			page 125


 6746 0754 09       		.uleb128 0x9
 6747 0755 54535200 		.ascii	"TSR\000"
 6748 0759 0A       		.byte	0xa
 6749 075a 0F01     		.2byte	0x10f
 6750 075c 04010000 		.4byte	0x104
 6751 0760 08       		.byte	0x8
 6752 0761 0A       		.uleb128 0xa
 6753 0762 FA0F0000 		.4byte	.LASF124
 6754 0766 0A       		.byte	0xa
 6755 0767 1001     		.2byte	0x110
 6756 0769 04010000 		.4byte	0x104
 6757 076d 0C       		.byte	0xc
 6758 076e 0A       		.uleb128 0xa
 6759 076f E8100000 		.4byte	.LASF125
 6760 0773 0A       		.byte	0xa
 6761 0774 1101     		.2byte	0x111
 6762 0776 04010000 		.4byte	0x104
 6763 077a 10       		.byte	0x10
 6764 077b 09       		.uleb128 0x9
 6765 077c 49455200 		.ascii	"IER\000"
 6766 0780 0A       		.byte	0xa
 6767 0781 1201     		.2byte	0x112
 6768 0783 04010000 		.4byte	0x104
 6769 0787 14       		.byte	0x14
 6770 0788 09       		.uleb128 0x9
 6771 0789 45535200 		.ascii	"ESR\000"
 6772 078d 0A       		.byte	0xa
 6773 078e 1301     		.2byte	0x113
 6774 0790 04010000 		.4byte	0x104
 6775 0794 18       		.byte	0x18
 6776 0795 09       		.uleb128 0x9
 6777 0796 42545200 		.ascii	"BTR\000"
 6778 079a 0A       		.byte	0xa
 6779 079b 1401     		.2byte	0x114
 6780 079d 04010000 		.4byte	0x104
 6781 07a1 1C       		.byte	0x1c
 6782 07a2 0A       		.uleb128 0xa
 6783 07a3 07230000 		.4byte	.LASF126
 6784 07a7 0A       		.byte	0xa
 6785 07a8 1501     		.2byte	0x115
 6786 07aa 66080000 		.4byte	0x866
 6787 07ae 20       		.byte	0x20
 6788 07af 11       		.uleb128 0x11
 6789 07b0 60140000 		.4byte	.LASF127
 6790 07b4 0A       		.byte	0xa
 6791 07b5 1601     		.2byte	0x116
 6792 07b7 76080000 		.4byte	0x876
 6793 07bb 8001     		.2byte	0x180
 6794 07bd 11       		.uleb128 0x11
 6795 07be 52270000 		.4byte	.LASF128
 6796 07c2 0A       		.byte	0xa
 6797 07c3 1701     		.2byte	0x117
 6798 07c5 86080000 		.4byte	0x886
 6799 07c9 B001     		.2byte	0x1b0
 6800 07cb 11       		.uleb128 0x11
 6801 07cc 11230000 		.4byte	.LASF129
 6802 07d0 0A       		.byte	0xa
ARM GAS  C:\Users\osour\AppData\Local\Temp\ccsBkKuy.s 			page 126


 6803 07d1 1801     		.2byte	0x118
 6804 07d3 96080000 		.4byte	0x896
 6805 07d7 D001     		.2byte	0x1d0
 6806 07d9 12       		.uleb128 0x12
 6807 07da 464D5200 		.ascii	"FMR\000"
 6808 07de 0A       		.byte	0xa
 6809 07df 1901     		.2byte	0x119
 6810 07e1 04010000 		.4byte	0x104
 6811 07e5 0002     		.2byte	0x200
 6812 07e7 11       		.uleb128 0x11
 6813 07e8 270C0000 		.4byte	.LASF130
 6814 07ec 0A       		.byte	0xa
 6815 07ed 1A01     		.2byte	0x11a
 6816 07ef 04010000 		.4byte	0x104
 6817 07f3 0402     		.2byte	0x204
 6818 07f5 11       		.uleb128 0x11
 6819 07f6 1B230000 		.4byte	.LASF131
 6820 07fa 0A       		.byte	0xa
 6821 07fb 1B01     		.2byte	0x11b
 6822 07fd F9000000 		.4byte	0xf9
 6823 0801 0802     		.2byte	0x208
 6824 0803 11       		.uleb128 0x11
 6825 0804 21250000 		.4byte	.LASF132
 6826 0808 0A       		.byte	0xa
 6827 0809 1C01     		.2byte	0x11c
 6828 080b 04010000 		.4byte	0x104
 6829 080f 0C02     		.2byte	0x20c
 6830 0811 11       		.uleb128 0x11
 6831 0812 25230000 		.4byte	.LASF133
 6832 0816 0A       		.byte	0xa
 6833 0817 1D01     		.2byte	0x11d
 6834 0819 F9000000 		.4byte	0xf9
 6835 081d 1002     		.2byte	0x210
 6836 081f 11       		.uleb128 0x11
 6837 0820 3B1C0000 		.4byte	.LASF134
 6838 0824 0A       		.byte	0xa
 6839 0825 1E01     		.2byte	0x11e
 6840 0827 04010000 		.4byte	0x104
 6841 082b 1402     		.2byte	0x214
 6842 082d 11       		.uleb128 0x11
 6843 082e 2F230000 		.4byte	.LASF135
 6844 0832 0A       		.byte	0xa
 6845 0833 1F01     		.2byte	0x11f
 6846 0835 F9000000 		.4byte	0xf9
 6847 0839 1802     		.2byte	0x218
 6848 083b 11       		.uleb128 0x11
 6849 083c 15050000 		.4byte	.LASF136
 6850 0840 0A       		.byte	0xa
 6851 0841 2001     		.2byte	0x120
 6852 0843 04010000 		.4byte	0x104
 6853 0847 1C02     		.2byte	0x21c
 6854 0849 11       		.uleb128 0x11
 6855 084a 39230000 		.4byte	.LASF137
 6856 084e 0A       		.byte	0xa
 6857 084f 2101     		.2byte	0x121
 6858 0851 4F050000 		.4byte	0x54f
 6859 0855 2002     		.2byte	0x220
ARM GAS  C:\Users\osour\AppData\Local\Temp\ccsBkKuy.s 			page 127


 6860 0857 11       		.uleb128 0x11
 6861 0858 F8060000 		.4byte	.LASF138
 6862 085c 0A       		.byte	0xa
 6863 085d 2201     		.2byte	0x122
 6864 085f A6080000 		.4byte	0x8a6
 6865 0863 4002     		.2byte	0x240
 6866 0865 00       		.byte	0
 6867 0866 13       		.uleb128 0x13
 6868 0867 F9000000 		.4byte	0xf9
 6869 086b 76080000 		.4byte	0x876
 6870 086f 14       		.uleb128 0x14
 6871 0870 B1000000 		.4byte	0xb1
 6872 0874 57       		.byte	0x57
 6873 0875 00       		.byte	0
 6874 0876 13       		.uleb128 0x13
 6875 0877 B1060000 		.4byte	0x6b1
 6876 087b 86080000 		.4byte	0x886
 6877 087f 14       		.uleb128 0x14
 6878 0880 B1000000 		.4byte	0xb1
 6879 0884 02       		.byte	0x2
 6880 0885 00       		.byte	0
 6881 0886 13       		.uleb128 0x13
 6882 0887 F5060000 		.4byte	0x6f5
 6883 088b 96080000 		.4byte	0x896
 6884 088f 14       		.uleb128 0x14
 6885 0890 B1000000 		.4byte	0xb1
 6886 0894 01       		.byte	0x1
 6887 0895 00       		.byte	0
 6888 0896 13       		.uleb128 0x13
 6889 0897 F9000000 		.4byte	0xf9
 6890 089b A6080000 		.4byte	0x8a6
 6891 089f 14       		.uleb128 0x14
 6892 08a0 B1000000 		.4byte	0xb1
 6893 08a4 0B       		.byte	0xb
 6894 08a5 00       		.byte	0
 6895 08a6 13       		.uleb128 0x13
 6896 08a7 24070000 		.4byte	0x724
 6897 08ab B6080000 		.4byte	0x8b6
 6898 08af 14       		.uleb128 0x14
 6899 08b0 B1000000 		.4byte	0xb1
 6900 08b4 1B       		.byte	0x1b
 6901 08b5 00       		.byte	0
 6902 08b6 1A       		.uleb128 0x1a
 6903 08b7 760E0000 		.4byte	.LASF139
 6904 08bb 0A       		.byte	0xa
 6905 08bc 2301     		.2byte	0x123
 6906 08be 30070000 		.4byte	0x730
 6907 08c2 19       		.uleb128 0x19
 6908 08c3 38       		.byte	0x38
 6909 08c4 0A       		.byte	0xa
 6910 08c5 3601     		.2byte	0x136
 6911 08c7 80090000 		.4byte	0x980
 6912 08cb 09       		.uleb128 0x9
 6913 08cc 435200   		.ascii	"CR\000"
 6914 08cf 0A       		.byte	0xa
 6915 08d0 3801     		.2byte	0x138
 6916 08d2 04010000 		.4byte	0x104
ARM GAS  C:\Users\osour\AppData\Local\Temp\ccsBkKuy.s 			page 128


 6917 08d6 00       		.byte	0
 6918 08d7 0A       		.uleb128 0xa
 6919 08d8 70190000 		.4byte	.LASF140
 6920 08dc 0A       		.byte	0xa
 6921 08dd 3901     		.2byte	0x139
 6922 08df 04010000 		.4byte	0x104
 6923 08e3 04       		.byte	0x4
 6924 08e4 0A       		.uleb128 0xa
 6925 08e5 55230000 		.4byte	.LASF141
 6926 08e9 0A       		.byte	0xa
 6927 08ea 3A01     		.2byte	0x13a
 6928 08ec 04010000 		.4byte	0x104
 6929 08f0 08       		.byte	0x8
 6930 08f1 0A       		.uleb128 0xa
 6931 08f2 C11E0000 		.4byte	.LASF142
 6932 08f6 0A       		.byte	0xa
 6933 08f7 3B01     		.2byte	0x13b
 6934 08f9 04010000 		.4byte	0x104
 6935 08fd 0C       		.byte	0xc
 6936 08fe 0A       		.uleb128 0xa
 6937 08ff 640B0000 		.4byte	.LASF143
 6938 0903 0A       		.byte	0xa
 6939 0904 3C01     		.2byte	0x13c
 6940 0906 04010000 		.4byte	0x104
 6941 090a 10       		.byte	0x10
 6942 090b 0A       		.uleb128 0xa
 6943 090c 5D230000 		.4byte	.LASF144
 6944 0910 0A       		.byte	0xa
 6945 0911 3D01     		.2byte	0x13d
 6946 0913 04010000 		.4byte	0x104
 6947 0917 14       		.byte	0x14
 6948 0918 0A       		.uleb128 0xa
 6949 0919 C91E0000 		.4byte	.LASF145
 6950 091d 0A       		.byte	0xa
 6951 091e 3E01     		.2byte	0x13e
 6952 0920 04010000 		.4byte	0x104
 6953 0924 18       		.byte	0x18
 6954 0925 0A       		.uleb128 0xa
 6955 0926 6B0B0000 		.4byte	.LASF146
 6956 092a 0A       		.byte	0xa
 6957 092b 3F01     		.2byte	0x13f
 6958 092d 04010000 		.4byte	0x104
 6959 0931 1C       		.byte	0x1c
 6960 0932 0A       		.uleb128 0xa
 6961 0933 B7230000 		.4byte	.LASF147
 6962 0937 0A       		.byte	0xa
 6963 0938 4001     		.2byte	0x140
 6964 093a 04010000 		.4byte	0x104
 6965 093e 20       		.byte	0x20
 6966 093f 0A       		.uleb128 0xa
 6967 0940 1B1F0000 		.4byte	.LASF148
 6968 0944 0A       		.byte	0xa
 6969 0945 4101     		.2byte	0x141
 6970 0947 04010000 		.4byte	0x104
 6971 094b 24       		.byte	0x24
 6972 094c 0A       		.uleb128 0xa
 6973 094d 74270000 		.4byte	.LASF149
ARM GAS  C:\Users\osour\AppData\Local\Temp\ccsBkKuy.s 			page 129


 6974 0951 0A       		.byte	0xa
 6975 0952 4201     		.2byte	0x142
 6976 0954 04010000 		.4byte	0x104
 6977 0958 28       		.byte	0x28
 6978 0959 0A       		.uleb128 0xa
 6979 095a 21020000 		.4byte	.LASF150
 6980 095e 0A       		.byte	0xa
 6981 095f 4301     		.2byte	0x143
 6982 0961 04010000 		.4byte	0x104
 6983 0965 2C       		.byte	0x2c
 6984 0966 0A       		.uleb128 0xa
 6985 0967 26020000 		.4byte	.LASF151
 6986 096b 0A       		.byte	0xa
 6987 096c 4401     		.2byte	0x144
 6988 096e 04010000 		.4byte	0x104
 6989 0972 30       		.byte	0x30
 6990 0973 09       		.uleb128 0x9
 6991 0974 535200   		.ascii	"SR\000"
 6992 0977 0A       		.byte	0xa
 6993 0978 4501     		.2byte	0x145
 6994 097a 04010000 		.4byte	0x104
 6995 097e 34       		.byte	0x34
 6996 097f 00       		.byte	0
 6997 0980 1A       		.uleb128 0x1a
 6998 0981 9A200000 		.4byte	.LASF152
 6999 0985 0A       		.byte	0xa
 7000 0986 4601     		.2byte	0x146
 7001 0988 C2080000 		.4byte	0x8c2
 7002 098c 19       		.uleb128 0x19
 7003 098d 2C       		.byte	0x2c
 7004 098e 0A       		.byte	0xa
 7005 098f 5801     		.2byte	0x158
 7006 0991 220A0000 		.4byte	0xa22
 7007 0995 09       		.uleb128 0x9
 7008 0996 435200   		.ascii	"CR\000"
 7009 0999 0A       		.byte	0xa
 7010 099a 5A01     		.2byte	0x15a
 7011 099c 04010000 		.4byte	0x104
 7012 09a0 00       		.byte	0
 7013 09a1 09       		.uleb128 0x9
 7014 09a2 535200   		.ascii	"SR\000"
 7015 09a5 0A       		.byte	0xa
 7016 09a6 5B01     		.2byte	0x15b
 7017 09a8 04010000 		.4byte	0x104
 7018 09ac 04       		.byte	0x4
 7019 09ad 0A       		.uleb128 0xa
 7020 09ae B00A0000 		.4byte	.LASF153
 7021 09b2 0A       		.byte	0xa
 7022 09b3 5C01     		.2byte	0x15c
 7023 09b5 04010000 		.4byte	0x104
 7024 09b9 08       		.byte	0x8
 7025 09ba 09       		.uleb128 0x9
 7026 09bb 49455200 		.ascii	"IER\000"
 7027 09bf 0A       		.byte	0xa
 7028 09c0 5D01     		.2byte	0x15d
 7029 09c2 04010000 		.4byte	0x104
 7030 09c6 0C       		.byte	0xc
ARM GAS  C:\Users\osour\AppData\Local\Temp\ccsBkKuy.s 			page 130


 7031 09c7 0A       		.uleb128 0xa
 7032 09c8 FB230000 		.4byte	.LASF154
 7033 09cc 0A       		.byte	0xa
 7034 09cd 5E01     		.2byte	0x15e
 7035 09cf 04010000 		.4byte	0x104
 7036 09d3 10       		.byte	0x10
 7037 09d4 09       		.uleb128 0x9
 7038 09d5 49435200 		.ascii	"ICR\000"
 7039 09d9 0A       		.byte	0xa
 7040 09da 5F01     		.2byte	0x15f
 7041 09dc 04010000 		.4byte	0x104
 7042 09e0 14       		.byte	0x14
 7043 09e1 0A       		.uleb128 0xa
 7044 09e2 231D0000 		.4byte	.LASF155
 7045 09e6 0A       		.byte	0xa
 7046 09e7 6001     		.2byte	0x160
 7047 09e9 04010000 		.4byte	0x104
 7048 09ed 18       		.byte	0x18
 7049 09ee 0A       		.uleb128 0xa
 7050 09ef 51290000 		.4byte	.LASF156
 7051 09f3 0A       		.byte	0xa
 7052 09f4 6101     		.2byte	0x161
 7053 09f6 04010000 		.4byte	0x104
 7054 09fa 1C       		.byte	0x1c
 7055 09fb 0A       		.uleb128 0xa
 7056 09fc 25150000 		.4byte	.LASF157
 7057 0a00 0A       		.byte	0xa
 7058 0a01 6201     		.2byte	0x162
 7059 0a03 04010000 		.4byte	0x104
 7060 0a07 20       		.byte	0x20
 7061 0a08 0A       		.uleb128 0xa
 7062 0a09 E81D0000 		.4byte	.LASF158
 7063 0a0d 0A       		.byte	0xa
 7064 0a0e 6301     		.2byte	0x163
 7065 0a10 04010000 		.4byte	0x104
 7066 0a14 24       		.byte	0x24
 7067 0a15 09       		.uleb128 0x9
 7068 0a16 445200   		.ascii	"DR\000"
 7069 0a19 0A       		.byte	0xa
 7070 0a1a 6401     		.2byte	0x164
 7071 0a1c 04010000 		.4byte	0x104
 7072 0a20 28       		.byte	0x28
 7073 0a21 00       		.byte	0
 7074 0a22 1A       		.uleb128 0x1a
 7075 0a23 21050000 		.4byte	.LASF159
 7076 0a27 0A       		.byte	0xa
 7077 0a28 6501     		.2byte	0x165
 7078 0a2a 8C090000 		.4byte	0x98c
 7079 0a2e 19       		.uleb128 0x19
 7080 0a2f 18       		.byte	0x18
 7081 0a30 0A       		.byte	0xa
 7082 0a31 6B01     		.2byte	0x16b
 7083 0a33 850A0000 		.4byte	0xa85
 7084 0a37 09       		.uleb128 0x9
 7085 0a38 435200   		.ascii	"CR\000"
 7086 0a3b 0A       		.byte	0xa
 7087 0a3c 6D01     		.2byte	0x16d
ARM GAS  C:\Users\osour\AppData\Local\Temp\ccsBkKuy.s 			page 131


 7088 0a3e 04010000 		.4byte	0x104
 7089 0a42 00       		.byte	0
 7090 0a43 0A       		.uleb128 0xa
 7091 0a44 5F240000 		.4byte	.LASF160
 7092 0a48 0A       		.byte	0xa
 7093 0a49 6E01     		.2byte	0x16e
 7094 0a4b 04010000 		.4byte	0x104
 7095 0a4f 04       		.byte	0x4
 7096 0a50 09       		.uleb128 0x9
 7097 0a51 50415200 		.ascii	"PAR\000"
 7098 0a55 0A       		.byte	0xa
 7099 0a56 6F01     		.2byte	0x16f
 7100 0a58 04010000 		.4byte	0x104
 7101 0a5c 08       		.byte	0x8
 7102 0a5d 0A       		.uleb128 0xa
 7103 0a5e DC040000 		.4byte	.LASF161
 7104 0a62 0A       		.byte	0xa
 7105 0a63 7001     		.2byte	0x170
 7106 0a65 04010000 		.4byte	0x104
 7107 0a69 0C       		.byte	0xc
 7108 0a6a 0A       		.uleb128 0xa
 7109 0a6b 34090000 		.4byte	.LASF162
 7110 0a6f 0A       		.byte	0xa
 7111 0a70 7101     		.2byte	0x171
 7112 0a72 04010000 		.4byte	0x104
 7113 0a76 10       		.byte	0x10
 7114 0a77 09       		.uleb128 0x9
 7115 0a78 46435200 		.ascii	"FCR\000"
 7116 0a7c 0A       		.byte	0xa
 7117 0a7d 7201     		.2byte	0x172
 7118 0a7f 04010000 		.4byte	0x104
 7119 0a83 14       		.byte	0x14
 7120 0a84 00       		.byte	0
 7121 0a85 1A       		.uleb128 0x1a
 7122 0a86 3E090000 		.4byte	.LASF163
 7123 0a8a 0A       		.byte	0xa
 7124 0a8b 7301     		.2byte	0x173
 7125 0a8d 2E0A0000 		.4byte	0xa2e
 7126 0a91 13       		.uleb128 0x13
 7127 0a92 04010000 		.4byte	0x104
 7128 0a96 A10A0000 		.4byte	0xaa1
 7129 0a9a 14       		.uleb128 0x14
 7130 0a9b B1000000 		.4byte	0xb1
 7131 0a9f 01       		.byte	0x1
 7132 0aa0 00       		.byte	0
 7133 0aa1 06       		.uleb128 0x6
 7134 0aa2 910A0000 		.4byte	0xa91
 7135 0aa6 13       		.uleb128 0x13
 7136 0aa7 04010000 		.4byte	0x104
 7137 0aab B60A0000 		.4byte	0xab6
 7138 0aaf 14       		.uleb128 0x14
 7139 0ab0 B1000000 		.4byte	0xb1
 7140 0ab4 03       		.byte	0x3
 7141 0ab5 00       		.byte	0
 7142 0ab6 06       		.uleb128 0x6
 7143 0ab7 A60A0000 		.4byte	0xaa6
 7144 0abb 19       		.uleb128 0x19
ARM GAS  C:\Users\osour\AppData\Local\Temp\ccsBkKuy.s 			page 132


 7145 0abc 28       		.byte	0x28
 7146 0abd 0A       		.byte	0xa
 7147 0abe 3F02     		.2byte	0x23f
 7148 0ac0 460B0000 		.4byte	0xb46
 7149 0ac4 09       		.uleb128 0x9
 7150 0ac5 43523100 		.ascii	"CR1\000"
 7151 0ac9 0A       		.byte	0xa
 7152 0aca 4102     		.2byte	0x241
 7153 0acc 04010000 		.4byte	0x104
 7154 0ad0 00       		.byte	0
 7155 0ad1 09       		.uleb128 0x9
 7156 0ad2 43523200 		.ascii	"CR2\000"
 7157 0ad6 0A       		.byte	0xa
 7158 0ad7 4202     		.2byte	0x242
 7159 0ad9 04010000 		.4byte	0x104
 7160 0add 04       		.byte	0x4
 7161 0ade 0A       		.uleb128 0xa
 7162 0adf 662A0000 		.4byte	.LASF164
 7163 0ae3 0A       		.byte	0xa
 7164 0ae4 4302     		.2byte	0x243
 7165 0ae6 04010000 		.4byte	0x104
 7166 0aea 08       		.byte	0x8
 7167 0aeb 0A       		.uleb128 0xa
 7168 0aec 6B2A0000 		.4byte	.LASF165
 7169 0af0 0A       		.byte	0xa
 7170 0af1 4402     		.2byte	0x244
 7171 0af3 04010000 		.4byte	0x104
 7172 0af7 0C       		.byte	0xc
 7173 0af8 09       		.uleb128 0x9
 7174 0af9 445200   		.ascii	"DR\000"
 7175 0afc 0A       		.byte	0xa
 7176 0afd 4502     		.2byte	0x245
 7177 0aff 04010000 		.4byte	0x104
 7178 0b03 10       		.byte	0x10
 7179 0b04 09       		.uleb128 0x9
 7180 0b05 53523100 		.ascii	"SR1\000"
 7181 0b09 0A       		.byte	0xa
 7182 0b0a 4602     		.2byte	0x246
 7183 0b0c 04010000 		.4byte	0x104
 7184 0b10 14       		.byte	0x14
 7185 0b11 09       		.uleb128 0x9
 7186 0b12 53523200 		.ascii	"SR2\000"
 7187 0b16 0A       		.byte	0xa
 7188 0b17 4702     		.2byte	0x247
 7189 0b19 04010000 		.4byte	0x104
 7190 0b1d 18       		.byte	0x18
 7191 0b1e 09       		.uleb128 0x9
 7192 0b1f 43435200 		.ascii	"CCR\000"
 7193 0b23 0A       		.byte	0xa
 7194 0b24 4802     		.2byte	0x248
 7195 0b26 04010000 		.4byte	0x104
 7196 0b2a 1C       		.byte	0x1c
 7197 0b2b 0A       		.uleb128 0xa
 7198 0b2c 07060000 		.4byte	.LASF166
 7199 0b30 0A       		.byte	0xa
 7200 0b31 4902     		.2byte	0x249
 7201 0b33 04010000 		.4byte	0x104
ARM GAS  C:\Users\osour\AppData\Local\Temp\ccsBkKuy.s 			page 133


 7202 0b37 20       		.byte	0x20
 7203 0b38 0A       		.uleb128 0xa
 7204 0b39 DC280000 		.4byte	.LASF167
 7205 0b3d 0A       		.byte	0xa
 7206 0b3e 4A02     		.2byte	0x24a
 7207 0b40 04010000 		.4byte	0x104
 7208 0b44 24       		.byte	0x24
 7209 0b45 00       		.byte	0
 7210 0b46 1A       		.uleb128 0x1a
 7211 0b47 8C190000 		.4byte	.LASF168
 7212 0b4b 0A       		.byte	0xa
 7213 0b4c 4B02     		.2byte	0x24b
 7214 0b4e BB0A0000 		.4byte	0xabb
 7215 0b52 19       		.uleb128 0x19
 7216 0b53 84       		.byte	0x84
 7217 0b54 0A       		.byte	0xa
 7218 0b55 BF02     		.2byte	0x2bf
 7219 0b57 600C0000 		.4byte	0xc60
 7220 0b5b 0A       		.uleb128 0xa
 7221 0b5c C1190000 		.4byte	.LASF169
 7222 0b60 0A       		.byte	0xa
 7223 0b61 C102     		.2byte	0x2c1
 7224 0b63 04010000 		.4byte	0x104
 7225 0b67 00       		.byte	0
 7226 0b68 0A       		.uleb128 0xa
 7227 0b69 A2250000 		.4byte	.LASF170
 7228 0b6d 0A       		.byte	0xa
 7229 0b6e C202     		.2byte	0x2c2
 7230 0b70 04010000 		.4byte	0x104
 7231 0b74 04       		.byte	0x4
 7232 0b75 09       		.uleb128 0x9
 7233 0b76 41524700 		.ascii	"ARG\000"
 7234 0b7a 0A       		.byte	0xa
 7235 0b7b C302     		.2byte	0x2c3
 7236 0b7d 04010000 		.4byte	0x104
 7237 0b81 08       		.byte	0x8
 7238 0b82 09       		.uleb128 0x9
 7239 0b83 434D4400 		.ascii	"CMD\000"
 7240 0b87 0A       		.byte	0xa
 7241 0b88 C402     		.2byte	0x2c4
 7242 0b8a 04010000 		.4byte	0x104
 7243 0b8e 0C       		.byte	0xc
 7244 0b8f 0A       		.uleb128 0xa
 7245 0b90 E51C0000 		.4byte	.LASF171
 7246 0b94 0A       		.byte	0xa
 7247 0b95 C502     		.2byte	0x2c5
 7248 0b97 09010000 		.4byte	0x109
 7249 0b9b 10       		.byte	0x10
 7250 0b9c 0A       		.uleb128 0xa
 7251 0b9d 1F070000 		.4byte	.LASF172
 7252 0ba1 0A       		.byte	0xa
 7253 0ba2 C602     		.2byte	0x2c6
 7254 0ba4 09010000 		.4byte	0x109
 7255 0ba8 14       		.byte	0x14
 7256 0ba9 0A       		.uleb128 0xa
 7257 0baa 25070000 		.4byte	.LASF173
 7258 0bae 0A       		.byte	0xa
ARM GAS  C:\Users\osour\AppData\Local\Temp\ccsBkKuy.s 			page 134


 7259 0baf C702     		.2byte	0x2c7
 7260 0bb1 09010000 		.4byte	0x109
 7261 0bb5 18       		.byte	0x18
 7262 0bb6 0A       		.uleb128 0xa
 7263 0bb7 2B070000 		.4byte	.LASF174
 7264 0bbb 0A       		.byte	0xa
 7265 0bbc C802     		.2byte	0x2c8
 7266 0bbe 09010000 		.4byte	0x109
 7267 0bc2 1C       		.byte	0x1c
 7268 0bc3 0A       		.uleb128 0xa
 7269 0bc4 31070000 		.4byte	.LASF175
 7270 0bc8 0A       		.byte	0xa
 7271 0bc9 C902     		.2byte	0x2c9
 7272 0bcb 09010000 		.4byte	0x109
 7273 0bcf 20       		.byte	0x20
 7274 0bd0 0A       		.uleb128 0xa
 7275 0bd1 C6160000 		.4byte	.LASF176
 7276 0bd5 0A       		.byte	0xa
 7277 0bd6 CA02     		.2byte	0x2ca
 7278 0bd8 04010000 		.4byte	0x104
 7279 0bdc 24       		.byte	0x24
 7280 0bdd 0A       		.uleb128 0xa
 7281 0bde 52180000 		.4byte	.LASF177
 7282 0be2 0A       		.byte	0xa
 7283 0be3 CB02     		.2byte	0x2cb
 7284 0be5 04010000 		.4byte	0x104
 7285 0be9 28       		.byte	0x28
 7286 0bea 0A       		.uleb128 0xa
 7287 0beb C8280000 		.4byte	.LASF178
 7288 0bef 0A       		.byte	0xa
 7289 0bf0 CC02     		.2byte	0x2cc
 7290 0bf2 04010000 		.4byte	0x104
 7291 0bf6 2C       		.byte	0x2c
 7292 0bf7 0A       		.uleb128 0xa
 7293 0bf8 5F2A0000 		.4byte	.LASF179
 7294 0bfc 0A       		.byte	0xa
 7295 0bfd CD02     		.2byte	0x2cd
 7296 0bff 09010000 		.4byte	0x109
 7297 0c03 30       		.byte	0x30
 7298 0c04 09       		.uleb128 0x9
 7299 0c05 53544100 		.ascii	"STA\000"
 7300 0c09 0A       		.byte	0xa
 7301 0c0a CE02     		.2byte	0x2ce
 7302 0c0c 09010000 		.4byte	0x109
 7303 0c10 34       		.byte	0x34
 7304 0c11 09       		.uleb128 0x9
 7305 0c12 49435200 		.ascii	"ICR\000"
 7306 0c16 0A       		.byte	0xa
 7307 0c17 CF02     		.2byte	0x2cf
 7308 0c19 04010000 		.4byte	0x104
 7309 0c1d 38       		.byte	0x38
 7310 0c1e 0A       		.uleb128 0xa
 7311 0c1f 5F020000 		.4byte	.LASF180
 7312 0c23 0A       		.byte	0xa
 7313 0c24 D002     		.2byte	0x2d0
 7314 0c26 04010000 		.4byte	0x104
 7315 0c2a 3C       		.byte	0x3c
ARM GAS  C:\Users\osour\AppData\Local\Temp\ccsBkKuy.s 			page 135


 7316 0c2b 0A       		.uleb128 0xa
 7317 0c2c 07230000 		.4byte	.LASF126
 7318 0c30 0A       		.byte	0xa
 7319 0c31 D102     		.2byte	0x2d1
 7320 0c33 3F050000 		.4byte	0x53f
 7321 0c37 40       		.byte	0x40
 7322 0c38 0A       		.uleb128 0xa
 7323 0c39 68170000 		.4byte	.LASF181
 7324 0c3d 0A       		.byte	0xa
 7325 0c3e D202     		.2byte	0x2d2
 7326 0c40 09010000 		.4byte	0x109
 7327 0c44 48       		.byte	0x48
 7328 0c45 0A       		.uleb128 0xa
 7329 0c46 11230000 		.4byte	.LASF129
 7330 0c4a 0A       		.byte	0xa
 7331 0c4b D302     		.2byte	0x2d3
 7332 0c4d 600C0000 		.4byte	0xc60
 7333 0c51 4C       		.byte	0x4c
 7334 0c52 0A       		.uleb128 0xa
 7335 0c53 990A0000 		.4byte	.LASF182
 7336 0c57 0A       		.byte	0xa
 7337 0c58 D402     		.2byte	0x2d4
 7338 0c5a 04010000 		.4byte	0x104
 7339 0c5e 80       		.byte	0x80
 7340 0c5f 00       		.byte	0
 7341 0c60 13       		.uleb128 0x13
 7342 0c61 F9000000 		.4byte	0xf9
 7343 0c65 700C0000 		.4byte	0xc70
 7344 0c69 14       		.uleb128 0x14
 7345 0c6a B1000000 		.4byte	0xb1
 7346 0c6e 0C       		.byte	0xc
 7347 0c6f 00       		.byte	0
 7348 0c70 1A       		.uleb128 0x1a
 7349 0c71 44240000 		.4byte	.LASF183
 7350 0c75 0A       		.byte	0xa
 7351 0c76 D502     		.2byte	0x2d5
 7352 0c78 520B0000 		.4byte	0xb52
 7353 0c7c 19       		.uleb128 0x19
 7354 0c7d 24       		.byte	0x24
 7355 0c7e 0A       		.byte	0xa
 7356 0c7f DB02     		.2byte	0x2db
 7357 0c81 F90C0000 		.4byte	0xcf9
 7358 0c85 09       		.uleb128 0x9
 7359 0c86 43523100 		.ascii	"CR1\000"
 7360 0c8a 0A       		.byte	0xa
 7361 0c8b DD02     		.2byte	0x2dd
 7362 0c8d 04010000 		.4byte	0x104
 7363 0c91 00       		.byte	0
 7364 0c92 09       		.uleb128 0x9
 7365 0c93 43523200 		.ascii	"CR2\000"
 7366 0c97 0A       		.byte	0xa
 7367 0c98 DE02     		.2byte	0x2de
 7368 0c9a 04010000 		.4byte	0x104
 7369 0c9e 04       		.byte	0x4
 7370 0c9f 09       		.uleb128 0x9
 7371 0ca0 535200   		.ascii	"SR\000"
 7372 0ca3 0A       		.byte	0xa
ARM GAS  C:\Users\osour\AppData\Local\Temp\ccsBkKuy.s 			page 136


 7373 0ca4 DF02     		.2byte	0x2df
 7374 0ca6 04010000 		.4byte	0x104
 7375 0caa 08       		.byte	0x8
 7376 0cab 09       		.uleb128 0x9
 7377 0cac 445200   		.ascii	"DR\000"
 7378 0caf 0A       		.byte	0xa
 7379 0cb0 E002     		.2byte	0x2e0
 7380 0cb2 04010000 		.4byte	0x104
 7381 0cb6 0C       		.byte	0xc
 7382 0cb7 0A       		.uleb128 0xa
 7383 0cb8 B0080000 		.4byte	.LASF184
 7384 0cbc 0A       		.byte	0xa
 7385 0cbd E102     		.2byte	0x2e1
 7386 0cbf 04010000 		.4byte	0x104
 7387 0cc3 10       		.byte	0x10
 7388 0cc4 0A       		.uleb128 0xa
 7389 0cc5 DD0C0000 		.4byte	.LASF185
 7390 0cc9 0A       		.byte	0xa
 7391 0cca E202     		.2byte	0x2e2
 7392 0ccc 04010000 		.4byte	0x104
 7393 0cd0 14       		.byte	0x14
 7394 0cd1 0A       		.uleb128 0xa
 7395 0cd2 C90B0000 		.4byte	.LASF186
 7396 0cd6 0A       		.byte	0xa
 7397 0cd7 E302     		.2byte	0x2e3
 7398 0cd9 04010000 		.4byte	0x104
 7399 0cdd 18       		.byte	0x18
 7400 0cde 0A       		.uleb128 0xa
 7401 0cdf 64260000 		.4byte	.LASF187
 7402 0ce3 0A       		.byte	0xa
 7403 0ce4 E402     		.2byte	0x2e4
 7404 0ce6 04010000 		.4byte	0x104
 7405 0cea 1C       		.byte	0x1c
 7406 0ceb 0A       		.uleb128 0xa
 7407 0cec 53080000 		.4byte	.LASF188
 7408 0cf0 0A       		.byte	0xa
 7409 0cf1 E502     		.2byte	0x2e5
 7410 0cf3 04010000 		.4byte	0x104
 7411 0cf7 20       		.byte	0x20
 7412 0cf8 00       		.byte	0
 7413 0cf9 1A       		.uleb128 0x1a
 7414 0cfa 9A240000 		.4byte	.LASF189
 7415 0cfe 0A       		.byte	0xa
 7416 0cff E602     		.2byte	0x2e6
 7417 0d01 7C0C0000 		.4byte	0xc7c
 7418 0d05 19       		.uleb128 0x19
 7419 0d06 1C       		.byte	0x1c
 7420 0d07 0A       		.byte	0xa
 7421 0d08 0903     		.2byte	0x309
 7422 0d0a 680D0000 		.4byte	0xd68
 7423 0d0e 09       		.uleb128 0x9
 7424 0d0f 535200   		.ascii	"SR\000"
 7425 0d12 0A       		.byte	0xa
 7426 0d13 0B03     		.2byte	0x30b
 7427 0d15 04010000 		.4byte	0x104
 7428 0d19 00       		.byte	0
 7429 0d1a 09       		.uleb128 0x9
ARM GAS  C:\Users\osour\AppData\Local\Temp\ccsBkKuy.s 			page 137


 7430 0d1b 445200   		.ascii	"DR\000"
 7431 0d1e 0A       		.byte	0xa
 7432 0d1f 0C03     		.2byte	0x30c
 7433 0d21 04010000 		.4byte	0x104
 7434 0d25 04       		.byte	0x4
 7435 0d26 09       		.uleb128 0x9
 7436 0d27 42525200 		.ascii	"BRR\000"
 7437 0d2b 0A       		.byte	0xa
 7438 0d2c 0D03     		.2byte	0x30d
 7439 0d2e 04010000 		.4byte	0x104
 7440 0d32 08       		.byte	0x8
 7441 0d33 09       		.uleb128 0x9
 7442 0d34 43523100 		.ascii	"CR1\000"
 7443 0d38 0A       		.byte	0xa
 7444 0d39 0E03     		.2byte	0x30e
 7445 0d3b 04010000 		.4byte	0x104
 7446 0d3f 0C       		.byte	0xc
 7447 0d40 09       		.uleb128 0x9
 7448 0d41 43523200 		.ascii	"CR2\000"
 7449 0d45 0A       		.byte	0xa
 7450 0d46 0F03     		.2byte	0x30f
 7451 0d48 04010000 		.4byte	0x104
 7452 0d4c 10       		.byte	0x10
 7453 0d4d 09       		.uleb128 0x9
 7454 0d4e 43523300 		.ascii	"CR3\000"
 7455 0d52 0A       		.byte	0xa
 7456 0d53 1003     		.2byte	0x310
 7457 0d55 04010000 		.4byte	0x104
 7458 0d59 14       		.byte	0x14
 7459 0d5a 0A       		.uleb128 0xa
 7460 0d5b 9F280000 		.4byte	.LASF190
 7461 0d5f 0A       		.byte	0xa
 7462 0d60 1103     		.2byte	0x311
 7463 0d62 04010000 		.4byte	0x104
 7464 0d66 18       		.byte	0x18
 7465 0d67 00       		.byte	0
 7466 0d68 1A       		.uleb128 0x1a
 7467 0d69 91290000 		.4byte	.LASF191
 7468 0d6d 0A       		.byte	0xa
 7469 0d6e 1203     		.2byte	0x312
 7470 0d70 050D0000 		.4byte	0xd05
 7471 0d74 13       		.uleb128 0x13
 7472 0d75 04010000 		.4byte	0x104
 7473 0d79 840D0000 		.4byte	0xd84
 7474 0d7d 14       		.uleb128 0x14
 7475 0d7e B1000000 		.4byte	0xb1
 7476 0d82 0E       		.byte	0xe
 7477 0d83 00       		.byte	0
 7478 0d84 06       		.uleb128 0x6
 7479 0d85 740D0000 		.4byte	0xd74
 7480 0d89 02       		.uleb128 0x2
 7481 0d8a 201C0000 		.4byte	.LASF192
 7482 0d8e 0B       		.byte	0xb
 7483 0d8f 65       		.byte	0x65
 7484 0d90 D0030000 		.4byte	0x3d0
 7485 0d94 02       		.uleb128 0x2
 7486 0d95 370A0000 		.4byte	.LASF193
ARM GAS  C:\Users\osour\AppData\Local\Temp\ccsBkKuy.s 			page 138


 7487 0d99 0B       		.byte	0xb
 7488 0d9a 6D       		.byte	0x6d
 7489 0d9b 0E010000 		.4byte	0x10e
 7490 0d9f 07       		.uleb128 0x7
 7491 0da0 821B0000 		.4byte	.LASF194
 7492 0da4 04       		.byte	0x4
 7493 0da5 0B       		.byte	0xb
 7494 0da6 89       		.byte	0x89
 7495 0da7 B80D0000 		.4byte	0xdb8
 7496 0dab 18       		.uleb128 0x18
 7497 0dac 72313300 		.ascii	"r13\000"
 7498 0db0 0B       		.byte	0xb
 7499 0db1 8A       		.byte	0x8a
 7500 0db2 F90E0000 		.4byte	0xef9
 7501 0db6 00       		.byte	0
 7502 0db7 00       		.byte	0
 7503 0db8 07       		.uleb128 0x7
 7504 0db9 09000000 		.4byte	.LASF195
 7505 0dbd 64       		.byte	0x64
 7506 0dbe 0C       		.byte	0xc
 7507 0dbf F4       		.byte	0xf4
 7508 0dc0 F90E0000 		.4byte	0xef9
 7509 0dc4 18       		.uleb128 0x18
 7510 0dc5 73313600 		.ascii	"s16\000"
 7511 0dc9 0C       		.byte	0xc
 7512 0dca F6       		.byte	0xf6
 7513 0dcb 890D0000 		.4byte	0xd89
 7514 0dcf 00       		.byte	0
 7515 0dd0 18       		.uleb128 0x18
 7516 0dd1 73313700 		.ascii	"s17\000"
 7517 0dd5 0C       		.byte	0xc
 7518 0dd6 F7       		.byte	0xf7
 7519 0dd7 890D0000 		.4byte	0xd89
 7520 0ddb 04       		.byte	0x4
 7521 0ddc 18       		.uleb128 0x18
 7522 0ddd 73313800 		.ascii	"s18\000"
 7523 0de1 0C       		.byte	0xc
 7524 0de2 F8       		.byte	0xf8
 7525 0de3 890D0000 		.4byte	0xd89
 7526 0de7 08       		.byte	0x8
 7527 0de8 18       		.uleb128 0x18
 7528 0de9 73313900 		.ascii	"s19\000"
 7529 0ded 0C       		.byte	0xc
 7530 0dee F9       		.byte	0xf9
 7531 0def 890D0000 		.4byte	0xd89
 7532 0df3 0C       		.byte	0xc
 7533 0df4 18       		.uleb128 0x18
 7534 0df5 73323000 		.ascii	"s20\000"
 7535 0df9 0C       		.byte	0xc
 7536 0dfa FA       		.byte	0xfa
 7537 0dfb 890D0000 		.4byte	0xd89
 7538 0dff 10       		.byte	0x10
 7539 0e00 18       		.uleb128 0x18
 7540 0e01 73323100 		.ascii	"s21\000"
 7541 0e05 0C       		.byte	0xc
 7542 0e06 FB       		.byte	0xfb
 7543 0e07 890D0000 		.4byte	0xd89
ARM GAS  C:\Users\osour\AppData\Local\Temp\ccsBkKuy.s 			page 139


 7544 0e0b 14       		.byte	0x14
 7545 0e0c 18       		.uleb128 0x18
 7546 0e0d 73323200 		.ascii	"s22\000"
 7547 0e11 0C       		.byte	0xc
 7548 0e12 FC       		.byte	0xfc
 7549 0e13 890D0000 		.4byte	0xd89
 7550 0e17 18       		.byte	0x18
 7551 0e18 18       		.uleb128 0x18
 7552 0e19 73323300 		.ascii	"s23\000"
 7553 0e1d 0C       		.byte	0xc
 7554 0e1e FD       		.byte	0xfd
 7555 0e1f 890D0000 		.4byte	0xd89
 7556 0e23 1C       		.byte	0x1c
 7557 0e24 18       		.uleb128 0x18
 7558 0e25 73323400 		.ascii	"s24\000"
 7559 0e29 0C       		.byte	0xc
 7560 0e2a FE       		.byte	0xfe
 7561 0e2b 890D0000 		.4byte	0xd89
 7562 0e2f 20       		.byte	0x20
 7563 0e30 18       		.uleb128 0x18
 7564 0e31 73323500 		.ascii	"s25\000"
 7565 0e35 0C       		.byte	0xc
 7566 0e36 FF       		.byte	0xff
 7567 0e37 890D0000 		.4byte	0xd89
 7568 0e3b 24       		.byte	0x24
 7569 0e3c 09       		.uleb128 0x9
 7570 0e3d 73323600 		.ascii	"s26\000"
 7571 0e41 0C       		.byte	0xc
 7572 0e42 0001     		.2byte	0x100
 7573 0e44 890D0000 		.4byte	0xd89
 7574 0e48 28       		.byte	0x28
 7575 0e49 09       		.uleb128 0x9
 7576 0e4a 73323700 		.ascii	"s27\000"
 7577 0e4e 0C       		.byte	0xc
 7578 0e4f 0101     		.2byte	0x101
 7579 0e51 890D0000 		.4byte	0xd89
 7580 0e55 2C       		.byte	0x2c
 7581 0e56 09       		.uleb128 0x9
 7582 0e57 73323800 		.ascii	"s28\000"
 7583 0e5b 0C       		.byte	0xc
 7584 0e5c 0201     		.2byte	0x102
 7585 0e5e 890D0000 		.4byte	0xd89
 7586 0e62 30       		.byte	0x30
 7587 0e63 09       		.uleb128 0x9
 7588 0e64 73323900 		.ascii	"s29\000"
 7589 0e68 0C       		.byte	0xc
 7590 0e69 0301     		.2byte	0x103
 7591 0e6b 890D0000 		.4byte	0xd89
 7592 0e6f 34       		.byte	0x34
 7593 0e70 09       		.uleb128 0x9
 7594 0e71 73333000 		.ascii	"s30\000"
 7595 0e75 0C       		.byte	0xc
 7596 0e76 0401     		.2byte	0x104
 7597 0e78 890D0000 		.4byte	0xd89
 7598 0e7c 38       		.byte	0x38
 7599 0e7d 09       		.uleb128 0x9
 7600 0e7e 73333100 		.ascii	"s31\000"
ARM GAS  C:\Users\osour\AppData\Local\Temp\ccsBkKuy.s 			page 140


 7601 0e82 0C       		.byte	0xc
 7602 0e83 0501     		.2byte	0x105
 7603 0e85 890D0000 		.4byte	0xd89
 7604 0e89 3C       		.byte	0x3c
 7605 0e8a 09       		.uleb128 0x9
 7606 0e8b 723400   		.ascii	"r4\000"
 7607 0e8e 0C       		.byte	0xc
 7608 0e8f 0701     		.2byte	0x107
 7609 0e91 890D0000 		.4byte	0xd89
 7610 0e95 40       		.byte	0x40
 7611 0e96 09       		.uleb128 0x9
 7612 0e97 723500   		.ascii	"r5\000"
 7613 0e9a 0C       		.byte	0xc
 7614 0e9b 0801     		.2byte	0x108
 7615 0e9d 890D0000 		.4byte	0xd89
 7616 0ea1 44       		.byte	0x44
 7617 0ea2 09       		.uleb128 0x9
 7618 0ea3 723600   		.ascii	"r6\000"
 7619 0ea6 0C       		.byte	0xc
 7620 0ea7 0901     		.2byte	0x109
 7621 0ea9 890D0000 		.4byte	0xd89
 7622 0ead 48       		.byte	0x48
 7623 0eae 09       		.uleb128 0x9
 7624 0eaf 723700   		.ascii	"r7\000"
 7625 0eb2 0C       		.byte	0xc
 7626 0eb3 0A01     		.2byte	0x10a
 7627 0eb5 890D0000 		.4byte	0xd89
 7628 0eb9 4C       		.byte	0x4c
 7629 0eba 09       		.uleb128 0x9
 7630 0ebb 723800   		.ascii	"r8\000"
 7631 0ebe 0C       		.byte	0xc
 7632 0ebf 0B01     		.2byte	0x10b
 7633 0ec1 890D0000 		.4byte	0xd89
 7634 0ec5 50       		.byte	0x50
 7635 0ec6 09       		.uleb128 0x9
 7636 0ec7 723900   		.ascii	"r9\000"
 7637 0eca 0C       		.byte	0xc
 7638 0ecb 0C01     		.2byte	0x10c
 7639 0ecd 890D0000 		.4byte	0xd89
 7640 0ed1 54       		.byte	0x54
 7641 0ed2 09       		.uleb128 0x9
 7642 0ed3 72313000 		.ascii	"r10\000"
 7643 0ed7 0C       		.byte	0xc
 7644 0ed8 0D01     		.2byte	0x10d
 7645 0eda 890D0000 		.4byte	0xd89
 7646 0ede 58       		.byte	0x58
 7647 0edf 09       		.uleb128 0x9
 7648 0ee0 72313100 		.ascii	"r11\000"
 7649 0ee4 0C       		.byte	0xc
 7650 0ee5 0E01     		.2byte	0x10e
 7651 0ee7 890D0000 		.4byte	0xd89
 7652 0eeb 5C       		.byte	0x5c
 7653 0eec 09       		.uleb128 0x9
 7654 0eed 6C7200   		.ascii	"lr\000"
 7655 0ef0 0C       		.byte	0xc
 7656 0ef1 0F01     		.2byte	0x10f
 7657 0ef3 890D0000 		.4byte	0xd89
ARM GAS  C:\Users\osour\AppData\Local\Temp\ccsBkKuy.s 			page 141


 7658 0ef7 60       		.byte	0x60
 7659 0ef8 00       		.byte	0
 7660 0ef9 0B       		.uleb128 0xb
 7661 0efa 04       		.byte	0x4
 7662 0efb B80D0000 		.4byte	0xdb8
 7663 0eff 17       		.uleb128 0x17
 7664 0f00 10       		.byte	0x10
 7665 0f01 0D       		.byte	0xd
 7666 0f02 51       		.byte	0x51
 7667 0f03 380F0000 		.4byte	0xf38
 7668 0f07 08       		.uleb128 0x8
 7669 0f08 7B230000 		.4byte	.LASF196
 7670 0f0c 0D       		.byte	0xd
 7671 0f0d 55       		.byte	0x55
 7672 0f0e AF010000 		.4byte	0x1af
 7673 0f12 00       		.byte	0
 7674 0f13 08       		.uleb128 0x8
 7675 0f14 B11C0000 		.4byte	.LASF197
 7676 0f18 0D       		.byte	0xd
 7677 0f19 59       		.byte	0x59
 7678 0f1a F3020000 		.4byte	0x2f3
 7679 0f1e 04       		.byte	0x4
 7680 0f1f 08       		.uleb128 0x8
 7681 0f20 9C0D0000 		.4byte	.LASF198
 7682 0f24 0D       		.byte	0xd
 7683 0f25 5D       		.byte	0x5d
 7684 0f26 D0030000 		.4byte	0x3d0
 7685 0f2a 08       		.byte	0x8
 7686 0f2b 08       		.uleb128 0x8
 7687 0f2c 3B0B0000 		.4byte	.LASF199
 7688 0f30 0D       		.byte	0xd
 7689 0f31 61       		.byte	0x61
 7690 0f32 C3000000 		.4byte	0xc3
 7691 0f36 0C       		.byte	0xc
 7692 0f37 00       		.byte	0
 7693 0f38 02       		.uleb128 0x2
 7694 0f39 890E0000 		.4byte	.LASF200
 7695 0f3d 0D       		.byte	0xd
 7696 0f3e 62       		.byte	0x62
 7697 0f3f FF0E0000 		.4byte	0xeff
 7698 0f43 1C       		.uleb128 0x1c
 7699 0f44 0804     		.2byte	0x408
 7700 0f46 0D       		.byte	0xd
 7701 0f47 67       		.byte	0x67
 7702 0f48 710F0000 		.4byte	0xf71
 7703 0f4c 08       		.uleb128 0x8
 7704 0f4d 6C0F0000 		.4byte	.LASF201
 7705 0f51 0D       		.byte	0xd
 7706 0f52 6B       		.byte	0x6b
 7707 0f53 B1000000 		.4byte	0xb1
 7708 0f57 00       		.byte	0
 7709 0f58 08       		.uleb128 0x8
 7710 0f59 97170000 		.4byte	.LASF202
 7711 0f5d 0D       		.byte	0xd
 7712 0f5e 6F       		.byte	0x6f
 7713 0f5f 710F0000 		.4byte	0xf71
 7714 0f63 04       		.byte	0x4
ARM GAS  C:\Users\osour\AppData\Local\Temp\ccsBkKuy.s 			page 142


 7715 0f64 08       		.uleb128 0x8
 7716 0f65 9E0A0000 		.4byte	.LASF203
 7717 0f69 0D       		.byte	0xd
 7718 0f6a 73       		.byte	0x73
 7719 0f6b 770F0000 		.4byte	0xf77
 7720 0f6f 08       		.byte	0x8
 7721 0f70 00       		.byte	0
 7722 0f71 0B       		.uleb128 0xb
 7723 0f72 04       		.byte	0x4
 7724 0f73 380F0000 		.4byte	0xf38
 7725 0f77 13       		.uleb128 0x13
 7726 0f78 380F0000 		.4byte	0xf38
 7727 0f7c 870F0000 		.4byte	0xf87
 7728 0f80 14       		.uleb128 0x14
 7729 0f81 B1000000 		.4byte	0xb1
 7730 0f85 3F       		.byte	0x3f
 7731 0f86 00       		.byte	0
 7732 0f87 02       		.uleb128 0x2
 7733 0f88 15000000 		.4byte	.LASF204
 7734 0f8c 0D       		.byte	0xd
 7735 0f8d 74       		.byte	0x74
 7736 0f8e 430F0000 		.4byte	0xf43
 7737 0f92 17       		.uleb128 0x17
 7738 0f93 04       		.byte	0x4
 7739 0f94 0E       		.byte	0xe
 7740 0f95 38       		.byte	0x38
 7741 0f96 A70F0000 		.4byte	0xfa7
 7742 0f9a 08       		.uleb128 0x8
 7743 0f9b 51240000 		.4byte	.LASF205
 7744 0f9f 0E       		.byte	0xe
 7745 0fa0 3C       		.byte	0x3c
 7746 0fa1 2B010000 		.4byte	0x12b
 7747 0fa5 00       		.byte	0
 7748 0fa6 00       		.byte	0
 7749 0fa7 02       		.uleb128 0x2
 7750 0fa8 7C280000 		.4byte	.LASF206
 7751 0fac 0E       		.byte	0xe
 7752 0fad 3D       		.byte	0x3d
 7753 0fae 920F0000 		.4byte	0xf92
 7754 0fb2 17       		.uleb128 0x17
 7755 0fb3 18       		.byte	0x18
 7756 0fb4 0E       		.byte	0xe
 7757 0fb5 48       		.byte	0x48
 7758 0fb6 F50F0000 		.4byte	0xff5
 7759 0fba 08       		.uleb128 0x8
 7760 0fbb 64080000 		.4byte	.LASF207
 7761 0fbf 0E       		.byte	0xe
 7762 0fc0 49       		.byte	0x49
 7763 0fc1 2B010000 		.4byte	0x12b
 7764 0fc5 00       		.byte	0
 7765 0fc6 08       		.uleb128 0x8
 7766 0fc7 10020000 		.4byte	.LASF208
 7767 0fcb 0E       		.byte	0xe
 7768 0fcc 4A       		.byte	0x4a
 7769 0fcd 2B010000 		.4byte	0x12b
 7770 0fd1 04       		.byte	0x4
 7771 0fd2 08       		.uleb128 0x8
ARM GAS  C:\Users\osour\AppData\Local\Temp\ccsBkKuy.s 			page 143


 7772 0fd3 B01B0000 		.4byte	.LASF209
 7773 0fd7 0E       		.byte	0xe
 7774 0fd8 4B       		.byte	0x4b
 7775 0fd9 2B010000 		.4byte	0x12b
 7776 0fdd 08       		.byte	0x8
 7777 0fde 18       		.uleb128 0x18
 7778 0fdf 6E00     		.ascii	"n\000"
 7779 0fe1 0E       		.byte	0xe
 7780 0fe2 4C       		.byte	0x4c
 7781 0fe3 A4010000 		.4byte	0x1a4
 7782 0fe7 0C       		.byte	0xc
 7783 0fe8 08       		.uleb128 0x8
 7784 0fe9 4F1B0000 		.4byte	.LASF210
 7785 0fed 0E       		.byte	0xe
 7786 0fee 4D       		.byte	0x4d
 7787 0fef 36010000 		.4byte	0x136
 7788 0ff3 10       		.byte	0x10
 7789 0ff4 00       		.byte	0
 7790 0ff5 02       		.uleb128 0x2
 7791 0ff6 FA260000 		.4byte	.LASF211
 7792 0ffa 0E       		.byte	0xe
 7793 0ffb 4E       		.byte	0x4e
 7794 0ffc B20F0000 		.4byte	0xfb2
 7795 1000 17       		.uleb128 0x17
 7796 1001 38       		.byte	0x38
 7797 1002 0F       		.byte	0xf
 7798 1003 38       		.byte	0x38
 7799 1004 39100000 		.4byte	0x1039
 7800 1008 08       		.uleb128 0x8
 7801 1009 95070000 		.4byte	.LASF212
 7802 100d 0F       		.byte	0xf
 7803 100e 39       		.byte	0x39
 7804 100f A4010000 		.4byte	0x1a4
 7805 1013 00       		.byte	0
 7806 1014 08       		.uleb128 0x8
 7807 1015 070C0000 		.4byte	.LASF213
 7808 1019 0F       		.byte	0xf
 7809 101a 3A       		.byte	0x3a
 7810 101b A4010000 		.4byte	0x1a4
 7811 101f 04       		.byte	0x4
 7812 1020 08       		.uleb128 0x8
 7813 1021 47260000 		.4byte	.LASF214
 7814 1025 0F       		.byte	0xf
 7815 1026 3B       		.byte	0x3b
 7816 1027 F50F0000 		.4byte	0xff5
 7817 102b 08       		.byte	0x8
 7818 102c 08       		.uleb128 0x8
 7819 102d D0000000 		.4byte	.LASF215
 7820 1031 0F       		.byte	0xf
 7821 1032 3D       		.byte	0x3d
 7822 1033 F50F0000 		.4byte	0xff5
 7823 1037 20       		.byte	0x20
 7824 1038 00       		.byte	0
 7825 1039 02       		.uleb128 0x2
 7826 103a 20060000 		.4byte	.LASF216
 7827 103e 0F       		.byte	0xf
 7828 103f 3F       		.byte	0x3f
ARM GAS  C:\Users\osour\AppData\Local\Temp\ccsBkKuy.s 			page 144


 7829 1040 00100000 		.4byte	0x1000
 7830 1044 1D       		.uleb128 0x1d
 7831 1045 04       		.byte	0x4
 7832 1046 07       		.byte	0x7
 7833 1047 FA       		.byte	0xfa
 7834 1048 A1100000 		.4byte	0x10a1
 7835 104c 1E       		.uleb128 0x1e
 7836 104d 12130000 		.4byte	.LASF217
 7837 1051 07       		.byte	0x7
 7838 1052 0101     		.2byte	0x101
 7839 1054 78010000 		.4byte	0x178
 7840 1058 1E       		.uleb128 0x1e
 7841 1059 2B090000 		.4byte	.LASF218
 7842 105d 07       		.byte	0x7
 7843 105e 0801     		.2byte	0x108
 7844 1060 78010000 		.4byte	0x178
 7845 1064 1E       		.uleb128 0x1e
 7846 1065 A6200000 		.4byte	.LASF219
 7847 1069 07       		.byte	0x7
 7848 106a 0F01     		.2byte	0x10f
 7849 106c D0030000 		.4byte	0x3d0
 7850 1070 1E       		.uleb128 0x1e
 7851 1071 741B0000 		.4byte	.LASF220
 7852 1075 07       		.byte	0x7
 7853 1076 1601     		.2byte	0x116
 7854 1078 A1100000 		.4byte	0x10a1
 7855 107c 1E       		.uleb128 0x1e
 7856 107d 49010000 		.4byte	.LASF221
 7857 1081 07       		.byte	0x7
 7858 1082 1E01     		.2byte	0x11e
 7859 1084 CC100000 		.4byte	0x10cc
 7860 1088 1E       		.uleb128 0x1e
 7861 1089 25210000 		.4byte	.LASF222
 7862 108d 07       		.byte	0x7
 7863 108e 2701     		.2byte	0x127
 7864 1090 0F110000 		.4byte	0x110f
 7865 1094 1E       		.uleb128 0x1e
 7866 1095 EE240000 		.4byte	.LASF223
 7867 1099 07       		.byte	0x7
 7868 109a 2F01     		.2byte	0x12f
 7869 109c 83010000 		.4byte	0x183
 7870 10a0 00       		.byte	0
 7871 10a1 0B       		.uleb128 0xb
 7872 10a2 04       		.byte	0x4
 7873 10a3 E8020000 		.4byte	0x2e8
 7874 10a7 07       		.uleb128 0x7
 7875 10a8 1F1A0000 		.4byte	.LASF224
 7876 10ac 0C       		.byte	0xc
 7877 10ad 10       		.byte	0x10
 7878 10ae 34       		.byte	0x34
 7879 10af CC100000 		.4byte	0x10cc
 7880 10b3 08       		.uleb128 0x8
 7881 10b4 3F260000 		.4byte	.LASF225
 7882 10b8 10       		.byte	0x10
 7883 10b9 35       		.byte	0x35
 7884 10ba 1D030000 		.4byte	0x31d
 7885 10be 00       		.byte	0
ARM GAS  C:\Users\osour\AppData\Local\Temp\ccsBkKuy.s 			page 145


 7886 10bf 08       		.uleb128 0x8
 7887 10c0 B50A0000 		.4byte	.LASF226
 7888 10c4 10       		.byte	0x10
 7889 10c5 37       		.byte	0x37
 7890 10c6 99010000 		.4byte	0x199
 7891 10ca 08       		.byte	0x8
 7892 10cb 00       		.byte	0
 7893 10cc 0B       		.uleb128 0xb
 7894 10cd 04       		.byte	0x4
 7895 10ce A7100000 		.4byte	0x10a7
 7896 10d2 07       		.uleb128 0x7
 7897 10d3 0B0D0000 		.4byte	.LASF227
 7898 10d7 14       		.byte	0x14
 7899 10d8 11       		.byte	0x11
 7900 10d9 39       		.byte	0x39
 7901 10da 0F110000 		.4byte	0x110f
 7902 10de 08       		.uleb128 0x8
 7903 10df E31A0000 		.4byte	.LASF228
 7904 10e3 11       		.byte	0x11
 7905 10e4 3A       		.byte	0x3a
 7906 10e5 1D030000 		.4byte	0x31d
 7907 10e9 00       		.byte	0
 7908 10ea 08       		.uleb128 0x8
 7909 10eb D8180000 		.4byte	.LASF229
 7910 10ef 11       		.byte	0x11
 7911 10f0 3C       		.byte	0x3c
 7912 10f1 F3020000 		.4byte	0x2f3
 7913 10f5 08       		.byte	0x8
 7914 10f6 08       		.uleb128 0x8
 7915 10f7 47020000 		.4byte	.LASF230
 7916 10fb 11       		.byte	0x11
 7917 10fc 3E       		.byte	0x3e
 7918 10fd 6A120000 		.4byte	0x126a
 7919 1101 0C       		.byte	0xc
 7920 1102 08       		.uleb128 0x8
 7921 1103 B1090000 		.4byte	.LASF231
 7922 1107 11       		.byte	0x11
 7923 1108 41       		.byte	0x41
 7924 1109 99010000 		.4byte	0x199
 7925 110d 10       		.byte	0x10
 7926 110e 00       		.byte	0
 7927 110f 0B       		.uleb128 0xb
 7928 1110 04       		.byte	0x4
 7929 1111 D2100000 		.4byte	0x10d2
 7930 1115 0B       		.uleb128 0xb
 7931 1116 04       		.byte	0x4
 7932 1117 27110000 		.4byte	0x1127
 7933 111b 06       		.uleb128 0x6
 7934 111c 15110000 		.4byte	0x1115
 7935 1120 03       		.uleb128 0x3
 7936 1121 01       		.byte	0x1
 7937 1122 08       		.byte	0x8
 7938 1123 0C1D0000 		.4byte	.LASF232
 7939 1127 05       		.uleb128 0x5
 7940 1128 20110000 		.4byte	0x1120
 7941 112c 0B       		.uleb128 0xb
 7942 112d 04       		.byte	0x4
ARM GAS  C:\Users\osour\AppData\Local\Temp\ccsBkKuy.s 			page 146


 7943 112e 940D0000 		.4byte	0xd94
 7944 1132 0B       		.uleb128 0xb
 7945 1133 04       		.byte	0x4
 7946 1134 D2030000 		.4byte	0x3d2
 7947 1138 13       		.uleb128 0x13
 7948 1139 940D0000 		.4byte	0xd94
 7949 113d 48110000 		.4byte	0x1148
 7950 1141 14       		.uleb128 0x14
 7951 1142 B1000000 		.4byte	0xb1
 7952 1146 30       		.byte	0x30
 7953 1147 00       		.byte	0
 7954 1148 1F       		.uleb128 0x1f
 7955 1149 636800   		.ascii	"ch\000"
 7956 114c 07       		.byte	0x7
 7957 114d 0902     		.2byte	0x209
 7958 114f C7040000 		.4byte	0x4c7
 7959 1153 17       		.uleb128 0x17
 7960 1154 16       		.byte	0x16
 7961 1155 12       		.byte	0x12
 7962 1156 34       		.byte	0x34
 7963 1157 34120000 		.4byte	0x1234
 7964 115b 08       		.uleb128 0x8
 7965 115c 73260000 		.4byte	.LASF233
 7966 1160 12       		.byte	0x12
 7967 1161 35       		.byte	0x35
 7968 1162 34120000 		.4byte	0x1234
 7969 1166 00       		.byte	0
 7970 1167 08       		.uleb128 0x8
 7971 1168 AE280000 		.4byte	.LASF234
 7972 116c 12       		.byte	0x12
 7973 116d 36       		.byte	0x36
 7974 116e C3000000 		.4byte	0xc3
 7975 1172 04       		.byte	0x4
 7976 1173 08       		.uleb128 0x8
 7977 1174 CC030000 		.4byte	.LASF235
 7978 1178 12       		.byte	0x12
 7979 1179 37       		.byte	0x37
 7980 117a C3000000 		.4byte	0xc3
 7981 117e 05       		.byte	0x5
 7982 117f 08       		.uleb128 0x8
 7983 1180 43190000 		.4byte	.LASF236
 7984 1184 12       		.byte	0x12
 7985 1185 38       		.byte	0x38
 7986 1186 DE000000 		.4byte	0xde
 7987 118a 06       		.byte	0x6
 7988 118b 08       		.uleb128 0x8
 7989 118c 27000000 		.4byte	.LASF237
 7990 1190 12       		.byte	0x12
 7991 1191 39       		.byte	0x39
 7992 1192 C3000000 		.4byte	0xc3
 7993 1196 08       		.byte	0x8
 7994 1197 08       		.uleb128 0x8
 7995 1198 54170000 		.4byte	.LASF238
 7996 119c 12       		.byte	0x12
 7997 119d 3A       		.byte	0x3a
 7998 119e C3000000 		.4byte	0xc3
 7999 11a2 09       		.byte	0x9
ARM GAS  C:\Users\osour\AppData\Local\Temp\ccsBkKuy.s 			page 147


 8000 11a3 08       		.uleb128 0x8
 8001 11a4 CE280000 		.4byte	.LASF239
 8002 11a8 12       		.byte	0x12
 8003 11a9 3B       		.byte	0x3b
 8004 11aa C3000000 		.4byte	0xc3
 8005 11ae 0A       		.byte	0xa
 8006 11af 08       		.uleb128 0x8
 8007 11b0 CC260000 		.4byte	.LASF240
 8008 11b4 12       		.byte	0x12
 8009 11b5 3C       		.byte	0x3c
 8010 11b6 C3000000 		.4byte	0xc3
 8011 11ba 0B       		.byte	0xb
 8012 11bb 08       		.uleb128 0x8
 8013 11bc 6F060000 		.4byte	.LASF241
 8014 11c0 12       		.byte	0x12
 8015 11c1 3D       		.byte	0x3d
 8016 11c2 C3000000 		.4byte	0xc3
 8017 11c6 0C       		.byte	0xc
 8018 11c7 08       		.uleb128 0x8
 8019 11c8 5F0D0000 		.4byte	.LASF242
 8020 11cc 12       		.byte	0x12
 8021 11cd 3E       		.byte	0x3e
 8022 11ce C3000000 		.4byte	0xc3
 8023 11d2 0D       		.byte	0xd
 8024 11d3 08       		.uleb128 0x8
 8025 11d4 C8060000 		.4byte	.LASF243
 8026 11d8 12       		.byte	0x12
 8027 11d9 3F       		.byte	0x3f
 8028 11da C3000000 		.4byte	0xc3
 8029 11de 0E       		.byte	0xe
 8030 11df 08       		.uleb128 0x8
 8031 11e0 100F0000 		.4byte	.LASF244
 8032 11e4 12       		.byte	0x12
 8033 11e5 40       		.byte	0x40
 8034 11e6 C3000000 		.4byte	0xc3
 8035 11ea 0F       		.byte	0xf
 8036 11eb 08       		.uleb128 0x8
 8037 11ec CC040000 		.4byte	.LASF245
 8038 11f0 12       		.byte	0x12
 8039 11f1 41       		.byte	0x41
 8040 11f2 C3000000 		.4byte	0xc3
 8041 11f6 10       		.byte	0x10
 8042 11f7 08       		.uleb128 0x8
 8043 11f8 C1090000 		.4byte	.LASF246
 8044 11fc 12       		.byte	0x12
 8045 11fd 43       		.byte	0x43
 8046 11fe C3000000 		.4byte	0xc3
 8047 1202 11       		.byte	0x11
 8048 1203 08       		.uleb128 0x8
 8049 1204 84030000 		.4byte	.LASF247
 8050 1208 12       		.byte	0x12
 8051 1209 44       		.byte	0x44
 8052 120a C3000000 		.4byte	0xc3
 8053 120e 12       		.byte	0x12
 8054 120f 08       		.uleb128 0x8
 8055 1210 C2180000 		.4byte	.LASF248
 8056 1214 12       		.byte	0x12
ARM GAS  C:\Users\osour\AppData\Local\Temp\ccsBkKuy.s 			page 148


 8057 1215 45       		.byte	0x45
 8058 1216 C3000000 		.4byte	0xc3
 8059 121a 13       		.byte	0x13
 8060 121b 08       		.uleb128 0x8
 8061 121c B31F0000 		.4byte	.LASF249
 8062 1220 12       		.byte	0x12
 8063 1221 46       		.byte	0x46
 8064 1222 C3000000 		.4byte	0xc3
 8065 1226 14       		.byte	0x14
 8066 1227 08       		.uleb128 0x8
 8067 1228 27010000 		.4byte	.LASF250
 8068 122c 12       		.byte	0x12
 8069 122d 48       		.byte	0x48
 8070 122e C3000000 		.4byte	0xc3
 8071 1232 15       		.byte	0x15
 8072 1233 00       		.byte	0
 8073 1234 13       		.uleb128 0x13
 8074 1235 20110000 		.4byte	0x1120
 8075 1239 44120000 		.4byte	0x1244
 8076 123d 14       		.uleb128 0x14
 8077 123e B1000000 		.4byte	0xb1
 8078 1242 03       		.byte	0x3
 8079 1243 00       		.byte	0
 8080 1244 02       		.uleb128 0x2
 8081 1245 E7160000 		.4byte	.LASF251
 8082 1249 12       		.byte	0x12
 8083 124a 49       		.byte	0x49
 8084 124b 53110000 		.4byte	0x1153
 8085 124f 05       		.uleb128 0x5
 8086 1250 44120000 		.4byte	0x1244
 8087 1254 16       		.uleb128 0x16
 8088 1255 190C0000 		.4byte	.LASF252
 8089 1259 12       		.byte	0x12
 8090 125a 6E       		.byte	0x6e
 8091 125b 4F120000 		.4byte	0x124f
 8092 125f 02       		.uleb128 0x2
 8093 1260 B2220000 		.4byte	.LASF253
 8094 1264 11       		.byte	0x11
 8095 1265 34       		.byte	0x34
 8096 1266 D2100000 		.4byte	0x10d2
 8097 126a 0B       		.uleb128 0xb
 8098 126b 04       		.byte	0x4
 8099 126c 5F120000 		.4byte	0x125f
 8100 1270 02       		.uleb128 0x2
 8101 1271 710C0000 		.4byte	.LASF254
 8102 1275 13       		.byte	0x13
 8103 1276 34       		.byte	0x34
 8104 1277 7B120000 		.4byte	0x127b
 8105 127b 07       		.uleb128 0x7
 8106 127c 56290000 		.4byte	.LASF255
 8107 1280 14       		.byte	0x14
 8108 1281 13       		.byte	0x13
 8109 1282 39       		.byte	0x39
 8110 1283 C4120000 		.4byte	0x12c4
 8111 1287 08       		.uleb128 0x8
 8112 1288 F1020000 		.4byte	.LASF256
 8113 128c 13       		.byte	0x13
ARM GAS  C:\Users\osour\AppData\Local\Temp\ccsBkKuy.s 			page 149


 8114 128d 3A       		.byte	0x3a
 8115 128e C4120000 		.4byte	0x12c4
 8116 1292 00       		.byte	0
 8117 1293 08       		.uleb128 0x8
 8118 1294 BF230000 		.4byte	.LASF257
 8119 1298 13       		.byte	0x13
 8120 1299 3D       		.byte	0x3d
 8121 129a F3020000 		.4byte	0x2f3
 8122 129e 04       		.byte	0x4
 8123 129f 08       		.uleb128 0x8
 8124 12a0 47040000 		.4byte	.LASF258
 8125 12a4 13       		.byte	0x13
 8126 12a5 3F       		.byte	0x3f
 8127 12a6 83010000 		.4byte	0x183
 8128 12aa 08       		.byte	0x8
 8129 12ab 08       		.uleb128 0x8
 8130 12ac F5240000 		.4byte	.LASF259
 8131 12b0 13       		.byte	0x13
 8132 12b1 41       		.byte	0x41
 8133 12b2 8E010000 		.4byte	0x18e
 8134 12b6 0C       		.byte	0xc
 8135 12b7 08       		.uleb128 0x8
 8136 12b8 580F0000 		.4byte	.LASF260
 8137 12bc 13       		.byte	0x13
 8138 12bd 43       		.byte	0x43
 8139 12be 8E010000 		.4byte	0x18e
 8140 12c2 10       		.byte	0x10
 8141 12c3 00       		.byte	0
 8142 12c4 0B       		.uleb128 0xb
 8143 12c5 04       		.byte	0x4
 8144 12c6 70120000 		.4byte	0x1270
 8145 12ca 07       		.uleb128 0x7
 8146 12cb 04250000 		.4byte	.LASF261
 8147 12cf 04       		.byte	0x4
 8148 12d0 13       		.byte	0x13
 8149 12d1 4A       		.byte	0x4a
 8150 12d2 E3120000 		.4byte	0x12e3
 8151 12d6 08       		.uleb128 0x8
 8152 12d7 64240000 		.4byte	.LASF262
 8153 12db 13       		.byte	0x13
 8154 12dc 4B       		.byte	0x4b
 8155 12dd C4120000 		.4byte	0x12c4
 8156 12e1 00       		.byte	0
 8157 12e2 00       		.byte	0
 8158 12e3 02       		.uleb128 0x2
 8159 12e4 70170000 		.4byte	.LASF263
 8160 12e8 13       		.byte	0x13
 8161 12e9 4E       		.byte	0x4e
 8162 12ea CA120000 		.4byte	0x12ca
 8163 12ee 02       		.uleb128 0x2
 8164 12ef B00F0000 		.4byte	.LASF264
 8165 12f3 14       		.byte	0x14
 8166 12f4 3F       		.byte	0x3f
 8167 12f5 F9120000 		.4byte	0x12f9
 8168 12f9 07       		.uleb128 0x7
 8169 12fa 8E130000 		.4byte	.LASF265
 8170 12fe 24       		.byte	0x24
ARM GAS  C:\Users\osour\AppData\Local\Temp\ccsBkKuy.s 			page 150


 8171 12ff 14       		.byte	0x14
 8172 1300 4D       		.byte	0x4d
 8173 1301 66130000 		.4byte	0x1366
 8174 1305 08       		.uleb128 0x8
 8175 1306 3A060000 		.4byte	.LASF266
 8176 130a 14       		.byte	0x14
 8177 130b 4E       		.byte	0x4e
 8178 130c 1D030000 		.4byte	0x31d
 8179 1310 00       		.byte	0
 8180 1311 08       		.uleb128 0x8
 8181 1312 60220000 		.4byte	.LASF267
 8182 1316 14       		.byte	0x14
 8183 1317 4F       		.byte	0x4f
 8184 1318 19010000 		.4byte	0x119
 8185 131c 08       		.byte	0x8
 8186 131d 08       		.uleb128 0x8
 8187 131e 85140000 		.4byte	.LASF268
 8188 1322 14       		.byte	0x14
 8189 1323 50       		.byte	0x50
 8190 1324 88130000 		.4byte	0x1388
 8191 1328 0C       		.byte	0xc
 8192 1329 08       		.uleb128 0x8
 8193 132a 86050000 		.4byte	.LASF269
 8194 132e 14       		.byte	0x14
 8195 132f 51       		.byte	0x51
 8196 1330 88130000 		.4byte	0x1388
 8197 1334 10       		.byte	0x10
 8198 1335 08       		.uleb128 0x8
 8199 1336 B71C0000 		.4byte	.LASF270
 8200 133a 14       		.byte	0x14
 8201 133b 53       		.byte	0x53
 8202 133c 88130000 		.4byte	0x1388
 8203 1340 14       		.byte	0x14
 8204 1341 08       		.uleb128 0x8
 8205 1342 7A1B0000 		.4byte	.LASF271
 8206 1346 14       		.byte	0x14
 8207 1347 54       		.byte	0x54
 8208 1348 88130000 		.4byte	0x1388
 8209 134c 18       		.byte	0x18
 8210 134d 08       		.uleb128 0x8
 8211 134e 1C210000 		.4byte	.LASF272
 8212 1352 14       		.byte	0x14
 8213 1353 55       		.byte	0x55
 8214 1354 66130000 		.4byte	0x1366
 8215 1358 1C       		.byte	0x1c
 8216 1359 08       		.uleb128 0x8
 8217 135a FA1D0000 		.4byte	.LASF273
 8218 135e 14       		.byte	0x14
 8219 135f 56       		.byte	0x56
 8220 1360 D0030000 		.4byte	0x3d0
 8221 1364 20       		.byte	0x20
 8222 1365 00       		.byte	0
 8223 1366 02       		.uleb128 0x2
 8224 1367 3B050000 		.4byte	.LASF274
 8225 136b 14       		.byte	0x14
 8226 136c 42       		.byte	0x42
 8227 136d 71130000 		.4byte	0x1371
ARM GAS  C:\Users\osour\AppData\Local\Temp\ccsBkKuy.s 			page 151


 8228 1371 0B       		.uleb128 0xb
 8229 1372 04       		.byte	0x4
 8230 1373 77130000 		.4byte	0x1377
 8231 1377 0D       		.uleb128 0xd
 8232 1378 82130000 		.4byte	0x1382
 8233 137c 0E       		.uleb128 0xe
 8234 137d 82130000 		.4byte	0x1382
 8235 1381 00       		.byte	0
 8236 1382 0B       		.uleb128 0xb
 8237 1383 04       		.byte	0x4
 8238 1384 EE120000 		.4byte	0x12ee
 8239 1388 0B       		.uleb128 0xb
 8240 1389 04       		.byte	0x4
 8241 138a C3000000 		.4byte	0xc3
 8242 138e 02       		.uleb128 0x2
 8243 138f 7A060000 		.4byte	.LASF275
 8244 1393 14       		.byte	0x14
 8245 1394 64       		.byte	0x64
 8246 1395 EE120000 		.4byte	0x12ee
 8247 1399 02       		.uleb128 0x2
 8248 139a 9F290000 		.4byte	.LASF276
 8249 139e 14       		.byte	0x14
 8250 139f 71       		.byte	0x71
 8251 13a0 EE120000 		.4byte	0x12ee
 8252 13a4 20       		.uleb128 0x20
 8253 13a5 19010000 		.4byte	0x119
 8254 13a9 BD130000 		.4byte	0x13bd
 8255 13ad 0E       		.uleb128 0xe
 8256 13ae D0030000 		.4byte	0x3d0
 8257 13b2 0E       		.uleb128 0xe
 8258 13b3 BD130000 		.4byte	0x13bd
 8259 13b7 0E       		.uleb128 0xe
 8260 13b8 19010000 		.4byte	0x119
 8261 13bc 00       		.byte	0
 8262 13bd 0B       		.uleb128 0xb
 8263 13be 04       		.byte	0x4
 8264 13bf CE000000 		.4byte	0xce
 8265 13c3 0B       		.uleb128 0xb
 8266 13c4 04       		.byte	0x4
 8267 13c5 A4130000 		.4byte	0x13a4
 8268 13c9 20       		.uleb128 0x20
 8269 13ca 19010000 		.4byte	0x119
 8270 13ce E2130000 		.4byte	0x13e2
 8271 13d2 0E       		.uleb128 0xe
 8272 13d3 D0030000 		.4byte	0x3d0
 8273 13d7 0E       		.uleb128 0xe
 8274 13d8 88130000 		.4byte	0x1388
 8275 13dc 0E       		.uleb128 0xe
 8276 13dd 19010000 		.4byte	0x119
 8277 13e1 00       		.byte	0
 8278 13e2 0B       		.uleb128 0xb
 8279 13e3 04       		.byte	0x4
 8280 13e4 C9130000 		.4byte	0x13c9
 8281 13e8 20       		.uleb128 0x20
 8282 13e9 78010000 		.4byte	0x178
 8283 13ed FC130000 		.4byte	0x13fc
 8284 13f1 0E       		.uleb128 0xe
ARM GAS  C:\Users\osour\AppData\Local\Temp\ccsBkKuy.s 			page 152


 8285 13f2 D0030000 		.4byte	0x3d0
 8286 13f6 0E       		.uleb128 0xe
 8287 13f7 C3000000 		.4byte	0xc3
 8288 13fb 00       		.byte	0
 8289 13fc 0B       		.uleb128 0xb
 8290 13fd 04       		.byte	0x4
 8291 13fe E8130000 		.4byte	0x13e8
 8292 1402 20       		.uleb128 0x20
 8293 1403 78010000 		.4byte	0x178
 8294 1407 11140000 		.4byte	0x1411
 8295 140b 0E       		.uleb128 0xe
 8296 140c D0030000 		.4byte	0x3d0
 8297 1410 00       		.byte	0
 8298 1411 0B       		.uleb128 0xb
 8299 1412 04       		.byte	0x4
 8300 1413 02140000 		.4byte	0x1402
 8301 1417 17       		.uleb128 0x17
 8302 1418 0C       		.byte	0xc
 8303 1419 15       		.byte	0x15
 8304 141a DA       		.byte	0xda
 8305 141b 5C140000 		.4byte	0x145c
 8306 141f 08       		.uleb128 0x8
 8307 1420 30290000 		.4byte	.LASF277
 8308 1424 15       		.byte	0x15
 8309 1425 DB       		.byte	0xdb
 8310 1426 5C140000 		.4byte	0x145c
 8311 142a 00       		.byte	0
 8312 142b 08       		.uleb128 0x8
 8313 142c D8120000 		.4byte	.LASF278
 8314 1430 15       		.byte	0x15
 8315 1431 DC       		.byte	0xdc
 8316 1432 62140000 		.4byte	0x1462
 8317 1436 04       		.byte	0x4
 8318 1437 08       		.uleb128 0x8
 8319 1438 66050000 		.4byte	.LASF279
 8320 143c 15       		.byte	0x15
 8321 143d DD       		.byte	0xdd
 8322 143e C3000000 		.4byte	0xc3
 8323 1442 08       		.byte	0x8
 8324 1443 08       		.uleb128 0x8
 8325 1444 A8220000 		.4byte	.LASF280
 8326 1448 15       		.byte	0x15
 8327 1449 DF       		.byte	0xdf
 8328 144a C3000000 		.4byte	0xc3
 8329 144e 09       		.byte	0x9
 8330 144f 08       		.uleb128 0x8
 8331 1450 7F040000 		.4byte	.LASF281
 8332 1454 15       		.byte	0x15
 8333 1455 E0       		.byte	0xe0
 8334 1456 C3000000 		.4byte	0xc3
 8335 145a 0A       		.byte	0xa
 8336 145b 00       		.byte	0
 8337 145c 0B       		.uleb128 0xb
 8338 145d 04       		.byte	0x4
 8339 145e 850A0000 		.4byte	0xa85
 8340 1462 0B       		.uleb128 0xb
 8341 1463 04       		.byte	0x4
ARM GAS  C:\Users\osour\AppData\Local\Temp\ccsBkKuy.s 			page 153


 8342 1464 04010000 		.4byte	0x104
 8343 1468 02       		.uleb128 0x2
 8344 1469 B3150000 		.4byte	.LASF282
 8345 146d 15       		.byte	0x15
 8346 146e E1       		.byte	0xe1
 8347 146f 17140000 		.4byte	0x1417
 8348 1473 05       		.uleb128 0x5
 8349 1474 68140000 		.4byte	0x1468
 8350 1478 13       		.uleb128 0x13
 8351 1479 73140000 		.4byte	0x1473
 8352 147d 88140000 		.4byte	0x1488
 8353 1481 14       		.uleb128 0x14
 8354 1482 B1000000 		.4byte	0xb1
 8355 1486 0F       		.byte	0xf
 8356 1487 00       		.byte	0
 8357 1488 05       		.uleb128 0x5
 8358 1489 78140000 		.4byte	0x1478
 8359 148d 15       		.uleb128 0x15
 8360 148e AE1E0000 		.4byte	.LASF283
 8361 1492 15       		.byte	0x15
 8362 1493 BB01     		.2byte	0x1bb
 8363 1495 88140000 		.4byte	0x1488
 8364 1499 20       		.uleb128 0x20
 8365 149a 78010000 		.4byte	0x178
 8366 149e B2140000 		.4byte	0x14b2
 8367 14a2 0E       		.uleb128 0xe
 8368 14a3 D0030000 		.4byte	0x3d0
 8369 14a7 0E       		.uleb128 0xe
 8370 14a8 C3000000 		.4byte	0xc3
 8371 14ac 0E       		.uleb128 0xe
 8372 14ad AF010000 		.4byte	0x1af
 8373 14b1 00       		.byte	0
 8374 14b2 0B       		.uleb128 0xb
 8375 14b3 04       		.byte	0x4
 8376 14b4 99140000 		.4byte	0x1499
 8377 14b8 20       		.uleb128 0x20
 8378 14b9 78010000 		.4byte	0x178
 8379 14bd CC140000 		.4byte	0x14cc
 8380 14c1 0E       		.uleb128 0xe
 8381 14c2 D0030000 		.4byte	0x3d0
 8382 14c6 0E       		.uleb128 0xe
 8383 14c7 AF010000 		.4byte	0x1af
 8384 14cb 00       		.byte	0
 8385 14cc 0B       		.uleb128 0xb
 8386 14cd 04       		.byte	0x4
 8387 14ce B8140000 		.4byte	0x14b8
 8388 14d2 20       		.uleb128 0x20
 8389 14d3 19010000 		.4byte	0x119
 8390 14d7 F0140000 		.4byte	0x14f0
 8391 14db 0E       		.uleb128 0xe
 8392 14dc D0030000 		.4byte	0x3d0
 8393 14e0 0E       		.uleb128 0xe
 8394 14e1 BD130000 		.4byte	0x13bd
 8395 14e5 0E       		.uleb128 0xe
 8396 14e6 19010000 		.4byte	0x119
 8397 14ea 0E       		.uleb128 0xe
 8398 14eb AF010000 		.4byte	0x1af
ARM GAS  C:\Users\osour\AppData\Local\Temp\ccsBkKuy.s 			page 154


 8399 14ef 00       		.byte	0
 8400 14f0 0B       		.uleb128 0xb
 8401 14f1 04       		.byte	0x4
 8402 14f2 D2140000 		.4byte	0x14d2
 8403 14f6 20       		.uleb128 0x20
 8404 14f7 19010000 		.4byte	0x119
 8405 14fb 14150000 		.4byte	0x1514
 8406 14ff 0E       		.uleb128 0xe
 8407 1500 D0030000 		.4byte	0x3d0
 8408 1504 0E       		.uleb128 0xe
 8409 1505 88130000 		.4byte	0x1388
 8410 1509 0E       		.uleb128 0xe
 8411 150a 19010000 		.4byte	0x119
 8412 150e 0E       		.uleb128 0xe
 8413 150f AF010000 		.4byte	0x1af
 8414 1513 00       		.byte	0
 8415 1514 0B       		.uleb128 0xb
 8416 1515 04       		.byte	0x4
 8417 1516 F6140000 		.4byte	0x14f6
 8418 151a 21       		.uleb128 0x21
 8419 151b 07       		.byte	0x7
 8420 151c 01       		.byte	0x1
 8421 151d 42000000 		.4byte	0x42
 8422 1521 16       		.byte	0x16
 8423 1522 28       		.byte	0x28
 8424 1523 5E150000 		.4byte	0x155e
 8425 1527 22       		.uleb128 0x22
 8426 1528 E2010000 		.4byte	.LASF284
 8427 152c 00       		.byte	0
 8428 152d 22       		.uleb128 0x22
 8429 152e B2100000 		.4byte	.LASF285
 8430 1532 01       		.byte	0x1
 8431 1533 22       		.uleb128 0x22
 8432 1534 5C0C0000 		.4byte	.LASF286
 8433 1538 02       		.byte	0x2
 8434 1539 22       		.uleb128 0x22
 8435 153a 30200000 		.4byte	.LASF287
 8436 153e 03       		.byte	0x3
 8437 153f 22       		.uleb128 0x22
 8438 1540 05280000 		.4byte	.LASF288
 8439 1544 04       		.byte	0x4
 8440 1545 22       		.uleb128 0x22
 8441 1546 B6080000 		.4byte	.LASF289
 8442 154a 05       		.byte	0x5
 8443 154b 22       		.uleb128 0x22
 8444 154c 88220000 		.4byte	.LASF290
 8445 1550 06       		.byte	0x6
 8446 1551 22       		.uleb128 0x22
 8447 1552 EC1B0000 		.4byte	.LASF291
 8448 1556 07       		.byte	0x7
 8449 1557 22       		.uleb128 0x22
 8450 1558 C5270000 		.4byte	.LASF292
 8451 155c 08       		.byte	0x8
 8452 155d 00       		.byte	0
 8453 155e 02       		.uleb128 0x2
 8454 155f 871A0000 		.4byte	.LASF293
 8455 1563 16       		.byte	0x16
ARM GAS  C:\Users\osour\AppData\Local\Temp\ccsBkKuy.s 			page 155


 8456 1564 32       		.byte	0x32
 8457 1565 1A150000 		.4byte	0x151a
 8458 1569 17       		.uleb128 0x17
 8459 156a 08       		.byte	0x8
 8460 156b 16       		.byte	0x16
 8461 156c 37       		.byte	0x37
 8462 156d 8A150000 		.4byte	0x158a
 8463 1571 08       		.uleb128 0x8
 8464 1572 2D080000 		.4byte	.LASF294
 8465 1576 16       		.byte	0x16
 8466 1577 38       		.byte	0x38
 8467 1578 F9000000 		.4byte	0xf9
 8468 157c 00       		.byte	0
 8469 157d 08       		.uleb128 0x8
 8470 157e B2210000 		.4byte	.LASF295
 8471 1582 16       		.byte	0x16
 8472 1583 39       		.byte	0x39
 8473 1584 F9000000 		.4byte	0xf9
 8474 1588 04       		.byte	0x4
 8475 1589 00       		.byte	0
 8476 158a 02       		.uleb128 0x2
 8477 158b 1D240000 		.4byte	.LASF296
 8478 158f 16       		.byte	0x16
 8479 1590 3A       		.byte	0x3a
 8480 1591 69150000 		.4byte	0x1569
 8481 1595 20       		.uleb128 0x20
 8482 1596 A4150000 		.4byte	0x15a4
 8483 159a A4150000 		.4byte	0x15a4
 8484 159e 0E       		.uleb128 0xe
 8485 159f D0030000 		.4byte	0x3d0
 8486 15a3 00       		.byte	0
 8487 15a4 03       		.uleb128 0x3
 8488 15a5 01       		.byte	0x1
 8489 15a6 02       		.byte	0x2
 8490 15a7 5F010000 		.4byte	.LASF297
 8491 15ab 0B       		.uleb128 0xb
 8492 15ac 04       		.byte	0x4
 8493 15ad 95150000 		.4byte	0x1595
 8494 15b1 20       		.uleb128 0x20
 8495 15b2 A4150000 		.4byte	0x15a4
 8496 15b6 CF150000 		.4byte	0x15cf
 8497 15ba 0E       		.uleb128 0xe
 8498 15bb D0030000 		.4byte	0x3d0
 8499 15bf 0E       		.uleb128 0xe
 8500 15c0 F9000000 		.4byte	0xf9
 8501 15c4 0E       		.uleb128 0xe
 8502 15c5 88130000 		.4byte	0x1388
 8503 15c9 0E       		.uleb128 0xe
 8504 15ca F9000000 		.4byte	0xf9
 8505 15ce 00       		.byte	0
 8506 15cf 0B       		.uleb128 0xb
 8507 15d0 04       		.byte	0x4
 8508 15d1 B1150000 		.4byte	0x15b1
 8509 15d5 20       		.uleb128 0x20
 8510 15d6 A4150000 		.4byte	0x15a4
 8511 15da F3150000 		.4byte	0x15f3
 8512 15de 0E       		.uleb128 0xe
ARM GAS  C:\Users\osour\AppData\Local\Temp\ccsBkKuy.s 			page 156


 8513 15df D0030000 		.4byte	0x3d0
 8514 15e3 0E       		.uleb128 0xe
 8515 15e4 F9000000 		.4byte	0xf9
 8516 15e8 0E       		.uleb128 0xe
 8517 15e9 BD130000 		.4byte	0x13bd
 8518 15ed 0E       		.uleb128 0xe
 8519 15ee F9000000 		.4byte	0xf9
 8520 15f2 00       		.byte	0
 8521 15f3 0B       		.uleb128 0xb
 8522 15f4 04       		.byte	0x4
 8523 15f5 D5150000 		.4byte	0x15d5
 8524 15f9 20       		.uleb128 0x20
 8525 15fa A4150000 		.4byte	0x15a4
 8526 15fe 0D160000 		.4byte	0x160d
 8527 1602 0E       		.uleb128 0xe
 8528 1603 D0030000 		.4byte	0x3d0
 8529 1607 0E       		.uleb128 0xe
 8530 1608 0D160000 		.4byte	0x160d
 8531 160c 00       		.byte	0
 8532 160d 0B       		.uleb128 0xb
 8533 160e 04       		.byte	0x4
 8534 160f 8A150000 		.4byte	0x158a
 8535 1613 0B       		.uleb128 0xb
 8536 1614 04       		.byte	0x4
 8537 1615 F9150000 		.4byte	0x15f9
 8538 1619 13       		.uleb128 0x13
 8539 161a F9000000 		.4byte	0xf9
 8540 161e 29160000 		.4byte	0x1629
 8541 1622 14       		.uleb128 0x14
 8542 1623 B1000000 		.4byte	0xb1
 8543 1627 03       		.byte	0x3
 8544 1628 00       		.byte	0
 8545 1629 17       		.uleb128 0x17
 8546 162a 04       		.byte	0x4
 8547 162b 17       		.byte	0x17
 8548 162c B3       		.byte	0xb3
 8549 162d 4A160000 		.4byte	0x164a
 8550 1631 18       		.uleb128 0x18
 8551 1632 73657400 		.ascii	"set\000"
 8552 1636 17       		.byte	0x17
 8553 1637 B4       		.byte	0xb4
 8554 1638 DE000000 		.4byte	0xde
 8555 163c 00       		.byte	0
 8556 163d 08       		.uleb128 0x8
 8557 163e 6B0E0000 		.4byte	.LASF298
 8558 1642 17       		.byte	0x17
 8559 1643 B5       		.byte	0xb5
 8560 1644 DE000000 		.4byte	0xde
 8561 1648 02       		.byte	0x2
 8562 1649 00       		.byte	0
 8563 164a 1D       		.uleb128 0x1d
 8564 164b 04       		.byte	0x4
 8565 164c 17       		.byte	0x17
 8566 164d B1       		.byte	0xb1
 8567 164e 65160000 		.4byte	0x1665
 8568 1652 23       		.uleb128 0x23
 8569 1653 5700     		.ascii	"W\000"
ARM GAS  C:\Users\osour\AppData\Local\Temp\ccsBkKuy.s 			page 157


 8570 1655 17       		.byte	0x17
 8571 1656 B2       		.byte	0xb2
 8572 1657 F9000000 		.4byte	0xf9
 8573 165b 23       		.uleb128 0x23
 8574 165c 4800     		.ascii	"H\000"
 8575 165e 17       		.byte	0x17
 8576 165f B6       		.byte	0xb6
 8577 1660 29160000 		.4byte	0x1629
 8578 1664 00       		.byte	0
 8579 1665 06       		.uleb128 0x6
 8580 1666 4A160000 		.4byte	0x164a
 8581 166a 17       		.uleb128 0x17
 8582 166b 2C       		.byte	0x2c
 8583 166c 17       		.byte	0x17
 8584 166d A9       		.byte	0xa9
 8585 166e F7160000 		.4byte	0x16f7
 8586 1672 08       		.uleb128 0x8
 8587 1673 D9220000 		.4byte	.LASF299
 8588 1677 17       		.byte	0x17
 8589 1678 AB       		.byte	0xab
 8590 1679 04010000 		.4byte	0x104
 8591 167d 00       		.byte	0
 8592 167e 08       		.uleb128 0x8
 8593 167f ED030000 		.4byte	.LASF300
 8594 1683 17       		.byte	0x17
 8595 1684 AC       		.byte	0xac
 8596 1685 04010000 		.4byte	0x104
 8597 1689 04       		.byte	0x4
 8598 168a 08       		.uleb128 0x8
 8599 168b 6E100000 		.4byte	.LASF301
 8600 168f 17       		.byte	0x17
 8601 1690 AD       		.byte	0xad
 8602 1691 04010000 		.4byte	0x104
 8603 1695 08       		.byte	0x8
 8604 1696 08       		.uleb128 0x8
 8605 1697 DE210000 		.4byte	.LASF302
 8606 169b 17       		.byte	0x17
 8607 169c AE       		.byte	0xae
 8608 169d 04010000 		.4byte	0x104
 8609 16a1 0C       		.byte	0xc
 8610 16a2 18       		.uleb128 0x18
 8611 16a3 49445200 		.ascii	"IDR\000"
 8612 16a7 17       		.byte	0x17
 8613 16a8 AF       		.byte	0xaf
 8614 16a9 04010000 		.4byte	0x104
 8615 16ad 10       		.byte	0x10
 8616 16ae 18       		.uleb128 0x18
 8617 16af 4F445200 		.ascii	"ODR\000"
 8618 16b3 17       		.byte	0x17
 8619 16b4 B0       		.byte	0xb0
 8620 16b5 04010000 		.4byte	0x104
 8621 16b9 14       		.byte	0x14
 8622 16ba 08       		.uleb128 0x8
 8623 16bb 9E150000 		.4byte	.LASF303
 8624 16bf 17       		.byte	0x17
 8625 16c0 B7       		.byte	0xb7
 8626 16c1 65160000 		.4byte	0x1665
ARM GAS  C:\Users\osour\AppData\Local\Temp\ccsBkKuy.s 			page 158


 8627 16c5 18       		.byte	0x18
 8628 16c6 08       		.uleb128 0x8
 8629 16c7 C11B0000 		.4byte	.LASF304
 8630 16cb 17       		.byte	0x17
 8631 16cc B8       		.byte	0xb8
 8632 16cd 04010000 		.4byte	0x104
 8633 16d1 1C       		.byte	0x1c
 8634 16d2 08       		.uleb128 0x8
 8635 16d3 A21F0000 		.4byte	.LASF305
 8636 16d7 17       		.byte	0x17
 8637 16d8 B9       		.byte	0xb9
 8638 16d9 04010000 		.4byte	0x104
 8639 16dd 20       		.byte	0x20
 8640 16de 08       		.uleb128 0x8
 8641 16df 961F0000 		.4byte	.LASF306
 8642 16e3 17       		.byte	0x17
 8643 16e4 BA       		.byte	0xba
 8644 16e5 04010000 		.4byte	0x104
 8645 16e9 24       		.byte	0x24
 8646 16ea 18       		.uleb128 0x18
 8647 16eb 42525200 		.ascii	"BRR\000"
 8648 16ef 17       		.byte	0x17
 8649 16f0 BB       		.byte	0xbb
 8650 16f1 04010000 		.4byte	0x104
 8651 16f5 28       		.byte	0x28
 8652 16f6 00       		.byte	0
 8653 16f7 02       		.uleb128 0x2
 8654 16f8 05130000 		.4byte	.LASF307
 8655 16fc 17       		.byte	0x17
 8656 16fd BC       		.byte	0xbc
 8657 16fe 6A160000 		.4byte	0x166a
 8658 1702 17       		.uleb128 0x17
 8659 1703 1C       		.byte	0x1c
 8660 1704 17       		.byte	0x17
 8661 1705 C1       		.byte	0xc1
 8662 1706 5F170000 		.4byte	0x175f
 8663 170a 08       		.uleb128 0x8
 8664 170b 39260000 		.4byte	.LASF308
 8665 170f 17       		.byte	0x17
 8666 1710 C3       		.byte	0xc3
 8667 1711 F9000000 		.4byte	0xf9
 8668 1715 00       		.byte	0
 8669 1716 08       		.uleb128 0x8
 8670 1717 E6030000 		.4byte	.LASF309
 8671 171b 17       		.byte	0x17
 8672 171c C5       		.byte	0xc5
 8673 171d F9000000 		.4byte	0xf9
 8674 1721 04       		.byte	0x4
 8675 1722 08       		.uleb128 0x8
 8676 1723 D4020000 		.4byte	.LASF310
 8677 1727 17       		.byte	0x17
 8678 1728 C7       		.byte	0xc7
 8679 1729 F9000000 		.4byte	0xf9
 8680 172d 08       		.byte	0x8
 8681 172e 08       		.uleb128 0x8
 8682 172f 62250000 		.4byte	.LASF311
 8683 1733 17       		.byte	0x17
ARM GAS  C:\Users\osour\AppData\Local\Temp\ccsBkKuy.s 			page 159


 8684 1734 C9       		.byte	0xc9
 8685 1735 F9000000 		.4byte	0xf9
 8686 1739 0C       		.byte	0xc
 8687 173a 18       		.uleb128 0x18
 8688 173b 6F647200 		.ascii	"odr\000"
 8689 173f 17       		.byte	0x17
 8690 1740 CB       		.byte	0xcb
 8691 1741 F9000000 		.4byte	0xf9
 8692 1745 10       		.byte	0x10
 8693 1746 08       		.uleb128 0x8
 8694 1747 94220000 		.4byte	.LASF312
 8695 174b 17       		.byte	0x17
 8696 174c CD       		.byte	0xcd
 8697 174d F9000000 		.4byte	0xf9
 8698 1751 14       		.byte	0x14
 8699 1752 08       		.uleb128 0x8
 8700 1753 B7000000 		.4byte	.LASF313
 8701 1757 17       		.byte	0x17
 8702 1758 CF       		.byte	0xcf
 8703 1759 F9000000 		.4byte	0xf9
 8704 175d 18       		.byte	0x18
 8705 175e 00       		.byte	0
 8706 175f 02       		.uleb128 0x2
 8707 1760 691E0000 		.4byte	.LASF314
 8708 1764 17       		.byte	0x17
 8709 1765 D0       		.byte	0xd0
 8710 1766 02170000 		.4byte	0x1702
 8711 176a 17       		.uleb128 0x17
 8712 176b FC       		.byte	0xfc
 8713 176c 17       		.byte	0x17
 8714 176d D9       		.byte	0xd9
 8715 176e DF170000 		.4byte	0x17df
 8716 1772 08       		.uleb128 0x8
 8717 1773 97130000 		.4byte	.LASF315
 8718 1777 17       		.byte	0x17
 8719 1778 DC       		.byte	0xdc
 8720 1779 5F170000 		.4byte	0x175f
 8721 177d 00       		.byte	0
 8722 177e 08       		.uleb128 0x8
 8723 177f C5030000 		.4byte	.LASF316
 8724 1783 17       		.byte	0x17
 8725 1784 E0       		.byte	0xe0
 8726 1785 5F170000 		.4byte	0x175f
 8727 1789 1C       		.byte	0x1c
 8728 178a 08       		.uleb128 0x8
 8729 178b 4E020000 		.4byte	.LASF317
 8730 178f 17       		.byte	0x17
 8731 1790 E4       		.byte	0xe4
 8732 1791 5F170000 		.4byte	0x175f
 8733 1795 38       		.byte	0x38
 8734 1796 08       		.uleb128 0x8
 8735 1797 740F0000 		.4byte	.LASF318
 8736 179b 17       		.byte	0x17
 8737 179c E8       		.byte	0xe8
 8738 179d 5F170000 		.4byte	0x175f
 8739 17a1 54       		.byte	0x54
 8740 17a2 08       		.uleb128 0x8
ARM GAS  C:\Users\osour\AppData\Local\Temp\ccsBkKuy.s 			page 160


 8741 17a3 321D0000 		.4byte	.LASF319
 8742 17a7 17       		.byte	0x17
 8743 17a8 EC       		.byte	0xec
 8744 17a9 5F170000 		.4byte	0x175f
 8745 17ad 70       		.byte	0x70
 8746 17ae 08       		.uleb128 0x8
 8747 17af 0E2A0000 		.4byte	.LASF320
 8748 17b3 17       		.byte	0x17
 8749 17b4 F0       		.byte	0xf0
 8750 17b5 5F170000 		.4byte	0x175f
 8751 17b9 8C       		.byte	0x8c
 8752 17ba 08       		.uleb128 0x8
 8753 17bb 2C0D0000 		.4byte	.LASF321
 8754 17bf 17       		.byte	0x17
 8755 17c0 F4       		.byte	0xf4
 8756 17c1 5F170000 		.4byte	0x175f
 8757 17c5 A8       		.byte	0xa8
 8758 17c6 08       		.uleb128 0x8
 8759 17c7 0B1B0000 		.4byte	.LASF322
 8760 17cb 17       		.byte	0x17
 8761 17cc F8       		.byte	0xf8
 8762 17cd 5F170000 		.4byte	0x175f
 8763 17d1 C4       		.byte	0xc4
 8764 17d2 08       		.uleb128 0x8
 8765 17d3 D1270000 		.4byte	.LASF323
 8766 17d7 17       		.byte	0x17
 8767 17d8 FC       		.byte	0xfc
 8768 17d9 5F170000 		.4byte	0x175f
 8769 17dd E0       		.byte	0xe0
 8770 17de 00       		.byte	0
 8771 17df 02       		.uleb128 0x2
 8772 17e0 350C0000 		.4byte	.LASF324
 8773 17e4 17       		.byte	0x17
 8774 17e5 FE       		.byte	0xfe
 8775 17e6 6A170000 		.4byte	0x176a
 8776 17ea 05       		.uleb128 0x5
 8777 17eb DF170000 		.4byte	0x17df
 8778 17ef 1A       		.uleb128 0x1a
 8779 17f0 121B0000 		.4byte	.LASF325
 8780 17f4 17       		.byte	0x17
 8781 17f5 1B01     		.2byte	0x11b
 8782 17f7 FB170000 		.4byte	0x17fb
 8783 17fb 0B       		.uleb128 0xb
 8784 17fc 04       		.byte	0x4
 8785 17fd F7160000 		.4byte	0x16f7
 8786 1801 15       		.uleb128 0x15
 8787 1802 8C230000 		.4byte	.LASF326
 8788 1806 17       		.byte	0x17
 8789 1807 DA01     		.2byte	0x1da
 8790 1809 EA170000 		.4byte	0x17ea
 8791 180d 21       		.uleb128 0x21
 8792 180e 07       		.byte	0x7
 8793 180f 01       		.byte	0x1
 8794 1810 42000000 		.4byte	0x42
 8795 1814 18       		.byte	0x18
 8796 1815 46       		.byte	0x46
 8797 1816 3F180000 		.4byte	0x183f
ARM GAS  C:\Users\osour\AppData\Local\Temp\ccsBkKuy.s 			page 161


 8798 181a 22       		.uleb128 0x22
 8799 181b 7D090000 		.4byte	.LASF327
 8800 181f 00       		.byte	0
 8801 1820 22       		.uleb128 0x22
 8802 1821 2D180000 		.4byte	.LASF328
 8803 1825 01       		.byte	0x1
 8804 1826 22       		.uleb128 0x22
 8805 1827 EE250000 		.4byte	.LASF329
 8806 182b 02       		.byte	0x2
 8807 182c 22       		.uleb128 0x22
 8808 182d 7E150000 		.4byte	.LASF330
 8809 1831 03       		.byte	0x3
 8810 1832 22       		.uleb128 0x22
 8811 1833 60070000 		.4byte	.LASF331
 8812 1837 04       		.byte	0x4
 8813 1838 22       		.uleb128 0x22
 8814 1839 44150000 		.4byte	.LASF332
 8815 183d 05       		.byte	0x5
 8816 183e 00       		.byte	0
 8817 183f 02       		.uleb128 0x2
 8818 1840 45050000 		.4byte	.LASF333
 8819 1844 18       		.byte	0x18
 8820 1845 4D       		.byte	0x4d
 8821 1846 0D180000 		.4byte	0x180d
 8822 184a 1A       		.uleb128 0x1a
 8823 184b 6B140000 		.4byte	.LASF334
 8824 184f 19       		.byte	0x19
 8825 1850 2701     		.2byte	0x127
 8826 1852 DE000000 		.4byte	0xde
 8827 1856 1A       		.uleb128 0x1a
 8828 1857 66200000 		.4byte	.LASF335
 8829 185b 19       		.byte	0x19
 8830 185c 2C01     		.2byte	0x12c
 8831 185e DE000000 		.4byte	0xde
 8832 1862 24       		.uleb128 0x24
 8833 1863 07       		.byte	0x7
 8834 1864 01       		.byte	0x1
 8835 1865 42000000 		.4byte	0x42
 8836 1869 19       		.byte	0x19
 8837 186a 3301     		.2byte	0x133
 8838 186c 7D180000 		.4byte	0x187d
 8839 1870 22       		.uleb128 0x22
 8840 1871 FF0F0000 		.4byte	.LASF336
 8841 1875 00       		.byte	0
 8842 1876 22       		.uleb128 0x22
 8843 1877 05030000 		.4byte	.LASF337
 8844 187b 01       		.byte	0x1
 8845 187c 00       		.byte	0
 8846 187d 1A       		.uleb128 0x1a
 8847 187e 16270000 		.4byte	.LASF338
 8848 1882 19       		.byte	0x19
 8849 1883 3601     		.2byte	0x136
 8850 1885 62180000 		.4byte	0x1862
 8851 1889 1A       		.uleb128 0x1a
 8852 188a ED100000 		.4byte	.LASF339
 8853 188e 19       		.byte	0x19
 8854 188f 3B01     		.2byte	0x13b
ARM GAS  C:\Users\osour\AppData\Local\Temp\ccsBkKuy.s 			page 162


 8855 1891 95180000 		.4byte	0x1895
 8856 1895 0C       		.uleb128 0xc
 8857 1896 ED100000 		.4byte	.LASF339
 8858 189a 38       		.byte	0x38
 8859 189b 19       		.byte	0x19
 8860 189c 9F01     		.2byte	0x19f
 8861 189e 25190000 		.4byte	0x1925
 8862 18a2 0A       		.uleb128 0xa
 8863 18a3 31190000 		.4byte	.LASF340
 8864 18a7 19       		.byte	0x19
 8865 18a8 A301     		.2byte	0x1a3
 8866 18aa 3F180000 		.4byte	0x183f
 8867 18ae 00       		.byte	0
 8868 18af 0A       		.uleb128 0xa
 8869 18b0 FB1F0000 		.4byte	.LASF341
 8870 18b4 19       		.byte	0x19
 8871 18b5 A701     		.2byte	0x1a7
 8872 18b7 4C1A0000 		.4byte	0x1a4c
 8873 18bb 04       		.byte	0x4
 8874 18bc 0A       		.uleb128 0xa
 8875 18bd 64020000 		.4byte	.LASF342
 8876 18c1 19       		.byte	0x19
 8877 18c2 AB01     		.2byte	0x1ab
 8878 18c4 52190000 		.4byte	0x1952
 8879 18c8 08       		.byte	0x8
 8880 18c9 0A       		.uleb128 0xa
 8881 18ca 351C0000 		.4byte	.LASF343
 8882 18ce 19       		.byte	0x19
 8883 18cf AF01     		.2byte	0x1af
 8884 18d1 19010000 		.4byte	0x119
 8885 18d5 0C       		.byte	0xc
 8886 18d6 0A       		.uleb128 0xa
 8887 18d7 B2230000 		.4byte	.LASF344
 8888 18db 19       		.byte	0x19
 8889 18dc B301     		.2byte	0x1b3
 8890 18de 521A0000 		.4byte	0x1a52
 8891 18e2 10       		.byte	0x10
 8892 18e3 0A       		.uleb128 0xa
 8893 18e4 F8070000 		.4byte	.LASF345
 8894 18e8 19       		.byte	0x19
 8895 18e9 B801     		.2byte	0x1b8
 8896 18eb E8020000 		.4byte	0x2e8
 8897 18ef 14       		.byte	0x14
 8898 18f0 0A       		.uleb128 0xa
 8899 18f1 3C0E0000 		.4byte	.LASF346
 8900 18f5 19       		.byte	0x19
 8901 18f6 BE01     		.2byte	0x1be
 8902 18f8 5F120000 		.4byte	0x125f
 8903 18fc 18       		.byte	0x18
 8904 18fd 09       		.uleb128 0x9
 8905 18fe 61646300 		.ascii	"adc\000"
 8906 1902 19       		.byte	0x19
 8907 1903 C701     		.2byte	0x1c7
 8908 1905 581A0000 		.4byte	0x1a58
 8909 1909 2C       		.byte	0x2c
 8910 190a 0A       		.uleb128 0xa
 8911 190b DD0B0000 		.4byte	.LASF347
ARM GAS  C:\Users\osour\AppData\Local\Temp\ccsBkKuy.s 			page 163


 8912 190f 19       		.byte	0x19
 8913 1910 CB01     		.2byte	0x1cb
 8914 1912 5E1A0000 		.4byte	0x1a5e
 8915 1916 30       		.byte	0x30
 8916 1917 0A       		.uleb128 0xa
 8917 1918 471B0000 		.4byte	.LASF348
 8918 191c 19       		.byte	0x19
 8919 191d CF01     		.2byte	0x1cf
 8920 191f F9000000 		.4byte	0xf9
 8921 1923 34       		.byte	0x34
 8922 1924 00       		.byte	0
 8923 1925 1A       		.uleb128 0x1a
 8924 1926 231F0000 		.4byte	.LASF349
 8925 192a 19       		.byte	0x19
 8926 192b 4501     		.2byte	0x145
 8927 192d 31190000 		.4byte	0x1931
 8928 1931 0B       		.uleb128 0xb
 8929 1932 04       		.byte	0x4
 8930 1933 37190000 		.4byte	0x1937
 8931 1937 0D       		.uleb128 0xd
 8932 1938 4C190000 		.4byte	0x194c
 8933 193c 0E       		.uleb128 0xe
 8934 193d 4C190000 		.4byte	0x194c
 8935 1941 0E       		.uleb128 0xe
 8936 1942 52190000 		.4byte	0x1952
 8937 1946 0E       		.uleb128 0xe
 8938 1947 19010000 		.4byte	0x119
 8939 194b 00       		.byte	0
 8940 194c 0B       		.uleb128 0xb
 8941 194d 04       		.byte	0x4
 8942 194e 89180000 		.4byte	0x1889
 8943 1952 0B       		.uleb128 0xb
 8944 1953 04       		.byte	0x4
 8945 1954 4A180000 		.4byte	0x184a
 8946 1958 1A       		.uleb128 0x1a
 8947 1959 0C190000 		.4byte	.LASF350
 8948 195d 19       		.byte	0x19
 8949 195e 4E01     		.2byte	0x14e
 8950 1960 64190000 		.4byte	0x1964
 8951 1964 0B       		.uleb128 0xb
 8952 1965 04       		.byte	0x4
 8953 1966 6A190000 		.4byte	0x196a
 8954 196a 0D       		.uleb128 0xd
 8955 196b 7A190000 		.4byte	0x197a
 8956 196f 0E       		.uleb128 0xe
 8957 1970 4C190000 		.4byte	0x194c
 8958 1974 0E       		.uleb128 0xe
 8959 1975 7D180000 		.4byte	0x187d
 8960 1979 00       		.byte	0
 8961 197a 19       		.uleb128 0x19
 8962 197b 28       		.byte	0x28
 8963 197c 19       		.byte	0x19
 8964 197d 5801     		.2byte	0x158
 8965 197f 131A0000 		.4byte	0x1a13
 8966 1983 0A       		.uleb128 0xa
 8967 1984 25260000 		.4byte	.LASF351
 8968 1988 19       		.byte	0x19
ARM GAS  C:\Users\osour\AppData\Local\Temp\ccsBkKuy.s 			page 164


 8969 1989 5C01     		.2byte	0x15c
 8970 198b A4150000 		.4byte	0x15a4
 8971 198f 00       		.byte	0
 8972 1990 0A       		.uleb128 0xa
 8973 1991 57130000 		.4byte	.LASF352
 8974 1995 19       		.byte	0x19
 8975 1996 6001     		.2byte	0x160
 8976 1998 56180000 		.4byte	0x1856
 8977 199c 02       		.byte	0x2
 8978 199d 0A       		.uleb128 0xa
 8979 199e 730A0000 		.4byte	.LASF353
 8980 19a2 19       		.byte	0x19
 8981 19a3 6401     		.2byte	0x164
 8982 19a5 25190000 		.4byte	0x1925
 8983 19a9 04       		.byte	0x4
 8984 19aa 0A       		.uleb128 0xa
 8985 19ab FC270000 		.4byte	.LASF354
 8986 19af 19       		.byte	0x19
 8987 19b0 6801     		.2byte	0x168
 8988 19b2 58190000 		.4byte	0x1958
 8989 19b6 08       		.byte	0x8
 8990 19b7 09       		.uleb128 0x9
 8991 19b8 63723100 		.ascii	"cr1\000"
 8992 19bc 19       		.byte	0x19
 8993 19bd 6F01     		.2byte	0x16f
 8994 19bf F9000000 		.4byte	0xf9
 8995 19c3 0C       		.byte	0xc
 8996 19c4 09       		.uleb128 0x9
 8997 19c5 63723200 		.ascii	"cr2\000"
 8998 19c9 19       		.byte	0x19
 8999 19ca 7601     		.2byte	0x176
 9000 19cc F9000000 		.4byte	0xf9
 9001 19d0 10       		.byte	0x10
 9002 19d1 0A       		.uleb128 0xa
 9003 19d2 6B1A0000 		.4byte	.LASF355
 9004 19d6 19       		.byte	0x19
 9005 19d7 7C01     		.2byte	0x17c
 9006 19d9 F9000000 		.4byte	0xf9
 9007 19dd 14       		.byte	0x14
 9008 19de 0A       		.uleb128 0xa
 9009 19df 711A0000 		.4byte	.LASF356
 9010 19e3 19       		.byte	0x19
 9011 19e4 8201     		.2byte	0x182
 9012 19e6 F9000000 		.4byte	0xf9
 9013 19ea 18       		.byte	0x18
 9014 19eb 0A       		.uleb128 0xa
 9015 19ec D3010000 		.4byte	.LASF357
 9016 19f0 19       		.byte	0x19
 9017 19f1 8701     		.2byte	0x187
 9018 19f3 F9000000 		.4byte	0xf9
 9019 19f7 1C       		.byte	0x1c
 9020 19f8 0A       		.uleb128 0xa
 9021 19f9 00290000 		.4byte	.LASF358
 9022 19fd 19       		.byte	0x19
 9023 19fe 8C01     		.2byte	0x18c
 9024 1a00 F9000000 		.4byte	0xf9
 9025 1a04 20       		.byte	0x20
ARM GAS  C:\Users\osour\AppData\Local\Temp\ccsBkKuy.s 			page 165


 9026 1a05 0A       		.uleb128 0xa
 9027 1a06 05290000 		.4byte	.LASF359
 9028 1a0a 19       		.byte	0x19
 9029 1a0b 9101     		.2byte	0x191
 9030 1a0d F9000000 		.4byte	0xf9
 9031 1a11 24       		.byte	0x24
 9032 1a12 00       		.byte	0
 9033 1a13 1A       		.uleb128 0x1a
 9034 1a14 88060000 		.4byte	.LASF360
 9035 1a18 19       		.byte	0x19
 9036 1a19 9201     		.2byte	0x192
 9037 1a1b 7A190000 		.4byte	0x197a
 9038 1a1f 05       		.uleb128 0x5
 9039 1a20 131A0000 		.4byte	0x1a13
 9040 1a24 19       		.uleb128 0x19
 9041 1a25 04       		.byte	0x4
 9042 1a26 19       		.byte	0x19
 9043 1a27 9801     		.2byte	0x198
 9044 1a29 3B1A0000 		.4byte	0x1a3b
 9045 1a2d 0A       		.uleb128 0xa
 9046 1a2e 37290000 		.4byte	.LASF361
 9047 1a32 19       		.byte	0x19
 9048 1a33 9901     		.2byte	0x199
 9049 1a35 F9000000 		.4byte	0xf9
 9050 1a39 00       		.byte	0
 9051 1a3a 00       		.byte	0
 9052 1a3b 1A       		.uleb128 0x1a
 9053 1a3c 05110000 		.4byte	.LASF362
 9054 1a40 19       		.byte	0x19
 9055 1a41 9A01     		.2byte	0x19a
 9056 1a43 241A0000 		.4byte	0x1a24
 9057 1a47 05       		.uleb128 0x5
 9058 1a48 3B1A0000 		.4byte	0x1a3b
 9059 1a4c 0B       		.uleb128 0xb
 9060 1a4d 04       		.byte	0x4
 9061 1a4e 471A0000 		.4byte	0x1a47
 9062 1a52 0B       		.uleb128 0xb
 9063 1a53 04       		.byte	0x4
 9064 1a54 1F1A0000 		.4byte	0x1a1f
 9065 1a58 0B       		.uleb128 0xb
 9066 1a59 04       		.byte	0x4
 9067 1a5a 6D060000 		.4byte	0x66d
 9068 1a5e 0B       		.uleb128 0xb
 9069 1a5f 04       		.byte	0x4
 9070 1a60 73140000 		.4byte	0x1473
 9071 1a64 15       		.uleb128 0x15
 9072 1a65 301B0000 		.4byte	.LASF363
 9073 1a69 19       		.byte	0x19
 9074 1a6a 1402     		.2byte	0x214
 9075 1a6c 89180000 		.4byte	0x1889
 9076 1a70 15       		.uleb128 0x15
 9077 1a71 361B0000 		.4byte	.LASF364
 9078 1a75 19       		.byte	0x19
 9079 1a76 1802     		.2byte	0x218
 9080 1a78 89180000 		.4byte	0x1889
 9081 1a7c 15       		.uleb128 0x15
 9082 1a7d 3C1B0000 		.4byte	.LASF365
ARM GAS  C:\Users\osour\AppData\Local\Temp\ccsBkKuy.s 			page 166


 9083 1a81 19       		.byte	0x19
 9084 1a82 1C02     		.2byte	0x21c
 9085 1a84 89180000 		.4byte	0x1889
 9086 1a88 21       		.uleb128 0x21
 9087 1a89 07       		.byte	0x7
 9088 1a8a 01       		.byte	0x1
 9089 1a8b 42000000 		.4byte	0x42
 9090 1a8f 1A       		.byte	0x1a
 9091 1a90 5F       		.byte	0x5f
 9092 1a91 B41A0000 		.4byte	0x1ab4
 9093 1a95 22       		.uleb128 0x22
 9094 1a96 440B0000 		.4byte	.LASF366
 9095 1a9a 00       		.byte	0
 9096 1a9b 22       		.uleb128 0x22
 9097 1a9c 1E010000 		.4byte	.LASF367
 9098 1aa0 01       		.byte	0x1
 9099 1aa1 22       		.uleb128 0x22
 9100 1aa2 67000000 		.4byte	.LASF368
 9101 1aa6 02       		.byte	0x2
 9102 1aa7 22       		.uleb128 0x22
 9103 1aa8 BE060000 		.4byte	.LASF369
 9104 1aac 03       		.byte	0x3
 9105 1aad 22       		.uleb128 0x22
 9106 1aae 310B0000 		.4byte	.LASF370
 9107 1ab2 04       		.byte	0x4
 9108 1ab3 00       		.byte	0
 9109 1ab4 02       		.uleb128 0x2
 9110 1ab5 ED060000 		.4byte	.LASF371
 9111 1ab9 1A       		.byte	0x1a
 9112 1aba 65       		.byte	0x65
 9113 1abb 881A0000 		.4byte	0x1a88
 9114 1abf 13       		.uleb128 0x13
 9115 1ac0 C3000000 		.4byte	0xc3
 9116 1ac4 CF1A0000 		.4byte	0x1acf
 9117 1ac8 14       		.uleb128 0x14
 9118 1ac9 B1000000 		.4byte	0xb1
 9119 1acd 07       		.byte	0x7
 9120 1ace 00       		.byte	0
 9121 1acf 17       		.uleb128 0x17
 9122 1ad0 08       		.byte	0x8
 9123 1ad1 1B       		.byte	0x1b
 9124 1ad2 F4       		.byte	0xf4
 9125 1ad3 F11A0000 		.4byte	0x1af1
 9126 1ad7 18       		.uleb128 0x18
 9127 1ad8 6D637200 		.ascii	"mcr\000"
 9128 1adc 1B       		.byte	0x1b
 9129 1add FA       		.byte	0xfa
 9130 1ade F9000000 		.4byte	0xf9
 9131 1ae2 00       		.byte	0
 9132 1ae3 09       		.uleb128 0x9
 9133 1ae4 62747200 		.ascii	"btr\000"
 9134 1ae8 1B       		.byte	0x1b
 9135 1ae9 0001     		.2byte	0x100
 9136 1aeb F9000000 		.4byte	0xf9
 9137 1aef 04       		.byte	0x4
 9138 1af0 00       		.byte	0
 9139 1af1 1A       		.uleb128 0x1a
ARM GAS  C:\Users\osour\AppData\Local\Temp\ccsBkKuy.s 			page 167


 9140 1af2 281D0000 		.4byte	.LASF372
 9141 1af6 1B       		.byte	0x1b
 9142 1af7 0101     		.2byte	0x101
 9143 1af9 CF1A0000 		.4byte	0x1acf
 9144 1afd 05       		.uleb128 0x5
 9145 1afe F11A0000 		.4byte	0x1af1
 9146 1b02 19       		.uleb128 0x19
 9147 1b03 30       		.byte	0x30
 9148 1b04 1B       		.byte	0x1b
 9149 1b05 0601     		.2byte	0x106
 9150 1b07 8E1B0000 		.4byte	0x1b8e
 9151 1b0b 0A       		.uleb128 0xa
 9152 1b0c 31190000 		.4byte	.LASF340
 9153 1b10 1B       		.byte	0x1b
 9154 1b11 0A01     		.2byte	0x10a
 9155 1b13 B41A0000 		.4byte	0x1ab4
 9156 1b17 00       		.byte	0
 9157 1b18 0A       		.uleb128 0xa
 9158 1b19 FB1F0000 		.4byte	.LASF341
 9159 1b1d 1B       		.byte	0x1b
 9160 1b1e 0E01     		.2byte	0x10e
 9161 1b20 8E1B0000 		.4byte	0x1b8e
 9162 1b24 04       		.byte	0x4
 9163 1b25 0A       		.uleb128 0xa
 9164 1b26 A80A0000 		.4byte	.LASF373
 9165 1b2a 1B       		.byte	0x1b
 9166 1b2b 1201     		.2byte	0x112
 9167 1b2d 1D030000 		.4byte	0x31d
 9168 1b31 08       		.byte	0x8
 9169 1b32 0A       		.uleb128 0xa
 9170 1b33 73230000 		.4byte	.LASF374
 9171 1b37 1B       		.byte	0x1b
 9172 1b38 1601     		.2byte	0x116
 9173 1b3a 1D030000 		.4byte	0x31d
 9174 1b3e 10       		.byte	0x10
 9175 1b3f 0A       		.uleb128 0xa
 9176 1b40 ED1C0000 		.4byte	.LASF375
 9177 1b44 1B       		.byte	0x1b
 9178 1b45 2301     		.2byte	0x123
 9179 1b47 E3120000 		.4byte	0x12e3
 9180 1b4b 18       		.byte	0x18
 9181 1b4c 0A       		.uleb128 0xa
 9182 1b4d 140D0000 		.4byte	.LASF376
 9183 1b51 1B       		.byte	0x1b
 9184 1b52 2A01     		.2byte	0x12a
 9185 1b54 E3120000 		.4byte	0x12e3
 9186 1b58 1C       		.byte	0x1c
 9187 1b59 0A       		.uleb128 0xa
 9188 1b5a 4B130000 		.4byte	.LASF377
 9189 1b5e 1B       		.byte	0x1b
 9190 1b5f 3001     		.2byte	0x130
 9191 1b61 E3120000 		.4byte	0x12e3
 9192 1b65 20       		.byte	0x20
 9193 1b66 0A       		.uleb128 0xa
 9194 1b67 5C040000 		.4byte	.LASF378
 9195 1b6b 1B       		.byte	0x1b
 9196 1b6c 3501     		.2byte	0x135
ARM GAS  C:\Users\osour\AppData\Local\Temp\ccsBkKuy.s 			page 168


 9197 1b6e E3120000 		.4byte	0x12e3
 9198 1b72 24       		.byte	0x24
 9199 1b73 0A       		.uleb128 0xa
 9200 1b74 540A0000 		.4byte	.LASF379
 9201 1b78 1B       		.byte	0x1b
 9202 1b79 3901     		.2byte	0x139
 9203 1b7b E3120000 		.4byte	0x12e3
 9204 1b7f 28       		.byte	0x28
 9205 1b80 09       		.uleb128 0x9
 9206 1b81 63616E00 		.ascii	"can\000"
 9207 1b85 1B       		.byte	0x1b
 9208 1b86 3F01     		.2byte	0x13f
 9209 1b88 941B0000 		.4byte	0x1b94
 9210 1b8c 2C       		.byte	0x2c
 9211 1b8d 00       		.byte	0
 9212 1b8e 0B       		.uleb128 0xb
 9213 1b8f 04       		.byte	0x4
 9214 1b90 FD1A0000 		.4byte	0x1afd
 9215 1b94 0B       		.uleb128 0xb
 9216 1b95 04       		.byte	0x4
 9217 1b96 B6080000 		.4byte	0x8b6
 9218 1b9a 1A       		.uleb128 0x1a
 9219 1b9b C2040000 		.4byte	.LASF380
 9220 1b9f 1B       		.byte	0x1b
 9221 1ba0 4001     		.2byte	0x140
 9222 1ba2 021B0000 		.4byte	0x1b02
 9223 1ba6 15       		.uleb128 0x15
 9224 1ba7 1B250000 		.4byte	.LASF381
 9225 1bab 1B       		.byte	0x1b
 9226 1bac 4B01     		.2byte	0x14b
 9227 1bae 9A1B0000 		.4byte	0x1b9a
 9228 1bb2 21       		.uleb128 0x21
 9229 1bb3 07       		.byte	0x7
 9230 1bb4 01       		.byte	0x1
 9231 1bb5 42000000 		.4byte	0x42
 9232 1bb9 1C       		.byte	0x1c
 9233 1bba 46       		.byte	0x46
 9234 1bbb E41B0000 		.4byte	0x1be4
 9235 1bbf 22       		.uleb128 0x22
 9236 1bc0 5B200000 		.4byte	.LASF382
 9237 1bc4 00       		.byte	0
 9238 1bc5 22       		.uleb128 0x22
 9239 1bc6 52260000 		.4byte	.LASF383
 9240 1bca 01       		.byte	0x1
 9241 1bcb 22       		.uleb128 0x22
 9242 1bcc 76100000 		.4byte	.LASF384
 9243 1bd0 02       		.byte	0x2
 9244 1bd1 22       		.uleb128 0x22
 9245 1bd2 1F190000 		.4byte	.LASF385
 9246 1bd6 03       		.byte	0x3
 9247 1bd7 22       		.uleb128 0x22
 9248 1bd8 CA1F0000 		.4byte	.LASF386
 9249 1bdc 04       		.byte	0x4
 9250 1bdd 22       		.uleb128 0x22
 9251 1bde 92120000 		.4byte	.LASF387
 9252 1be2 05       		.byte	0x5
 9253 1be3 00       		.byte	0
ARM GAS  C:\Users\osour\AppData\Local\Temp\ccsBkKuy.s 			page 169


 9254 1be4 02       		.uleb128 0x2
 9255 1be5 991C0000 		.4byte	.LASF388
 9256 1be9 1C       		.byte	0x1c
 9257 1bea 4D       		.byte	0x4d
 9258 1beb B21B0000 		.4byte	0x1bb2
 9259 1bef 17       		.uleb128 0x17
 9260 1bf0 1C       		.byte	0x1c
 9261 1bf1 1D       		.byte	0x1d
 9262 1bf2 F9       		.byte	0xf9
 9263 1bf3 521C0000 		.4byte	0x1c52
 9264 1bf7 18       		.uleb128 0x18
 9265 1bf8 64616300 		.ascii	"dac\000"
 9266 1bfc 1D       		.byte	0x1d
 9267 1bfd FD       		.byte	0xfd
 9268 1bfe 521C0000 		.4byte	0x1c52
 9269 1c02 00       		.byte	0
 9270 1c03 0A       		.uleb128 0xa
 9271 1c04 D91B0000 		.4byte	.LASF389
 9272 1c08 1D       		.byte	0x1d
 9273 1c09 0101     		.2byte	0x101
 9274 1c0b F9000000 		.4byte	0xf9
 9275 1c0f 04       		.byte	0x4
 9276 1c10 0A       		.uleb128 0xa
 9277 1c11 FF070000 		.4byte	.LASF390
 9278 1c15 1D       		.byte	0x1d
 9279 1c16 0501     		.2byte	0x105
 9280 1c18 F9000000 		.4byte	0xf9
 9281 1c1c 08       		.byte	0x8
 9282 1c1d 0A       		.uleb128 0xa
 9283 1c1e 8C020000 		.4byte	.LASF391
 9284 1c22 1D       		.byte	0x1d
 9285 1c23 0901     		.2byte	0x109
 9286 1c25 F9000000 		.4byte	0xf9
 9287 1c29 0C       		.byte	0xc
 9288 1c2a 09       		.uleb128 0x9
 9289 1c2b 646D6100 		.ascii	"dma\000"
 9290 1c2f 1D       		.byte	0x1d
 9291 1c30 0D01     		.2byte	0x10d
 9292 1c32 5E1A0000 		.4byte	0x1a5e
 9293 1c36 10       		.byte	0x10
 9294 1c37 0A       		.uleb128 0xa
 9295 1c38 471B0000 		.4byte	.LASF348
 9296 1c3c 1D       		.byte	0x1d
 9297 1c3d 1101     		.2byte	0x111
 9298 1c3f F9000000 		.4byte	0xf9
 9299 1c43 14       		.byte	0x14
 9300 1c44 0A       		.uleb128 0xa
 9301 1c45 EB1A0000 		.4byte	.LASF392
 9302 1c49 1D       		.byte	0x1d
 9303 1c4a 1501     		.2byte	0x115
 9304 1c4c F9000000 		.4byte	0xf9
 9305 1c50 18       		.byte	0x18
 9306 1c51 00       		.byte	0
 9307 1c52 0B       		.uleb128 0xb
 9308 1c53 04       		.byte	0x4
 9309 1c54 80090000 		.4byte	0x980
 9310 1c58 1A       		.uleb128 0x1a
ARM GAS  C:\Users\osour\AppData\Local\Temp\ccsBkKuy.s 			page 170


 9311 1c59 F4030000 		.4byte	.LASF393
 9312 1c5d 1D       		.byte	0x1d
 9313 1c5e 1601     		.2byte	0x116
 9314 1c60 EF1B0000 		.4byte	0x1bef
 9315 1c64 05       		.uleb128 0x5
 9316 1c65 581C0000 		.4byte	0x1c58
 9317 1c69 1A       		.uleb128 0x1a
 9318 1c6a 470E0000 		.4byte	.LASF394
 9319 1c6e 1D       		.byte	0x1d
 9320 1c6f 1B01     		.2byte	0x11b
 9321 1c71 751C0000 		.4byte	0x1c75
 9322 1c75 0C       		.uleb128 0xc
 9323 1c76 470E0000 		.4byte	.LASF394
 9324 1c7a 30       		.byte	0x30
 9325 1c7b 1D       		.byte	0x1d
 9326 1c7c 7B01     		.2byte	0x17b
 9327 1c7e EB1C0000 		.4byte	0x1ceb
 9328 1c82 0A       		.uleb128 0xa
 9329 1c83 31190000 		.4byte	.LASF340
 9330 1c87 1D       		.byte	0x1d
 9331 1c88 7F01     		.2byte	0x17f
 9332 1c8a E41B0000 		.4byte	0x1be4
 9333 1c8e 00       		.byte	0
 9334 1c8f 0A       		.uleb128 0xa
 9335 1c90 B2230000 		.4byte	.LASF344
 9336 1c94 1D       		.byte	0x1d
 9337 1c95 8301     		.2byte	0x183
 9338 1c97 291E0000 		.4byte	0x1e29
 9339 1c9b 04       		.byte	0x4
 9340 1c9c 0A       		.uleb128 0xa
 9341 1c9d 64020000 		.4byte	.LASF342
 9342 1ca1 1D       		.byte	0x1d
 9343 1ca2 8701     		.2byte	0x187
 9344 1ca4 501D0000 		.4byte	0x1d50
 9345 1ca8 08       		.byte	0x8
 9346 1ca9 0A       		.uleb128 0xa
 9347 1caa 351C0000 		.4byte	.LASF343
 9348 1cae 1D       		.byte	0x1d
 9349 1caf 8B01     		.2byte	0x18b
 9350 1cb1 DE000000 		.4byte	0xde
 9351 1cb5 0C       		.byte	0xc
 9352 1cb6 0A       		.uleb128 0xa
 9353 1cb7 FB1F0000 		.4byte	.LASF341
 9354 1cbb 1D       		.byte	0x1d
 9355 1cbc 8F01     		.2byte	0x18f
 9356 1cbe 2F1E0000 		.4byte	0x1e2f
 9357 1cc2 10       		.byte	0x10
 9358 1cc3 0A       		.uleb128 0xa
 9359 1cc4 F8070000 		.4byte	.LASF345
 9360 1cc8 1D       		.byte	0x1d
 9361 1cc9 9401     		.2byte	0x194
 9362 1ccb E8020000 		.4byte	0x2e8
 9363 1ccf 14       		.byte	0x14
 9364 1cd0 0A       		.uleb128 0xa
 9365 1cd1 3C0E0000 		.4byte	.LASF346
 9366 1cd5 1D       		.byte	0x1d
 9367 1cd6 9A01     		.2byte	0x19a
ARM GAS  C:\Users\osour\AppData\Local\Temp\ccsBkKuy.s 			page 171


 9368 1cd8 5F120000 		.4byte	0x125f
 9369 1cdc 18       		.byte	0x18
 9370 1cdd 0A       		.uleb128 0xa
 9371 1cde D6130000 		.4byte	.LASF395
 9372 1ce2 1D       		.byte	0x1d
 9373 1ce3 A301     		.2byte	0x1a3
 9374 1ce5 351E0000 		.4byte	0x1e35
 9375 1ce9 2C       		.byte	0x2c
 9376 1cea 00       		.byte	0
 9377 1ceb 1A       		.uleb128 0x1a
 9378 1cec BF1C0000 		.4byte	.LASF396
 9379 1cf0 1D       		.byte	0x1d
 9380 1cf1 2001     		.2byte	0x120
 9381 1cf3 DE000000 		.4byte	0xde
 9382 1cf7 05       		.uleb128 0x5
 9383 1cf8 EB1C0000 		.4byte	0x1ceb
 9384 1cfc 24       		.uleb128 0x24
 9385 1cfd 07       		.byte	0x7
 9386 1cfe 01       		.byte	0x1
 9387 1cff 42000000 		.4byte	0x42
 9388 1d03 1D       		.byte	0x1d
 9389 1d04 2701     		.2byte	0x127
 9390 1d06 171D0000 		.4byte	0x1d17
 9391 1d0a 22       		.uleb128 0x22
 9392 1d0b A91D0000 		.4byte	.LASF397
 9393 1d0f 00       		.byte	0
 9394 1d10 22       		.uleb128 0x22
 9395 1d11 420A0000 		.4byte	.LASF398
 9396 1d15 01       		.byte	0x1
 9397 1d16 00       		.byte	0
 9398 1d17 1A       		.uleb128 0x1a
 9399 1d18 55140000 		.4byte	.LASF399
 9400 1d1c 1D       		.byte	0x1d
 9401 1d1d 2A01     		.2byte	0x12a
 9402 1d1f FC1C0000 		.4byte	0x1cfc
 9403 1d23 1A       		.uleb128 0x1a
 9404 1d24 85080000 		.4byte	.LASF400
 9405 1d28 1D       		.byte	0x1d
 9406 1d29 3401     		.2byte	0x134
 9407 1d2b 2F1D0000 		.4byte	0x1d2f
 9408 1d2f 0B       		.uleb128 0xb
 9409 1d30 04       		.byte	0x4
 9410 1d31 351D0000 		.4byte	0x1d35
 9411 1d35 0D       		.uleb128 0xd
 9412 1d36 4A1D0000 		.4byte	0x1d4a
 9413 1d3a 0E       		.uleb128 0xe
 9414 1d3b 4A1D0000 		.4byte	0x1d4a
 9415 1d3f 0E       		.uleb128 0xe
 9416 1d40 501D0000 		.4byte	0x1d50
 9417 1d44 0E       		.uleb128 0xe
 9418 1d45 19010000 		.4byte	0x119
 9419 1d49 00       		.byte	0
 9420 1d4a 0B       		.uleb128 0xb
 9421 1d4b 04       		.byte	0x4
 9422 1d4c 691C0000 		.4byte	0x1c69
 9423 1d50 0B       		.uleb128 0xb
 9424 1d51 04       		.byte	0x4
ARM GAS  C:\Users\osour\AppData\Local\Temp\ccsBkKuy.s 			page 172


 9425 1d52 F71C0000 		.4byte	0x1cf7
 9426 1d56 1A       		.uleb128 0x1a
 9427 1d57 68250000 		.4byte	.LASF401
 9428 1d5b 1D       		.byte	0x1d
 9429 1d5c 3F01     		.2byte	0x13f
 9430 1d5e 621D0000 		.4byte	0x1d62
 9431 1d62 0B       		.uleb128 0xb
 9432 1d63 04       		.byte	0x4
 9433 1d64 681D0000 		.4byte	0x1d68
 9434 1d68 0D       		.uleb128 0xd
 9435 1d69 781D0000 		.4byte	0x1d78
 9436 1d6d 0E       		.uleb128 0xe
 9437 1d6e 4A1D0000 		.4byte	0x1d4a
 9438 1d72 0E       		.uleb128 0xe
 9439 1d73 171D0000 		.4byte	0x1d17
 9440 1d77 00       		.byte	0
 9441 1d78 24       		.uleb128 0x24
 9442 1d79 07       		.byte	0x7
 9443 1d7a 01       		.byte	0x1
 9444 1d7b 42000000 		.4byte	0x42
 9445 1d7f 1D       		.byte	0x1d
 9446 1d80 4401     		.2byte	0x144
 9447 1d82 991D0000 		.4byte	0x1d99
 9448 1d86 22       		.uleb128 0x22
 9449 1d87 D70D0000 		.4byte	.LASF402
 9450 1d8b 00       		.byte	0
 9451 1d8c 22       		.uleb128 0x22
 9452 1d8d FB150000 		.4byte	.LASF403
 9453 1d91 01       		.byte	0x1
 9454 1d92 22       		.uleb128 0x22
 9455 1d93 F2190000 		.4byte	.LASF404
 9456 1d97 02       		.byte	0x2
 9457 1d98 00       		.byte	0
 9458 1d99 1A       		.uleb128 0x1a
 9459 1d9a D00B0000 		.4byte	.LASF405
 9460 1d9e 1D       		.byte	0x1d
 9461 1d9f 4D01     		.2byte	0x14d
 9462 1da1 781D0000 		.4byte	0x1d78
 9463 1da5 19       		.uleb128 0x19
 9464 1da6 10       		.byte	0x10
 9465 1da7 1D       		.byte	0x1d
 9466 1da8 5201     		.2byte	0x152
 9467 1daa E31D0000 		.4byte	0x1de3
 9468 1dae 0A       		.uleb128 0xa
 9469 1daf 57130000 		.4byte	.LASF352
 9470 1db3 1D       		.byte	0x1d
 9471 1db4 5601     		.2byte	0x156
 9472 1db6 F9000000 		.4byte	0xf9
 9473 1dba 00       		.byte	0
 9474 1dbb 0A       		.uleb128 0xa
 9475 1dbc 730A0000 		.4byte	.LASF353
 9476 1dc0 1D       		.byte	0x1d
 9477 1dc1 5A01     		.2byte	0x15a
 9478 1dc3 231D0000 		.4byte	0x1d23
 9479 1dc7 04       		.byte	0x4
 9480 1dc8 0A       		.uleb128 0xa
 9481 1dc9 FC270000 		.4byte	.LASF354
ARM GAS  C:\Users\osour\AppData\Local\Temp\ccsBkKuy.s 			page 173


 9482 1dcd 1D       		.byte	0x1d
 9483 1dce 5E01     		.2byte	0x15e
 9484 1dd0 561D0000 		.4byte	0x1d56
 9485 1dd4 08       		.byte	0x8
 9486 1dd5 0A       		.uleb128 0xa
 9487 1dd6 9E170000 		.4byte	.LASF406
 9488 1dda 1D       		.byte	0x1d
 9489 1ddb 6601     		.2byte	0x166
 9490 1ddd F9000000 		.4byte	0xf9
 9491 1de1 0C       		.byte	0xc
 9492 1de2 00       		.byte	0
 9493 1de3 1A       		.uleb128 0x1a
 9494 1de4 12150000 		.4byte	.LASF407
 9495 1de8 1D       		.byte	0x1d
 9496 1de9 6701     		.2byte	0x167
 9497 1deb A51D0000 		.4byte	0x1da5
 9498 1def 05       		.uleb128 0x5
 9499 1df0 E31D0000 		.4byte	0x1de3
 9500 1df4 19       		.uleb128 0x19
 9501 1df5 04       		.byte	0x4
 9502 1df6 1D       		.byte	0x1d
 9503 1df7 6C01     		.2byte	0x16c
 9504 1df9 181E0000 		.4byte	0x1e18
 9505 1dfd 0A       		.uleb128 0xa
 9506 1dfe 220C0000 		.4byte	.LASF408
 9507 1e02 1D       		.byte	0x1d
 9508 1e03 7101     		.2byte	0x171
 9509 1e05 EB1C0000 		.4byte	0x1ceb
 9510 1e09 00       		.byte	0
 9511 1e0a 0A       		.uleb128 0xa
 9512 1e0b 65010000 		.4byte	.LASF409
 9513 1e0f 1D       		.byte	0x1d
 9514 1e10 7501     		.2byte	0x175
 9515 1e12 991D0000 		.4byte	0x1d99
 9516 1e16 02       		.byte	0x2
 9517 1e17 00       		.byte	0
 9518 1e18 1A       		.uleb128 0x1a
 9519 1e19 510E0000 		.4byte	.LASF410
 9520 1e1d 1D       		.byte	0x1d
 9521 1e1e 7601     		.2byte	0x176
 9522 1e20 F41D0000 		.4byte	0x1df4
 9523 1e24 05       		.uleb128 0x5
 9524 1e25 181E0000 		.4byte	0x1e18
 9525 1e29 0B       		.uleb128 0xb
 9526 1e2a 04       		.byte	0x4
 9527 1e2b EF1D0000 		.4byte	0x1def
 9528 1e2f 0B       		.uleb128 0xb
 9529 1e30 04       		.byte	0x4
 9530 1e31 241E0000 		.4byte	0x1e24
 9531 1e35 0B       		.uleb128 0xb
 9532 1e36 04       		.byte	0x4
 9533 1e37 641C0000 		.4byte	0x1c64
 9534 1e3b 15       		.uleb128 0x15
 9535 1e3c BC040000 		.4byte	.LASF411
 9536 1e40 1D       		.byte	0x1d
 9537 1e41 B301     		.2byte	0x1b3
 9538 1e43 691C0000 		.4byte	0x1c69
ARM GAS  C:\Users\osour\AppData\Local\Temp\ccsBkKuy.s 			page 174


 9539 1e47 21       		.uleb128 0x21
 9540 1e48 07       		.byte	0x7
 9541 1e49 01       		.byte	0x1
 9542 1e4a 42000000 		.4byte	0x42
 9543 1e4e 1E       		.byte	0x1e
 9544 1e4f 3F       		.byte	0x3f
 9545 1e50 671E0000 		.4byte	0x1e67
 9546 1e54 22       		.uleb128 0x22
 9547 1e55 260B0000 		.4byte	.LASF412
 9548 1e59 00       		.byte	0
 9549 1e5a 22       		.uleb128 0x22
 9550 1e5b 152A0000 		.4byte	.LASF413
 9551 1e5f 01       		.byte	0x1
 9552 1e60 22       		.uleb128 0x22
 9553 1e61 BD020000 		.4byte	.LASF414
 9554 1e65 02       		.byte	0x2
 9555 1e66 00       		.byte	0
 9556 1e67 02       		.uleb128 0x2
 9557 1e68 5A1F0000 		.4byte	.LASF415
 9558 1e6c 1E       		.byte	0x1e
 9559 1e6d 43       		.byte	0x43
 9560 1e6e 471E0000 		.4byte	0x1e47
 9561 1e72 02       		.uleb128 0x2
 9562 1e73 B7090000 		.4byte	.LASF416
 9563 1e77 1E       		.byte	0x1e
 9564 1e78 48       		.byte	0x48
 9565 1e79 7D1E0000 		.4byte	0x1e7d
 9566 1e7d 07       		.uleb128 0x7
 9567 1e7e B7090000 		.4byte	.LASF416
 9568 1e82 08       		.byte	0x8
 9569 1e83 1F       		.byte	0x1f
 9570 1e84 71       		.byte	0x71
 9571 1e85 A21E0000 		.4byte	0x1ea2
 9572 1e89 08       		.uleb128 0x8
 9573 1e8a 31190000 		.4byte	.LASF340
 9574 1e8e 1F       		.byte	0x1f
 9575 1e8f 75       		.byte	0x75
 9576 1e90 671E0000 		.4byte	0x1e67
 9577 1e94 00       		.byte	0
 9578 1e95 08       		.uleb128 0x8
 9579 1e96 FB1F0000 		.4byte	.LASF341
 9580 1e9a 1F       		.byte	0x1f
 9581 1e9b 79       		.byte	0x79
 9582 1e9c 341F0000 		.4byte	0x1f34
 9583 1ea0 04       		.byte	0x4
 9584 1ea1 00       		.byte	0
 9585 1ea2 02       		.uleb128 0x2
 9586 1ea3 45280000 		.4byte	.LASF417
 9587 1ea7 1F       		.byte	0x1f
 9588 1ea8 47       		.byte	0x47
 9589 1ea9 F9000000 		.4byte	0xf9
 9590 1ead 02       		.uleb128 0x2
 9591 1eae 65230000 		.4byte	.LASF418
 9592 1eb2 1F       		.byte	0x1f
 9593 1eb3 4F       		.byte	0x4f
 9594 1eb4 B81E0000 		.4byte	0x1eb8
 9595 1eb8 0B       		.uleb128 0xb
ARM GAS  C:\Users\osour\AppData\Local\Temp\ccsBkKuy.s 			page 175


 9596 1eb9 04       		.byte	0x4
 9597 1eba BE1E0000 		.4byte	0x1ebe
 9598 1ebe 0D       		.uleb128 0xd
 9599 1ebf CE1E0000 		.4byte	0x1ece
 9600 1ec3 0E       		.uleb128 0xe
 9601 1ec4 CE1E0000 		.4byte	0x1ece
 9602 1ec8 0E       		.uleb128 0xe
 9603 1ec9 A21E0000 		.4byte	0x1ea2
 9604 1ecd 00       		.byte	0
 9605 1ece 0B       		.uleb128 0xb
 9606 1ecf 04       		.byte	0x4
 9607 1ed0 721E0000 		.4byte	0x1e72
 9608 1ed4 17       		.uleb128 0x17
 9609 1ed5 08       		.byte	0x8
 9610 1ed6 1F       		.byte	0x1f
 9611 1ed7 54       		.byte	0x54
 9612 1ed8 F41E0000 		.4byte	0x1ef4
 9613 1edc 08       		.uleb128 0x8
 9614 1edd 9C090000 		.4byte	.LASF419
 9615 1ee1 1F       		.byte	0x1f
 9616 1ee2 58       		.byte	0x58
 9617 1ee3 F9000000 		.4byte	0xf9
 9618 1ee7 00       		.byte	0
 9619 1ee8 18       		.uleb128 0x18
 9620 1ee9 636200   		.ascii	"cb\000"
 9621 1eec 1F       		.byte	0x1f
 9622 1eed 5F       		.byte	0x5f
 9623 1eee AD1E0000 		.4byte	0x1ead
 9624 1ef2 04       		.byte	0x4
 9625 1ef3 00       		.byte	0
 9626 1ef4 02       		.uleb128 0x2
 9627 1ef5 5D100000 		.4byte	.LASF420
 9628 1ef9 1F       		.byte	0x1f
 9629 1efa 60       		.byte	0x60
 9630 1efb D41E0000 		.4byte	0x1ed4
 9631 1eff 17       		.uleb128 0x17
 9632 1f00 B8       		.byte	0xb8
 9633 1f01 1F       		.byte	0x1f
 9634 1f02 66       		.byte	0x66
 9635 1f03 141F0000 		.4byte	0x1f14
 9636 1f07 08       		.uleb128 0x8
 9637 1f08 99250000 		.4byte	.LASF421
 9638 1f0c 1F       		.byte	0x1f
 9639 1f0d 6A       		.byte	0x6a
 9640 1f0e 141F0000 		.4byte	0x1f14
 9641 1f12 00       		.byte	0
 9642 1f13 00       		.byte	0
 9643 1f14 13       		.uleb128 0x13
 9644 1f15 F41E0000 		.4byte	0x1ef4
 9645 1f19 241F0000 		.4byte	0x1f24
 9646 1f1d 14       		.uleb128 0x14
 9647 1f1e B1000000 		.4byte	0xb1
 9648 1f22 16       		.byte	0x16
 9649 1f23 00       		.byte	0
 9650 1f24 02       		.uleb128 0x2
 9651 1f25 40220000 		.4byte	.LASF422
 9652 1f29 1F       		.byte	0x1f
ARM GAS  C:\Users\osour\AppData\Local\Temp\ccsBkKuy.s 			page 176


 9653 1f2a 6C       		.byte	0x6c
 9654 1f2b FF1E0000 		.4byte	0x1eff
 9655 1f2f 05       		.uleb128 0x5
 9656 1f30 241F0000 		.4byte	0x1f24
 9657 1f34 0B       		.uleb128 0xb
 9658 1f35 04       		.byte	0x4
 9659 1f36 2F1F0000 		.4byte	0x1f2f
 9660 1f3a 16       		.uleb128 0x16
 9661 1f3b DE060000 		.4byte	.LASF423
 9662 1f3f 1F       		.byte	0x1f
 9663 1f40 86       		.byte	0x86
 9664 1f41 721E0000 		.4byte	0x1e72
 9665 1f45 21       		.uleb128 0x21
 9666 1f46 07       		.byte	0x7
 9667 1f47 01       		.byte	0x1
 9668 1f48 42000000 		.4byte	0x42
 9669 1f4c 20       		.byte	0x20
 9670 1f4d 31       		.byte	0x31
 9671 1f4e 711F0000 		.4byte	0x1f71
 9672 1f52 22       		.uleb128 0x22
 9673 1f53 061A0000 		.4byte	.LASF424
 9674 1f57 00       		.byte	0
 9675 1f58 22       		.uleb128 0x22
 9676 1f59 C6170000 		.4byte	.LASF425
 9677 1f5d 01       		.byte	0x1
 9678 1f5e 22       		.uleb128 0x22
 9679 1f5f 8F1C0000 		.4byte	.LASF426
 9680 1f63 02       		.byte	0x2
 9681 1f64 22       		.uleb128 0x22
 9682 1f65 D5080000 		.4byte	.LASF427
 9683 1f69 03       		.byte	0x3
 9684 1f6a 22       		.uleb128 0x22
 9685 1f6b 7A050000 		.4byte	.LASF428
 9686 1f6f 04       		.byte	0x4
 9687 1f70 00       		.byte	0
 9688 1f71 02       		.uleb128 0x2
 9689 1f72 85160000 		.4byte	.LASF429
 9690 1f76 20       		.byte	0x20
 9691 1f77 37       		.byte	0x37
 9692 1f78 451F0000 		.4byte	0x1f45
 9693 1f7c 02       		.uleb128 0x2
 9694 1f7d F61A0000 		.4byte	.LASF430
 9695 1f81 20       		.byte	0x20
 9696 1f82 3C       		.byte	0x3c
 9697 1f83 871F0000 		.4byte	0x1f87
 9698 1f87 0C       		.uleb128 0xc
 9699 1f88 F61A0000 		.4byte	.LASF430
 9700 1f8c 10       		.byte	0x10
 9701 1f8d 21       		.byte	0x21
 9702 1f8e 9701     		.2byte	0x197
 9703 1f90 C91F0000 		.4byte	0x1fc9
 9704 1f94 0A       		.uleb128 0xa
 9705 1f95 31190000 		.4byte	.LASF340
 9706 1f99 21       		.byte	0x21
 9707 1f9a 9B01     		.2byte	0x19b
 9708 1f9c 711F0000 		.4byte	0x1f71
 9709 1fa0 00       		.byte	0
ARM GAS  C:\Users\osour\AppData\Local\Temp\ccsBkKuy.s 			page 177


 9710 1fa1 0A       		.uleb128 0xa
 9711 1fa2 FB1F0000 		.4byte	.LASF341
 9712 1fa6 21       		.byte	0x21
 9713 1fa7 9F01     		.2byte	0x19f
 9714 1fa9 5E210000 		.4byte	0x215e
 9715 1fad 04       		.byte	0x4
 9716 1fae 0A       		.uleb128 0xa
 9717 1faf 650E0000 		.4byte	.LASF431
 9718 1fb3 21       		.byte	0x21
 9719 1fb4 A701     		.2byte	0x1a7
 9720 1fb6 F9000000 		.4byte	0xf9
 9721 1fba 08       		.byte	0x8
 9722 1fbb 09       		.uleb128 0x9
 9723 1fbc 74696D00 		.ascii	"tim\000"
 9724 1fc0 21       		.byte	0x21
 9725 1fc1 AB01     		.2byte	0x1ab
 9726 1fc3 64210000 		.4byte	0x2164
 9727 1fc7 0C       		.byte	0xc
 9728 1fc8 00       		.byte	0
 9729 1fc9 02       		.uleb128 0x2
 9730 1fca 77140000 		.4byte	.LASF432
 9731 1fce 20       		.byte	0x20
 9732 1fcf 43       		.byte	0x43
 9733 1fd0 D41F0000 		.4byte	0x1fd4
 9734 1fd4 0B       		.uleb128 0xb
 9735 1fd5 04       		.byte	0x4
 9736 1fd6 DA1F0000 		.4byte	0x1fda
 9737 1fda 0D       		.uleb128 0xd
 9738 1fdb E51F0000 		.4byte	0x1fe5
 9739 1fdf 0E       		.uleb128 0xe
 9740 1fe0 E51F0000 		.4byte	0x1fe5
 9741 1fe4 00       		.byte	0
 9742 1fe5 0B       		.uleb128 0xb
 9743 1fe6 04       		.byte	0x4
 9744 1fe7 7C1F0000 		.4byte	0x1f7c
 9745 1feb 19       		.uleb128 0x19
 9746 1fec 60       		.byte	0x60
 9747 1fed 22       		.byte	0x22
 9748 1fee 9E01     		.2byte	0x19e
 9749 1ff0 F7200000 		.4byte	0x20f7
 9750 1ff4 09       		.uleb128 0x9
 9751 1ff5 43523100 		.ascii	"CR1\000"
 9752 1ff9 22       		.byte	0x22
 9753 1ffa 9F01     		.2byte	0x19f
 9754 1ffc 04010000 		.4byte	0x104
 9755 2000 00       		.byte	0
 9756 2001 09       		.uleb128 0x9
 9757 2002 43523200 		.ascii	"CR2\000"
 9758 2006 22       		.byte	0x22
 9759 2007 A001     		.2byte	0x1a0
 9760 2009 04010000 		.4byte	0x104
 9761 200d 04       		.byte	0x4
 9762 200e 0A       		.uleb128 0xa
 9763 200f AE240000 		.4byte	.LASF433
 9764 2013 22       		.byte	0x22
 9765 2014 A101     		.2byte	0x1a1
 9766 2016 04010000 		.4byte	0x104
ARM GAS  C:\Users\osour\AppData\Local\Temp\ccsBkKuy.s 			page 178


 9767 201a 08       		.byte	0x8
 9768 201b 0A       		.uleb128 0xa
 9769 201c 720B0000 		.4byte	.LASF434
 9770 2020 22       		.byte	0x22
 9771 2021 A201     		.2byte	0x1a2
 9772 2023 04010000 		.4byte	0x104
 9773 2027 0C       		.byte	0xc
 9774 2028 09       		.uleb128 0x9
 9775 2029 535200   		.ascii	"SR\000"
 9776 202c 22       		.byte	0x22
 9777 202d A301     		.2byte	0x1a3
 9778 202f 04010000 		.4byte	0x104
 9779 2033 10       		.byte	0x10
 9780 2034 09       		.uleb128 0x9
 9781 2035 45475200 		.ascii	"EGR\000"
 9782 2039 22       		.byte	0x22
 9783 203a A401     		.2byte	0x1a4
 9784 203c 04010000 		.4byte	0x104
 9785 2040 14       		.byte	0x14
 9786 2041 0A       		.uleb128 0xa
 9787 2042 E1280000 		.4byte	.LASF435
 9788 2046 22       		.byte	0x22
 9789 2047 A501     		.2byte	0x1a5
 9790 2049 04010000 		.4byte	0x104
 9791 204d 18       		.byte	0x18
 9792 204e 0A       		.uleb128 0xa
 9793 204f E7280000 		.4byte	.LASF436
 9794 2053 22       		.byte	0x22
 9795 2054 A601     		.2byte	0x1a6
 9796 2056 04010000 		.4byte	0x104
 9797 205a 1C       		.byte	0x1c
 9798 205b 0A       		.uleb128 0xa
 9799 205c 4E080000 		.4byte	.LASF437
 9800 2060 22       		.byte	0x22
 9801 2061 A701     		.2byte	0x1a7
 9802 2063 04010000 		.4byte	0x104
 9803 2067 20       		.byte	0x20
 9804 2068 09       		.uleb128 0x9
 9805 2069 434E5400 		.ascii	"CNT\000"
 9806 206d 22       		.byte	0x22
 9807 206e A801     		.2byte	0x1a8
 9808 2070 04010000 		.4byte	0x104
 9809 2074 24       		.byte	0x24
 9810 2075 09       		.uleb128 0x9
 9811 2076 50534300 		.ascii	"PSC\000"
 9812 207a 22       		.byte	0x22
 9813 207b A901     		.2byte	0x1a9
 9814 207d 04010000 		.4byte	0x104
 9815 2081 28       		.byte	0x28
 9816 2082 09       		.uleb128 0x9
 9817 2083 41525200 		.ascii	"ARR\000"
 9818 2087 22       		.byte	0x22
 9819 2088 AA01     		.2byte	0x1aa
 9820 208a 04010000 		.4byte	0x104
 9821 208e 2C       		.byte	0x2c
 9822 208f 09       		.uleb128 0x9
 9823 2090 52435200 		.ascii	"RCR\000"
ARM GAS  C:\Users\osour\AppData\Local\Temp\ccsBkKuy.s 			page 179


 9824 2094 22       		.byte	0x22
 9825 2095 AB01     		.2byte	0x1ab
 9826 2097 04010000 		.4byte	0x104
 9827 209b 30       		.byte	0x30
 9828 209c 09       		.uleb128 0x9
 9829 209d 43435200 		.ascii	"CCR\000"
 9830 20a1 22       		.byte	0x22
 9831 20a2 AC01     		.2byte	0x1ac
 9832 20a4 B60A0000 		.4byte	0xab6
 9833 20a8 34       		.byte	0x34
 9834 20a9 0A       		.uleb128 0xa
 9835 20aa 87020000 		.4byte	.LASF438
 9836 20ae 22       		.byte	0x22
 9837 20af AD01     		.2byte	0x1ad
 9838 20b1 04010000 		.4byte	0x104
 9839 20b5 44       		.byte	0x44
 9840 20b6 09       		.uleb128 0x9
 9841 20b7 44435200 		.ascii	"DCR\000"
 9842 20bb 22       		.byte	0x22
 9843 20bc AE01     		.2byte	0x1ae
 9844 20be 04010000 		.4byte	0x104
 9845 20c2 48       		.byte	0x48
 9846 20c3 0A       		.uleb128 0xa
 9847 20c4 A9190000 		.4byte	.LASF439
 9848 20c8 22       		.byte	0x22
 9849 20c9 AF01     		.2byte	0x1af
 9850 20cb 04010000 		.4byte	0x104
 9851 20cf 4C       		.byte	0x4c
 9852 20d0 09       		.uleb128 0x9
 9853 20d1 4F5200   		.ascii	"OR\000"
 9854 20d4 22       		.byte	0x22
 9855 20d5 B001     		.2byte	0x1b0
 9856 20d7 04010000 		.4byte	0x104
 9857 20db 50       		.byte	0x50
 9858 20dc 0A       		.uleb128 0xa
 9859 20dd ED280000 		.4byte	.LASF440
 9860 20e1 22       		.byte	0x22
 9861 20e2 B101     		.2byte	0x1b1
 9862 20e4 04010000 		.4byte	0x104
 9863 20e8 54       		.byte	0x54
 9864 20e9 0A       		.uleb128 0xa
 9865 20ea 710E0000 		.4byte	.LASF441
 9866 20ee 22       		.byte	0x22
 9867 20ef B201     		.2byte	0x1b2
 9868 20f1 A10A0000 		.4byte	0xaa1
 9869 20f5 58       		.byte	0x58
 9870 20f6 00       		.byte	0
 9871 20f7 1A       		.uleb128 0x1a
 9872 20f8 E8230000 		.4byte	.LASF442
 9873 20fc 22       		.byte	0x22
 9874 20fd B301     		.2byte	0x1b3
 9875 20ff EB1F0000 		.4byte	0x1feb
 9876 2103 1A       		.uleb128 0x1a
 9877 2104 F4090000 		.4byte	.LASF443
 9878 2108 21       		.byte	0x21
 9879 2109 6D01     		.2byte	0x16d
 9880 210b F9000000 		.4byte	0xf9
ARM GAS  C:\Users\osour\AppData\Local\Temp\ccsBkKuy.s 			page 180


 9881 210f 19       		.uleb128 0x19
 9882 2110 10       		.byte	0x10
 9883 2111 21       		.byte	0x21
 9884 2112 7801     		.2byte	0x178
 9885 2114 4D210000 		.4byte	0x214d
 9886 2118 0A       		.uleb128 0xa
 9887 2119 72280000 		.4byte	.LASF444
 9888 211d 21       		.byte	0x21
 9889 211e 7E01     		.2byte	0x17e
 9890 2120 03210000 		.4byte	0x2103
 9891 2124 00       		.byte	0
 9892 2125 0A       		.uleb128 0xa
 9893 2126 AE190000 		.4byte	.LASF445
 9894 212a 21       		.byte	0x21
 9895 212b 8501     		.2byte	0x185
 9896 212d C91F0000 		.4byte	0x1fc9
 9897 2131 04       		.byte	0x4
 9898 2132 09       		.uleb128 0x9
 9899 2133 63723200 		.ascii	"cr2\000"
 9900 2137 21       		.byte	0x21
 9901 2138 8B01     		.2byte	0x18b
 9902 213a F9000000 		.4byte	0xf9
 9903 213e 08       		.byte	0x8
 9904 213f 0A       		.uleb128 0xa
 9905 2140 BB0D0000 		.4byte	.LASF446
 9906 2144 21       		.byte	0x21
 9907 2145 9101     		.2byte	0x191
 9908 2147 F9000000 		.4byte	0xf9
 9909 214b 0C       		.byte	0xc
 9910 214c 00       		.byte	0
 9911 214d 1A       		.uleb128 0x1a
 9912 214e 6D070000 		.4byte	.LASF447
 9913 2152 21       		.byte	0x21
 9914 2153 9201     		.2byte	0x192
 9915 2155 0F210000 		.4byte	0x210f
 9916 2159 05       		.uleb128 0x5
 9917 215a 4D210000 		.4byte	0x214d
 9918 215e 0B       		.uleb128 0xb
 9919 215f 04       		.byte	0x4
 9920 2160 59210000 		.4byte	0x2159
 9921 2164 0B       		.uleb128 0xb
 9922 2165 04       		.byte	0x4
 9923 2166 F7200000 		.4byte	0x20f7
 9924 216a 15       		.uleb128 0x15
 9925 216b E2270000 		.4byte	.LASF448
 9926 216f 21       		.byte	0x21
 9927 2170 F201     		.2byte	0x1f2
 9928 2172 7C1F0000 		.4byte	0x1f7c
 9929 2176 15       		.uleb128 0x15
 9930 2177 02200000 		.4byte	.LASF449
 9931 217b 21       		.byte	0x21
 9932 217c 0202     		.2byte	0x202
 9933 217e 7C1F0000 		.4byte	0x1f7c
 9934 2182 15       		.uleb128 0x15
 9935 2183 09200000 		.4byte	.LASF450
 9936 2187 21       		.byte	0x21
 9937 2188 0602     		.2byte	0x206
ARM GAS  C:\Users\osour\AppData\Local\Temp\ccsBkKuy.s 			page 181


 9938 218a 7C1F0000 		.4byte	0x1f7c
 9939 218e 21       		.uleb128 0x21
 9940 218f 07       		.byte	0x7
 9941 2190 01       		.byte	0x1
 9942 2191 42000000 		.4byte	0x42
 9943 2195 23       		.byte	0x23
 9944 2196 4C       		.byte	0x4c
 9945 2197 C0210000 		.4byte	0x21c0
 9946 219b 22       		.uleb128 0x22
 9947 219c 45070000 		.4byte	.LASF451
 9948 21a0 00       		.byte	0
 9949 21a1 22       		.uleb128 0x22
 9950 21a2 DE0F0000 		.4byte	.LASF452
 9951 21a6 01       		.byte	0x1
 9952 21a7 22       		.uleb128 0x22
 9953 21a8 B2070000 		.4byte	.LASF453
 9954 21ac 02       		.byte	0x2
 9955 21ad 22       		.uleb128 0x22
 9956 21ae A9050000 		.4byte	.LASF454
 9957 21b2 03       		.byte	0x3
 9958 21b3 22       		.uleb128 0x22
 9959 21b4 30040000 		.4byte	.LASF455
 9960 21b8 04       		.byte	0x4
 9961 21b9 22       		.uleb128 0x22
 9962 21ba 36160000 		.4byte	.LASF456
 9963 21be 05       		.byte	0x5
 9964 21bf 00       		.byte	0
 9965 21c0 02       		.uleb128 0x2
 9966 21c1 10140000 		.4byte	.LASF457
 9967 21c5 23       		.byte	0x23
 9968 21c6 53       		.byte	0x53
 9969 21c7 8E210000 		.4byte	0x218e
 9970 21cb 1A       		.uleb128 0x1a
 9971 21cc F6050000 		.4byte	.LASF458
 9972 21d0 24       		.byte	0x24
 9973 21d1 6A01     		.2byte	0x16a
 9974 21d3 DE000000 		.4byte	0xde
 9975 21d7 1A       		.uleb128 0x1a
 9976 21d8 04050000 		.4byte	.LASF459
 9977 21dc 24       		.byte	0x24
 9978 21dd 6F01     		.2byte	0x16f
 9979 21df F9000000 		.4byte	0xf9
 9980 21e3 24       		.uleb128 0x24
 9981 21e4 07       		.byte	0x7
 9982 21e5 01       		.byte	0x1
 9983 21e6 42000000 		.4byte	0x42
 9984 21ea 24       		.byte	0x24
 9985 21eb 7401     		.2byte	0x174
 9986 21ed 04220000 		.4byte	0x2204
 9987 21f1 22       		.uleb128 0x22
 9988 21f2 BC050000 		.4byte	.LASF460
 9989 21f6 01       		.byte	0x1
 9990 21f7 22       		.uleb128 0x22
 9991 21f8 BC000000 		.4byte	.LASF461
 9992 21fc 02       		.byte	0x2
 9993 21fd 22       		.uleb128 0x22
 9994 21fe D20A0000 		.4byte	.LASF462
ARM GAS  C:\Users\osour\AppData\Local\Temp\ccsBkKuy.s 			page 182


 9995 2202 03       		.byte	0x3
 9996 2203 00       		.byte	0
 9997 2204 1A       		.uleb128 0x1a
 9998 2205 45290000 		.4byte	.LASF463
 9999 2209 24       		.byte	0x24
 10000 220a 7801     		.2byte	0x178
 10001 220c E3210000 		.4byte	0x21e3
 10002 2210 24       		.uleb128 0x24
 10003 2211 07       		.byte	0x7
 10004 2212 01       		.byte	0x1
 10005 2213 42000000 		.4byte	0x42
 10006 2217 24       		.byte	0x24
 10007 2218 7D01     		.2byte	0x17d
 10008 221a 31220000 		.4byte	0x2231
 10009 221e 22       		.uleb128 0x22
 10010 221f AF060000 		.4byte	.LASF464
 10011 2223 01       		.byte	0x1
 10012 2224 22       		.uleb128 0x22
 10013 2225 B6280000 		.4byte	.LASF465
 10014 2229 02       		.byte	0x2
 10015 222a 22       		.uleb128 0x22
 10016 222b E90B0000 		.4byte	.LASF466
 10017 222f 03       		.byte	0x3
 10018 2230 00       		.byte	0
 10019 2231 1A       		.uleb128 0x1a
 10020 2232 C5070000 		.4byte	.LASF467
 10021 2236 24       		.byte	0x24
 10022 2237 8101     		.2byte	0x181
 10023 2239 10220000 		.4byte	0x2210
 10024 223d 19       		.uleb128 0x19
 10025 223e 0C       		.byte	0xc
 10026 223f 24       		.byte	0x24
 10027 2240 8601     		.2byte	0x186
 10028 2242 6E220000 		.4byte	0x226e
 10029 2246 0A       		.uleb128 0xa
 10030 2247 EE170000 		.4byte	.LASF468
 10031 224b 24       		.byte	0x24
 10032 224c 8801     		.2byte	0x188
 10033 224e 04220000 		.4byte	0x2204
 10034 2252 00       		.byte	0
 10035 2253 0A       		.uleb128 0xa
 10036 2254 A6040000 		.4byte	.LASF469
 10037 2258 24       		.byte	0x24
 10038 2259 8901     		.2byte	0x189
 10039 225b F9000000 		.4byte	0xf9
 10040 225f 04       		.byte	0x4
 10041 2260 0A       		.uleb128 0xa
 10042 2261 D7290000 		.4byte	.LASF470
 10043 2265 24       		.byte	0x24
 10044 2266 8C01     		.2byte	0x18c
 10045 2268 31220000 		.4byte	0x2231
 10046 226c 08       		.byte	0x8
 10047 226d 00       		.byte	0
 10048 226e 1A       		.uleb128 0x1a
 10049 226f 9D020000 		.4byte	.LASF471
 10050 2273 24       		.byte	0x24
 10051 2274 8E01     		.2byte	0x18e
ARM GAS  C:\Users\osour\AppData\Local\Temp\ccsBkKuy.s 			page 183


 10052 2276 3D220000 		.4byte	0x223d
 10053 227a 05       		.uleb128 0x5
 10054 227b 6E220000 		.4byte	0x226e
 10055 227f 1A       		.uleb128 0x1a
 10056 2280 9F050000 		.4byte	.LASF472
 10057 2284 24       		.byte	0x24
 10058 2285 9301     		.2byte	0x193
 10059 2287 8B220000 		.4byte	0x228b
 10060 228b 0C       		.uleb128 0xc
 10061 228c 9F050000 		.4byte	.LASF472
 10062 2290 3C       		.byte	0x3c
 10063 2291 24       		.byte	0x24
 10064 2292 9801     		.2byte	0x198
 10065 2294 28230000 		.4byte	0x2328
 10066 2298 0A       		.uleb128 0xa
 10067 2299 31190000 		.4byte	.LASF340
 10068 229d 24       		.byte	0x24
 10069 229e 9C01     		.2byte	0x19c
 10070 22a0 C0210000 		.4byte	0x21c0
 10071 22a4 00       		.byte	0
 10072 22a5 0A       		.uleb128 0xa
 10073 22a6 FB1F0000 		.4byte	.LASF341
 10074 22aa 24       		.byte	0x24
 10075 22ab A001     		.2byte	0x1a0
 10076 22ad 28230000 		.4byte	0x2328
 10077 22b1 04       		.byte	0x4
 10078 22b2 0A       		.uleb128 0xa
 10079 22b3 F7010000 		.4byte	.LASF473
 10080 22b7 24       		.byte	0x24
 10081 22b8 A401     		.2byte	0x1a4
 10082 22ba D7210000 		.4byte	0x21d7
 10083 22be 08       		.byte	0x8
 10084 22bf 0A       		.uleb128 0xa
 10085 22c0 3C0E0000 		.4byte	.LASF346
 10086 22c4 24       		.byte	0x24
 10087 22c5 A901     		.2byte	0x1a9
 10088 22c7 5F120000 		.4byte	0x125f
 10089 22cb 0C       		.byte	0xc
 10090 22cc 0A       		.uleb128 0xa
 10091 22cd F8070000 		.4byte	.LASF345
 10092 22d1 24       		.byte	0x24
 10093 22d2 B201     		.2byte	0x1b2
 10094 22d4 E8020000 		.4byte	0x2e8
 10095 22d8 20       		.byte	0x20
 10096 22d9 0A       		.uleb128 0xa
 10097 22da E70F0000 		.4byte	.LASF474
 10098 22de 24       		.byte	0x24
 10099 22df B601     		.2byte	0x1b6
 10100 22e1 CB210000 		.4byte	0x21cb
 10101 22e5 24       		.byte	0x24
 10102 22e6 0A       		.uleb128 0xa
 10103 22e7 88090000 		.4byte	.LASF475
 10104 22eb 24       		.byte	0x24
 10105 22ec BA01     		.2byte	0x1ba
 10106 22ee F9000000 		.4byte	0xf9
 10107 22f2 28       		.byte	0x28
 10108 22f3 0A       		.uleb128 0xa
ARM GAS  C:\Users\osour\AppData\Local\Temp\ccsBkKuy.s 			page 184


 10109 22f4 E2090000 		.4byte	.LASF476
 10110 22f8 24       		.byte	0x24
 10111 22f9 BE01     		.2byte	0x1be
 10112 22fb F9000000 		.4byte	0xf9
 10113 22ff 2C       		.byte	0x2c
 10114 2300 0A       		.uleb128 0xa
 10115 2301 6E010000 		.4byte	.LASF477
 10116 2305 24       		.byte	0x24
 10117 2306 C201     		.2byte	0x1c2
 10118 2308 5E1A0000 		.4byte	0x1a5e
 10119 230c 30       		.byte	0x30
 10120 230d 0A       		.uleb128 0xa
 10121 230e B0020000 		.4byte	.LASF478
 10122 2312 24       		.byte	0x24
 10123 2313 C601     		.2byte	0x1c6
 10124 2315 5E1A0000 		.4byte	0x1a5e
 10125 2319 34       		.byte	0x34
 10126 231a 09       		.uleb128 0x9
 10127 231b 69326300 		.ascii	"i2c\000"
 10128 231f 24       		.byte	0x24
 10129 2320 CA01     		.2byte	0x1ca
 10130 2322 2E230000 		.4byte	0x232e
 10131 2326 38       		.byte	0x38
 10132 2327 00       		.byte	0
 10133 2328 0B       		.uleb128 0xb
 10134 2329 04       		.byte	0x4
 10135 232a 7A220000 		.4byte	0x227a
 10136 232e 0B       		.uleb128 0xb
 10137 232f 04       		.byte	0x4
 10138 2330 460B0000 		.4byte	0xb46
 10139 2334 15       		.uleb128 0x15
 10140 2335 95140000 		.4byte	.LASF479
 10141 2339 24       		.byte	0x24
 10142 233a E001     		.2byte	0x1e0
 10143 233c 7F220000 		.4byte	0x227f
 10144 2340 21       		.uleb128 0x21
 10145 2341 07       		.byte	0x7
 10146 2342 01       		.byte	0x1
 10147 2343 42000000 		.4byte	0x42
 10148 2347 25       		.byte	0x25
 10149 2348 39       		.byte	0x39
 10150 2349 6C230000 		.4byte	0x236c
 10151 234d 22       		.uleb128 0x22
 10152 234e EF120000 		.4byte	.LASF480
 10153 2352 00       		.byte	0
 10154 2353 22       		.uleb128 0x22
 10155 2354 220E0000 		.4byte	.LASF481
 10156 2358 01       		.byte	0x1
 10157 2359 22       		.uleb128 0x22
 10158 235a 74010000 		.4byte	.LASF482
 10159 235e 02       		.byte	0x2
 10160 235f 22       		.uleb128 0x22
 10161 2360 841C0000 		.4byte	.LASF483
 10162 2364 03       		.byte	0x3
 10163 2365 22       		.uleb128 0x22
 10164 2366 DF220000 		.4byte	.LASF484
 10165 236a 04       		.byte	0x4
ARM GAS  C:\Users\osour\AppData\Local\Temp\ccsBkKuy.s 			page 185


 10166 236b 00       		.byte	0
 10167 236c 02       		.uleb128 0x2
 10168 236d 2E260000 		.4byte	.LASF485
 10169 2371 25       		.byte	0x25
 10170 2372 3F       		.byte	0x3f
 10171 2373 40230000 		.4byte	0x2340
 10172 2377 02       		.uleb128 0x2
 10173 2378 CD290000 		.4byte	.LASF486
 10174 237c 26       		.byte	0x26
 10175 237d E2       		.byte	0xe2
 10176 237e 82230000 		.4byte	0x2382
 10177 2382 0C       		.uleb128 0xc
 10178 2383 CD290000 		.4byte	.LASF486
 10179 2387 20       		.byte	0x20
 10180 2388 26       		.byte	0x26
 10181 2389 1B01     		.2byte	0x11b
 10182 238b F8230000 		.4byte	0x23f8
 10183 238f 0A       		.uleb128 0xa
 10184 2390 31190000 		.4byte	.LASF340
 10185 2394 26       		.byte	0x26
 10186 2395 1F01     		.2byte	0x11f
 10187 2397 6C230000 		.4byte	0x236c
 10188 239b 00       		.byte	0
 10189 239c 0A       		.uleb128 0xa
 10190 239d FB1F0000 		.4byte	.LASF341
 10191 23a1 26       		.byte	0x26
 10192 23a2 2301     		.2byte	0x123
 10193 23a4 90240000 		.4byte	0x2490
 10194 23a8 04       		.byte	0x4
 10195 23a9 09       		.uleb128 0x9
 10196 23aa 73706900 		.ascii	"spi\000"
 10197 23ae 26       		.byte	0x26
 10198 23af 2801     		.2byte	0x128
 10199 23b1 96240000 		.4byte	0x2496
 10200 23b5 08       		.byte	0x8
 10201 23b6 09       		.uleb128 0x9
 10202 23b7 63666700 		.ascii	"cfg\000"
 10203 23bb 26       		.byte	0x26
 10204 23bc 2C01     		.2byte	0x12c
 10205 23be DE000000 		.4byte	0xde
 10206 23c2 0C       		.byte	0xc
 10207 23c3 0A       		.uleb128 0xa
 10208 23c4 6E010000 		.4byte	.LASF477
 10209 23c8 26       		.byte	0x26
 10210 23c9 3001     		.2byte	0x130
 10211 23cb 5E1A0000 		.4byte	0x1a5e
 10212 23cf 10       		.byte	0x10
 10213 23d0 0A       		.uleb128 0xa
 10214 23d1 B0020000 		.4byte	.LASF478
 10215 23d5 26       		.byte	0x26
 10216 23d6 3401     		.2byte	0x134
 10217 23d8 5E1A0000 		.4byte	0x1a5e
 10218 23dc 14       		.byte	0x14
 10219 23dd 0A       		.uleb128 0xa
 10220 23de 88090000 		.4byte	.LASF475
 10221 23e2 26       		.byte	0x26
 10222 23e3 3801     		.2byte	0x138
ARM GAS  C:\Users\osour\AppData\Local\Temp\ccsBkKuy.s 			page 186


 10223 23e5 F9000000 		.4byte	0xf9
 10224 23e9 18       		.byte	0x18
 10225 23ea 0A       		.uleb128 0xa
 10226 23eb E2090000 		.4byte	.LASF476
 10227 23ef 26       		.byte	0x26
 10228 23f0 3C01     		.2byte	0x13c
 10229 23f2 F9000000 		.4byte	0xf9
 10230 23f6 1C       		.byte	0x1c
 10231 23f7 00       		.byte	0
 10232 23f8 02       		.uleb128 0x2
 10233 23f9 CE090000 		.4byte	.LASF487
 10234 23fd 26       		.byte	0x26
 10235 23fe EB       		.byte	0xeb
 10236 23ff 03240000 		.4byte	0x2403
 10237 2403 0B       		.uleb128 0xb
 10238 2404 04       		.byte	0x4
 10239 2405 09240000 		.4byte	0x2409
 10240 2409 0D       		.uleb128 0xd
 10241 240a 1E240000 		.4byte	0x241e
 10242 240e 0E       		.uleb128 0xe
 10243 240f 1E240000 		.4byte	0x241e
 10244 2413 0E       		.uleb128 0xe
 10245 2414 19010000 		.4byte	0x119
 10246 2418 0E       		.uleb128 0xe
 10247 2419 19010000 		.4byte	0x119
 10248 241d 00       		.byte	0
 10249 241e 0B       		.uleb128 0xb
 10250 241f 04       		.byte	0x4
 10251 2420 77230000 		.4byte	0x2377
 10252 2424 17       		.uleb128 0x17
 10253 2425 14       		.byte	0x14
 10254 2426 26       		.byte	0x26
 10255 2427 F1       		.byte	0xf1
 10256 2428 78240000 		.4byte	0x2478
 10257 242c 08       		.uleb128 0x8
 10258 242d 2B020000 		.4byte	.LASF488
 10259 2431 26       		.byte	0x26
 10260 2432 F6       		.byte	0xf6
 10261 2433 78240000 		.4byte	0x2478
 10262 2437 00       		.byte	0
 10263 2438 08       		.uleb128 0x8
 10264 2439 ED010000 		.4byte	.LASF489
 10265 243d 26       		.byte	0x26
 10266 243e FB       		.byte	0xfb
 10267 243f D0030000 		.4byte	0x3d0
 10268 2443 04       		.byte	0x4
 10269 2444 08       		.uleb128 0x8
 10270 2445 420E0000 		.4byte	.LASF490
 10271 2449 26       		.byte	0x26
 10272 244a FF       		.byte	0xff
 10273 244b 19010000 		.4byte	0x119
 10274 244f 08       		.byte	0x8
 10275 2450 0A       		.uleb128 0xa
 10276 2451 730A0000 		.4byte	.LASF353
 10277 2455 26       		.byte	0x26
 10278 2456 0301     		.2byte	0x103
 10279 2458 F8230000 		.4byte	0x23f8
ARM GAS  C:\Users\osour\AppData\Local\Temp\ccsBkKuy.s 			page 187


 10280 245c 0C       		.byte	0xc
 10281 245d 0A       		.uleb128 0xa
 10282 245e DD1C0000 		.4byte	.LASF491
 10283 2462 26       		.byte	0x26
 10284 2463 0F01     		.2byte	0x10f
 10285 2465 D3000000 		.4byte	0xd3
 10286 2469 10       		.byte	0x10
 10287 246a 0A       		.uleb128 0xa
 10288 246b A3070000 		.4byte	.LASF492
 10289 246f 26       		.byte	0x26
 10290 2470 1501     		.2byte	0x115
 10291 2472 D3000000 		.4byte	0xd3
 10292 2476 12       		.byte	0x12
 10293 2477 00       		.byte	0
 10294 2478 0B       		.uleb128 0xb
 10295 2479 04       		.byte	0x4
 10296 247a 7E240000 		.4byte	0x247e
 10297 247e 25       		.uleb128 0x25
 10298 247f 1A       		.uleb128 0x1a
 10299 2480 E2290000 		.4byte	.LASF493
 10300 2484 26       		.byte	0x26
 10301 2485 1601     		.2byte	0x116
 10302 2487 24240000 		.4byte	0x2424
 10303 248b 05       		.uleb128 0x5
 10304 248c 7F240000 		.4byte	0x247f
 10305 2490 0B       		.uleb128 0xb
 10306 2491 04       		.byte	0x4
 10307 2492 8B240000 		.4byte	0x248b
 10308 2496 0B       		.uleb128 0xb
 10309 2497 04       		.byte	0x4
 10310 2498 F90C0000 		.4byte	0xcf9
 10311 249c 15       		.uleb128 0x15
 10312 249d 372A0000 		.4byte	.LASF494
 10313 24a1 26       		.byte	0x26
 10314 24a2 4801     		.2byte	0x148
 10315 24a4 77230000 		.4byte	0x2377
 10316 24a8 21       		.uleb128 0x21
 10317 24a9 07       		.byte	0x7
 10318 24aa 01       		.byte	0x1
 10319 24ab 42000000 		.4byte	0x42
 10320 24af 27       		.byte	0x27
 10321 24b0 4A       		.byte	0x4a
 10322 24b1 C8240000 		.4byte	0x24c8
 10323 24b5 22       		.uleb128 0x22
 10324 24b6 59080000 		.4byte	.LASF495
 10325 24ba 00       		.byte	0
 10326 24bb 22       		.uleb128 0x22
 10327 24bc 2B0E0000 		.4byte	.LASF496
 10328 24c0 01       		.byte	0x1
 10329 24c1 22       		.uleb128 0x22
 10330 24c2 21130000 		.4byte	.LASF497
 10331 24c6 02       		.byte	0x2
 10332 24c7 00       		.byte	0
 10333 24c8 02       		.uleb128 0x2
 10334 24c9 51040000 		.4byte	.LASF498
 10335 24cd 27       		.byte	0x27
 10336 24ce 4E       		.byte	0x4e
ARM GAS  C:\Users\osour\AppData\Local\Temp\ccsBkKuy.s 			page 188


 10337 24cf A8240000 		.4byte	0x24a8
 10338 24d3 02       		.uleb128 0x2
 10339 24d4 220D0000 		.4byte	.LASF499
 10340 24d8 27       		.byte	0x27
 10341 24d9 53       		.byte	0x53
 10342 24da DE240000 		.4byte	0x24de
 10343 24de 0C       		.uleb128 0xc
 10344 24df 220D0000 		.4byte	.LASF499
 10345 24e3 1C       		.byte	0x1c
 10346 24e4 28       		.byte	0x28
 10347 24e5 7901     		.2byte	0x179
 10348 24e7 47250000 		.4byte	0x2547
 10349 24eb 0A       		.uleb128 0xa
 10350 24ec 31190000 		.4byte	.LASF340
 10351 24f0 28       		.byte	0x28
 10352 24f1 7D01     		.2byte	0x17d
 10353 24f3 C8240000 		.4byte	0x24c8
 10354 24f7 00       		.byte	0
 10355 24f8 0A       		.uleb128 0xa
 10356 24f9 FB1F0000 		.4byte	.LASF341
 10357 24fd 28       		.byte	0x28
 10358 24fe 8101     		.2byte	0x181
 10359 2500 42260000 		.4byte	0x2642
 10360 2504 04       		.byte	0x4
 10361 2505 0A       		.uleb128 0xa
 10362 2506 21160000 		.4byte	.LASF500
 10363 250a 28       		.byte	0x28
 10364 250b 8501     		.2byte	0x185
 10365 250d 8D250000 		.4byte	0x258d
 10366 2511 08       		.byte	0x8
 10367 2512 0A       		.uleb128 0xa
 10368 2513 841D0000 		.4byte	.LASF501
 10369 2517 28       		.byte	0x28
 10370 2518 8901     		.2byte	0x189
 10371 251a 81250000 		.4byte	0x2581
 10372 251e 0C       		.byte	0xc
 10373 251f 0A       		.uleb128 0xa
 10374 2520 99250000 		.4byte	.LASF421
 10375 2524 28       		.byte	0x28
 10376 2525 8D01     		.2byte	0x18d
 10377 2527 75250000 		.4byte	0x2575
 10378 252b 10       		.byte	0x10
 10379 252c 0A       		.uleb128 0xa
 10380 252d 650E0000 		.4byte	.LASF431
 10381 2531 28       		.byte	0x28
 10382 2532 9501     		.2byte	0x195
 10383 2534 F9000000 		.4byte	0xf9
 10384 2538 14       		.byte	0x14
 10385 2539 09       		.uleb128 0x9
 10386 253a 74696D00 		.ascii	"tim\000"
 10387 253e 28       		.byte	0x28
 10388 253f 9901     		.2byte	0x199
 10389 2541 64210000 		.4byte	0x2164
 10390 2545 18       		.byte	0x18
 10391 2546 00       		.byte	0
 10392 2547 02       		.uleb128 0x2
 10393 2548 C8130000 		.4byte	.LASF502
ARM GAS  C:\Users\osour\AppData\Local\Temp\ccsBkKuy.s 			page 189


 10394 254c 27       		.byte	0x27
 10395 254d 5A       		.byte	0x5a
 10396 254e 52250000 		.4byte	0x2552
 10397 2552 0B       		.uleb128 0xb
 10398 2553 04       		.byte	0x4
 10399 2554 58250000 		.4byte	0x2558
 10400 2558 0D       		.uleb128 0xd
 10401 2559 63250000 		.4byte	0x2563
 10402 255d 0E       		.uleb128 0xe
 10403 255e 63250000 		.4byte	0x2563
 10404 2562 00       		.byte	0
 10405 2563 0B       		.uleb128 0xb
 10406 2564 04       		.byte	0x4
 10407 2565 D3240000 		.4byte	0x24d3
 10408 2569 1A       		.uleb128 0x1a
 10409 256a 41180000 		.4byte	.LASF503
 10410 256e 28       		.byte	0x28
 10411 256f 2501     		.2byte	0x125
 10412 2571 F9000000 		.4byte	0xf9
 10413 2575 1A       		.uleb128 0x1a
 10414 2576 A81A0000 		.4byte	.LASF504
 10415 257a 28       		.byte	0x28
 10416 257b 2A01     		.2byte	0x12a
 10417 257d C3000000 		.4byte	0xc3
 10418 2581 1A       		.uleb128 0x1a
 10419 2582 A6030000 		.4byte	.LASF505
 10420 2586 28       		.byte	0x28
 10421 2587 2F01     		.2byte	0x12f
 10422 2589 F9000000 		.4byte	0xf9
 10423 258d 1A       		.uleb128 0x1a
 10424 258e 2D0F0000 		.4byte	.LASF506
 10425 2592 28       		.byte	0x28
 10426 2593 3401     		.2byte	0x134
 10427 2595 F9000000 		.4byte	0xf9
 10428 2599 19       		.uleb128 0x19
 10429 259a 08       		.byte	0x8
 10430 259b 28       		.byte	0x28
 10431 259c 3901     		.2byte	0x139
 10432 259e BD250000 		.4byte	0x25bd
 10433 25a2 0A       		.uleb128 0xa
 10434 25a3 9C090000 		.4byte	.LASF419
 10435 25a7 28       		.byte	0x28
 10436 25a8 3D01     		.2byte	0x13d
 10437 25aa 69250000 		.4byte	0x2569
 10438 25ae 00       		.byte	0
 10439 25af 0A       		.uleb128 0xa
 10440 25b0 AE190000 		.4byte	.LASF445
 10441 25b4 28       		.byte	0x28
 10442 25b5 4301     		.2byte	0x143
 10443 25b7 47250000 		.4byte	0x2547
 10444 25bb 04       		.byte	0x4
 10445 25bc 00       		.byte	0
 10446 25bd 1A       		.uleb128 0x1a
 10447 25be 1C0F0000 		.4byte	.LASF507
 10448 25c2 28       		.byte	0x28
 10449 25c3 4501     		.2byte	0x145
 10450 25c5 99250000 		.4byte	0x2599
ARM GAS  C:\Users\osour\AppData\Local\Temp\ccsBkKuy.s 			page 190


 10451 25c9 19       		.uleb128 0x19
 10452 25ca 34       		.byte	0x34
 10453 25cb 28       		.byte	0x28
 10454 25cc 4A01     		.2byte	0x14a
 10455 25ce 21260000 		.4byte	0x2621
 10456 25d2 0A       		.uleb128 0xa
 10457 25d3 72280000 		.4byte	.LASF444
 10458 25d7 28       		.byte	0x28
 10459 25d8 5001     		.2byte	0x150
 10460 25da F9000000 		.4byte	0xf9
 10461 25de 00       		.byte	0
 10462 25df 0A       		.uleb128 0xa
 10463 25e0 21160000 		.4byte	.LASF500
 10464 25e4 28       		.byte	0x28
 10465 25e5 5601     		.2byte	0x156
 10466 25e7 8D250000 		.4byte	0x258d
 10467 25eb 04       		.byte	0x4
 10468 25ec 0A       		.uleb128 0xa
 10469 25ed AE190000 		.4byte	.LASF445
 10470 25f1 28       		.byte	0x28
 10471 25f2 5C01     		.2byte	0x15c
 10472 25f4 47250000 		.4byte	0x2547
 10473 25f8 08       		.byte	0x8
 10474 25f9 0A       		.uleb128 0xa
 10475 25fa 99250000 		.4byte	.LASF421
 10476 25fe 28       		.byte	0x28
 10477 25ff 6001     		.2byte	0x160
 10478 2601 21260000 		.4byte	0x2621
 10479 2605 0C       		.byte	0xc
 10480 2606 09       		.uleb128 0x9
 10481 2607 63723200 		.ascii	"cr2\000"
 10482 260b 28       		.byte	0x28
 10483 260c 6601     		.2byte	0x166
 10484 260e F9000000 		.4byte	0xf9
 10485 2612 2C       		.byte	0x2c
 10486 2613 0A       		.uleb128 0xa
 10487 2614 BB0D0000 		.4byte	.LASF446
 10488 2618 28       		.byte	0x28
 10489 2619 7301     		.2byte	0x173
 10490 261b F9000000 		.4byte	0xf9
 10491 261f 30       		.byte	0x30
 10492 2620 00       		.byte	0
 10493 2621 13       		.uleb128 0x13
 10494 2622 BD250000 		.4byte	0x25bd
 10495 2626 31260000 		.4byte	0x2631
 10496 262a 14       		.uleb128 0x14
 10497 262b B1000000 		.4byte	0xb1
 10498 262f 03       		.byte	0x3
 10499 2630 00       		.byte	0
 10500 2631 1A       		.uleb128 0x1a
 10501 2632 330D0000 		.4byte	.LASF508
 10502 2636 28       		.byte	0x28
 10503 2637 7401     		.2byte	0x174
 10504 2639 C9250000 		.4byte	0x25c9
 10505 263d 05       		.uleb128 0x5
 10506 263e 31260000 		.4byte	0x2631
 10507 2642 0B       		.uleb128 0xb
ARM GAS  C:\Users\osour\AppData\Local\Temp\ccsBkKuy.s 			page 191


 10508 2643 04       		.byte	0x4
 10509 2644 3D260000 		.4byte	0x263d
 10510 2648 15       		.uleb128 0x15
 10511 2649 C6140000 		.4byte	.LASF509
 10512 264d 28       		.byte	0x28
 10513 264e BC01     		.2byte	0x1bc
 10514 2650 D3240000 		.4byte	0x24d3
 10515 2654 15       		.uleb128 0x15
 10516 2655 CC140000 		.4byte	.LASF510
 10517 2659 28       		.byte	0x28
 10518 265a C001     		.2byte	0x1c0
 10519 265c D3240000 		.4byte	0x24d3
 10520 2660 15       		.uleb128 0x15
 10521 2661 D2140000 		.4byte	.LASF511
 10522 2665 28       		.byte	0x28
 10523 2666 C401     		.2byte	0x1c4
 10524 2668 D3240000 		.4byte	0x24d3
 10525 266c 15       		.uleb128 0x15
 10526 266d D8140000 		.4byte	.LASF512
 10527 2671 28       		.byte	0x28
 10528 2672 C801     		.2byte	0x1c8
 10529 2674 D3240000 		.4byte	0x24d3
 10530 2678 21       		.uleb128 0x21
 10531 2679 07       		.byte	0x7
 10532 267a 01       		.byte	0x1
 10533 267b 42000000 		.4byte	0x42
 10534 267f 29       		.byte	0x29
 10535 2680 55       		.byte	0x55
 10536 2681 98260000 		.4byte	0x2698
 10537 2685 22       		.uleb128 0x22
 10538 2686 77070000 		.4byte	.LASF513
 10539 268a 00       		.byte	0
 10540 268b 22       		.uleb128 0x22
 10541 268c 980E0000 		.4byte	.LASF514
 10542 2690 01       		.byte	0x1
 10543 2691 22       		.uleb128 0x22
 10544 2692 32110000 		.4byte	.LASF515
 10545 2696 02       		.byte	0x2
 10546 2697 00       		.byte	0
 10547 2698 02       		.uleb128 0x2
 10548 2699 C61B0000 		.4byte	.LASF516
 10549 269d 29       		.byte	0x29
 10550 269e 59       		.byte	0x59
 10551 269f 78260000 		.4byte	0x2678
 10552 26a3 02       		.uleb128 0x2
 10553 26a4 C4250000 		.4byte	.LASF517
 10554 26a8 29       		.byte	0x29
 10555 26a9 5E       		.byte	0x5e
 10556 26aa AE260000 		.4byte	0x26ae
 10557 26ae 07       		.uleb128 0x7
 10558 26af C4250000 		.4byte	.LASF517
 10559 26b3 78       		.byte	0x78
 10560 26b4 29       		.byte	0x29
 10561 26b5 78       		.byte	0x78
 10562 26b6 19270000 		.4byte	0x2719
 10563 26ba 18       		.uleb128 0x18
 10564 26bb 766D7400 		.ascii	"vmt\000"
ARM GAS  C:\Users\osour\AppData\Local\Temp\ccsBkKuy.s 			page 192


 10565 26bf 29       		.byte	0x29
 10566 26c0 7A       		.byte	0x7a
 10567 26c1 97270000 		.4byte	0x2797
 10568 26c5 00       		.byte	0
 10569 26c6 08       		.uleb128 0x8
 10570 26c7 47000000 		.4byte	.LASF518
 10571 26cb 29       		.byte	0x29
 10572 26cc 7B       		.byte	0x7b
 10573 26cd E3120000 		.4byte	0x12e3
 10574 26d1 04       		.byte	0x4
 10575 26d2 08       		.uleb128 0x8
 10576 26d3 31190000 		.4byte	.LASF340
 10577 26d7 29       		.byte	0x29
 10578 26d8 7B       		.byte	0x7b
 10579 26d9 98260000 		.4byte	0x2698
 10580 26dd 08       		.byte	0x8
 10581 26de 08       		.uleb128 0x8
 10582 26df 9B1B0000 		.4byte	.LASF519
 10583 26e3 29       		.byte	0x29
 10584 26e4 7B       		.byte	0x7b
 10585 26e5 8E130000 		.4byte	0x138e
 10586 26e9 0C       		.byte	0xc
 10587 26ea 08       		.uleb128 0x8
 10588 26eb EB140000 		.4byte	.LASF520
 10589 26ef 29       		.byte	0x29
 10590 26f0 7B       		.byte	0x7b
 10591 26f1 99130000 		.4byte	0x1399
 10592 26f5 30       		.byte	0x30
 10593 26f6 18       		.uleb128 0x18
 10594 26f7 696200   		.ascii	"ib\000"
 10595 26fa 29       		.byte	0x29
 10596 26fb 7B       		.byte	0x7b
 10597 26fc 9D270000 		.4byte	0x279d
 10598 2700 54       		.byte	0x54
 10599 2701 18       		.uleb128 0x18
 10600 2702 6F6200   		.ascii	"ob\000"
 10601 2705 29       		.byte	0x29
 10602 2706 7B       		.byte	0x7b
 10603 2707 9D270000 		.4byte	0x279d
 10604 270b 64       		.byte	0x64
 10605 270c 08       		.uleb128 0x8
 10606 270d E21D0000 		.4byte	.LASF521
 10607 2711 29       		.byte	0x29
 10608 2712 7B       		.byte	0x7b
 10609 2713 AD270000 		.4byte	0x27ad
 10610 2717 74       		.byte	0x74
 10611 2718 00       		.byte	0
 10612 2719 1F       		.uleb128 0x1f
 10613 271a 53443300 		.ascii	"SD3\000"
 10614 271e 2A       		.byte	0x2a
 10615 271f 1501     		.2byte	0x115
 10616 2721 A3260000 		.4byte	0x26a3
 10617 2725 07       		.uleb128 0x7
 10618 2726 BB100000 		.4byte	.LASF522
 10619 272a 20       		.byte	0x20
 10620 272b 29       		.byte	0x29
 10621 272c 6D       		.byte	0x6d
ARM GAS  C:\Users\osour\AppData\Local\Temp\ccsBkKuy.s 			page 193


 10622 272d 92270000 		.4byte	0x2792
 10623 2731 08       		.uleb128 0x8
 10624 2732 8A1B0000 		.4byte	.LASF523
 10625 2736 29       		.byte	0x29
 10626 2737 6E       		.byte	0x6e
 10627 2738 C3130000 		.4byte	0x13c3
 10628 273c 00       		.byte	0
 10629 273d 08       		.uleb128 0x8
 10630 273e B7050000 		.4byte	.LASF524
 10631 2742 29       		.byte	0x29
 10632 2743 6E       		.byte	0x6e
 10633 2744 E2130000 		.4byte	0x13e2
 10634 2748 04       		.byte	0x4
 10635 2749 18       		.uleb128 0x18
 10636 274a 70757400 		.ascii	"put\000"
 10637 274e 29       		.byte	0x29
 10638 274f 6E       		.byte	0x6e
 10639 2750 FC130000 		.4byte	0x13fc
 10640 2754 08       		.byte	0x8
 10641 2755 18       		.uleb128 0x18
 10642 2756 67657400 		.ascii	"get\000"
 10643 275a 29       		.byte	0x29
 10644 275b 6E       		.byte	0x6e
 10645 275c 11140000 		.4byte	0x1411
 10646 2760 0C       		.byte	0xc
 10647 2761 08       		.uleb128 0x8
 10648 2762 38170000 		.4byte	.LASF525
 10649 2766 29       		.byte	0x29
 10650 2767 6E       		.byte	0x6e
 10651 2768 B2140000 		.4byte	0x14b2
 10652 276c 10       		.byte	0x10
 10653 276d 08       		.uleb128 0x8
 10654 276e 661B0000 		.4byte	.LASF526
 10655 2772 29       		.byte	0x29
 10656 2773 6E       		.byte	0x6e
 10657 2774 CC140000 		.4byte	0x14cc
 10658 2778 14       		.byte	0x14
 10659 2779 08       		.uleb128 0x8
 10660 277a 81260000 		.4byte	.LASF527
 10661 277e 29       		.byte	0x29
 10662 277f 6E       		.byte	0x6e
 10663 2780 F0140000 		.4byte	0x14f0
 10664 2784 18       		.byte	0x18
 10665 2785 08       		.uleb128 0x8
 10666 2786 6E160000 		.4byte	.LASF528
 10667 278a 29       		.byte	0x29
 10668 278b 6E       		.byte	0x6e
 10669 278c 14150000 		.4byte	0x1514
 10670 2790 1C       		.byte	0x1c
 10671 2791 00       		.byte	0
 10672 2792 05       		.uleb128 0x5
 10673 2793 25270000 		.4byte	0x2725
 10674 2797 0B       		.uleb128 0xb
 10675 2798 04       		.byte	0x4
 10676 2799 92270000 		.4byte	0x2792
 10677 279d 13       		.uleb128 0x13
 10678 279e C3000000 		.4byte	0xc3
ARM GAS  C:\Users\osour\AppData\Local\Temp\ccsBkKuy.s 			page 194


 10679 27a2 AD270000 		.4byte	0x27ad
 10680 27a6 14       		.uleb128 0x14
 10681 27a7 B1000000 		.4byte	0xb1
 10682 27ab 0F       		.byte	0xf
 10683 27ac 00       		.byte	0
 10684 27ad 0B       		.uleb128 0xb
 10685 27ae 04       		.byte	0x4
 10686 27af 680D0000 		.4byte	0xd68
 10687 27b3 21       		.uleb128 0x21
 10688 27b4 07       		.byte	0x7
 10689 27b5 01       		.byte	0x1
 10690 27b6 42000000 		.4byte	0x42
 10691 27ba 2B       		.byte	0x2b
 10692 27bb 6C       		.byte	0x6c
 10693 27bc D3270000 		.4byte	0x27d3
 10694 27c0 22       		.uleb128 0x22
 10695 27c1 00040000 		.4byte	.LASF529
 10696 27c5 00       		.byte	0
 10697 27c6 22       		.uleb128 0x22
 10698 27c7 63180000 		.4byte	.LASF530
 10699 27cb 01       		.byte	0x1
 10700 27cc 22       		.uleb128 0x22
 10701 27cd E6150000 		.4byte	.LASF531
 10702 27d1 02       		.byte	0x2
 10703 27d2 00       		.byte	0
 10704 27d3 02       		.uleb128 0x2
 10705 27d4 EE1E0000 		.4byte	.LASF532
 10706 27d8 2B       		.byte	0x2b
 10707 27d9 70       		.byte	0x70
 10708 27da B3270000 		.4byte	0x27b3
 10709 27de 02       		.uleb128 0x2
 10710 27df F01D0000 		.4byte	.LASF533
 10711 27e3 2C       		.byte	0x2c
 10712 27e4 BF       		.byte	0xbf
 10713 27e5 F9000000 		.4byte	0xf9
 10714 27e9 02       		.uleb128 0x2
 10715 27ea 001B0000 		.4byte	.LASF534
 10716 27ee 2C       		.byte	0x2c
 10717 27ef C4       		.byte	0xc4
 10718 27f0 F9000000 		.4byte	0xf9
 10719 27f4 02       		.uleb128 0x2
 10720 27f5 A8250000 		.4byte	.LASF535
 10721 27f9 2C       		.byte	0x2c
 10722 27fa C9       		.byte	0xc9
 10723 27fb FF270000 		.4byte	0x27ff
 10724 27ff 07       		.uleb128 0x7
 10725 2800 A8250000 		.4byte	.LASF535
 10726 2804 4C       		.byte	0x4c
 10727 2805 2C       		.byte	0x2c
 10728 2806 F2       		.byte	0xf2
 10729 2807 AE280000 		.4byte	0x28ae
 10730 280b 18       		.uleb128 0x18
 10731 280c 766D7400 		.ascii	"vmt\000"
 10732 2810 2C       		.byte	0x2c
 10733 2811 F6       		.byte	0xf6
 10734 2812 51290000 		.4byte	0x2951
 10735 2816 00       		.byte	0
ARM GAS  C:\Users\osour\AppData\Local\Temp\ccsBkKuy.s 			page 195


 10736 2817 08       		.uleb128 0x8
 10737 2818 31190000 		.4byte	.LASF340
 10738 281c 2C       		.byte	0x2c
 10739 281d F7       		.byte	0xf7
 10740 281e 5E150000 		.4byte	0x155e
 10741 2822 04       		.byte	0x4
 10742 2823 18       		.uleb128 0x18
 10743 2824 63696400 		.ascii	"cid\000"
 10744 2828 2C       		.byte	0x2c
 10745 2829 F7       		.byte	0xf7
 10746 282a 19160000 		.4byte	0x1619
 10747 282e 08       		.byte	0x8
 10748 282f 18       		.uleb128 0x18
 10749 2830 63736400 		.ascii	"csd\000"
 10750 2834 2C       		.byte	0x2c
 10751 2835 F7       		.byte	0xf7
 10752 2836 19160000 		.4byte	0x1619
 10753 283a 18       		.byte	0x18
 10754 283b 08       		.uleb128 0x8
 10755 283c 13210000 		.4byte	.LASF536
 10756 2840 2C       		.byte	0x2c
 10757 2841 F7       		.byte	0xf7
 10758 2842 F9000000 		.4byte	0xf9
 10759 2846 28       		.byte	0x28
 10760 2847 08       		.uleb128 0x8
 10761 2848 FB1F0000 		.4byte	.LASF341
 10762 284c 2C       		.byte	0x2c
 10763 284d FB       		.byte	0xfb
 10764 284e 57290000 		.4byte	0x2957
 10765 2852 2C       		.byte	0x2c
 10766 2853 08       		.uleb128 0x8
 10767 2854 0E180000 		.4byte	.LASF537
 10768 2858 2C       		.byte	0x2c
 10769 2859 FF       		.byte	0xff
 10770 285a DE270000 		.4byte	0x27de
 10771 285e 30       		.byte	0x30
 10772 285f 0A       		.uleb128 0xa
 10773 2860 F7010000 		.4byte	.LASF473
 10774 2864 2C       		.byte	0x2c
 10775 2865 0301     		.2byte	0x103
 10776 2867 E9270000 		.4byte	0x27e9
 10777 286b 34       		.byte	0x34
 10778 286c 09       		.uleb128 0x9
 10779 286d 72636100 		.ascii	"rca\000"
 10780 2871 2C       		.byte	0x2c
 10781 2872 0701     		.2byte	0x107
 10782 2874 F9000000 		.4byte	0xf9
 10783 2878 38       		.byte	0x38
 10784 2879 0A       		.uleb128 0xa
 10785 287a F8070000 		.4byte	.LASF345
 10786 287e 2C       		.byte	0x2c
 10787 287f 0C01     		.2byte	0x10c
 10788 2881 E8020000 		.4byte	0x2e8
 10789 2885 3C       		.byte	0x3c
 10790 2886 0A       		.uleb128 0xa
 10791 2887 471B0000 		.4byte	.LASF348
 10792 288b 2C       		.byte	0x2c
ARM GAS  C:\Users\osour\AppData\Local\Temp\ccsBkKuy.s 			page 196


 10793 288c 1001     		.2byte	0x110
 10794 288e F9000000 		.4byte	0xf9
 10795 2892 40       		.byte	0x40
 10796 2893 09       		.uleb128 0x9
 10797 2894 646D6100 		.ascii	"dma\000"
 10798 2898 2C       		.byte	0x2c
 10799 2899 1401     		.2byte	0x114
 10800 289b 5E1A0000 		.4byte	0x1a5e
 10801 289f 44       		.byte	0x44
 10802 28a0 0A       		.uleb128 0xa
 10803 28a1 55190000 		.4byte	.LASF538
 10804 28a5 2C       		.byte	0x2c
 10805 28a6 1901     		.2byte	0x119
 10806 28a8 5D290000 		.4byte	0x295d
 10807 28ac 48       		.byte	0x48
 10808 28ad 00       		.byte	0
 10809 28ae 17       		.uleb128 0x17
 10810 28af 08       		.byte	0x8
 10811 28b0 2C       		.byte	0x2c
 10812 28b1 CF       		.byte	0xcf
 10813 28b2 CF280000 		.4byte	0x28cf
 10814 28b6 08       		.uleb128 0x8
 10815 28b7 930F0000 		.4byte	.LASF539
 10816 28bb 2C       		.byte	0x2c
 10817 28bc D8       		.byte	0xd8
 10818 28bd 88130000 		.4byte	0x1388
 10819 28c1 00       		.byte	0
 10820 28c2 08       		.uleb128 0x8
 10821 28c3 5F270000 		.4byte	.LASF540
 10822 28c7 2C       		.byte	0x2c
 10823 28c8 DC       		.byte	0xdc
 10824 28c9 D3270000 		.4byte	0x27d3
 10825 28cd 04       		.byte	0x4
 10826 28ce 00       		.byte	0
 10827 28cf 02       		.uleb128 0x2
 10828 28d0 CE180000 		.4byte	.LASF541
 10829 28d4 2C       		.byte	0x2c
 10830 28d5 DE       		.byte	0xde
 10831 28d6 AE280000 		.4byte	0x28ae
 10832 28da 05       		.uleb128 0x5
 10833 28db CF280000 		.4byte	0x28cf
 10834 28df 07       		.uleb128 0x7
 10835 28e0 80270000 		.4byte	.LASF542
 10836 28e4 20       		.byte	0x20
 10837 28e5 2C       		.byte	0x2c
 10838 28e6 EB       		.byte	0xeb
 10839 28e7 4C290000 		.4byte	0x294c
 10840 28eb 08       		.uleb128 0x8
 10841 28ec 3D2A0000 		.4byte	.LASF543
 10842 28f0 2C       		.byte	0x2c
 10843 28f1 EC       		.byte	0xec
 10844 28f2 AB150000 		.4byte	0x15ab
 10845 28f6 00       		.byte	0
 10846 28f7 08       		.uleb128 0x8
 10847 28f8 C00D0000 		.4byte	.LASF544
 10848 28fc 2C       		.byte	0x2c
 10849 28fd EC       		.byte	0xec
ARM GAS  C:\Users\osour\AppData\Local\Temp\ccsBkKuy.s 			page 197


 10850 28fe AB150000 		.4byte	0x15ab
 10851 2902 04       		.byte	0x4
 10852 2903 08       		.uleb128 0x8
 10853 2904 E0100000 		.4byte	.LASF545
 10854 2908 2C       		.byte	0x2c
 10855 2909 EC       		.byte	0xec
 10856 290a AB150000 		.4byte	0x15ab
 10857 290e 08       		.byte	0x8
 10858 290f 08       		.uleb128 0x8
 10859 2910 26170000 		.4byte	.LASF546
 10860 2914 2C       		.byte	0x2c
 10861 2915 EC       		.byte	0xec
 10862 2916 AB150000 		.4byte	0x15ab
 10863 291a 0C       		.byte	0xc
 10864 291b 08       		.uleb128 0x8
 10865 291c B7050000 		.4byte	.LASF524
 10866 2920 2C       		.byte	0x2c
 10867 2921 EC       		.byte	0xec
 10868 2922 CF150000 		.4byte	0x15cf
 10869 2926 10       		.byte	0x10
 10870 2927 08       		.uleb128 0x8
 10871 2928 8A1B0000 		.4byte	.LASF523
 10872 292c 2C       		.byte	0x2c
 10873 292d EC       		.byte	0xec
 10874 292e F3150000 		.4byte	0x15f3
 10875 2932 14       		.byte	0x14
 10876 2933 08       		.uleb128 0x8
 10877 2934 DD1D0000 		.4byte	.LASF547
 10878 2938 2C       		.byte	0x2c
 10879 2939 EC       		.byte	0xec
 10880 293a AB150000 		.4byte	0x15ab
 10881 293e 18       		.byte	0x18
 10882 293f 08       		.uleb128 0x8
 10883 2940 0D270000 		.4byte	.LASF548
 10884 2944 2C       		.byte	0x2c
 10885 2945 EC       		.byte	0xec
 10886 2946 13160000 		.4byte	0x1613
 10887 294a 1C       		.byte	0x1c
 10888 294b 00       		.byte	0
 10889 294c 05       		.uleb128 0x5
 10890 294d DF280000 		.4byte	0x28df
 10891 2951 0B       		.uleb128 0xb
 10892 2952 04       		.byte	0x4
 10893 2953 4C290000 		.4byte	0x294c
 10894 2957 0B       		.uleb128 0xb
 10895 2958 04       		.byte	0x4
 10896 2959 DA280000 		.4byte	0x28da
 10897 295d 0B       		.uleb128 0xb
 10898 295e 04       		.byte	0x4
 10899 295f 700C0000 		.4byte	0xc70
 10900 2963 15       		.uleb128 0x15
 10901 2964 4F0B0000 		.4byte	.LASF549
 10902 2968 2C       		.byte	0x2c
 10903 2969 2501     		.2byte	0x125
 10904 296b F4270000 		.4byte	0x27f4
 10905 296f 21       		.uleb128 0x21
 10906 2970 07       		.byte	0x7
ARM GAS  C:\Users\osour\AppData\Local\Temp\ccsBkKuy.s 			page 198


 10907 2971 01       		.byte	0x1
 10908 2972 42000000 		.4byte	0x42
 10909 2976 2D       		.byte	0x2d
 10910 2977 46       		.byte	0x46
 10911 2978 9B290000 		.4byte	0x299b
 10912 297c 22       		.uleb128 0x22
 10913 297d 0E080000 		.4byte	.LASF550
 10914 2981 00       		.byte	0
 10915 2982 22       		.uleb128 0x22
 10916 2983 9D030000 		.4byte	.LASF551
 10917 2987 01       		.byte	0x1
 10918 2988 22       		.uleb128 0x22
 10919 2989 48270000 		.4byte	.LASF552
 10920 298d 02       		.byte	0x2
 10921 298e 22       		.uleb128 0x22
 10922 298f 12100000 		.4byte	.LASF553
 10923 2993 03       		.byte	0x3
 10924 2994 22       		.uleb128 0x22
 10925 2995 B9160000 		.4byte	.LASF554
 10926 2999 04       		.byte	0x4
 10927 299a 00       		.byte	0
 10928 299b 02       		.uleb128 0x2
 10929 299c C60F0000 		.4byte	.LASF555
 10930 29a0 2D       		.byte	0x2d
 10931 29a1 4C       		.byte	0x4c
 10932 29a2 6F290000 		.4byte	0x296f
 10933 29a6 1A       		.uleb128 0x1a
 10934 29a7 2F250000 		.4byte	.LASF556
 10935 29ab 2E       		.byte	0x2e
 10936 29ac 9601     		.2byte	0x196
 10937 29ae B2290000 		.4byte	0x29b2
 10938 29b2 0C       		.uleb128 0xc
 10939 29b3 2F250000 		.4byte	.LASF556
 10940 29b7 34       		.byte	0x34
 10941 29b8 2E       		.byte	0x2e
 10942 29b9 BA01     		.2byte	0x1ba
 10943 29bb 352A0000 		.4byte	0x2a35
 10944 29bf 0A       		.uleb128 0xa
 10945 29c0 31190000 		.4byte	.LASF340
 10946 29c4 2E       		.byte	0x2e
 10947 29c5 BE01     		.2byte	0x1be
 10948 29c7 9B290000 		.4byte	0x299b
 10949 29cb 00       		.byte	0
 10950 29cc 0A       		.uleb128 0xa
 10951 29cd FB1F0000 		.4byte	.LASF341
 10952 29d1 2E       		.byte	0x2e
 10953 29d2 C201     		.2byte	0x1c2
 10954 29d4 A72A0000 		.4byte	0x2aa7
 10955 29d8 04       		.byte	0x4
 10956 29d9 0A       		.uleb128 0xa
 10957 29da F8070000 		.4byte	.LASF345
 10958 29de 2E       		.byte	0x2e
 10959 29df C701     		.2byte	0x1c7
 10960 29e1 E8020000 		.4byte	0x2e8
 10961 29e5 08       		.byte	0x8
 10962 29e6 0A       		.uleb128 0xa
 10963 29e7 3C0E0000 		.4byte	.LASF346
ARM GAS  C:\Users\osour\AppData\Local\Temp\ccsBkKuy.s 			page 199


 10964 29eb 2E       		.byte	0x2e
 10965 29ec CD01     		.2byte	0x1cd
 10966 29ee 5F120000 		.4byte	0x125f
 10967 29f2 0C       		.byte	0xc
 10968 29f3 09       		.uleb128 0x9
 10969 29f4 73706900 		.ascii	"spi\000"
 10970 29f8 2E       		.byte	0x2e
 10971 29f9 D601     		.2byte	0x1d6
 10972 29fb 96240000 		.4byte	0x2496
 10973 29ff 20       		.byte	0x20
 10974 2a00 0A       		.uleb128 0xa
 10975 2a01 6E010000 		.4byte	.LASF477
 10976 2a05 2E       		.byte	0x2e
 10977 2a06 DA01     		.2byte	0x1da
 10978 2a08 5E1A0000 		.4byte	0x1a5e
 10979 2a0c 24       		.byte	0x24
 10980 2a0d 0A       		.uleb128 0xa
 10981 2a0e B0020000 		.4byte	.LASF478
 10982 2a12 2E       		.byte	0x2e
 10983 2a13 DE01     		.2byte	0x1de
 10984 2a15 5E1A0000 		.4byte	0x1a5e
 10985 2a19 28       		.byte	0x28
 10986 2a1a 0A       		.uleb128 0xa
 10987 2a1b 88090000 		.4byte	.LASF475
 10988 2a1f 2E       		.byte	0x2e
 10989 2a20 E201     		.2byte	0x1e2
 10990 2a22 F9000000 		.4byte	0xf9
 10991 2a26 2C       		.byte	0x2c
 10992 2a27 0A       		.uleb128 0xa
 10993 2a28 E2090000 		.4byte	.LASF476
 10994 2a2c 2E       		.byte	0x2e
 10995 2a2d E601     		.2byte	0x1e6
 10996 2a2f F9000000 		.4byte	0xf9
 10997 2a33 30       		.byte	0x30
 10998 2a34 00       		.byte	0
 10999 2a35 1A       		.uleb128 0x1a
 11000 2a36 97180000 		.4byte	.LASF557
 11001 2a3a 2E       		.byte	0x2e
 11002 2a3b 9E01     		.2byte	0x19e
 11003 2a3d 412A0000 		.4byte	0x2a41
 11004 2a41 0B       		.uleb128 0xb
 11005 2a42 04       		.byte	0x4
 11006 2a43 472A0000 		.4byte	0x2a47
 11007 2a47 0D       		.uleb128 0xd
 11008 2a48 522A0000 		.4byte	0x2a52
 11009 2a4c 0E       		.uleb128 0xe
 11010 2a4d 522A0000 		.4byte	0x2a52
 11011 2a51 00       		.byte	0
 11012 2a52 0B       		.uleb128 0xb
 11013 2a53 04       		.byte	0x4
 11014 2a54 A6290000 		.4byte	0x29a6
 11015 2a58 19       		.uleb128 0x19
 11016 2a59 0C       		.byte	0xc
 11017 2a5a 2E       		.byte	0x2e
 11018 2a5b A301     		.2byte	0x1a3
 11019 2a5d 962A0000 		.4byte	0x2a96
 11020 2a61 0A       		.uleb128 0xa
ARM GAS  C:\Users\osour\AppData\Local\Temp\ccsBkKuy.s 			page 200


 11021 2a62 730A0000 		.4byte	.LASF353
 11022 2a66 2E       		.byte	0x2e
 11023 2a67 A701     		.2byte	0x1a7
 11024 2a69 352A0000 		.4byte	0x2a35
 11025 2a6d 00       		.byte	0
 11026 2a6e 0A       		.uleb128 0xa
 11027 2a6f 17280000 		.4byte	.LASF558
 11028 2a73 2E       		.byte	0x2e
 11029 2a74 AC01     		.2byte	0x1ac
 11030 2a76 EF170000 		.4byte	0x17ef
 11031 2a7a 04       		.byte	0x4
 11032 2a7b 0A       		.uleb128 0xa
 11033 2a7c DC090000 		.4byte	.LASF559
 11034 2a80 2E       		.byte	0x2e
 11035 2a81 B001     		.2byte	0x1b0
 11036 2a83 DE000000 		.4byte	0xde
 11037 2a87 08       		.byte	0x8
 11038 2a88 09       		.uleb128 0x9
 11039 2a89 63723100 		.ascii	"cr1\000"
 11040 2a8d 2E       		.byte	0x2e
 11041 2a8e B401     		.2byte	0x1b4
 11042 2a90 DE000000 		.4byte	0xde
 11043 2a94 0A       		.byte	0xa
 11044 2a95 00       		.byte	0
 11045 2a96 1A       		.uleb128 0x1a
 11046 2a97 3F250000 		.4byte	.LASF560
 11047 2a9b 2E       		.byte	0x2e
 11048 2a9c B501     		.2byte	0x1b5
 11049 2a9e 582A0000 		.4byte	0x2a58
 11050 2aa2 05       		.uleb128 0x5
 11051 2aa3 962A0000 		.4byte	0x2a96
 11052 2aa7 0B       		.uleb128 0xb
 11053 2aa8 04       		.byte	0x4
 11054 2aa9 A22A0000 		.4byte	0x2aa2
 11055 2aad 15       		.uleb128 0x15
 11056 2aae 601B0000 		.4byte	.LASF561
 11057 2ab2 2E       		.byte	0x2e
 11058 2ab3 F201     		.2byte	0x1f2
 11059 2ab5 A6290000 		.4byte	0x29a6
 11060 2ab9 02       		.uleb128 0x2
 11061 2aba A2140000 		.4byte	.LASF562
 11062 2abe 2F       		.byte	0x2f
 11063 2abf FA       		.byte	0xfa
 11064 2ac0 C42A0000 		.4byte	0x2ac4
 11065 2ac4 10       		.uleb128 0x10
 11066 2ac5 A2140000 		.4byte	.LASF562
 11067 2ac9 6002     		.2byte	0x260
 11068 2acb 30       		.byte	0x30
 11069 2acc 7701     		.2byte	0x177
 11070 2ace F02B0000 		.4byte	0x2bf0
 11071 2ad2 0A       		.uleb128 0xa
 11072 2ad3 31190000 		.4byte	.LASF340
 11073 2ad7 30       		.byte	0x30
 11074 2ad8 7B01     		.2byte	0x17b
 11075 2ada 282C0000 		.4byte	0x2c28
 11076 2ade 00       		.byte	0
 11077 2adf 0A       		.uleb128 0xa
ARM GAS  C:\Users\osour\AppData\Local\Temp\ccsBkKuy.s 			page 201


 11078 2ae0 FB1F0000 		.4byte	.LASF341
 11079 2ae4 30       		.byte	0x30
 11080 2ae5 7F01     		.2byte	0x17f
 11081 2ae7 4B350000 		.4byte	0x354b
 11082 2aeb 04       		.byte	0x4
 11083 2aec 0A       		.uleb128 0xa
 11084 2aed 80250000 		.4byte	.LASF563
 11085 2af1 30       		.byte	0x30
 11086 2af2 8301     		.2byte	0x183
 11087 2af4 DE000000 		.4byte	0xde
 11088 2af8 08       		.byte	0x8
 11089 2af9 0A       		.uleb128 0xa
 11090 2afa 52280000 		.4byte	.LASF564
 11091 2afe 30       		.byte	0x30
 11092 2aff 8701     		.2byte	0x187
 11093 2b01 DE000000 		.4byte	0xde
 11094 2b05 0A       		.byte	0xa
 11095 2b06 09       		.uleb128 0x9
 11096 2b07 65706300 		.ascii	"epc\000"
 11097 2b0b 30       		.byte	0x30
 11098 2b0c 8B01     		.2byte	0x18b
 11099 2b0e 51350000 		.4byte	0x3551
 11100 2b12 0C       		.byte	0xc
 11101 2b13 0A       		.uleb128 0xa
 11102 2b14 44080000 		.4byte	.LASF565
 11103 2b18 30       		.byte	0x30
 11104 2b19 9201     		.2byte	0x192
 11105 2b1b 67350000 		.4byte	0x3567
 11106 2b1f 1C       		.byte	0x1c
 11107 2b20 0A       		.uleb128 0xa
 11108 2b21 910D0000 		.4byte	.LASF566
 11109 2b25 30       		.byte	0x30
 11110 2b26 9901     		.2byte	0x199
 11111 2b28 67350000 		.4byte	0x3567
 11112 2b2c 28       		.byte	0x28
 11113 2b2d 0A       		.uleb128 0xa
 11114 2b2e BB120000 		.4byte	.LASF567
 11115 2b32 30       		.byte	0x30
 11116 2b33 9D01     		.2byte	0x19d
 11117 2b35 6D2C0000 		.4byte	0x2c6d
 11118 2b39 34       		.byte	0x34
 11119 2b3a 0A       		.uleb128 0xa
 11120 2b3b 791F0000 		.4byte	.LASF568
 11121 2b3f 30       		.byte	0x30
 11122 2b40 A101     		.2byte	0x1a1
 11123 2b42 88130000 		.4byte	0x1388
 11124 2b46 38       		.byte	0x38
 11125 2b47 0A       		.uleb128 0xa
 11126 2b48 D51A0000 		.4byte	.LASF569
 11127 2b4c 30       		.byte	0x30
 11128 2b4d A501     		.2byte	0x1a5
 11129 2b4f 19010000 		.4byte	0x119
 11130 2b53 3C       		.byte	0x3c
 11131 2b54 0A       		.uleb128 0xa
 11132 2b55 9F220000 		.4byte	.LASF570
 11133 2b59 30       		.byte	0x30
 11134 2b5a A901     		.2byte	0x1a9
ARM GAS  C:\Users\osour\AppData\Local\Temp\ccsBkKuy.s 			page 202


 11135 2b5c ED2C0000 		.4byte	0x2ced
 11136 2b60 40       		.byte	0x40
 11137 2b61 0A       		.uleb128 0xa
 11138 2b62 08080000 		.4byte	.LASF571
 11139 2b66 30       		.byte	0x30
 11140 2b67 AD01     		.2byte	0x1ad
 11141 2b69 BF1A0000 		.4byte	0x1abf
 11142 2b6d 44       		.byte	0x44
 11143 2b6e 0A       		.uleb128 0xa
 11144 2b6f 4B180000 		.4byte	.LASF572
 11145 2b73 30       		.byte	0x30
 11146 2b74 B101     		.2byte	0x1b1
 11147 2b76 DE000000 		.4byte	0xde
 11148 2b7a 4C       		.byte	0x4c
 11149 2b7b 0A       		.uleb128 0xa
 11150 2b7c AF180000 		.4byte	.LASF573
 11151 2b80 30       		.byte	0x30
 11152 2b81 B501     		.2byte	0x1b5
 11153 2b83 C3000000 		.4byte	0xc3
 11154 2b87 4E       		.byte	0x4e
 11155 2b88 0A       		.uleb128 0xa
 11156 2b89 521E0000 		.4byte	.LASF574
 11157 2b8d 30       		.byte	0x30
 11158 2b8e B901     		.2byte	0x1b9
 11159 2b90 C3000000 		.4byte	0xc3
 11160 2b94 4F       		.byte	0x4f
 11161 2b95 09       		.uleb128 0x9
 11162 2b96 6F746700 		.ascii	"otg\000"
 11163 2b9a 30       		.byte	0x30
 11164 2b9b C101     		.2byte	0x1c1
 11165 2b9d 77350000 		.4byte	0x3577
 11166 2ba1 50       		.byte	0x50
 11167 2ba2 0A       		.uleb128 0xa
 11168 2ba3 620F0000 		.4byte	.LASF575
 11169 2ba7 30       		.byte	0x30
 11170 2ba8 C501     		.2byte	0x1c5
 11171 2baa 7D350000 		.4byte	0x357d
 11172 2bae 54       		.byte	0x54
 11173 2baf 0A       		.uleb128 0xa
 11174 2bb0 711C0000 		.4byte	.LASF576
 11175 2bb4 30       		.byte	0x30
 11176 2bb5 C901     		.2byte	0x1c9
 11177 2bb7 F9000000 		.4byte	0xf9
 11178 2bbb 58       		.byte	0x58
 11179 2bbc 0A       		.uleb128 0xa
 11180 2bbd 5B0E0000 		.4byte	.LASF577
 11181 2bc1 30       		.byte	0x30
 11182 2bc2 CD01     		.2byte	0x1cd
 11183 2bc4 F9000000 		.4byte	0xf9
 11184 2bc8 5C       		.byte	0x5c
 11185 2bc9 0A       		.uleb128 0xa
 11186 2bca 39090000 		.4byte	.LASF578
 11187 2bce 30       		.byte	0x30
 11188 2bcf D101     		.2byte	0x1d1
 11189 2bd1 E8020000 		.4byte	0x2e8
 11190 2bd5 60       		.byte	0x60
 11191 2bd6 09       		.uleb128 0x9
ARM GAS  C:\Users\osour\AppData\Local\Temp\ccsBkKuy.s 			page 203


 11192 2bd7 747200   		.ascii	"tr\000"
 11193 2bda 30       		.byte	0x30
 11194 2bdb D601     		.2byte	0x1d6
 11195 2bdd E8020000 		.4byte	0x2e8
 11196 2be1 64       		.byte	0x64
 11197 2be2 0A       		.uleb128 0xa
 11198 2be3 60170000 		.4byte	.LASF579
 11199 2be7 30       		.byte	0x30
 11200 2be8 DA01     		.2byte	0x1da
 11201 2bea 83350000 		.4byte	0x3583
 11202 2bee 68       		.byte	0x68
 11203 2bef 00       		.byte	0
 11204 2bf0 02       		.uleb128 0x2
 11205 2bf1 FC0A0000 		.4byte	.LASF580
 11206 2bf5 2F       		.byte	0x2f
 11207 2bf6 FF       		.byte	0xff
 11208 2bf7 C3000000 		.4byte	0xc3
 11209 2bfb 24       		.uleb128 0x24
 11210 2bfc 07       		.byte	0x7
 11211 2bfd 01       		.byte	0x1
 11212 2bfe 42000000 		.4byte	0x42
 11213 2c02 2F       		.byte	0x2f
 11214 2c03 0401     		.2byte	0x104
 11215 2c05 282C0000 		.4byte	0x2c28
 11216 2c09 22       		.uleb128 0x22
 11217 2c0a 25290000 		.4byte	.LASF581
 11218 2c0e 00       		.byte	0
 11219 2c0f 22       		.uleb128 0x22
 11220 2c10 00000000 		.4byte	.LASF582
 11221 2c14 01       		.byte	0x1
 11222 2c15 22       		.uleb128 0x22
 11223 2c16 64160000 		.4byte	.LASF583
 11224 2c1a 02       		.byte	0x2
 11225 2c1b 22       		.uleb128 0x22
 11226 2c1c 411C0000 		.4byte	.LASF584
 11227 2c20 03       		.byte	0x3
 11228 2c21 22       		.uleb128 0x22
 11229 2c22 51090000 		.4byte	.LASF585
 11230 2c26 04       		.byte	0x4
 11231 2c27 00       		.byte	0
 11232 2c28 1A       		.uleb128 0x1a
 11233 2c29 782A0000 		.4byte	.LASF586
 11234 2c2d 2F       		.byte	0x2f
 11235 2c2e 0A01     		.2byte	0x10a
 11236 2c30 FB2B0000 		.4byte	0x2bfb
 11237 2c34 24       		.uleb128 0x24
 11238 2c35 07       		.byte	0x7
 11239 2c36 01       		.byte	0x1
 11240 2c37 42000000 		.4byte	0x42
 11241 2c3b 2F       		.byte	0x2f
 11242 2c3c 1801     		.2byte	0x118
 11243 2c3e 6D2C0000 		.4byte	0x2c6d
 11244 2c42 22       		.uleb128 0x22
 11245 2c43 6A220000 		.4byte	.LASF587
 11246 2c47 00       		.byte	0
 11247 2c48 22       		.uleb128 0x22
 11248 2c49 B0120000 		.4byte	.LASF588
ARM GAS  C:\Users\osour\AppData\Local\Temp\ccsBkKuy.s 			page 204


 11249 2c4d 01       		.byte	0x1
 11250 2c4e 22       		.uleb128 0x22
 11251 2c4f 651F0000 		.4byte	.LASF589
 11252 2c53 02       		.byte	0x2
 11253 2c54 22       		.uleb128 0x22
 11254 2c55 78190000 		.4byte	.LASF590
 11255 2c59 03       		.byte	0x3
 11256 2c5a 22       		.uleb128 0x22
 11257 2c5b 36180000 		.4byte	.LASF591
 11258 2c5f 04       		.byte	0x4
 11259 2c60 22       		.uleb128 0x22
 11260 2c61 DD130000 		.4byte	.LASF592
 11261 2c65 05       		.byte	0x5
 11262 2c66 22       		.uleb128 0x22
 11263 2c67 CB100000 		.4byte	.LASF593
 11264 2c6b 06       		.byte	0x6
 11265 2c6c 00       		.byte	0
 11266 2c6d 1A       		.uleb128 0x1a
 11267 2c6e 47140000 		.4byte	.LASF594
 11268 2c72 2F       		.byte	0x2f
 11269 2c73 2001     		.2byte	0x120
 11270 2c75 342C0000 		.4byte	0x2c34
 11271 2c79 24       		.uleb128 0x24
 11272 2c7a 07       		.byte	0x7
 11273 2c7b 01       		.byte	0x1
 11274 2c7c 42000000 		.4byte	0x42
 11275 2c80 2F       		.byte	0x2f
 11276 2c81 2501     		.2byte	0x125
 11277 2c83 AC2C0000 		.4byte	0x2cac
 11278 2c87 22       		.uleb128 0x22
 11279 2c88 BA210000 		.4byte	.LASF595
 11280 2c8c 00       		.byte	0
 11281 2c8d 22       		.uleb128 0x22
 11282 2c8e CB1C0000 		.4byte	.LASF596
 11283 2c92 01       		.byte	0x1
 11284 2c93 22       		.uleb128 0x22
 11285 2c94 11170000 		.4byte	.LASF597
 11286 2c98 02       		.byte	0x2
 11287 2c99 22       		.uleb128 0x22
 11288 2c9a AC170000 		.4byte	.LASF598
 11289 2c9e 03       		.byte	0x3
 11290 2c9f 22       		.uleb128 0x22
 11291 2ca0 9B270000 		.4byte	.LASF599
 11292 2ca4 04       		.byte	0x4
 11293 2ca5 22       		.uleb128 0x22
 11294 2ca6 D5160000 		.4byte	.LASF600
 11295 2caa 05       		.byte	0x5
 11296 2cab 00       		.byte	0
 11297 2cac 1A       		.uleb128 0x1a
 11298 2cad FA1C0000 		.4byte	.LASF601
 11299 2cb1 2F       		.byte	0x2f
 11300 2cb2 2C01     		.2byte	0x12c
 11301 2cb4 792C0000 		.4byte	0x2c79
 11302 2cb8 19       		.uleb128 0x19
 11303 2cb9 08       		.byte	0x8
 11304 2cba 2F       		.byte	0x2f
 11305 2cbb 3101     		.2byte	0x131
ARM GAS  C:\Users\osour\AppData\Local\Temp\ccsBkKuy.s 			page 205


 11306 2cbd DC2C0000 		.4byte	0x2cdc
 11307 2cc1 0A       		.uleb128 0xa
 11308 2cc2 EC290000 		.4byte	.LASF602
 11309 2cc6 2F       		.byte	0x2f
 11310 2cc7 3501     		.2byte	0x135
 11311 2cc9 19010000 		.4byte	0x119
 11312 2ccd 00       		.byte	0
 11313 2cce 0A       		.uleb128 0xa
 11314 2ccf 95050000 		.4byte	.LASF603
 11315 2cd3 2F       		.byte	0x2f
 11316 2cd4 3901     		.2byte	0x139
 11317 2cd6 BD130000 		.4byte	0x13bd
 11318 2cda 04       		.byte	0x4
 11319 2cdb 00       		.byte	0
 11320 2cdc 1A       		.uleb128 0x1a
 11321 2cdd 71180000 		.4byte	.LASF604
 11322 2ce1 2F       		.byte	0x2f
 11323 2ce2 3A01     		.2byte	0x13a
 11324 2ce4 B82C0000 		.4byte	0x2cb8
 11325 2ce8 05       		.uleb128 0x5
 11326 2ce9 DC2C0000 		.4byte	0x2cdc
 11327 2ced 1A       		.uleb128 0x1a
 11328 2cee 75290000 		.4byte	.LASF605
 11329 2cf2 2F       		.byte	0x2f
 11330 2cf3 4201     		.2byte	0x142
 11331 2cf5 F92C0000 		.4byte	0x2cf9
 11332 2cf9 0B       		.uleb128 0xb
 11333 2cfa 04       		.byte	0x4
 11334 2cfb FF2C0000 		.4byte	0x2cff
 11335 2cff 0D       		.uleb128 0xd
 11336 2d00 0A2D0000 		.4byte	0x2d0a
 11337 2d04 0E       		.uleb128 0xe
 11338 2d05 0A2D0000 		.4byte	0x2d0a
 11339 2d09 00       		.byte	0
 11340 2d0a 0B       		.uleb128 0xb
 11341 2d0b 04       		.byte	0x4
 11342 2d0c B92A0000 		.4byte	0x2ab9
 11343 2d10 1A       		.uleb128 0x1a
 11344 2d11 E6050000 		.4byte	.LASF606
 11345 2d15 2F       		.byte	0x2f
 11346 2d16 4B01     		.2byte	0x14b
 11347 2d18 1C2D0000 		.4byte	0x2d1c
 11348 2d1c 0B       		.uleb128 0xb
 11349 2d1d 04       		.byte	0x4
 11350 2d1e 222D0000 		.4byte	0x2d22
 11351 2d22 0D       		.uleb128 0xd
 11352 2d23 322D0000 		.4byte	0x2d32
 11353 2d27 0E       		.uleb128 0xe
 11354 2d28 0A2D0000 		.4byte	0x2d0a
 11355 2d2c 0E       		.uleb128 0xe
 11356 2d2d F02B0000 		.4byte	0x2bf0
 11357 2d31 00       		.byte	0
 11358 2d32 1A       		.uleb128 0x1a
 11359 2d33 4F0C0000 		.4byte	.LASF607
 11360 2d37 2F       		.byte	0x2f
 11361 2d38 5401     		.2byte	0x154
 11362 2d3a 3E2D0000 		.4byte	0x2d3e
ARM GAS  C:\Users\osour\AppData\Local\Temp\ccsBkKuy.s 			page 206


 11363 2d3e 0B       		.uleb128 0xb
 11364 2d3f 04       		.byte	0x4
 11365 2d40 442D0000 		.4byte	0x2d44
 11366 2d44 0D       		.uleb128 0xd
 11367 2d45 542D0000 		.4byte	0x2d54
 11368 2d49 0E       		.uleb128 0xe
 11369 2d4a 0A2D0000 		.4byte	0x2d0a
 11370 2d4e 0E       		.uleb128 0xe
 11371 2d4f AC2C0000 		.4byte	0x2cac
 11372 2d53 00       		.byte	0
 11373 2d54 1A       		.uleb128 0x1a
 11374 2d55 50070000 		.4byte	.LASF608
 11375 2d59 2F       		.byte	0x2f
 11376 2d5a 6001     		.2byte	0x160
 11377 2d5c 602D0000 		.4byte	0x2d60
 11378 2d60 0B       		.uleb128 0xb
 11379 2d61 04       		.byte	0x4
 11380 2d62 662D0000 		.4byte	0x2d66
 11381 2d66 20       		.uleb128 0x20
 11382 2d67 A4150000 		.4byte	0x15a4
 11383 2d6b 752D0000 		.4byte	0x2d75
 11384 2d6f 0E       		.uleb128 0xe
 11385 2d70 0A2D0000 		.4byte	0x2d0a
 11386 2d74 00       		.byte	0
 11387 2d75 1A       		.uleb128 0x1a
 11388 2d76 3B110000 		.4byte	.LASF609
 11389 2d7a 2F       		.byte	0x2f
 11390 2d7b 6501     		.2byte	0x165
 11391 2d7d 812D0000 		.4byte	0x2d81
 11392 2d81 0B       		.uleb128 0xb
 11393 2d82 04       		.byte	0x4
 11394 2d83 872D0000 		.4byte	0x2d87
 11395 2d87 20       		.uleb128 0x20
 11396 2d88 A52D0000 		.4byte	0x2da5
 11397 2d8c A52D0000 		.4byte	0x2da5
 11398 2d90 0E       		.uleb128 0xe
 11399 2d91 0A2D0000 		.4byte	0x2d0a
 11400 2d95 0E       		.uleb128 0xe
 11401 2d96 C3000000 		.4byte	0xc3
 11402 2d9a 0E       		.uleb128 0xe
 11403 2d9b C3000000 		.4byte	0xc3
 11404 2d9f 0E       		.uleb128 0xe
 11405 2da0 DE000000 		.4byte	0xde
 11406 2da4 00       		.byte	0
 11407 2da5 0B       		.uleb128 0xb
 11408 2da6 04       		.byte	0x4
 11409 2da7 E82C0000 		.4byte	0x2ce8
 11410 2dab 17       		.uleb128 0x17
 11411 2dac 20       		.byte	0x20
 11412 2dad 31       		.byte	0x31
 11413 2dae 35       		.byte	0x35
 11414 2daf 142E0000 		.4byte	0x2e14
 11415 2db3 08       		.uleb128 0x8
 11416 2db4 0E040000 		.4byte	.LASF610
 11417 2db8 31       		.byte	0x31
 11418 2db9 36       		.byte	0x36
 11419 2dba 04010000 		.4byte	0x104
ARM GAS  C:\Users\osour\AppData\Local\Temp\ccsBkKuy.s 			page 207


 11420 2dbe 00       		.byte	0
 11421 2dbf 08       		.uleb128 0x8
 11422 2dc0 A00E0000 		.4byte	.LASF611
 11423 2dc4 31       		.byte	0x31
 11424 2dc5 38       		.byte	0x38
 11425 2dc6 04010000 		.4byte	0x104
 11426 2dca 04       		.byte	0x4
 11427 2dcb 08       		.uleb128 0x8
 11428 2dcc 68030000 		.4byte	.LASF612
 11429 2dd0 31       		.byte	0x31
 11430 2dd1 39       		.byte	0x39
 11431 2dd2 04010000 		.4byte	0x104
 11432 2dd6 08       		.byte	0x8
 11433 2dd7 08       		.uleb128 0x8
 11434 2dd8 DF1F0000 		.4byte	.LASF613
 11435 2ddc 31       		.byte	0x31
 11436 2ddd 3A       		.byte	0x3a
 11437 2dde 04010000 		.4byte	0x104
 11438 2de2 0C       		.byte	0xc
 11439 2de3 08       		.uleb128 0x8
 11440 2de4 0A170000 		.4byte	.LASF614
 11441 2de8 31       		.byte	0x31
 11442 2de9 3C       		.byte	0x3c
 11443 2dea 04010000 		.4byte	0x104
 11444 2dee 10       		.byte	0x10
 11445 2def 08       		.uleb128 0x8
 11446 2df0 F10E0000 		.4byte	.LASF615
 11447 2df4 31       		.byte	0x31
 11448 2df5 3E       		.byte	0x3e
 11449 2df6 04010000 		.4byte	0x104
 11450 2dfa 14       		.byte	0x14
 11451 2dfb 08       		.uleb128 0x8
 11452 2dfc F90E0000 		.4byte	.LASF616
 11453 2e00 31       		.byte	0x31
 11454 2e01 3F       		.byte	0x3f
 11455 2e02 04010000 		.4byte	0x104
 11456 2e06 18       		.byte	0x18
 11457 2e07 08       		.uleb128 0x8
 11458 2e08 EC040000 		.4byte	.LASF617
 11459 2e0c 31       		.byte	0x31
 11460 2e0d 40       		.byte	0x40
 11461 2e0e 04010000 		.4byte	0x104
 11462 2e12 1C       		.byte	0x1c
 11463 2e13 00       		.byte	0
 11464 2e14 02       		.uleb128 0x2
 11465 2e15 811F0000 		.4byte	.LASF618
 11466 2e19 31       		.byte	0x31
 11467 2e1a 41       		.byte	0x41
 11468 2e1b AB2D0000 		.4byte	0x2dab
 11469 2e1f 17       		.uleb128 0x17
 11470 2e20 20       		.byte	0x20
 11471 2e21 31       		.byte	0x31
 11472 2e22 46       		.byte	0x46
 11473 2e23 882E0000 		.4byte	0x2e88
 11474 2e27 08       		.uleb128 0x8
 11475 2e28 500F0000 		.4byte	.LASF619
 11476 2e2c 31       		.byte	0x31
ARM GAS  C:\Users\osour\AppData\Local\Temp\ccsBkKuy.s 			page 208


 11477 2e2d 47       		.byte	0x47
 11478 2e2e 04010000 		.4byte	0x104
 11479 2e32 00       		.byte	0
 11480 2e33 08       		.uleb128 0x8
 11481 2e34 9B140000 		.4byte	.LASF620
 11482 2e38 31       		.byte	0x31
 11483 2e39 49       		.byte	0x49
 11484 2e3a 04010000 		.4byte	0x104
 11485 2e3e 04       		.byte	0x4
 11486 2e3f 08       		.uleb128 0x8
 11487 2e40 92240000 		.4byte	.LASF621
 11488 2e44 31       		.byte	0x31
 11489 2e45 4A       		.byte	0x4a
 11490 2e46 04010000 		.4byte	0x104
 11491 2e4a 08       		.byte	0x8
 11492 2e4b 08       		.uleb128 0x8
 11493 2e4c BF140000 		.4byte	.LASF622
 11494 2e50 31       		.byte	0x31
 11495 2e51 4C       		.byte	0x4c
 11496 2e52 04010000 		.4byte	0x104
 11497 2e56 0C       		.byte	0xc
 11498 2e57 08       		.uleb128 0x8
 11499 2e58 511A0000 		.4byte	.LASF623
 11500 2e5c 31       		.byte	0x31
 11501 2e5d 4D       		.byte	0x4d
 11502 2e5e 04010000 		.4byte	0x104
 11503 2e62 10       		.byte	0x10
 11504 2e63 08       		.uleb128 0x8
 11505 2e64 F10E0000 		.4byte	.LASF615
 11506 2e68 31       		.byte	0x31
 11507 2e69 4F       		.byte	0x4f
 11508 2e6a 04010000 		.4byte	0x104
 11509 2e6e 14       		.byte	0x14
 11510 2e6f 08       		.uleb128 0x8
 11511 2e70 25080000 		.4byte	.LASF624
 11512 2e74 31       		.byte	0x31
 11513 2e75 50       		.byte	0x50
 11514 2e76 04010000 		.4byte	0x104
 11515 2e7a 18       		.byte	0x18
 11516 2e7b 08       		.uleb128 0x8
 11517 2e7c 7B240000 		.4byte	.LASF625
 11518 2e80 31       		.byte	0x31
 11519 2e81 52       		.byte	0x52
 11520 2e82 04010000 		.4byte	0x104
 11521 2e86 1C       		.byte	0x1c
 11522 2e87 00       		.byte	0
 11523 2e88 02       		.uleb128 0x2
 11524 2e89 65090000 		.4byte	.LASF626
 11525 2e8d 31       		.byte	0x31
 11526 2e8e 53       		.byte	0x53
 11527 2e8f 1F2E0000 		.4byte	0x2e1f
 11528 2e93 17       		.uleb128 0x17
 11529 2e94 20       		.byte	0x20
 11530 2e95 31       		.byte	0x31
 11531 2e96 58       		.byte	0x58
 11532 2e97 FC2E0000 		.4byte	0x2efc
 11533 2e9b 08       		.uleb128 0x8
ARM GAS  C:\Users\osour\AppData\Local\Temp\ccsBkKuy.s 			page 209


 11534 2e9c D71F0000 		.4byte	.LASF627
 11535 2ea0 31       		.byte	0x31
 11536 2ea1 59       		.byte	0x59
 11537 2ea2 04010000 		.4byte	0x104
 11538 2ea6 00       		.byte	0
 11539 2ea7 08       		.uleb128 0x8
 11540 2ea8 9B140000 		.4byte	.LASF620
 11541 2eac 31       		.byte	0x31
 11542 2ead 5B       		.byte	0x5b
 11543 2eae 04010000 		.4byte	0x104
 11544 2eb2 04       		.byte	0x4
 11545 2eb3 08       		.uleb128 0x8
 11546 2eb4 A81B0000 		.4byte	.LASF628
 11547 2eb8 31       		.byte	0x31
 11548 2eb9 5C       		.byte	0x5c
 11549 2eba 04010000 		.4byte	0x104
 11550 2ebe 08       		.byte	0x8
 11551 2ebf 08       		.uleb128 0x8
 11552 2ec0 BF140000 		.4byte	.LASF622
 11553 2ec4 31       		.byte	0x31
 11554 2ec5 5E       		.byte	0x5e
 11555 2ec6 04010000 		.4byte	0x104
 11556 2eca 0C       		.byte	0xc
 11557 2ecb 08       		.uleb128 0x8
 11558 2ecc E5250000 		.4byte	.LASF629
 11559 2ed0 31       		.byte	0x31
 11560 2ed1 5F       		.byte	0x5f
 11561 2ed2 04010000 		.4byte	0x104
 11562 2ed6 10       		.byte	0x10
 11563 2ed7 08       		.uleb128 0x8
 11564 2ed8 F10E0000 		.4byte	.LASF615
 11565 2edc 31       		.byte	0x31
 11566 2edd 61       		.byte	0x61
 11567 2ede 04010000 		.4byte	0x104
 11568 2ee2 14       		.byte	0x14
 11569 2ee3 08       		.uleb128 0x8
 11570 2ee4 F90E0000 		.4byte	.LASF616
 11571 2ee8 31       		.byte	0x31
 11572 2ee9 62       		.byte	0x62
 11573 2eea 04010000 		.4byte	0x104
 11574 2eee 18       		.byte	0x18
 11575 2eef 08       		.uleb128 0x8
 11576 2ef0 7B240000 		.4byte	.LASF625
 11577 2ef4 31       		.byte	0x31
 11578 2ef5 63       		.byte	0x63
 11579 2ef6 04010000 		.4byte	0x104
 11580 2efa 1C       		.byte	0x1c
 11581 2efb 00       		.byte	0
 11582 2efc 02       		.uleb128 0x2
 11583 2efd 00090000 		.4byte	.LASF630
 11584 2f01 31       		.byte	0x31
 11585 2f02 64       		.byte	0x64
 11586 2f03 932E0000 		.4byte	0x2e93
 11587 2f07 26       		.uleb128 0x26
 11588 2f08 00100100 		.4byte	0x11000
 11589 2f0c 31       		.byte	0x31
 11590 2f0d 69       		.byte	0x69
ARM GAS  C:\Users\osour\AppData\Local\Temp\ccsBkKuy.s 			page 210


 11591 2f0e E4310000 		.4byte	0x31e4
 11592 2f12 08       		.uleb128 0x8
 11593 2f13 DE050000 		.4byte	.LASF631
 11594 2f17 31       		.byte	0x31
 11595 2f18 6A       		.byte	0x6a
 11596 2f19 04010000 		.4byte	0x104
 11597 2f1d 00       		.byte	0
 11598 2f1e 08       		.uleb128 0x8
 11599 2f1f 740D0000 		.4byte	.LASF632
 11600 2f23 31       		.byte	0x31
 11601 2f24 6B       		.byte	0x6b
 11602 2f25 04010000 		.4byte	0x104
 11603 2f29 04       		.byte	0x4
 11604 2f2a 08       		.uleb128 0x8
 11605 2f2b 7D080000 		.4byte	.LASF633
 11606 2f2f 31       		.byte	0x31
 11607 2f30 6C       		.byte	0x6c
 11608 2f31 04010000 		.4byte	0x104
 11609 2f35 08       		.byte	0x8
 11610 2f36 08       		.uleb128 0x8
 11611 2f37 89290000 		.4byte	.LASF634
 11612 2f3b 31       		.byte	0x31
 11613 2f3c 6D       		.byte	0x6d
 11614 2f3d 04010000 		.4byte	0x104
 11615 2f41 0C       		.byte	0xc
 11616 2f42 08       		.uleb128 0x8
 11617 2f43 7D160000 		.4byte	.LASF635
 11618 2f47 31       		.byte	0x31
 11619 2f48 6E       		.byte	0x6e
 11620 2f49 04010000 		.4byte	0x104
 11621 2f4d 10       		.byte	0x10
 11622 2f4e 08       		.uleb128 0x8
 11623 2f4f F70C0000 		.4byte	.LASF636
 11624 2f53 31       		.byte	0x31
 11625 2f54 6F       		.byte	0x6f
 11626 2f55 04010000 		.4byte	0x104
 11627 2f59 14       		.byte	0x14
 11628 2f5a 08       		.uleb128 0x8
 11629 2f5b 411E0000 		.4byte	.LASF637
 11630 2f5f 31       		.byte	0x31
 11631 2f60 70       		.byte	0x70
 11632 2f61 04010000 		.4byte	0x104
 11633 2f65 18       		.byte	0x18
 11634 2f66 08       		.uleb128 0x8
 11635 2f67 1B090000 		.4byte	.LASF638
 11636 2f6b 31       		.byte	0x31
 11637 2f6c 71       		.byte	0x71
 11638 2f6d 04010000 		.4byte	0x104
 11639 2f71 1C       		.byte	0x1c
 11640 2f72 08       		.uleb128 0x8
 11641 2f73 13090000 		.4byte	.LASF639
 11642 2f77 31       		.byte	0x31
 11643 2f78 73       		.byte	0x73
 11644 2f79 04010000 		.4byte	0x104
 11645 2f7d 20       		.byte	0x20
 11646 2f7e 08       		.uleb128 0x8
 11647 2f7f BC1D0000 		.4byte	.LASF640
ARM GAS  C:\Users\osour\AppData\Local\Temp\ccsBkKuy.s 			page 211


 11648 2f83 31       		.byte	0x31
 11649 2f84 75       		.byte	0x75
 11650 2f85 04010000 		.4byte	0x104
 11651 2f89 24       		.byte	0x24
 11652 2f8a 08       		.uleb128 0x8
 11653 2f8b 0F010000 		.4byte	.LASF641
 11654 2f8f 31       		.byte	0x31
 11655 2f90 76       		.byte	0x76
 11656 2f91 04010000 		.4byte	0x104
 11657 2f95 28       		.byte	0x28
 11658 2f96 08       		.uleb128 0x8
 11659 2f97 491E0000 		.4byte	.LASF642
 11660 2f9b 31       		.byte	0x31
 11661 2f9c 78       		.byte	0x78
 11662 2f9d 04010000 		.4byte	0x104
 11663 2fa1 2C       		.byte	0x2c
 11664 2fa2 08       		.uleb128 0x8
 11665 2fa3 80100000 		.4byte	.LASF643
 11666 2fa7 31       		.byte	0x31
 11667 2fa8 7A       		.byte	0x7a
 11668 2fa9 04010000 		.4byte	0x104
 11669 2fad 30       		.byte	0x30
 11670 2fae 08       		.uleb128 0x8
 11671 2faf 8F100000 		.4byte	.LASF644
 11672 2fb3 31       		.byte	0x31
 11673 2fb4 7B       		.byte	0x7b
 11674 2fb5 04010000 		.4byte	0x104
 11675 2fb9 34       		.byte	0x34
 11676 2fba 08       		.uleb128 0x8
 11677 2fbb 6C020000 		.4byte	.LASF645
 11678 2fbf 31       		.byte	0x31
 11679 2fc0 7C       		.byte	0x7c
 11680 2fc1 04010000 		.4byte	0x104
 11681 2fc5 38       		.byte	0x38
 11682 2fc6 18       		.uleb128 0x18
 11683 2fc7 43494400 		.ascii	"CID\000"
 11684 2fcb 31       		.byte	0x31
 11685 2fcc 7D       		.byte	0x7d
 11686 2fcd 04010000 		.4byte	0x104
 11687 2fd1 3C       		.byte	0x3c
 11688 2fd2 08       		.uleb128 0x8
 11689 2fd3 64130000 		.4byte	.LASF646
 11690 2fd7 31       		.byte	0x31
 11691 2fd8 7E       		.byte	0x7e
 11692 2fd9 F4310000 		.4byte	0x31f4
 11693 2fdd 40       		.byte	0x40
 11694 2fde 27       		.uleb128 0x27
 11695 2fdf AE260000 		.4byte	.LASF647
 11696 2fe3 31       		.byte	0x31
 11697 2fe4 7F       		.byte	0x7f
 11698 2fe5 04010000 		.4byte	0x104
 11699 2fe9 0001     		.2byte	0x100
 11700 2feb 27       		.uleb128 0x27
 11701 2fec E9020000 		.4byte	.LASF648
 11702 2ff0 31       		.byte	0x31
 11703 2ff1 81       		.byte	0x81
 11704 2ff2 840D0000 		.4byte	0xd84
ARM GAS  C:\Users\osour\AppData\Local\Temp\ccsBkKuy.s 			page 212


 11705 2ff6 0401     		.2byte	0x104
 11706 2ff8 27       		.uleb128 0x27
 11707 2ff9 7F170000 		.4byte	.LASF649
 11708 2ffd 31       		.byte	0x31
 11709 2ffe 83       		.byte	0x83
 11710 2fff 09320000 		.4byte	0x3209
 11711 3003 4001     		.2byte	0x140
 11712 3005 27       		.uleb128 0x27
 11713 3006 421B0000 		.4byte	.LASF650
 11714 300a 31       		.byte	0x31
 11715 300b 84       		.byte	0x84
 11716 300c 04010000 		.4byte	0x104
 11717 3010 0004     		.2byte	0x400
 11718 3012 27       		.uleb128 0x27
 11719 3013 15290000 		.4byte	.LASF651
 11720 3017 31       		.byte	0x31
 11721 3018 85       		.byte	0x85
 11722 3019 04010000 		.4byte	0x104
 11723 301d 0404     		.2byte	0x404
 11724 301f 27       		.uleb128 0x27
 11725 3020 2E050000 		.4byte	.LASF652
 11726 3024 31       		.byte	0x31
 11727 3025 86       		.byte	0x86
 11728 3026 04010000 		.4byte	0x104
 11729 302a 0804     		.2byte	0x408
 11730 302c 27       		.uleb128 0x27
 11731 302d 1C260000 		.4byte	.LASF653
 11732 3031 31       		.byte	0x31
 11733 3032 88       		.byte	0x88
 11734 3033 04010000 		.4byte	0x104
 11735 3037 0C04     		.2byte	0x40c
 11736 3039 27       		.uleb128 0x27
 11737 303a DE030000 		.4byte	.LASF654
 11738 303e 31       		.byte	0x31
 11739 303f 89       		.byte	0x89
 11740 3040 04010000 		.4byte	0x104
 11741 3044 1004     		.2byte	0x410
 11742 3046 27       		.uleb128 0x27
 11743 3047 0F050000 		.4byte	.LASF655
 11744 304b 31       		.byte	0x31
 11745 304c 8B       		.byte	0x8b
 11746 304d 04010000 		.4byte	0x104
 11747 3051 1404     		.2byte	0x414
 11748 3053 27       		.uleb128 0x27
 11749 3054 880D0000 		.4byte	.LASF656
 11750 3058 31       		.byte	0x31
 11751 3059 8D       		.byte	0x8d
 11752 305a 04010000 		.4byte	0x104
 11753 305e 1804     		.2byte	0x418
 11754 3060 27       		.uleb128 0x27
 11755 3061 7D210000 		.4byte	.LASF657
 11756 3065 31       		.byte	0x31
 11757 3066 8F       		.byte	0x8f
 11758 3067 1E320000 		.4byte	0x321e
 11759 306b 1C04     		.2byte	0x41c
 11760 306d 27       		.uleb128 0x27
 11761 306e 56030000 		.4byte	.LASF658
ARM GAS  C:\Users\osour\AppData\Local\Temp\ccsBkKuy.s 			page 213


 11762 3072 31       		.byte	0x31
 11763 3073 90       		.byte	0x90
 11764 3074 04010000 		.4byte	0x104
 11765 3078 4004     		.2byte	0x440
 11766 307a 27       		.uleb128 0x27
 11767 307b 83230000 		.4byte	.LASF659
 11768 307f 31       		.byte	0x31
 11769 3080 92       		.byte	0x92
 11770 3081 33320000 		.4byte	0x3233
 11771 3085 4404     		.2byte	0x444
 11772 3087 28       		.uleb128 0x28
 11773 3088 686300   		.ascii	"hc\000"
 11774 308b 31       		.byte	0x31
 11775 308c 93       		.byte	0x93
 11776 308d 38320000 		.4byte	0x3238
 11777 3091 0005     		.2byte	0x500
 11778 3093 27       		.uleb128 0x27
 11779 3094 5B260000 		.4byte	.LASF660
 11780 3098 31       		.byte	0x31
 11781 3099 94       		.byte	0x94
 11782 309a 58320000 		.4byte	0x3258
 11783 309e 0007     		.2byte	0x700
 11784 30a0 27       		.uleb128 0x27
 11785 30a1 2B1E0000 		.4byte	.LASF661
 11786 30a5 31       		.byte	0x31
 11787 30a6 95       		.byte	0x95
 11788 30a7 04010000 		.4byte	0x104
 11789 30ab 0008     		.2byte	0x800
 11790 30ad 27       		.uleb128 0x27
 11791 30ae 7B270000 		.4byte	.LASF662
 11792 30b2 31       		.byte	0x31
 11793 30b3 96       		.byte	0x96
 11794 30b4 04010000 		.4byte	0x104
 11795 30b8 0408     		.2byte	0x804
 11796 30ba 27       		.uleb128 0x27
 11797 30bb A3060000 		.4byte	.LASF663
 11798 30bf 31       		.byte	0x31
 11799 30c0 97       		.byte	0x97
 11800 30c1 04010000 		.4byte	0x104
 11801 30c5 0808     		.2byte	0x808
 11802 30c7 27       		.uleb128 0x27
 11803 30c8 C7050000 		.4byte	.LASF664
 11804 30cc 31       		.byte	0x31
 11805 30cd 98       		.byte	0x98
 11806 30ce 04010000 		.4byte	0x104
 11807 30d2 0C08     		.2byte	0x80c
 11808 30d4 27       		.uleb128 0x27
 11809 30d5 6C0D0000 		.4byte	.LASF665
 11810 30d9 31       		.byte	0x31
 11811 30da 99       		.byte	0x99
 11812 30db 04010000 		.4byte	0x104
 11813 30df 1008     		.2byte	0x810
 11814 30e1 27       		.uleb128 0x27
 11815 30e2 B3240000 		.4byte	.LASF666
 11816 30e6 31       		.byte	0x31
 11817 30e7 9B       		.byte	0x9b
 11818 30e8 04010000 		.4byte	0x104
ARM GAS  C:\Users\osour\AppData\Local\Temp\ccsBkKuy.s 			page 214


 11819 30ec 1408     		.2byte	0x814
 11820 30ee 27       		.uleb128 0x27
 11821 30ef 39250000 		.4byte	.LASF667
 11822 30f3 31       		.byte	0x31
 11823 30f4 9D       		.byte	0x9d
 11824 30f5 04010000 		.4byte	0x104
 11825 30f9 1808     		.2byte	0x818
 11826 30fb 27       		.uleb128 0x27
 11827 30fc 24220000 		.4byte	.LASF668
 11828 3100 31       		.byte	0x31
 11829 3101 9F       		.byte	0x9f
 11830 3102 04010000 		.4byte	0x104
 11831 3106 1C08     		.2byte	0x81c
 11832 3108 27       		.uleb128 0x27
 11833 3109 16070000 		.4byte	.LASF669
 11834 310d 31       		.byte	0x31
 11835 310e A1       		.byte	0xa1
 11836 310f 04010000 		.4byte	0x104
 11837 3113 2008     		.2byte	0x820
 11838 3115 27       		.uleb128 0x27
 11839 3116 0D060000 		.4byte	.LASF670
 11840 311a 31       		.byte	0x31
 11841 311b A2       		.byte	0xa2
 11842 311c 04010000 		.4byte	0x104
 11843 3120 2408     		.2byte	0x824
 11844 3122 27       		.uleb128 0x27
 11845 3123 381E0000 		.4byte	.LASF671
 11846 3127 31       		.byte	0x31
 11847 3128 A3       		.byte	0xa3
 11848 3129 04010000 		.4byte	0x104
 11849 312d 2808     		.2byte	0x828
 11850 312f 27       		.uleb128 0x27
 11851 3130 97100000 		.4byte	.LASF672
 11852 3134 31       		.byte	0x31
 11853 3135 A5       		.byte	0xa5
 11854 3136 04010000 		.4byte	0x104
 11855 313a 2C08     		.2byte	0x82c
 11856 313c 27       		.uleb128 0x27
 11857 313d A9070000 		.4byte	.LASF673
 11858 3141 31       		.byte	0x31
 11859 3142 A7       		.byte	0xa7
 11860 3143 04010000 		.4byte	0x104
 11861 3147 3008     		.2byte	0x830
 11862 3149 27       		.uleb128 0x27
 11863 314a 360F0000 		.4byte	.LASF674
 11864 314e 31       		.byte	0x31
 11865 314f A8       		.byte	0xa8
 11866 3150 04010000 		.4byte	0x104
 11867 3154 3408     		.2byte	0x834
 11868 3156 27       		.uleb128 0x27
 11869 3157 BC070000 		.4byte	.LASF675
 11870 315b 31       		.byte	0x31
 11871 315c AA       		.byte	0xaa
 11872 315d 04010000 		.4byte	0x104
 11873 3161 3808     		.2byte	0x838
 11874 3163 27       		.uleb128 0x27
 11875 3164 DB070000 		.4byte	.LASF676
ARM GAS  C:\Users\osour\AppData\Local\Temp\ccsBkKuy.s 			page 215


 11876 3168 31       		.byte	0x31
 11877 3169 AB       		.byte	0xab
 11878 316a 04010000 		.4byte	0x104
 11879 316e 3C08     		.2byte	0x83c
 11880 3170 27       		.uleb128 0x27
 11881 3171 9B080000 		.4byte	.LASF677
 11882 3175 31       		.byte	0x31
 11883 3176 AC       		.byte	0xac
 11884 3177 6D320000 		.4byte	0x326d
 11885 317b 4008     		.2byte	0x840
 11886 317d 27       		.uleb128 0x27
 11887 317e BB0E0000 		.4byte	.LASF678
 11888 3182 31       		.byte	0x31
 11889 3183 AD       		.byte	0xad
 11890 3184 6D320000 		.4byte	0x326d
 11891 3188 8008     		.2byte	0x880
 11892 318a 27       		.uleb128 0x27
 11893 318b AC140000 		.4byte	.LASF679
 11894 318f 31       		.byte	0x31
 11895 3190 AE       		.byte	0xae
 11896 3191 6D320000 		.4byte	0x326d
 11897 3195 C008     		.2byte	0x8c0
 11898 3197 28       		.uleb128 0x28
 11899 3198 696500   		.ascii	"ie\000"
 11900 319b 31       		.byte	0x31
 11901 319c AF       		.byte	0xaf
 11902 319d 72320000 		.4byte	0x3272
 11903 31a1 0009     		.2byte	0x900
 11904 31a3 28       		.uleb128 0x28
 11905 31a4 6F6500   		.ascii	"oe\000"
 11906 31a7 31       		.byte	0x31
 11907 31a8 B0       		.byte	0xb0
 11908 31a9 82320000 		.4byte	0x3282
 11909 31ad 000B     		.2byte	0xb00
 11910 31af 27       		.uleb128 0x27
 11911 31b0 D40C0000 		.4byte	.LASF680
 11912 31b4 31       		.byte	0x31
 11913 31b5 B1       		.byte	0xb1
 11914 31b6 58320000 		.4byte	0x3258
 11915 31ba 000D     		.2byte	0xd00
 11916 31bc 27       		.uleb128 0x27
 11917 31bd 93270000 		.4byte	.LASF681
 11918 31c1 31       		.byte	0x31
 11919 31c2 B2       		.byte	0xb2
 11920 31c3 04010000 		.4byte	0x104
 11921 31c7 000E     		.2byte	0xe00
 11922 31c9 27       		.uleb128 0x27
 11923 31ca DA1A0000 		.4byte	.LASF682
 11924 31ce 31       		.byte	0x31
 11925 31cf B4       		.byte	0xb4
 11926 31d0 A2320000 		.4byte	0x32a2
 11927 31d4 040E     		.2byte	0xe04
 11928 31d6 27       		.uleb128 0x27
 11929 31d7 990A0000 		.4byte	.LASF182
 11930 31db 31       		.byte	0x31
 11931 31dc B5       		.byte	0xb5
 11932 31dd BE320000 		.4byte	0x32be
ARM GAS  C:\Users\osour\AppData\Local\Temp\ccsBkKuy.s 			page 216


 11933 31e1 0010     		.2byte	0x1000
 11934 31e3 00       		.byte	0
 11935 31e4 13       		.uleb128 0x13
 11936 31e5 04010000 		.4byte	0x104
 11937 31e9 F4310000 		.4byte	0x31f4
 11938 31ed 14       		.uleb128 0x14
 11939 31ee B1000000 		.4byte	0xb1
 11940 31f2 2F       		.byte	0x2f
 11941 31f3 00       		.byte	0
 11942 31f4 06       		.uleb128 0x6
 11943 31f5 E4310000 		.4byte	0x31e4
 11944 31f9 13       		.uleb128 0x13
 11945 31fa 04010000 		.4byte	0x104
 11946 31fe 09320000 		.4byte	0x3209
 11947 3202 14       		.uleb128 0x14
 11948 3203 B1000000 		.4byte	0xb1
 11949 3207 AF       		.byte	0xaf
 11950 3208 00       		.byte	0
 11951 3209 06       		.uleb128 0x6
 11952 320a F9310000 		.4byte	0x31f9
 11953 320e 13       		.uleb128 0x13
 11954 320f 04010000 		.4byte	0x104
 11955 3213 1E320000 		.4byte	0x321e
 11956 3217 14       		.uleb128 0x14
 11957 3218 B1000000 		.4byte	0xb1
 11958 321c 08       		.byte	0x8
 11959 321d 00       		.byte	0
 11960 321e 06       		.uleb128 0x6
 11961 321f 0E320000 		.4byte	0x320e
 11962 3223 13       		.uleb128 0x13
 11963 3224 04010000 		.4byte	0x104
 11964 3228 33320000 		.4byte	0x3233
 11965 322c 14       		.uleb128 0x14
 11966 322d B1000000 		.4byte	0xb1
 11967 3231 2E       		.byte	0x2e
 11968 3232 00       		.byte	0
 11969 3233 06       		.uleb128 0x6
 11970 3234 23320000 		.4byte	0x3223
 11971 3238 13       		.uleb128 0x13
 11972 3239 142E0000 		.4byte	0x2e14
 11973 323d 48320000 		.4byte	0x3248
 11974 3241 14       		.uleb128 0x14
 11975 3242 B1000000 		.4byte	0xb1
 11976 3246 0F       		.byte	0xf
 11977 3247 00       		.byte	0
 11978 3248 13       		.uleb128 0x13
 11979 3249 04010000 		.4byte	0x104
 11980 324d 58320000 		.4byte	0x3258
 11981 3251 14       		.uleb128 0x14
 11982 3252 B1000000 		.4byte	0xb1
 11983 3256 3F       		.byte	0x3f
 11984 3257 00       		.byte	0
 11985 3258 06       		.uleb128 0x6
 11986 3259 48320000 		.4byte	0x3248
 11987 325d 13       		.uleb128 0x13
 11988 325e 04010000 		.4byte	0x104
 11989 3262 6D320000 		.4byte	0x326d
ARM GAS  C:\Users\osour\AppData\Local\Temp\ccsBkKuy.s 			page 217


 11990 3266 14       		.uleb128 0x14
 11991 3267 B1000000 		.4byte	0xb1
 11992 326b 0F       		.byte	0xf
 11993 326c 00       		.byte	0
 11994 326d 06       		.uleb128 0x6
 11995 326e 5D320000 		.4byte	0x325d
 11996 3272 13       		.uleb128 0x13
 11997 3273 882E0000 		.4byte	0x2e88
 11998 3277 82320000 		.4byte	0x3282
 11999 327b 14       		.uleb128 0x14
 12000 327c B1000000 		.4byte	0xb1
 12001 3280 0F       		.byte	0xf
 12002 3281 00       		.byte	0
 12003 3282 13       		.uleb128 0x13
 12004 3283 FC2E0000 		.4byte	0x2efc
 12005 3287 92320000 		.4byte	0x3292
 12006 328b 14       		.uleb128 0x14
 12007 328c B1000000 		.4byte	0xb1
 12008 3290 0F       		.byte	0xf
 12009 3291 00       		.byte	0
 12010 3292 13       		.uleb128 0x13
 12011 3293 04010000 		.4byte	0x104
 12012 3297 A2320000 		.4byte	0x32a2
 12013 329b 14       		.uleb128 0x14
 12014 329c B1000000 		.4byte	0xb1
 12015 32a0 7E       		.byte	0x7e
 12016 32a1 00       		.byte	0
 12017 32a2 06       		.uleb128 0x6
 12018 32a3 92320000 		.4byte	0x3292
 12019 32a7 13       		.uleb128 0x13
 12020 32a8 04010000 		.4byte	0x104
 12021 32ac BE320000 		.4byte	0x32be
 12022 32b0 14       		.uleb128 0x14
 12023 32b1 B1000000 		.4byte	0xb1
 12024 32b5 0F       		.byte	0xf
 12025 32b6 29       		.uleb128 0x29
 12026 32b7 B1000000 		.4byte	0xb1
 12027 32bb FF03     		.2byte	0x3ff
 12028 32bd 00       		.byte	0
 12029 32be 06       		.uleb128 0x6
 12030 32bf A7320000 		.4byte	0x32a7
 12031 32c3 02       		.uleb128 0x2
 12032 32c4 B6290000 		.4byte	.LASF683
 12033 32c8 31       		.byte	0x31
 12034 32c9 B6       		.byte	0xb6
 12035 32ca 072F0000 		.4byte	0x2f07
 12036 32ce 17       		.uleb128 0x17
 12037 32cf 0C       		.byte	0xc
 12038 32d0 30       		.byte	0x30
 12039 32d1 C6       		.byte	0xc6
 12040 32d2 FB320000 		.4byte	0x32fb
 12041 32d6 08       		.uleb128 0x8
 12042 32d7 2A0A0000 		.4byte	.LASF684
 12043 32db 30       		.byte	0x30
 12044 32dc C7       		.byte	0xc7
 12045 32dd F9000000 		.4byte	0xf9
 12046 32e1 00       		.byte	0
ARM GAS  C:\Users\osour\AppData\Local\Temp\ccsBkKuy.s 			page 218


 12047 32e2 08       		.uleb128 0x8
 12048 32e3 980C0000 		.4byte	.LASF685
 12049 32e7 30       		.byte	0x30
 12050 32e8 C8       		.byte	0xc8
 12051 32e9 F9000000 		.4byte	0xf9
 12052 32ed 04       		.byte	0x4
 12053 32ee 08       		.uleb128 0x8
 12054 32ef F7100000 		.4byte	.LASF686
 12055 32f3 30       		.byte	0x30
 12056 32f4 C9       		.byte	0xc9
 12057 32f5 F9000000 		.4byte	0xf9
 12058 32f9 08       		.byte	0x8
 12059 32fa 00       		.byte	0
 12060 32fb 02       		.uleb128 0x2
 12061 32fc C10C0000 		.4byte	.LASF687
 12062 3300 30       		.byte	0x30
 12063 3301 CA       		.byte	0xca
 12064 3302 CE320000 		.4byte	0x32ce
 12065 3306 05       		.uleb128 0x5
 12066 3307 FB320000 		.4byte	0x32fb
 12067 330b 17       		.uleb128 0x17
 12068 330c 04       		.byte	0x4
 12069 330d 30       		.byte	0x30
 12070 330e DD       		.byte	0xdd
 12071 330f 20330000 		.4byte	0x3320
 12072 3313 08       		.uleb128 0x8
 12073 3314 8D270000 		.4byte	.LASF688
 12074 3318 30       		.byte	0x30
 12075 3319 E1       		.byte	0xe1
 12076 331a BD130000 		.4byte	0x13bd
 12077 331e 00       		.byte	0
 12078 331f 00       		.byte	0
 12079 3320 17       		.uleb128 0x17
 12080 3321 04       		.byte	0x4
 12081 3322 30       		.byte	0x30
 12082 3323 E3       		.byte	0xe3
 12083 3324 35330000 		.4byte	0x3335
 12084 3328 08       		.uleb128 0x8
 12085 3329 A80A0000 		.4byte	.LASF373
 12086 332d 30       		.byte	0x30
 12087 332e E7       		.byte	0xe7
 12088 332f 35330000 		.4byte	0x3335
 12089 3333 00       		.byte	0
 12090 3334 00       		.byte	0
 12091 3335 0B       		.uleb128 0xb
 12092 3336 04       		.byte	0x4
 12093 3337 99130000 		.4byte	0x1399
 12094 333b 1D       		.uleb128 0x1d
 12095 333c 04       		.byte	0x4
 12096 333d 30       		.byte	0x30
 12097 333e DC       		.byte	0xdc
 12098 333f 5A330000 		.4byte	0x335a
 12099 3343 2A       		.uleb128 0x2a
 12100 3344 CB230000 		.4byte	.LASF689
 12101 3348 30       		.byte	0x30
 12102 3349 E2       		.byte	0xe2
 12103 334a 0B330000 		.4byte	0x330b
ARM GAS  C:\Users\osour\AppData\Local\Temp\ccsBkKuy.s 			page 219


 12104 334e 2A       		.uleb128 0x2a
 12105 334f 99220000 		.4byte	.LASF690
 12106 3353 30       		.byte	0x30
 12107 3354 E8       		.byte	0xe8
 12108 3355 20330000 		.4byte	0x3320
 12109 3359 00       		.byte	0
 12110 335a 17       		.uleb128 0x17
 12111 335b 14       		.byte	0x14
 12112 335c 30       		.byte	0x30
 12113 335d CF       		.byte	0xcf
 12114 335e 9F330000 		.4byte	0x339f
 12115 3362 08       		.uleb128 0x8
 12116 3363 E4080000 		.4byte	.LASF691
 12117 3367 30       		.byte	0x30
 12118 3368 D3       		.byte	0xd3
 12119 3369 A4150000 		.4byte	0x15a4
 12120 336d 00       		.byte	0
 12121 336e 08       		.uleb128 0x8
 12122 336f F4150000 		.4byte	.LASF692
 12123 3373 30       		.byte	0x30
 12124 3374 D7       		.byte	0xd7
 12125 3375 19010000 		.4byte	0x119
 12126 3379 04       		.byte	0x4
 12127 337a 08       		.uleb128 0x8
 12128 337b 3F0C0000 		.4byte	.LASF693
 12129 337f 30       		.byte	0x30
 12130 3380 DB       		.byte	0xdb
 12131 3381 19010000 		.4byte	0x119
 12132 3385 08       		.byte	0x8
 12133 3386 08       		.uleb128 0x8
 12134 3387 9C090000 		.4byte	.LASF419
 12135 338b 30       		.byte	0x30
 12136 338c E9       		.byte	0xe9
 12137 338d 3B330000 		.4byte	0x333b
 12138 3391 0C       		.byte	0xc
 12139 3392 08       		.uleb128 0x8
 12140 3393 0F110000 		.4byte	.LASF694
 12141 3397 30       		.byte	0x30
 12142 3398 ED       		.byte	0xed
 12143 3399 19010000 		.4byte	0x119
 12144 339d 10       		.byte	0x10
 12145 339e 00       		.byte	0
 12146 339f 02       		.uleb128 0x2
 12147 33a0 6C130000 		.4byte	.LASF695
 12148 33a4 30       		.byte	0x30
 12149 33a5 EE       		.byte	0xee
 12150 33a6 5A330000 		.4byte	0x335a
 12151 33aa 19       		.uleb128 0x19
 12152 33ab 04       		.byte	0x4
 12153 33ac 30       		.byte	0x30
 12154 33ad 0101     		.2byte	0x101
 12155 33af C1330000 		.4byte	0x33c1
 12156 33b3 0A       		.uleb128 0xa
 12157 33b4 E40C0000 		.4byte	.LASF696
 12158 33b8 30       		.byte	0x30
 12159 33b9 0501     		.2byte	0x105
 12160 33bb 88130000 		.4byte	0x1388
ARM GAS  C:\Users\osour\AppData\Local\Temp\ccsBkKuy.s 			page 220


 12161 33bf 00       		.byte	0
 12162 33c0 00       		.byte	0
 12163 33c1 19       		.uleb128 0x19
 12164 33c2 04       		.byte	0x4
 12165 33c3 30       		.byte	0x30
 12166 33c4 0701     		.2byte	0x107
 12167 33c6 D8330000 		.4byte	0x33d8
 12168 33ca 0A       		.uleb128 0xa
 12169 33cb 73230000 		.4byte	.LASF374
 12170 33cf 30       		.byte	0x30
 12171 33d0 0B01     		.2byte	0x10b
 12172 33d2 D8330000 		.4byte	0x33d8
 12173 33d6 00       		.byte	0
 12174 33d7 00       		.byte	0
 12175 33d8 0B       		.uleb128 0xb
 12176 33d9 04       		.byte	0x4
 12177 33da 8E130000 		.4byte	0x138e
 12178 33de 2B       		.uleb128 0x2b
 12179 33df 04       		.byte	0x4
 12180 33e0 30       		.byte	0x30
 12181 33e1 0001     		.2byte	0x100
 12182 33e3 00340000 		.4byte	0x3400
 12183 33e7 1E       		.uleb128 0x1e
 12184 33e8 CB230000 		.4byte	.LASF689
 12185 33ec 30       		.byte	0x30
 12186 33ed 0601     		.2byte	0x106
 12187 33ef AA330000 		.4byte	0x33aa
 12188 33f3 1E       		.uleb128 0x1e
 12189 33f4 99220000 		.4byte	.LASF690
 12190 33f8 30       		.byte	0x30
 12191 33f9 0C01     		.2byte	0x10c
 12192 33fb C1330000 		.4byte	0x33c1
 12193 33ff 00       		.byte	0
 12194 3400 17       		.uleb128 0x17
 12195 3401 14       		.byte	0x14
 12196 3402 30       		.byte	0x30
 12197 3403 F3       		.byte	0xf3
 12198 3404 47340000 		.4byte	0x3447
 12199 3408 08       		.uleb128 0x8
 12200 3409 E4060000 		.4byte	.LASF697
 12201 340d 30       		.byte	0x30
 12202 340e F7       		.byte	0xf7
 12203 340f A4150000 		.4byte	0x15a4
 12204 3413 00       		.byte	0
 12205 3414 08       		.uleb128 0x8
 12206 3415 F1160000 		.4byte	.LASF698
 12207 3419 30       		.byte	0x30
 12208 341a FB       		.byte	0xfb
 12209 341b 19010000 		.4byte	0x119
 12210 341f 04       		.byte	0x4
 12211 3420 08       		.uleb128 0x8
 12212 3421 77090000 		.4byte	.LASF699
 12213 3425 30       		.byte	0x30
 12214 3426 FF       		.byte	0xff
 12215 3427 19010000 		.4byte	0x119
 12216 342b 08       		.byte	0x8
 12217 342c 0A       		.uleb128 0xa
ARM GAS  C:\Users\osour\AppData\Local\Temp\ccsBkKuy.s 			page 221


 12218 342d 9C090000 		.4byte	.LASF419
 12219 3431 30       		.byte	0x30
 12220 3432 0D01     		.2byte	0x10d
 12221 3434 DE330000 		.4byte	0x33de
 12222 3438 0C       		.byte	0xc
 12223 3439 0A       		.uleb128 0xa
 12224 343a 0F110000 		.4byte	.LASF694
 12225 343e 30       		.byte	0x30
 12226 343f 1101     		.2byte	0x111
 12227 3441 19010000 		.4byte	0x119
 12228 3445 10       		.byte	0x10
 12229 3446 00       		.byte	0
 12230 3447 1A       		.uleb128 0x1a
 12231 3448 58210000 		.4byte	.LASF700
 12232 344c 30       		.byte	0x30
 12233 344d 1201     		.2byte	0x112
 12234 344f 00340000 		.4byte	0x3400
 12235 3453 19       		.uleb128 0x19
 12236 3454 24       		.byte	0x24
 12237 3455 30       		.byte	0x30
 12238 3456 1801     		.2byte	0x118
 12239 3458 DF340000 		.4byte	0x34df
 12240 345c 0A       		.uleb128 0xa
 12241 345d A01A0000 		.4byte	.LASF701
 12242 3461 30       		.byte	0x30
 12243 3462 1C01     		.2byte	0x11c
 12244 3464 F9000000 		.4byte	0xf9
 12245 3468 00       		.byte	0
 12246 3469 0A       		.uleb128 0xa
 12247 346a 7A0A0000 		.4byte	.LASF702
 12248 346e 30       		.byte	0x30
 12249 346f 2701     		.2byte	0x127
 12250 3471 102D0000 		.4byte	0x2d10
 12251 3475 04       		.byte	0x4
 12252 3476 0A       		.uleb128 0xa
 12253 3477 A21B0000 		.4byte	.LASF703
 12254 347b 30       		.byte	0x30
 12255 347c 2D01     		.2byte	0x12d
 12256 347e 102D0000 		.4byte	0x2d10
 12257 3482 08       		.byte	0x8
 12258 3483 0A       		.uleb128 0xa
 12259 3484 810D0000 		.4byte	.LASF704
 12260 3488 30       		.byte	0x30
 12261 3489 3301     		.2byte	0x133
 12262 348b 102D0000 		.4byte	0x2d10
 12263 348f 0C       		.byte	0xc
 12264 3490 0A       		.uleb128 0xa
 12265 3491 032A0000 		.4byte	.LASF705
 12266 3495 30       		.byte	0x30
 12267 3496 3901     		.2byte	0x139
 12268 3498 DE000000 		.4byte	0xde
 12269 349c 10       		.byte	0x10
 12270 349d 0A       		.uleb128 0xa
 12271 349e FC0D0000 		.4byte	.LASF706
 12272 34a2 30       		.byte	0x30
 12273 34a3 3F01     		.2byte	0x13f
 12274 34a5 DE000000 		.4byte	0xde
ARM GAS  C:\Users\osour\AppData\Local\Temp\ccsBkKuy.s 			page 222


 12275 34a9 12       		.byte	0x12
 12276 34aa 0A       		.uleb128 0xa
 12277 34ab 96280000 		.4byte	.LASF707
 12278 34af 30       		.byte	0x30
 12279 34b0 4401     		.2byte	0x144
 12280 34b2 DF340000 		.4byte	0x34df
 12281 34b6 14       		.byte	0x14
 12282 34b7 0A       		.uleb128 0xa
 12283 34b8 A60F0000 		.4byte	.LASF708
 12284 34bc 30       		.byte	0x30
 12285 34bd 4901     		.2byte	0x149
 12286 34bf E5340000 		.4byte	0x34e5
 12287 34c3 18       		.byte	0x18
 12288 34c4 0A       		.uleb128 0xa
 12289 34c5 36150000 		.4byte	.LASF709
 12290 34c9 30       		.byte	0x30
 12291 34ca 5001     		.2byte	0x150
 12292 34cc DE000000 		.4byte	0xde
 12293 34d0 1C       		.byte	0x1c
 12294 34d1 0A       		.uleb128 0xa
 12295 34d2 D8270000 		.4byte	.LASF710
 12296 34d6 30       		.byte	0x30
 12297 34d7 5601     		.2byte	0x156
 12298 34d9 88130000 		.4byte	0x1388
 12299 34dd 20       		.byte	0x20
 12300 34de 00       		.byte	0
 12301 34df 0B       		.uleb128 0xb
 12302 34e0 04       		.byte	0x4
 12303 34e1 9F330000 		.4byte	0x339f
 12304 34e5 0B       		.uleb128 0xb
 12305 34e6 04       		.byte	0x4
 12306 34e7 47340000 		.4byte	0x3447
 12307 34eb 1A       		.uleb128 0x1a
 12308 34ec 43230000 		.4byte	.LASF711
 12309 34f0 30       		.byte	0x30
 12310 34f1 5701     		.2byte	0x157
 12311 34f3 53340000 		.4byte	0x3453
 12312 34f7 05       		.uleb128 0x5
 12313 34f8 EB340000 		.4byte	0x34eb
 12314 34fc 19       		.uleb128 0x19
 12315 34fd 10       		.byte	0x10
 12316 34fe 30       		.byte	0x30
 12317 34ff 5C01     		.2byte	0x15c
 12318 3501 3A350000 		.4byte	0x353a
 12319 3505 0A       		.uleb128 0xa
 12320 3506 D0050000 		.4byte	.LASF712
 12321 350a 30       		.byte	0x30
 12322 350b 6101     		.2byte	0x161
 12323 350d 322D0000 		.4byte	0x2d32
 12324 3511 00       		.byte	0
 12325 3512 0A       		.uleb128 0xa
 12326 3513 21270000 		.4byte	.LASF713
 12327 3517 30       		.byte	0x30
 12328 3518 6601     		.2byte	0x166
 12329 351a 752D0000 		.4byte	0x2d75
 12330 351e 04       		.byte	0x4
 12331 351f 0A       		.uleb128 0xa
ARM GAS  C:\Users\osour\AppData\Local\Temp\ccsBkKuy.s 			page 223


 12332 3520 C6150000 		.4byte	.LASF714
 12333 3524 30       		.byte	0x30
 12334 3525 6C01     		.2byte	0x16c
 12335 3527 542D0000 		.4byte	0x2d54
 12336 352b 08       		.byte	0x8
 12337 352c 0A       		.uleb128 0xa
 12338 352d B6020000 		.4byte	.LASF715
 12339 3531 30       		.byte	0x30
 12340 3532 7001     		.2byte	0x170
 12341 3534 ED2C0000 		.4byte	0x2ced
 12342 3538 0C       		.byte	0xc
 12343 3539 00       		.byte	0
 12344 353a 1A       		.uleb128 0x1a
 12345 353b B5140000 		.4byte	.LASF716
 12346 353f 30       		.byte	0x30
 12347 3540 7201     		.2byte	0x172
 12348 3542 FC340000 		.4byte	0x34fc
 12349 3546 05       		.uleb128 0x5
 12350 3547 3A350000 		.4byte	0x353a
 12351 354b 0B       		.uleb128 0xb
 12352 354c 04       		.byte	0x4
 12353 354d 46350000 		.4byte	0x3546
 12354 3551 13       		.uleb128 0x13
 12355 3552 61350000 		.4byte	0x3561
 12356 3556 61350000 		.4byte	0x3561
 12357 355a 14       		.uleb128 0x14
 12358 355b B1000000 		.4byte	0xb1
 12359 355f 03       		.byte	0x3
 12360 3560 00       		.byte	0
 12361 3561 0B       		.uleb128 0xb
 12362 3562 04       		.byte	0x4
 12363 3563 F7340000 		.4byte	0x34f7
 12364 3567 13       		.uleb128 0x13
 12365 3568 D0030000 		.4byte	0x3d0
 12366 356c 77350000 		.4byte	0x3577
 12367 3570 14       		.uleb128 0x14
 12368 3571 B1000000 		.4byte	0xb1
 12369 3575 02       		.byte	0x2
 12370 3576 00       		.byte	0
 12371 3577 0B       		.uleb128 0xb
 12372 3578 04       		.byte	0x4
 12373 3579 C3320000 		.4byte	0x32c3
 12374 357d 0B       		.uleb128 0xb
 12375 357e 04       		.byte	0x4
 12376 357f 06330000 		.4byte	0x3306
 12377 3583 13       		.uleb128 0x13
 12378 3584 940D0000 		.4byte	0xd94
 12379 3588 93350000 		.4byte	0x3593
 12380 358c 14       		.uleb128 0x14
 12381 358d B1000000 		.4byte	0xb1
 12382 3591 3E       		.byte	0x3e
 12383 3592 00       		.byte	0
 12384 3593 15       		.uleb128 0x15
 12385 3594 18010000 		.4byte	.LASF717
 12386 3598 30       		.byte	0x30
 12387 3599 0602     		.2byte	0x206
 12388 359b B92A0000 		.4byte	0x2ab9
ARM GAS  C:\Users\osour\AppData\Local\Temp\ccsBkKuy.s 			page 224


 12389 359f 21       		.uleb128 0x21
 12390 35a0 07       		.byte	0x7
 12391 35a1 01       		.byte	0x1
 12392 35a2 42000000 		.4byte	0x42
 12393 35a6 32       		.byte	0x32
 12394 35a7 83       		.byte	0x83
 12395 35a8 B9350000 		.4byte	0x35b9
 12396 35ac 22       		.uleb128 0x22
 12397 35ad E8270000 		.4byte	.LASF718
 12398 35b1 00       		.byte	0
 12399 35b2 22       		.uleb128 0x22
 12400 35b3 111D0000 		.4byte	.LASF719
 12401 35b7 01       		.byte	0x1
 12402 35b8 00       		.byte	0
 12403 35b9 02       		.uleb128 0x2
 12404 35ba 39280000 		.4byte	.LASF720
 12405 35be 32       		.byte	0x32
 12406 35bf 86       		.byte	0x86
 12407 35c0 9F350000 		.4byte	0x359f
 12408 35c4 21       		.uleb128 0x21
 12409 35c5 07       		.byte	0x7
 12410 35c6 01       		.byte	0x1
 12411 35c7 42000000 		.4byte	0x42
 12412 35cb 32       		.byte	0x32
 12413 35cc 8B       		.byte	0x8b
 12414 35cd 02360000 		.4byte	0x3602
 12415 35d1 22       		.uleb128 0x22
 12416 35d2 81070000 		.4byte	.LASF721
 12417 35d6 00       		.byte	0
 12418 35d7 22       		.uleb128 0x22
 12419 35d8 D4030000 		.4byte	.LASF722
 12420 35dc 01       		.byte	0x1
 12421 35dd 22       		.uleb128 0x22
 12422 35de D2230000 		.4byte	.LASF723
 12423 35e2 02       		.byte	0x2
 12424 35e3 22       		.uleb128 0x22
 12425 35e4 2D220000 		.4byte	.LASF724
 12426 35e8 03       		.byte	0x3
 12427 35e9 22       		.uleb128 0x22
 12428 35ea 9D000000 		.4byte	.LASF725
 12429 35ee 04       		.byte	0x4
 12430 35ef 22       		.uleb128 0x22
 12431 35f0 36080000 		.4byte	.LASF726
 12432 35f4 05       		.byte	0x5
 12433 35f5 22       		.uleb128 0x22
 12434 35f6 73150000 		.4byte	.LASF727
 12435 35fa 06       		.byte	0x6
 12436 35fb 22       		.uleb128 0x22
 12437 35fc A41C0000 		.4byte	.LASF728
 12438 3600 07       		.byte	0x7
 12439 3601 00       		.byte	0
 12440 3602 02       		.uleb128 0x2
 12441 3603 451A0000 		.4byte	.LASF729
 12442 3607 32       		.byte	0x32
 12443 3608 94       		.byte	0x94
 12444 3609 C4350000 		.4byte	0x35c4
 12445 360d 02       		.uleb128 0x2
ARM GAS  C:\Users\osour\AppData\Local\Temp\ccsBkKuy.s 			page 225


 12446 360e 0A290000 		.4byte	.LASF730
 12447 3612 32       		.byte	0x32
 12448 3613 99       		.byte	0x99
 12449 3614 18360000 		.4byte	0x3618
 12450 3618 07       		.uleb128 0x7
 12451 3619 0A290000 		.4byte	.LASF730
 12452 361d 14       		.byte	0x14
 12453 361e 32       		.byte	0x32
 12454 361f C3       		.byte	0xc3
 12455 3620 61360000 		.4byte	0x3661
 12456 3624 08       		.uleb128 0x8
 12457 3625 31190000 		.4byte	.LASF340
 12458 3629 32       		.byte	0x32
 12459 362a C7       		.byte	0xc7
 12460 362b 02360000 		.4byte	0x3602
 12461 362f 00       		.byte	0
 12462 3630 08       		.uleb128 0x8
 12463 3631 FB1F0000 		.4byte	.LASF341
 12464 3635 32       		.byte	0x32
 12465 3636 CB       		.byte	0xcb
 12466 3637 EC360000 		.4byte	0x36ec
 12467 363b 04       		.byte	0x4
 12468 363c 08       		.uleb128 0x8
 12469 363d 7B250000 		.4byte	.LASF731
 12470 3641 32       		.byte	0x32
 12471 3642 CF       		.byte	0xcf
 12472 3643 F2360000 		.4byte	0x36f2
 12473 3647 08       		.byte	0x8
 12474 3648 08       		.uleb128 0x8
 12475 3649 DD0B0000 		.4byte	.LASF347
 12476 364d 32       		.byte	0x32
 12477 364e D3       		.byte	0xd3
 12478 364f 5E1A0000 		.4byte	0x1a5e
 12479 3653 0C       		.byte	0xc
 12480 3654 08       		.uleb128 0x8
 12481 3655 471B0000 		.4byte	.LASF348
 12482 3659 32       		.byte	0x32
 12483 365a D7       		.byte	0xd7
 12484 365b F9000000 		.4byte	0xf9
 12485 365f 10       		.byte	0x10
 12486 3660 00       		.byte	0
 12487 3661 02       		.uleb128 0x2
 12488 3662 410F0000 		.4byte	.LASF732
 12489 3666 32       		.byte	0x32
 12490 3667 A0       		.byte	0xa0
 12491 3668 6C360000 		.4byte	0x366c
 12492 366c 0B       		.uleb128 0xb
 12493 366d 04       		.byte	0x4
 12494 366e 72360000 		.4byte	0x3672
 12495 3672 0D       		.uleb128 0xd
 12496 3673 7D360000 		.4byte	0x367d
 12497 3677 0E       		.uleb128 0xe
 12498 3678 7D360000 		.4byte	0x367d
 12499 367c 00       		.byte	0
 12500 367d 0B       		.uleb128 0xb
 12501 367e 04       		.byte	0x4
 12502 367f 0D360000 		.4byte	0x360d
ARM GAS  C:\Users\osour\AppData\Local\Temp\ccsBkKuy.s 			page 226


 12503 3683 02       		.uleb128 0x2
 12504 3684 171E0000 		.4byte	.LASF733
 12505 3688 32       		.byte	0x32
 12506 3689 A8       		.byte	0xa8
 12507 368a 8E360000 		.4byte	0x368e
 12508 368e 0B       		.uleb128 0xb
 12509 368f 04       		.byte	0x4
 12510 3690 94360000 		.4byte	0x3694
 12511 3694 0D       		.uleb128 0xd
 12512 3695 A4360000 		.4byte	0x36a4
 12513 3699 0E       		.uleb128 0xe
 12514 369a 7D360000 		.4byte	0x367d
 12515 369e 0E       		.uleb128 0xe
 12516 369f B9350000 		.4byte	0x35b9
 12517 36a3 00       		.byte	0
 12518 36a4 17       		.uleb128 0x17
 12519 36a5 10       		.byte	0x10
 12520 36a6 32       		.byte	0x32
 12521 36a7 AD       		.byte	0xad
 12522 36a8 DC360000 		.4byte	0x36dc
 12523 36ac 08       		.uleb128 0x8
 12524 36ad 4B210000 		.4byte	.LASF734
 12525 36b1 32       		.byte	0x32
 12526 36b2 B1       		.byte	0xb1
 12527 36b3 61360000 		.4byte	0x3661
 12528 36b7 00       		.byte	0
 12529 36b8 08       		.uleb128 0x8
 12530 36b9 B7260000 		.4byte	.LASF735
 12531 36bd 32       		.byte	0x32
 12532 36be B5       		.byte	0xb5
 12533 36bf 61360000 		.4byte	0x3661
 12534 36c3 04       		.byte	0x4
 12535 36c4 08       		.uleb128 0x8
 12536 36c5 FC270000 		.4byte	.LASF354
 12537 36c9 32       		.byte	0x32
 12538 36ca B9       		.byte	0xb9
 12539 36cb 83360000 		.4byte	0x3683
 12540 36cf 08       		.byte	0x8
 12541 36d0 18       		.uleb128 0x18
 12542 36d1 637200   		.ascii	"cr\000"
 12543 36d4 32       		.byte	0x32
 12544 36d5 BD       		.byte	0xbd
 12545 36d6 F9000000 		.4byte	0xf9
 12546 36da 0C       		.byte	0xc
 12547 36db 00       		.byte	0
 12548 36dc 02       		.uleb128 0x2
 12549 36dd 1A290000 		.4byte	.LASF736
 12550 36e1 32       		.byte	0x32
 12551 36e2 BE       		.byte	0xbe
 12552 36e3 A4360000 		.4byte	0x36a4
 12553 36e7 05       		.uleb128 0x5
 12554 36e8 DC360000 		.4byte	0x36dc
 12555 36ec 0B       		.uleb128 0xb
 12556 36ed 04       		.byte	0x4
 12557 36ee E7360000 		.4byte	0x36e7
 12558 36f2 0B       		.uleb128 0xb
 12559 36f3 04       		.byte	0x4
ARM GAS  C:\Users\osour\AppData\Local\Temp\ccsBkKuy.s 			page 227


 12560 36f4 220A0000 		.4byte	0xa22
 12561 36f8 16       		.uleb128 0x16
 12562 36f9 60050000 		.4byte	.LASF737
 12563 36fd 32       		.byte	0x32
 12564 36fe E3       		.byte	0xe3
 12565 36ff 0D360000 		.4byte	0x360d
 12566 3703 02       		.uleb128 0x2
 12567 3704 93080000 		.4byte	.LASF738
 12568 3708 33       		.byte	0x33
 12569 3709 22       		.byte	0x22
 12570 370a 0E370000 		.4byte	0x370e
 12571 370e 0B       		.uleb128 0xb
 12572 370f 04       		.byte	0x4
 12573 3710 14370000 		.4byte	0x3714
 12574 3714 2C       		.uleb128 0x2c
 12575 3715 A8060000 		.4byte	.LASF868
 12576 3719 02       		.uleb128 0x2
 12577 371a 820E0000 		.4byte	.LASF739
 12578 371e 34       		.byte	0x34
 12579 371f 2C       		.byte	0x2c
 12580 3720 78000000 		.4byte	0x78
 12581 3724 02       		.uleb128 0x2
 12582 3725 AD200000 		.4byte	.LASF740
 12583 3729 34       		.byte	0x34
 12584 372a 72       		.byte	0x72
 12585 372b 78000000 		.4byte	0x78
 12586 372f 1A       		.uleb128 0x1a
 12587 3730 D9100000 		.4byte	.LASF741
 12588 3734 04       		.byte	0x4
 12589 3735 6501     		.2byte	0x165
 12590 3737 B1000000 		.4byte	0xb1
 12591 373b 1D       		.uleb128 0x1d
 12592 373c 04       		.byte	0x4
 12593 373d 34       		.byte	0x34
 12594 373e A6       		.byte	0xa6
 12595 373f 5A370000 		.4byte	0x375a
 12596 3743 2A       		.uleb128 0x2a
 12597 3744 111A0000 		.4byte	.LASF742
 12598 3748 34       		.byte	0x34
 12599 3749 A8       		.byte	0xa8
 12600 374a 2F370000 		.4byte	0x372f
 12601 374e 2A       		.uleb128 0x2a
 12602 374f 88100000 		.4byte	.LASF743
 12603 3753 34       		.byte	0x34
 12604 3754 A9       		.byte	0xa9
 12605 3755 5A370000 		.4byte	0x375a
 12606 3759 00       		.byte	0
 12607 375a 13       		.uleb128 0x13
 12608 375b 42000000 		.4byte	0x42
 12609 375f 6A370000 		.4byte	0x376a
 12610 3763 14       		.uleb128 0x14
 12611 3764 B1000000 		.4byte	0xb1
 12612 3768 03       		.byte	0x3
 12613 3769 00       		.byte	0
 12614 376a 17       		.uleb128 0x17
 12615 376b 08       		.byte	0x8
 12616 376c 34       		.byte	0x34
ARM GAS  C:\Users\osour\AppData\Local\Temp\ccsBkKuy.s 			page 228


 12617 376d A3       		.byte	0xa3
 12618 376e 8B370000 		.4byte	0x378b
 12619 3772 08       		.uleb128 0x8
 12620 3773 DB0E0000 		.4byte	.LASF744
 12621 3777 34       		.byte	0x34
 12622 3778 A5       		.byte	0xa5
 12623 3779 AA000000 		.4byte	0xaa
 12624 377d 00       		.byte	0
 12625 377e 08       		.uleb128 0x8
 12626 377f 171A0000 		.4byte	.LASF745
 12627 3783 34       		.byte	0x34
 12628 3784 AA       		.byte	0xaa
 12629 3785 3B370000 		.4byte	0x373b
 12630 3789 04       		.byte	0x4
 12631 378a 00       		.byte	0
 12632 378b 02       		.uleb128 0x2
 12633 378c 8E210000 		.4byte	.LASF746
 12634 3790 34       		.byte	0x34
 12635 3791 AB       		.byte	0xab
 12636 3792 6A370000 		.4byte	0x376a
 12637 3796 02       		.uleb128 0x2
 12638 3797 FD250000 		.4byte	.LASF747
 12639 379b 34       		.byte	0x34
 12640 379c AF       		.byte	0xaf
 12641 379d 03370000 		.4byte	0x3703
 12642 37a1 0B       		.uleb128 0xb
 12643 37a2 04       		.byte	0x4
 12644 37a3 20110000 		.4byte	0x1120
 12645 37a7 16       		.uleb128 0x16
 12646 37a8 1D100000 		.4byte	.LASF748
 12647 37ac 35       		.byte	0x35
 12648 37ad 10       		.byte	0x10
 12649 37ae B2370000 		.4byte	0x37b2
 12650 37b2 0B       		.uleb128 0xb
 12651 37b3 04       		.byte	0x4
 12652 37b4 A1370000 		.4byte	0x37a1
 12653 37b8 16       		.uleb128 0x16
 12654 37b9 D4070000 		.4byte	.LASF749
 12655 37bd 35       		.byte	0x35
 12656 37be E8       		.byte	0xe8
 12657 37bf A1370000 		.4byte	0x37a1
 12658 37c3 16       		.uleb128 0x16
 12659 37c4 6C260000 		.4byte	.LASF750
 12660 37c8 35       		.byte	0x35
 12661 37c9 E9       		.byte	0xe9
 12662 37ca AA000000 		.4byte	0xaa
 12663 37ce 16       		.uleb128 0x16
 12664 37cf 9D190000 		.4byte	.LASF751
 12665 37d3 35       		.byte	0x35
 12666 37d4 E9       		.byte	0xe9
 12667 37d5 AA000000 		.4byte	0xaa
 12668 37d9 16       		.uleb128 0x16
 12669 37da 31170000 		.4byte	.LASF752
 12670 37de 35       		.byte	0x35
 12671 37df E9       		.byte	0xe9
 12672 37e0 AA000000 		.4byte	0xaa
 12673 37e4 16       		.uleb128 0x16
ARM GAS  C:\Users\osour\AppData\Local\Temp\ccsBkKuy.s 			page 229


 12674 37e5 5C090000 		.4byte	.LASF753
 12675 37e9 35       		.byte	0x35
 12676 37ea EB       		.byte	0xeb
 12677 37eb AA000000 		.4byte	0xaa
 12678 37ef 07       		.uleb128 0x7
 12679 37f0 D0120000 		.4byte	.LASF754
 12680 37f4 5C       		.byte	0x5c
 12681 37f5 36       		.byte	0x36
 12682 37f6 0C       		.byte	0xc
 12683 37f7 5C380000 		.4byte	0x385c
 12684 37fb 08       		.uleb128 0x8
 12685 37fc 9B1F0000 		.4byte	.LASF755
 12686 3800 36       		.byte	0x36
 12687 3801 0D       		.byte	0xd
 12688 3802 D0030000 		.4byte	0x3d0
 12689 3806 00       		.byte	0
 12690 3807 08       		.uleb128 0x8
 12691 3808 FD1B0000 		.4byte	.LASF756
 12692 380c 36       		.byte	0x36
 12693 380d 0E       		.byte	0xe
 12694 380e 19010000 		.4byte	0x119
 12695 3812 04       		.byte	0x4
 12696 3813 08       		.uleb128 0x8
 12697 3814 E40B0000 		.4byte	.LASF757
 12698 3818 36       		.byte	0x36
 12699 3819 0F       		.byte	0xf
 12700 381a D0030000 		.4byte	0x3d0
 12701 381e 08       		.byte	0x8
 12702 381f 08       		.uleb128 0x8
 12703 3820 9B070000 		.4byte	.LASF758
 12704 3824 36       		.byte	0x36
 12705 3825 10       		.byte	0x10
 12706 3826 D0030000 		.4byte	0x3d0
 12707 382a 0C       		.byte	0xc
 12708 382b 08       		.uleb128 0x8
 12709 382c F8250000 		.4byte	.LASF759
 12710 3830 36       		.byte	0x36
 12711 3831 11       		.byte	0x11
 12712 3832 5C380000 		.4byte	0x385c
 12713 3836 10       		.byte	0x10
 12714 3837 08       		.uleb128 0x8
 12715 3838 D8010000 		.4byte	.LASF760
 12716 383c 36       		.byte	0x36
 12717 383d 12       		.byte	0x12
 12718 383e A4150000 		.4byte	0x15a4
 12719 3842 51       		.byte	0x51
 12720 3843 08       		.uleb128 0x8
 12721 3844 FE220000 		.4byte	.LASF761
 12722 3848 36       		.byte	0x36
 12723 3849 13       		.byte	0x13
 12724 384a 91380000 		.4byte	0x3891
 12725 384e 54       		.byte	0x54
 12726 384f 08       		.uleb128 0x8
 12727 3850 CF020000 		.4byte	.LASF762
 12728 3854 36       		.byte	0x36
 12729 3855 14       		.byte	0x14
 12730 3856 97380000 		.4byte	0x3897
ARM GAS  C:\Users\osour\AppData\Local\Temp\ccsBkKuy.s 			page 230


 12731 385a 58       		.byte	0x58
 12732 385b 00       		.byte	0
 12733 385c 13       		.uleb128 0x13
 12734 385d 20110000 		.4byte	0x1120
 12735 3861 6C380000 		.4byte	0x386c
 12736 3865 14       		.uleb128 0x14
 12737 3866 B1000000 		.4byte	0xb1
 12738 386a 40       		.byte	0x40
 12739 386b 00       		.byte	0
 12740 386c 07       		.uleb128 0x7
 12741 386d 32000000 		.4byte	.LASF763
 12742 3871 08       		.byte	0x8
 12743 3872 36       		.byte	0x36
 12744 3873 25       		.byte	0x25
 12745 3874 91380000 		.4byte	0x3891
 12746 3878 08       		.uleb128 0x8
 12747 3879 D8210000 		.4byte	.LASF764
 12748 387d 36       		.byte	0x36
 12749 387e 26       		.byte	0x26
 12750 387f 37390000 		.4byte	0x3937
 12751 3883 00       		.byte	0
 12752 3884 08       		.uleb128 0x8
 12753 3885 CF020000 		.4byte	.LASF762
 12754 3889 36       		.byte	0x36
 12755 388a 27       		.byte	0x27
 12756 388b 91380000 		.4byte	0x3891
 12757 388f 04       		.byte	0x4
 12758 3890 00       		.byte	0
 12759 3891 0B       		.uleb128 0xb
 12760 3892 04       		.byte	0x4
 12761 3893 6C380000 		.4byte	0x386c
 12762 3897 0B       		.uleb128 0xb
 12763 3898 04       		.byte	0x4
 12764 3899 EF370000 		.4byte	0x37ef
 12765 389d 02       		.uleb128 0x2
 12766 389e 1D1B0000 		.4byte	.LASF765
 12767 38a2 36       		.byte	0x36
 12768 38a3 15       		.byte	0x15
 12769 38a4 EF370000 		.4byte	0x37ef
 12770 38a8 17       		.uleb128 0x17
 12771 38a9 04       		.byte	0x4
 12772 38aa 36       		.byte	0x36
 12773 38ab 18       		.byte	0x18
 12774 38ac BD380000 		.4byte	0x38bd
 12775 38b0 08       		.uleb128 0x8
 12776 38b1 770B0000 		.4byte	.LASF766
 12777 38b5 36       		.byte	0x36
 12778 38b6 19       		.byte	0x19
 12779 38b7 BD380000 		.4byte	0x38bd
 12780 38bb 00       		.byte	0
 12781 38bc 00       		.byte	0
 12782 38bd 0B       		.uleb128 0xb
 12783 38be 04       		.byte	0x4
 12784 38bf 9D380000 		.4byte	0x389d
 12785 38c3 17       		.uleb128 0x17
 12786 38c4 0C       		.byte	0xc
 12787 38c5 36       		.byte	0x36
ARM GAS  C:\Users\osour\AppData\Local\Temp\ccsBkKuy.s 			page 231


 12788 38c6 17       		.byte	0x17
 12789 38c7 F0380000 		.4byte	0x38f0
 12790 38cb 08       		.uleb128 0x8
 12791 38cc 58240000 		.4byte	.LASF767
 12792 38d0 36       		.byte	0x36
 12793 38d1 1A       		.byte	0x1a
 12794 38d2 A8380000 		.4byte	0x38a8
 12795 38d6 00       		.byte	0
 12796 38d7 08       		.uleb128 0x8
 12797 38d8 E40B0000 		.4byte	.LASF757
 12798 38dc 36       		.byte	0x36
 12799 38dd 1B       		.byte	0x1b
 12800 38de D0030000 		.4byte	0x3d0
 12801 38e2 04       		.byte	0x4
 12802 38e3 08       		.uleb128 0x8
 12803 38e4 9B070000 		.4byte	.LASF758
 12804 38e8 36       		.byte	0x36
 12805 38e9 1C       		.byte	0x1c
 12806 38ea D0030000 		.4byte	0x3d0
 12807 38ee 08       		.byte	0x8
 12808 38ef 00       		.byte	0
 12809 38f0 02       		.uleb128 0x2
 12810 38f1 A3120000 		.4byte	.LASF768
 12811 38f5 36       		.byte	0x36
 12812 38f6 1D       		.byte	0x1d
 12813 38f7 C3380000 		.4byte	0x38c3
 12814 38fb 07       		.uleb128 0x7
 12815 38fc 5A1D0000 		.4byte	.LASF769
 12816 3900 0C       		.byte	0xc
 12817 3901 36       		.byte	0x36
 12818 3902 1F       		.byte	0x1f
 12819 3903 2C390000 		.4byte	0x392c
 12820 3907 08       		.uleb128 0x8
 12821 3908 E40B0000 		.4byte	.LASF757
 12822 390c 36       		.byte	0x36
 12823 390d 20       		.byte	0x20
 12824 390e D0030000 		.4byte	0x3d0
 12825 3912 00       		.byte	0
 12826 3913 08       		.uleb128 0x8
 12827 3914 9B070000 		.4byte	.LASF758
 12828 3918 36       		.byte	0x36
 12829 3919 21       		.byte	0x21
 12830 391a D0030000 		.4byte	0x3d0
 12831 391e 04       		.byte	0x4
 12832 391f 08       		.uleb128 0x8
 12833 3920 50050000 		.4byte	.LASF770
 12834 3924 36       		.byte	0x36
 12835 3925 22       		.byte	0x22
 12836 3926 BD380000 		.4byte	0x38bd
 12837 392a 08       		.byte	0x8
 12838 392b 00       		.byte	0
 12839 392c 02       		.uleb128 0x2
 12840 392d 311F0000 		.4byte	.LASF771
 12841 3931 36       		.byte	0x36
 12842 3932 23       		.byte	0x23
 12843 3933 FB380000 		.4byte	0x38fb
 12844 3937 0B       		.uleb128 0xb
ARM GAS  C:\Users\osour\AppData\Local\Temp\ccsBkKuy.s 			page 232


 12845 3938 04       		.byte	0x4
 12846 3939 2C390000 		.4byte	0x392c
 12847 393d 02       		.uleb128 0x2
 12848 393e A7160000 		.4byte	.LASF772
 12849 3942 37       		.byte	0x37
 12850 3943 16       		.byte	0x16
 12851 3944 8A000000 		.4byte	0x8a
 12852 3948 07       		.uleb128 0x7
 12853 3949 301E0000 		.4byte	.LASF773
 12854 394d 18       		.byte	0x18
 12855 394e 37       		.byte	0x37
 12856 394f 2F       		.byte	0x2f
 12857 3950 9B390000 		.4byte	0x399b
 12858 3954 08       		.uleb128 0x8
 12859 3955 BB130000 		.4byte	.LASF774
 12860 3959 37       		.byte	0x37
 12861 395a 31       		.byte	0x31
 12862 395b 9B390000 		.4byte	0x399b
 12863 395f 00       		.byte	0
 12864 3960 18       		.uleb128 0x18
 12865 3961 5F6B00   		.ascii	"_k\000"
 12866 3964 37       		.byte	0x37
 12867 3965 32       		.byte	0x32
 12868 3966 AA000000 		.4byte	0xaa
 12869 396a 04       		.byte	0x4
 12870 396b 08       		.uleb128 0x8
 12871 396c E41B0000 		.4byte	.LASF775
 12872 3970 37       		.byte	0x37
 12873 3971 32       		.byte	0x32
 12874 3972 AA000000 		.4byte	0xaa
 12875 3976 08       		.byte	0x8
 12876 3977 08       		.uleb128 0x8
 12877 3978 081C0000 		.4byte	.LASF776
 12878 397c 37       		.byte	0x37
 12879 397d 32       		.byte	0x32
 12880 397e AA000000 		.4byte	0xaa
 12881 3982 0C       		.byte	0xc
 12882 3983 08       		.uleb128 0x8
 12883 3984 120B0000 		.4byte	.LASF777
 12884 3988 37       		.byte	0x37
 12885 3989 32       		.byte	0x32
 12886 398a AA000000 		.4byte	0xaa
 12887 398e 10       		.byte	0x10
 12888 398f 18       		.uleb128 0x18
 12889 3990 5F7800   		.ascii	"_x\000"
 12890 3993 37       		.byte	0x37
 12891 3994 33       		.byte	0x33
 12892 3995 A1390000 		.4byte	0x39a1
 12893 3999 14       		.byte	0x14
 12894 399a 00       		.byte	0
 12895 399b 0B       		.uleb128 0xb
 12896 399c 04       		.byte	0x4
 12897 399d 48390000 		.4byte	0x3948
 12898 39a1 13       		.uleb128 0x13
 12899 39a2 3D390000 		.4byte	0x393d
 12900 39a6 B1390000 		.4byte	0x39b1
 12901 39aa 14       		.uleb128 0x14
ARM GAS  C:\Users\osour\AppData\Local\Temp\ccsBkKuy.s 			page 233


 12902 39ab B1000000 		.4byte	0xb1
 12903 39af 00       		.byte	0
 12904 39b0 00       		.byte	0
 12905 39b1 07       		.uleb128 0x7
 12906 39b2 161F0000 		.4byte	.LASF778
 12907 39b6 24       		.byte	0x24
 12908 39b7 37       		.byte	0x37
 12909 39b8 37       		.byte	0x37
 12910 39b9 2A3A0000 		.4byte	0x3a2a
 12911 39bd 08       		.uleb128 0x8
 12912 39be 2D150000 		.4byte	.LASF779
 12913 39c2 37       		.byte	0x37
 12914 39c3 39       		.byte	0x39
 12915 39c4 AA000000 		.4byte	0xaa
 12916 39c8 00       		.byte	0
 12917 39c9 08       		.uleb128 0x8
 12918 39ca 2C0C0000 		.4byte	.LASF780
 12919 39ce 37       		.byte	0x37
 12920 39cf 3A       		.byte	0x3a
 12921 39d0 AA000000 		.4byte	0xaa
 12922 39d4 04       		.byte	0x4
 12923 39d5 08       		.uleb128 0x8
 12924 39d6 A2100000 		.4byte	.LASF781
 12925 39da 37       		.byte	0x37
 12926 39db 3B       		.byte	0x3b
 12927 39dc AA000000 		.4byte	0xaa
 12928 39e0 08       		.byte	0x8
 12929 39e1 08       		.uleb128 0x8
 12930 39e2 200A0000 		.4byte	.LASF782
 12931 39e6 37       		.byte	0x37
 12932 39e7 3C       		.byte	0x3c
 12933 39e8 AA000000 		.4byte	0xaa
 12934 39ec 0C       		.byte	0xc
 12935 39ed 08       		.uleb128 0x8
 12936 39ee 35020000 		.4byte	.LASF783
 12937 39f2 37       		.byte	0x37
 12938 39f3 3D       		.byte	0x3d
 12939 39f4 AA000000 		.4byte	0xaa
 12940 39f8 10       		.byte	0x10
 12941 39f9 08       		.uleb128 0x8
 12942 39fa 670C0000 		.4byte	.LASF784
 12943 39fe 37       		.byte	0x37
 12944 39ff 3E       		.byte	0x3e
 12945 3a00 AA000000 		.4byte	0xaa
 12946 3a04 14       		.byte	0x14
 12947 3a05 08       		.uleb128 0x8
 12948 3a06 050A0000 		.4byte	.LASF785
 12949 3a0a 37       		.byte	0x37
 12950 3a0b 3F       		.byte	0x3f
 12951 3a0c AA000000 		.4byte	0xaa
 12952 3a10 18       		.byte	0x18
 12953 3a11 08       		.uleb128 0x8
 12954 3a12 690A0000 		.4byte	.LASF786
 12955 3a16 37       		.byte	0x37
 12956 3a17 40       		.byte	0x40
 12957 3a18 AA000000 		.4byte	0xaa
 12958 3a1c 1C       		.byte	0x1c
ARM GAS  C:\Users\osour\AppData\Local\Temp\ccsBkKuy.s 			page 234


 12959 3a1d 08       		.uleb128 0x8
 12960 3a1e C2290000 		.4byte	.LASF787
 12961 3a22 37       		.byte	0x37
 12962 3a23 41       		.byte	0x41
 12963 3a24 AA000000 		.4byte	0xaa
 12964 3a28 20       		.byte	0x20
 12965 3a29 00       		.byte	0
 12966 3a2a 2D       		.uleb128 0x2d
 12967 3a2b 4E150000 		.4byte	.LASF788
 12968 3a2f 0801     		.2byte	0x108
 12969 3a31 37       		.byte	0x37
 12970 3a32 4A       		.byte	0x4a
 12971 3a33 6A3A0000 		.4byte	0x3a6a
 12972 3a37 08       		.uleb128 0x8
 12973 3a38 19130000 		.4byte	.LASF789
 12974 3a3c 37       		.byte	0x37
 12975 3a3d 4B       		.byte	0x4b
 12976 3a3e 6A3A0000 		.4byte	0x3a6a
 12977 3a42 00       		.byte	0
 12978 3a43 08       		.uleb128 0x8
 12979 3a44 24040000 		.4byte	.LASF790
 12980 3a48 37       		.byte	0x37
 12981 3a49 4C       		.byte	0x4c
 12982 3a4a 6A3A0000 		.4byte	0x3a6a
 12983 3a4e 80       		.byte	0x80
 12984 3a4f 27       		.uleb128 0x27
 12985 3a50 3E020000 		.4byte	.LASF791
 12986 3a54 37       		.byte	0x37
 12987 3a55 4E       		.byte	0x4e
 12988 3a56 3D390000 		.4byte	0x393d
 12989 3a5a 0001     		.2byte	0x100
 12990 3a5c 27       		.uleb128 0x27
 12991 3a5d 80220000 		.4byte	.LASF792
 12992 3a61 37       		.byte	0x37
 12993 3a62 51       		.byte	0x51
 12994 3a63 3D390000 		.4byte	0x393d
 12995 3a67 0401     		.2byte	0x104
 12996 3a69 00       		.byte	0
 12997 3a6a 13       		.uleb128 0x13
 12998 3a6b D0030000 		.4byte	0x3d0
 12999 3a6f 7A3A0000 		.4byte	0x3a7a
 13000 3a73 14       		.uleb128 0x14
 13001 3a74 B1000000 		.4byte	0xb1
 13002 3a78 1F       		.byte	0x1f
 13003 3a79 00       		.byte	0
 13004 3a7a 2D       		.uleb128 0x2d
 13005 3a7b 7E010000 		.4byte	.LASF793
 13006 3a7f 9001     		.2byte	0x190
 13007 3a81 37       		.byte	0x37
 13008 3a82 5D       		.byte	0x5d
 13009 3a83 B83A0000 		.4byte	0x3ab8
 13010 3a87 08       		.uleb128 0x8
 13011 3a88 BB130000 		.4byte	.LASF774
 13012 3a8c 37       		.byte	0x37
 13013 3a8d 5E       		.byte	0x5e
 13014 3a8e B83A0000 		.4byte	0x3ab8
 13015 3a92 00       		.byte	0
ARM GAS  C:\Users\osour\AppData\Local\Temp\ccsBkKuy.s 			page 235


 13016 3a93 08       		.uleb128 0x8
 13017 3a94 5A020000 		.4byte	.LASF794
 13018 3a98 37       		.byte	0x37
 13019 3a99 5F       		.byte	0x5f
 13020 3a9a AA000000 		.4byte	0xaa
 13021 3a9e 04       		.byte	0x4
 13022 3a9f 08       		.uleb128 0x8
 13023 3aa0 46210000 		.4byte	.LASF795
 13024 3aa4 37       		.byte	0x37
 13025 3aa5 61       		.byte	0x61
 13026 3aa6 BE3A0000 		.4byte	0x3abe
 13027 3aaa 08       		.byte	0x8
 13028 3aab 08       		.uleb128 0x8
 13029 3aac 4E150000 		.4byte	.LASF788
 13030 3ab0 37       		.byte	0x37
 13031 3ab1 62       		.byte	0x62
 13032 3ab2 2A3A0000 		.4byte	0x3a2a
 13033 3ab6 88       		.byte	0x88
 13034 3ab7 00       		.byte	0
 13035 3ab8 0B       		.uleb128 0xb
 13036 3ab9 04       		.byte	0x4
 13037 3aba 7A3A0000 		.4byte	0x3a7a
 13038 3abe 13       		.uleb128 0x13
 13039 3abf CE3A0000 		.4byte	0x3ace
 13040 3ac3 CE3A0000 		.4byte	0x3ace
 13041 3ac7 14       		.uleb128 0x14
 13042 3ac8 B1000000 		.4byte	0xb1
 13043 3acc 1F       		.byte	0x1f
 13044 3acd 00       		.byte	0
 13045 3ace 0B       		.uleb128 0xb
 13046 3acf 04       		.byte	0x4
 13047 3ad0 D43A0000 		.4byte	0x3ad4
 13048 3ad4 2E       		.uleb128 0x2e
 13049 3ad5 07       		.uleb128 0x7
 13050 3ad6 4E190000 		.4byte	.LASF796
 13051 3ada 08       		.byte	0x8
 13052 3adb 37       		.byte	0x37
 13053 3adc 75       		.byte	0x75
 13054 3add FA3A0000 		.4byte	0x3afa
 13055 3ae1 08       		.uleb128 0x8
 13056 3ae2 89150000 		.4byte	.LASF797
 13057 3ae6 37       		.byte	0x37
 13058 3ae7 76       		.byte	0x76
 13059 3ae8 FA3A0000 		.4byte	0x3afa
 13060 3aec 00       		.byte	0
 13061 3aed 08       		.uleb128 0x8
 13062 3aee BC0B0000 		.4byte	.LASF798
 13063 3af2 37       		.byte	0x37
 13064 3af3 77       		.byte	0x77
 13065 3af4 AA000000 		.4byte	0xaa
 13066 3af8 04       		.byte	0x4
 13067 3af9 00       		.byte	0
 13068 3afa 0B       		.uleb128 0xb
 13069 3afb 04       		.byte	0x4
 13070 3afc 42000000 		.4byte	0x42
 13071 3b00 07       		.uleb128 0x7
 13072 3b01 2C210000 		.4byte	.LASF799
ARM GAS  C:\Users\osour\AppData\Local\Temp\ccsBkKuy.s 			page 236


 13073 3b05 68       		.byte	0x68
 13074 3b06 37       		.byte	0x37
 13075 3b07 B5       		.byte	0xb5
 13076 3b08 2A3C0000 		.4byte	0x3c2a
 13077 3b0c 18       		.uleb128 0x18
 13078 3b0d 5F7000   		.ascii	"_p\000"
 13079 3b10 37       		.byte	0x37
 13080 3b11 B6       		.byte	0xb6
 13081 3b12 FA3A0000 		.4byte	0x3afa
 13082 3b16 00       		.byte	0
 13083 3b17 18       		.uleb128 0x18
 13084 3b18 5F7200   		.ascii	"_r\000"
 13085 3b1b 37       		.byte	0x37
 13086 3b1c B7       		.byte	0xb7
 13087 3b1d AA000000 		.4byte	0xaa
 13088 3b21 04       		.byte	0x4
 13089 3b22 18       		.uleb128 0x18
 13090 3b23 5F7700   		.ascii	"_w\000"
 13091 3b26 37       		.byte	0x37
 13092 3b27 B8       		.byte	0xb8
 13093 3b28 AA000000 		.4byte	0xaa
 13094 3b2c 08       		.byte	0x8
 13095 3b2d 08       		.uleb128 0x8
 13096 3b2e C8020000 		.4byte	.LASF800
 13097 3b32 37       		.byte	0x37
 13098 3b33 B9       		.byte	0xb9
 13099 3b34 54000000 		.4byte	0x54
 13100 3b38 0C       		.byte	0xc
 13101 3b39 08       		.uleb128 0x8
 13102 3b3a E8200000 		.4byte	.LASF801
 13103 3b3e 37       		.byte	0x37
 13104 3b3f BA       		.byte	0xba
 13105 3b40 54000000 		.4byte	0x54
 13106 3b44 0E       		.byte	0xe
 13107 3b45 18       		.uleb128 0x18
 13108 3b46 5F626600 		.ascii	"_bf\000"
 13109 3b4a 37       		.byte	0x37
 13110 3b4b BB       		.byte	0xbb
 13111 3b4c D53A0000 		.4byte	0x3ad5
 13112 3b50 10       		.byte	0x10
 13113 3b51 08       		.uleb128 0x8
 13114 3b52 8C050000 		.4byte	.LASF802
 13115 3b56 37       		.byte	0x37
 13116 3b57 BC       		.byte	0xbc
 13117 3b58 AA000000 		.4byte	0xaa
 13118 3b5c 18       		.byte	0x18
 13119 3b5d 08       		.uleb128 0x8
 13120 3b5e 1B140000 		.4byte	.LASF803
 13121 3b62 37       		.byte	0x37
 13122 3b63 C3       		.byte	0xc3
 13123 3b64 D0030000 		.4byte	0x3d0
 13124 3b68 1C       		.byte	0x1c
 13125 3b69 08       		.uleb128 0x8
 13126 3b6a 83290000 		.4byte	.LASF804
 13127 3b6e 37       		.byte	0x37
 13128 3b6f C5       		.byte	0xc5
 13129 3b70 853D0000 		.4byte	0x3d85
ARM GAS  C:\Users\osour\AppData\Local\Temp\ccsBkKuy.s 			page 237


 13130 3b74 20       		.byte	0x20
 13131 3b75 08       		.uleb128 0x8
 13132 3b76 C20B0000 		.4byte	.LASF805
 13133 3b7a 37       		.byte	0x37
 13134 3b7b C7       		.byte	0xc7
 13135 3b7c A93D0000 		.4byte	0x3da9
 13136 3b80 24       		.byte	0x24
 13137 3b81 08       		.uleb128 0x8
 13138 3b82 A6170000 		.4byte	.LASF806
 13139 3b86 37       		.byte	0x37
 13140 3b87 CA       		.byte	0xca
 13141 3b88 CD3D0000 		.4byte	0x3dcd
 13142 3b8c 28       		.byte	0x28
 13143 3b8d 08       		.uleb128 0x8
 13144 3b8e 051D0000 		.4byte	.LASF807
 13145 3b92 37       		.byte	0x37
 13146 3b93 CB       		.byte	0xcb
 13147 3b94 E73D0000 		.4byte	0x3de7
 13148 3b98 2C       		.byte	0x2c
 13149 3b99 18       		.uleb128 0x18
 13150 3b9a 5F756200 		.ascii	"_ub\000"
 13151 3b9e 37       		.byte	0x37
 13152 3b9f CE       		.byte	0xce
 13153 3ba0 D53A0000 		.4byte	0x3ad5
 13154 3ba4 30       		.byte	0x30
 13155 3ba5 18       		.uleb128 0x18
 13156 3ba6 5F757000 		.ascii	"_up\000"
 13157 3baa 37       		.byte	0x37
 13158 3bab CF       		.byte	0xcf
 13159 3bac FA3A0000 		.4byte	0x3afa
 13160 3bb0 38       		.byte	0x38
 13161 3bb1 18       		.uleb128 0x18
 13162 3bb2 5F757200 		.ascii	"_ur\000"
 13163 3bb6 37       		.byte	0x37
 13164 3bb7 D0       		.byte	0xd0
 13165 3bb8 AA000000 		.4byte	0xaa
 13166 3bbc 3C       		.byte	0x3c
 13167 3bbd 08       		.uleb128 0x8
 13168 3bbe E81F0000 		.4byte	.LASF808
 13169 3bc2 37       		.byte	0x37
 13170 3bc3 D3       		.byte	0xd3
 13171 3bc4 ED3D0000 		.4byte	0x3ded
 13172 3bc8 40       		.byte	0x40
 13173 3bc9 08       		.uleb128 0x8
 13174 3bca 97030000 		.4byte	.LASF809
 13175 3bce 37       		.byte	0x37
 13176 3bcf D4       		.byte	0xd4
 13177 3bd0 FD3D0000 		.4byte	0x3dfd
 13178 3bd4 43       		.byte	0x43
 13179 3bd5 18       		.uleb128 0x18
 13180 3bd6 5F6C6200 		.ascii	"_lb\000"
 13181 3bda 37       		.byte	0x37
 13182 3bdb D7       		.byte	0xd7
 13183 3bdc D53A0000 		.4byte	0x3ad5
 13184 3be0 44       		.byte	0x44
 13185 3be1 08       		.uleb128 0x8
 13186 3be2 8F0C0000 		.4byte	.LASF810
ARM GAS  C:\Users\osour\AppData\Local\Temp\ccsBkKuy.s 			page 238


 13187 3be6 37       		.byte	0x37
 13188 3be7 DA       		.byte	0xda
 13189 3be8 AA000000 		.4byte	0xaa
 13190 3bec 4C       		.byte	0x4c
 13191 3bed 08       		.uleb128 0x8
 13192 3bee E0180000 		.4byte	.LASF811
 13193 3bf2 37       		.byte	0x37
 13194 3bf3 DB       		.byte	0xdb
 13195 3bf4 19370000 		.4byte	0x3719
 13196 3bf8 50       		.byte	0x50
 13197 3bf9 08       		.uleb128 0x8
 13198 3bfa FE240000 		.4byte	.LASF812
 13199 3bfe 37       		.byte	0x37
 13200 3bff DE       		.byte	0xde
 13201 3c00 483C0000 		.4byte	0x3c48
 13202 3c04 54       		.byte	0x54
 13203 3c05 08       		.uleb128 0x8
 13204 3c06 91030000 		.4byte	.LASF813
 13205 3c0a 37       		.byte	0x37
 13206 3c0b E2       		.byte	0xe2
 13207 3c0c 96370000 		.4byte	0x3796
 13208 3c10 58       		.byte	0x58
 13209 3c11 08       		.uleb128 0x8
 13210 3c12 74160000 		.4byte	.LASF814
 13211 3c16 37       		.byte	0x37
 13212 3c17 E4       		.byte	0xe4
 13213 3c18 8B370000 		.4byte	0x378b
 13214 3c1c 5C       		.byte	0x5c
 13215 3c1d 08       		.uleb128 0x8
 13216 3c1e D8260000 		.4byte	.LASF815
 13217 3c22 37       		.byte	0x37
 13218 3c23 E5       		.byte	0xe5
 13219 3c24 AA000000 		.4byte	0xaa
 13220 3c28 64       		.byte	0x64
 13221 3c29 00       		.byte	0
 13222 3c2a 20       		.uleb128 0x20
 13223 3c2b AA000000 		.4byte	0xaa
 13224 3c2f 483C0000 		.4byte	0x3c48
 13225 3c33 0E       		.uleb128 0xe
 13226 3c34 483C0000 		.4byte	0x3c48
 13227 3c38 0E       		.uleb128 0xe
 13228 3c39 D0030000 		.4byte	0x3d0
 13229 3c3d 0E       		.uleb128 0xe
 13230 3c3e A1370000 		.4byte	0x37a1
 13231 3c42 0E       		.uleb128 0xe
 13232 3c43 AA000000 		.4byte	0xaa
 13233 3c47 00       		.byte	0
 13234 3c48 0B       		.uleb128 0xb
 13235 3c49 04       		.byte	0x4
 13236 3c4a 533C0000 		.4byte	0x3c53
 13237 3c4e 05       		.uleb128 0x5
 13238 3c4f 483C0000 		.4byte	0x3c48
 13239 3c53 10       		.uleb128 0x10
 13240 3c54 C7190000 		.4byte	.LASF816
 13241 3c58 2804     		.2byte	0x428
 13242 3c5a 37       		.byte	0x37
 13243 3c5b 3902     		.2byte	0x239
ARM GAS  C:\Users\osour\AppData\Local\Temp\ccsBkKuy.s 			page 239


 13244 3c5d 853D0000 		.4byte	0x3d85
 13245 3c61 0A       		.uleb128 0xa
 13246 3c62 9C120000 		.4byte	.LASF817
 13247 3c66 37       		.byte	0x37
 13248 3c67 3B02     		.2byte	0x23b
 13249 3c69 AA000000 		.4byte	0xaa
 13250 3c6d 00       		.byte	0
 13251 3c6e 0A       		.uleb128 0xa
 13252 3c6f AB0D0000 		.4byte	.LASF818
 13253 3c73 37       		.byte	0x37
 13254 3c74 4002     		.2byte	0x240
 13255 3c76 543E0000 		.4byte	0x3e54
 13256 3c7a 04       		.byte	0x4
 13257 3c7b 0A       		.uleb128 0xa
 13258 3c7c 910A0000 		.4byte	.LASF819
 13259 3c80 37       		.byte	0x37
 13260 3c81 4002     		.2byte	0x240
 13261 3c83 543E0000 		.4byte	0x3e54
 13262 3c87 08       		.byte	0x8
 13263 3c88 0A       		.uleb128 0xa
 13264 3c89 A1090000 		.4byte	.LASF820
 13265 3c8d 37       		.byte	0x37
 13266 3c8e 4002     		.2byte	0x240
 13267 3c90 543E0000 		.4byte	0x3e54
 13268 3c94 0C       		.byte	0xc
 13269 3c95 0A       		.uleb128 0xa
 13270 3c96 55020000 		.4byte	.LASF821
 13271 3c9a 37       		.byte	0x37
 13272 3c9b 4202     		.2byte	0x242
 13273 3c9d AA000000 		.4byte	0xaa
 13274 3ca1 10       		.byte	0x10
 13275 3ca2 0A       		.uleb128 0xa
 13276 3ca3 BB0F0000 		.4byte	.LASF822
 13277 3ca7 37       		.byte	0x37
 13278 3ca8 4302     		.2byte	0x243
 13279 3caa 36400000 		.4byte	0x4036
 13280 3cae 14       		.byte	0x14
 13281 3caf 0A       		.uleb128 0xa
 13282 3cb0 49250000 		.4byte	.LASF823
 13283 3cb4 37       		.byte	0x37
 13284 3cb5 4602     		.2byte	0x246
 13285 3cb7 AA000000 		.4byte	0xaa
 13286 3cbb 30       		.byte	0x30
 13287 3cbc 0A       		.uleb128 0xa
 13288 3cbd 33270000 		.4byte	.LASF824
 13289 3cc1 37       		.byte	0x37
 13290 3cc2 4702     		.2byte	0x247
 13291 3cc4 4B400000 		.4byte	0x404b
 13292 3cc8 34       		.byte	0x34
 13293 3cc9 0A       		.uleb128 0xa
 13294 3cca B9250000 		.4byte	.LASF825
 13295 3cce 37       		.byte	0x37
 13296 3ccf 4902     		.2byte	0x249
 13297 3cd1 AA000000 		.4byte	0xaa
 13298 3cd5 38       		.byte	0x38
 13299 3cd6 0A       		.uleb128 0xa
 13300 3cd7 3F200000 		.4byte	.LASF826
ARM GAS  C:\Users\osour\AppData\Local\Temp\ccsBkKuy.s 			page 240


 13301 3cdb 37       		.byte	0x37
 13302 3cdc 4B02     		.2byte	0x24b
 13303 3cde 5C400000 		.4byte	0x405c
 13304 3ce2 3C       		.byte	0x3c
 13305 3ce3 0A       		.uleb128 0xa
 13306 3ce4 A9090000 		.4byte	.LASF827
 13307 3ce8 37       		.byte	0x37
 13308 3ce9 4E02     		.2byte	0x24e
 13309 3ceb 9B390000 		.4byte	0x399b
 13310 3cef 40       		.byte	0x40
 13311 3cf0 0A       		.uleb128 0xa
 13312 3cf1 92090000 		.4byte	.LASF828
 13313 3cf5 37       		.byte	0x37
 13314 3cf6 4F02     		.2byte	0x24f
 13315 3cf8 AA000000 		.4byte	0xaa
 13316 3cfc 44       		.byte	0x44
 13317 3cfd 0A       		.uleb128 0xa
 13318 3cfe BA220000 		.4byte	.LASF829
 13319 3d02 37       		.byte	0x37
 13320 3d03 5002     		.2byte	0x250
 13321 3d05 9B390000 		.4byte	0x399b
 13322 3d09 48       		.byte	0x48
 13323 3d0a 0A       		.uleb128 0xa
 13324 3d0b A5180000 		.4byte	.LASF830
 13325 3d0f 37       		.byte	0x37
 13326 3d10 5102     		.2byte	0x251
 13327 3d12 62400000 		.4byte	0x4062
 13328 3d16 4C       		.byte	0x4c
 13329 3d17 0A       		.uleb128 0xa
 13330 3d18 16030000 		.4byte	.LASF831
 13331 3d1c 37       		.byte	0x37
 13332 3d1d 5402     		.2byte	0x254
 13333 3d1f AA000000 		.4byte	0xaa
 13334 3d23 50       		.byte	0x50
 13335 3d24 0A       		.uleb128 0xa
 13336 3d25 9E0F0000 		.4byte	.LASF832
 13337 3d29 37       		.byte	0x37
 13338 3d2a 5502     		.2byte	0x255
 13339 3d2c A1370000 		.4byte	0x37a1
 13340 3d30 54       		.byte	0x54
 13341 3d31 0A       		.uleb128 0xa
 13342 3d32 D9050000 		.4byte	.LASF833
 13343 3d36 37       		.byte	0x37
 13344 3d37 7802     		.2byte	0x278
 13345 3d39 14400000 		.4byte	0x4014
 13346 3d3d 58       		.byte	0x58
 13347 3d3e 11       		.uleb128 0x11
 13348 3d3f 7E010000 		.4byte	.LASF793
 13349 3d43 37       		.byte	0x37
 13350 3d44 7C02     		.2byte	0x27c
 13351 3d46 B83A0000 		.4byte	0x3ab8
 13352 3d4a 4801     		.2byte	0x148
 13353 3d4c 11       		.uleb128 0x11
 13354 3d4d 601E0000 		.4byte	.LASF834
 13355 3d51 37       		.byte	0x37
 13356 3d52 7D02     		.2byte	0x27d
 13357 3d54 7A3A0000 		.4byte	0x3a7a
ARM GAS  C:\Users\osour\AppData\Local\Temp\ccsBkKuy.s 			page 241


 13358 3d58 4C01     		.2byte	0x14c
 13359 3d5a 11       		.uleb128 0x11
 13360 3d5b 44030000 		.4byte	.LASF835
 13361 3d5f 37       		.byte	0x37
 13362 3d60 8102     		.2byte	0x281
 13363 3d62 73400000 		.4byte	0x4073
 13364 3d66 DC02     		.2byte	0x2dc
 13365 3d68 11       		.uleb128 0x11
 13366 3d69 1D200000 		.4byte	.LASF836
 13367 3d6d 37       		.byte	0x37
 13368 3d6e 8602     		.2byte	0x286
 13369 3d70 193E0000 		.4byte	0x3e19
 13370 3d74 E002     		.2byte	0x2e0
 13371 3d76 11       		.uleb128 0x11
 13372 3d77 08070000 		.4byte	.LASF837
 13373 3d7b 37       		.byte	0x37
 13374 3d7c 8802     		.2byte	0x288
 13375 3d7e 7F400000 		.4byte	0x407f
 13376 3d82 EC02     		.2byte	0x2ec
 13377 3d84 00       		.byte	0
 13378 3d85 0B       		.uleb128 0xb
 13379 3d86 04       		.byte	0x4
 13380 3d87 2A3C0000 		.4byte	0x3c2a
 13381 3d8b 20       		.uleb128 0x20
 13382 3d8c AA000000 		.4byte	0xaa
 13383 3d90 A93D0000 		.4byte	0x3da9
 13384 3d94 0E       		.uleb128 0xe
 13385 3d95 483C0000 		.4byte	0x3c48
 13386 3d99 0E       		.uleb128 0xe
 13387 3d9a D0030000 		.4byte	0x3d0
 13388 3d9e 0E       		.uleb128 0xe
 13389 3d9f 15110000 		.4byte	0x1115
 13390 3da3 0E       		.uleb128 0xe
 13391 3da4 AA000000 		.4byte	0xaa
 13392 3da8 00       		.byte	0
 13393 3da9 0B       		.uleb128 0xb
 13394 3daa 04       		.byte	0x4
 13395 3dab 8B3D0000 		.4byte	0x3d8b
 13396 3daf 20       		.uleb128 0x20
 13397 3db0 24370000 		.4byte	0x3724
 13398 3db4 CD3D0000 		.4byte	0x3dcd
 13399 3db8 0E       		.uleb128 0xe
 13400 3db9 483C0000 		.4byte	0x3c48
 13401 3dbd 0E       		.uleb128 0xe
 13402 3dbe D0030000 		.4byte	0x3d0
 13403 3dc2 0E       		.uleb128 0xe
 13404 3dc3 24370000 		.4byte	0x3724
 13405 3dc7 0E       		.uleb128 0xe
 13406 3dc8 AA000000 		.4byte	0xaa
 13407 3dcc 00       		.byte	0
 13408 3dcd 0B       		.uleb128 0xb
 13409 3dce 04       		.byte	0x4
 13410 3dcf AF3D0000 		.4byte	0x3daf
 13411 3dd3 20       		.uleb128 0x20
 13412 3dd4 AA000000 		.4byte	0xaa
 13413 3dd8 E73D0000 		.4byte	0x3de7
 13414 3ddc 0E       		.uleb128 0xe
ARM GAS  C:\Users\osour\AppData\Local\Temp\ccsBkKuy.s 			page 242


 13415 3ddd 483C0000 		.4byte	0x3c48
 13416 3de1 0E       		.uleb128 0xe
 13417 3de2 D0030000 		.4byte	0x3d0
 13418 3de6 00       		.byte	0
 13419 3de7 0B       		.uleb128 0xb
 13420 3de8 04       		.byte	0x4
 13421 3de9 D33D0000 		.4byte	0x3dd3
 13422 3ded 13       		.uleb128 0x13
 13423 3dee 42000000 		.4byte	0x42
 13424 3df2 FD3D0000 		.4byte	0x3dfd
 13425 3df6 14       		.uleb128 0x14
 13426 3df7 B1000000 		.4byte	0xb1
 13427 3dfb 02       		.byte	0x2
 13428 3dfc 00       		.byte	0
 13429 3dfd 13       		.uleb128 0x13
 13430 3dfe 42000000 		.4byte	0x42
 13431 3e02 0D3E0000 		.4byte	0x3e0d
 13432 3e06 14       		.uleb128 0x14
 13433 3e07 B1000000 		.4byte	0xb1
 13434 3e0b 00       		.byte	0
 13435 3e0c 00       		.byte	0
 13436 3e0d 1A       		.uleb128 0x1a
 13437 3e0e 6B280000 		.4byte	.LASF838
 13438 3e12 37       		.byte	0x37
 13439 3e13 1F01     		.2byte	0x11f
 13440 3e15 003B0000 		.4byte	0x3b00
 13441 3e19 0C       		.uleb128 0xc
 13442 3e1a 411D0000 		.4byte	.LASF839
 13443 3e1e 0C       		.byte	0xc
 13444 3e1f 37       		.byte	0x37
 13445 3e20 2301     		.2byte	0x123
 13446 3e22 4E3E0000 		.4byte	0x3e4e
 13447 3e26 0A       		.uleb128 0xa
 13448 3e27 BB130000 		.4byte	.LASF774
 13449 3e2b 37       		.byte	0x37
 13450 3e2c 2501     		.2byte	0x125
 13451 3e2e 4E3E0000 		.4byte	0x3e4e
 13452 3e32 00       		.byte	0
 13453 3e33 0A       		.uleb128 0xa
 13454 3e34 2B110000 		.4byte	.LASF840
 13455 3e38 37       		.byte	0x37
 13456 3e39 2601     		.2byte	0x126
 13457 3e3b AA000000 		.4byte	0xaa
 13458 3e3f 04       		.byte	0x4
 13459 3e40 0A       		.uleb128 0xa
 13460 3e41 5A1B0000 		.4byte	.LASF841
 13461 3e45 37       		.byte	0x37
 13462 3e46 2701     		.2byte	0x127
 13463 3e48 543E0000 		.4byte	0x3e54
 13464 3e4c 08       		.byte	0x8
 13465 3e4d 00       		.byte	0
 13466 3e4e 0B       		.uleb128 0xb
 13467 3e4f 04       		.byte	0x4
 13468 3e50 193E0000 		.4byte	0x3e19
 13469 3e54 0B       		.uleb128 0xb
 13470 3e55 04       		.byte	0x4
 13471 3e56 0D3E0000 		.4byte	0x3e0d
ARM GAS  C:\Users\osour\AppData\Local\Temp\ccsBkKuy.s 			page 243


 13472 3e5a 0C       		.uleb128 0xc
 13473 3e5b AE290000 		.4byte	.LASF842
 13474 3e5f 0E       		.byte	0xe
 13475 3e60 37       		.byte	0x37
 13476 3e61 3F01     		.2byte	0x13f
 13477 3e63 8F3E0000 		.4byte	0x3e8f
 13478 3e67 0A       		.uleb128 0xa
 13479 3e68 91170000 		.4byte	.LASF843
 13480 3e6c 37       		.byte	0x37
 13481 3e6d 4001     		.2byte	0x140
 13482 3e6f 8F3E0000 		.4byte	0x3e8f
 13483 3e73 00       		.byte	0
 13484 3e74 0A       		.uleb128 0xa
 13485 3e75 65290000 		.4byte	.LASF844
 13486 3e79 37       		.byte	0x37
 13487 3e7a 4101     		.2byte	0x141
 13488 3e7c 8F3E0000 		.4byte	0x3e8f
 13489 3e80 06       		.byte	0x6
 13490 3e81 0A       		.uleb128 0xa
 13491 3e82 A4190000 		.4byte	.LASF845
 13492 3e86 37       		.byte	0x37
 13493 3e87 4201     		.2byte	0x142
 13494 3e89 66000000 		.4byte	0x66
 13495 3e8d 0C       		.byte	0xc
 13496 3e8e 00       		.byte	0
 13497 3e8f 13       		.uleb128 0x13
 13498 3e90 66000000 		.4byte	0x66
 13499 3e94 9F3E0000 		.4byte	0x3e9f
 13500 3e98 14       		.uleb128 0x14
 13501 3e99 B1000000 		.4byte	0xb1
 13502 3e9d 02       		.byte	0x2
 13503 3e9e 00       		.byte	0
 13504 3e9f 19       		.uleb128 0x19
 13505 3ea0 D0       		.byte	0xd0
 13506 3ea1 37       		.byte	0x37
 13507 3ea2 5902     		.2byte	0x259
 13508 3ea4 A03F0000 		.4byte	0x3fa0
 13509 3ea8 0A       		.uleb128 0xa
 13510 3ea9 F3080000 		.4byte	.LASF846
 13511 3ead 37       		.byte	0x37
 13512 3eae 5B02     		.2byte	0x25b
 13513 3eb0 B1000000 		.4byte	0xb1
 13514 3eb4 00       		.byte	0
 13515 3eb5 0A       		.uleb128 0xa
 13516 3eb6 47170000 		.4byte	.LASF847
 13517 3eba 37       		.byte	0x37
 13518 3ebb 5C02     		.2byte	0x25c
 13519 3ebd A1370000 		.4byte	0x37a1
 13520 3ec1 04       		.byte	0x4
 13521 3ec2 0A       		.uleb128 0xa
 13522 3ec3 E5190000 		.4byte	.LASF848
 13523 3ec7 37       		.byte	0x37
 13524 3ec8 5D02     		.2byte	0x25d
 13525 3eca A03F0000 		.4byte	0x3fa0
 13526 3ece 08       		.byte	0x8
 13527 3ecf 0A       		.uleb128 0xa
 13528 3ed0 5C150000 		.4byte	.LASF849
ARM GAS  C:\Users\osour\AppData\Local\Temp\ccsBkKuy.s 			page 244


 13529 3ed4 37       		.byte	0x37
 13530 3ed5 5E02     		.2byte	0x25e
 13531 3ed7 B1390000 		.4byte	0x39b1
 13532 3edb 24       		.byte	0x24
 13533 3edc 0A       		.uleb128 0xa
 13534 3edd 6C240000 		.4byte	.LASF850
 13535 3ee1 37       		.byte	0x37
 13536 3ee2 5F02     		.2byte	0x25f
 13537 3ee4 AA000000 		.4byte	0xaa
 13538 3ee8 48       		.byte	0x48
 13539 3ee9 0A       		.uleb128 0xa
 13540 3eea 901B0000 		.4byte	.LASF851
 13541 3eee 37       		.byte	0x37
 13542 3eef 6002     		.2byte	0x260
 13543 3ef1 A3000000 		.4byte	0xa3
 13544 3ef5 50       		.byte	0x50
 13545 3ef6 0A       		.uleb128 0xa
 13546 3ef7 AC270000 		.4byte	.LASF852
 13547 3efb 37       		.byte	0x37
 13548 3efc 6102     		.2byte	0x261
 13549 3efe 5A3E0000 		.4byte	0x3e5a
 13550 3f02 58       		.byte	0x58
 13551 3f03 0A       		.uleb128 0xa
 13552 3f04 10200000 		.4byte	.LASF853
 13553 3f08 37       		.byte	0x37
 13554 3f09 6202     		.2byte	0x262
 13555 3f0b 8B370000 		.4byte	0x378b
 13556 3f0f 68       		.byte	0x68
 13557 3f10 0A       		.uleb128 0xa
 13558 3f11 37070000 		.4byte	.LASF854
 13559 3f15 37       		.byte	0x37
 13560 3f16 6302     		.2byte	0x263
 13561 3f18 8B370000 		.4byte	0x378b
 13562 3f1c 70       		.byte	0x70
 13563 3f1d 0A       		.uleb128 0xa
 13564 3f1e 8E040000 		.4byte	.LASF855
 13565 3f22 37       		.byte	0x37
 13566 3f23 6402     		.2byte	0x264
 13567 3f25 8B370000 		.4byte	0x378b
 13568 3f29 78       		.byte	0x78
 13569 3f2a 0A       		.uleb128 0xa
 13570 3f2b DB190000 		.4byte	.LASF856
 13571 3f2f 37       		.byte	0x37
 13572 3f30 6502     		.2byte	0x265
 13573 3f32 B03F0000 		.4byte	0x3fb0
 13574 3f36 80       		.byte	0x80
 13575 3f37 0A       		.uleb128 0xa
 13576 3f38 F1130000 		.4byte	.LASF857
 13577 3f3c 37       		.byte	0x37
 13578 3f3d 6602     		.2byte	0x266
 13579 3f3f C03F0000 		.4byte	0x3fc0
 13580 3f43 88       		.byte	0x88
 13581 3f44 0A       		.uleb128 0xa
 13582 3f45 D11E0000 		.4byte	.LASF858
 13583 3f49 37       		.byte	0x37
 13584 3f4a 6702     		.2byte	0x267
 13585 3f4c AA000000 		.4byte	0xaa
ARM GAS  C:\Users\osour\AppData\Local\Temp\ccsBkKuy.s 			page 245


 13586 3f50 A0       		.byte	0xa0
 13587 3f51 0A       		.uleb128 0xa
 13588 3f52 3D0D0000 		.4byte	.LASF859
 13589 3f56 37       		.byte	0x37
 13590 3f57 6802     		.2byte	0x268
 13591 3f59 8B370000 		.4byte	0x378b
 13592 3f5d A4       		.byte	0xa4
 13593 3f5e 0A       		.uleb128 0xa
 13594 3f5f 4D000000 		.4byte	.LASF860
 13595 3f63 37       		.byte	0x37
 13596 3f64 6902     		.2byte	0x269
 13597 3f66 8B370000 		.4byte	0x378b
 13598 3f6a AC       		.byte	0xac
 13599 3f6b 0A       		.uleb128 0xa
 13600 3f6c EB0A0000 		.4byte	.LASF861
 13601 3f70 37       		.byte	0x37
 13602 3f71 6A02     		.2byte	0x26a
 13603 3f73 8B370000 		.4byte	0x378b
 13604 3f77 B4       		.byte	0xb4
 13605 3f78 0A       		.uleb128 0xa
 13606 3f79 D7150000 		.4byte	.LASF862
 13607 3f7d 37       		.byte	0x37
 13608 3f7e 6B02     		.2byte	0x26b
 13609 3f80 8B370000 		.4byte	0x378b
 13610 3f84 BC       		.byte	0xbc
 13611 3f85 0A       		.uleb128 0xa
 13612 3f86 341A0000 		.4byte	.LASF863
 13613 3f8a 37       		.byte	0x37
 13614 3f8b 6C02     		.2byte	0x26c
 13615 3f8d 8B370000 		.4byte	0x378b
 13616 3f91 C4       		.byte	0xc4
 13617 3f92 0A       		.uleb128 0xa
 13618 3f93 99210000 		.4byte	.LASF864
 13619 3f97 37       		.byte	0x37
 13620 3f98 6D02     		.2byte	0x26d
 13621 3f9a AA000000 		.4byte	0xaa
 13622 3f9e CC       		.byte	0xcc
 13623 3f9f 00       		.byte	0
 13624 3fa0 13       		.uleb128 0x13
 13625 3fa1 20110000 		.4byte	0x1120
 13626 3fa5 B03F0000 		.4byte	0x3fb0
 13627 3fa9 14       		.uleb128 0x14
 13628 3faa B1000000 		.4byte	0xb1
 13629 3fae 19       		.byte	0x19
 13630 3faf 00       		.byte	0
 13631 3fb0 13       		.uleb128 0x13
 13632 3fb1 20110000 		.4byte	0x1120
 13633 3fb5 C03F0000 		.4byte	0x3fc0
 13634 3fb9 14       		.uleb128 0x14
 13635 3fba B1000000 		.4byte	0xb1
 13636 3fbe 07       		.byte	0x7
 13637 3fbf 00       		.byte	0
 13638 3fc0 13       		.uleb128 0x13
 13639 3fc1 20110000 		.4byte	0x1120
 13640 3fc5 D03F0000 		.4byte	0x3fd0
 13641 3fc9 14       		.uleb128 0x14
 13642 3fca B1000000 		.4byte	0xb1
ARM GAS  C:\Users\osour\AppData\Local\Temp\ccsBkKuy.s 			page 246


 13643 3fce 17       		.byte	0x17
 13644 3fcf 00       		.byte	0
 13645 3fd0 19       		.uleb128 0x19
 13646 3fd1 F0       		.byte	0xf0
 13647 3fd2 37       		.byte	0x37
 13648 3fd3 7202     		.2byte	0x272
 13649 3fd5 F43F0000 		.4byte	0x3ff4
 13650 3fd9 0A       		.uleb128 0xa
 13651 3fda F3260000 		.4byte	.LASF865
 13652 3fde 37       		.byte	0x37
 13653 3fdf 7502     		.2byte	0x275
 13654 3fe1 F43F0000 		.4byte	0x3ff4
 13655 3fe5 00       		.byte	0
 13656 3fe6 0A       		.uleb128 0xa
 13657 3fe7 B20D0000 		.4byte	.LASF866
 13658 3feb 37       		.byte	0x37
 13659 3fec 7602     		.2byte	0x276
 13660 3fee 04400000 		.4byte	0x4004
 13661 3ff2 78       		.byte	0x78
 13662 3ff3 00       		.byte	0
 13663 3ff4 13       		.uleb128 0x13
 13664 3ff5 FA3A0000 		.4byte	0x3afa
 13665 3ff9 04400000 		.4byte	0x4004
 13666 3ffd 14       		.uleb128 0x14
 13667 3ffe B1000000 		.4byte	0xb1
 13668 4002 1D       		.byte	0x1d
 13669 4003 00       		.byte	0
 13670 4004 13       		.uleb128 0x13
 13671 4005 B1000000 		.4byte	0xb1
 13672 4009 14400000 		.4byte	0x4014
 13673 400d 14       		.uleb128 0x14
 13674 400e B1000000 		.4byte	0xb1
 13675 4012 1D       		.byte	0x1d
 13676 4013 00       		.byte	0
 13677 4014 2B       		.uleb128 0x2b
 13678 4015 F0       		.byte	0xf0
 13679 4016 37       		.byte	0x37
 13680 4017 5702     		.2byte	0x257
 13681 4019 36400000 		.4byte	0x4036
 13682 401d 1E       		.uleb128 0x1e
 13683 401e C7190000 		.4byte	.LASF816
 13684 4022 37       		.byte	0x37
 13685 4023 6E02     		.2byte	0x26e
 13686 4025 9F3E0000 		.4byte	0x3e9f
 13687 4029 1E       		.uleb128 0x1e
 13688 402a C21F0000 		.4byte	.LASF867
 13689 402e 37       		.byte	0x37
 13690 402f 7702     		.2byte	0x277
 13691 4031 D03F0000 		.4byte	0x3fd0
 13692 4035 00       		.byte	0
 13693 4036 13       		.uleb128 0x13
 13694 4037 20110000 		.4byte	0x1120
 13695 403b 46400000 		.4byte	0x4046
 13696 403f 14       		.uleb128 0x14
 13697 4040 B1000000 		.4byte	0xb1
 13698 4044 18       		.byte	0x18
 13699 4045 00       		.byte	0
ARM GAS  C:\Users\osour\AppData\Local\Temp\ccsBkKuy.s 			page 247


 13700 4046 2C       		.uleb128 0x2c
 13701 4047 25200000 		.4byte	.LASF869
 13702 404b 0B       		.uleb128 0xb
 13703 404c 04       		.byte	0x4
 13704 404d 46400000 		.4byte	0x4046
 13705 4051 0D       		.uleb128 0xd
 13706 4052 5C400000 		.4byte	0x405c
 13707 4056 0E       		.uleb128 0xe
 13708 4057 483C0000 		.4byte	0x3c48
 13709 405b 00       		.byte	0
 13710 405c 0B       		.uleb128 0xb
 13711 405d 04       		.byte	0x4
 13712 405e 51400000 		.4byte	0x4051
 13713 4062 0B       		.uleb128 0xb
 13714 4063 04       		.byte	0x4
 13715 4064 9B390000 		.4byte	0x399b
 13716 4068 0D       		.uleb128 0xd
 13717 4069 73400000 		.4byte	0x4073
 13718 406d 0E       		.uleb128 0xe
 13719 406e AA000000 		.4byte	0xaa
 13720 4072 00       		.byte	0
 13721 4073 0B       		.uleb128 0xb
 13722 4074 04       		.byte	0x4
 13723 4075 79400000 		.4byte	0x4079
 13724 4079 0B       		.uleb128 0xb
 13725 407a 04       		.byte	0x4
 13726 407b 68400000 		.4byte	0x4068
 13727 407f 13       		.uleb128 0x13
 13728 4080 0D3E0000 		.4byte	0x3e0d
 13729 4084 8F400000 		.4byte	0x408f
 13730 4088 14       		.uleb128 0x14
 13731 4089 B1000000 		.4byte	0xb1
 13732 408d 02       		.byte	0x2
 13733 408e 00       		.byte	0
 13734 408f 15       		.uleb128 0x15
 13735 4090 A71F0000 		.4byte	.LASF870
 13736 4094 37       		.byte	0x37
 13737 4095 0703     		.2byte	0x307
 13738 4097 483C0000 		.4byte	0x3c48
 13739 409b 15       		.uleb128 0x15
 13740 409c 9F230000 		.4byte	.LASF871
 13741 40a0 37       		.byte	0x37
 13742 40a1 0803     		.2byte	0x308
 13743 40a3 4E3C0000 		.4byte	0x3c4e
 13744 40a7 16       		.uleb128 0x16
 13745 40a8 C9010000 		.4byte	.LASF872
 13746 40ac 38       		.byte	0x38
 13747 40ad 63       		.byte	0x63
 13748 40ae A1370000 		.4byte	0x37a1
 13749 40b2 02       		.uleb128 0x2
 13750 40b3 23140000 		.4byte	.LASF873
 13751 40b7 39       		.byte	0x39
 13752 40b8 08       		.byte	0x8
 13753 40b9 BD400000 		.4byte	0x40bd
 13754 40bd 07       		.uleb128 0x7
 13755 40be 4A220000 		.4byte	.LASF874
 13756 40c2 18       		.byte	0x18
ARM GAS  C:\Users\osour\AppData\Local\Temp\ccsBkKuy.s 			page 248


 13757 40c3 39       		.byte	0x39
 13758 40c4 0B       		.byte	0xb
 13759 40c5 11410000 		.4byte	0x4111
 13760 40c9 18       		.uleb128 0x18
 13761 40ca 696400   		.ascii	"id\000"
 13762 40cd 39       		.byte	0x39
 13763 40ce 0C       		.byte	0xc
 13764 40cf 15110000 		.4byte	0x1115
 13765 40d3 00       		.byte	0
 13766 40d4 08       		.uleb128 0x8
 13767 40d5 BD010000 		.4byte	.LASF875
 13768 40d9 39       		.byte	0x39
 13769 40da 0D       		.byte	0xd
 13770 40db E9000000 		.4byte	0xe9
 13771 40df 04       		.byte	0x4
 13772 40e0 08       		.uleb128 0x8
 13773 40e1 34050000 		.4byte	.LASF876
 13774 40e5 39       		.byte	0x39
 13775 40e6 0E       		.byte	0xe
 13776 40e7 7B410000 		.4byte	0x417b
 13777 40eb 08       		.byte	0x8
 13778 40ec 08       		.uleb128 0x8
 13779 40ed 450C0000 		.4byte	.LASF877
 13780 40f1 39       		.byte	0x39
 13781 40f2 0F       		.byte	0xf
 13782 40f3 7B410000 		.4byte	0x417b
 13783 40f7 0C       		.byte	0xc
 13784 40f8 08       		.uleb128 0x8
 13785 40f9 CF020000 		.4byte	.LASF762
 13786 40fd 39       		.byte	0x39
 13787 40fe 10       		.byte	0x10
 13788 40ff 7B410000 		.4byte	0x417b
 13789 4103 10       		.byte	0x10
 13790 4104 08       		.uleb128 0x8
 13791 4105 5C280000 		.4byte	.LASF878
 13792 4109 39       		.byte	0x39
 13793 410a 11       		.byte	0x11
 13794 410b 81410000 		.4byte	0x4181
 13795 410f 14       		.byte	0x14
 13796 4110 00       		.byte	0
 13797 4111 02       		.uleb128 0x2
 13798 4112 02180000 		.4byte	.LASF879
 13799 4116 39       		.byte	0x39
 13800 4117 09       		.byte	0x9
 13801 4118 1C410000 		.4byte	0x411c
 13802 411c 07       		.uleb128 0x7
 13803 411d C4120000 		.4byte	.LASF880
 13804 4121 18       		.byte	0x18
 13805 4122 39       		.byte	0x39
 13806 4123 2E       		.byte	0x2e
 13807 4124 7B410000 		.4byte	0x417b
 13808 4128 18       		.uleb128 0x18
 13809 4129 696400   		.ascii	"id\000"
 13810 412c 39       		.byte	0x39
 13811 412d 2F       		.byte	0x2f
 13812 412e 15110000 		.4byte	0x1115
 13813 4132 00       		.byte	0
ARM GAS  C:\Users\osour\AppData\Local\Temp\ccsBkKuy.s 			page 249


 13814 4133 18       		.uleb128 0x18
 13815 4134 6E7300   		.ascii	"ns\000"
 13816 4137 39       		.byte	0x39
 13817 4138 30       		.byte	0x30
 13818 4139 7B410000 		.4byte	0x417b
 13819 413d 04       		.byte	0x4
 13820 413e 08       		.uleb128 0x8
 13821 413f CF020000 		.4byte	.LASF762
 13822 4143 39       		.byte	0x39
 13823 4144 31       		.byte	0x31
 13824 4145 81410000 		.4byte	0x4181
 13825 4149 08       		.byte	0x8
 13826 414a 08       		.uleb128 0x8
 13827 414b 86210000 		.4byte	.LASF881
 13828 414f 39       		.byte	0x39
 13829 4150 32       		.byte	0x32
 13830 4151 A4150000 		.4byte	0x15a4
 13831 4155 0C       		.byte	0xc
 13832 4156 08       		.uleb128 0x8
 13833 4157 86130000 		.4byte	.LASF882
 13834 415b 39       		.byte	0x39
 13835 415c 33       		.byte	0x33
 13836 415d A4150000 		.4byte	0x15a4
 13837 4161 0D       		.byte	0xd
 13838 4162 08       		.uleb128 0x8
 13839 4163 69080000 		.4byte	.LASF883
 13840 4167 39       		.byte	0x39
 13841 4168 34       		.byte	0x34
 13842 4169 C3000000 		.4byte	0xc3
 13843 416d 0E       		.byte	0xe
 13844 416e 08       		.uleb128 0x8
 13845 416f 590D0000 		.4byte	.LASF884
 13846 4173 39       		.byte	0x39
 13847 4174 3C       		.byte	0x3c
 13848 4175 23420000 		.4byte	0x4223
 13849 4179 10       		.byte	0x10
 13850 417a 00       		.byte	0
 13851 417b 0B       		.uleb128 0xb
 13852 417c 04       		.byte	0x4
 13853 417d B2400000 		.4byte	0x40b2
 13854 4181 0B       		.uleb128 0xb
 13855 4182 04       		.byte	0x4
 13856 4183 11410000 		.4byte	0x4111
 13857 4187 07       		.uleb128 0x7
 13858 4188 5A1A0000 		.4byte	.LASF885
 13859 418c 08       		.byte	0x8
 13860 418d 39       		.byte	0x39
 13861 418e 14       		.byte	0x14
 13862 418f B8410000 		.4byte	0x41b8
 13863 4193 18       		.uleb128 0x18
 13864 4194 62756600 		.ascii	"buf\000"
 13865 4198 39       		.byte	0x39
 13866 4199 15       		.byte	0x15
 13867 419a A1370000 		.4byte	0x37a1
 13868 419e 00       		.byte	0
 13869 419f 08       		.uleb128 0x8
 13870 41a0 1E280000 		.4byte	.LASF886
ARM GAS  C:\Users\osour\AppData\Local\Temp\ccsBkKuy.s 			page 250


 13871 41a4 39       		.byte	0x39
 13872 41a5 16       		.byte	0x16
 13873 41a6 DE000000 		.4byte	0xde
 13874 41aa 04       		.byte	0x4
 13875 41ab 18       		.uleb128 0x18
 13876 41ac 6C656E00 		.ascii	"len\000"
 13877 41b0 39       		.byte	0x39
 13878 41b1 17       		.byte	0x17
 13879 41b2 DE000000 		.4byte	0xde
 13880 41b6 06       		.byte	0x6
 13881 41b7 00       		.byte	0
 13882 41b8 07       		.uleb128 0x7
 13883 41b9 E8180000 		.4byte	.LASF887
 13884 41bd 08       		.byte	0x8
 13885 41be 39       		.byte	0x39
 13886 41bf 1A       		.byte	0x1a
 13887 41c0 E9410000 		.4byte	0x41e9
 13888 41c4 18       		.uleb128 0x18
 13889 41c5 62756600 		.ascii	"buf\000"
 13890 41c9 39       		.byte	0x39
 13891 41ca 1B       		.byte	0x1b
 13892 41cb E9410000 		.4byte	0x41e9
 13893 41cf 00       		.byte	0
 13894 41d0 08       		.uleb128 0x8
 13895 41d1 EC090000 		.4byte	.LASF888
 13896 41d5 39       		.byte	0x39
 13897 41d6 1C       		.byte	0x1c
 13898 41d7 DE000000 		.4byte	0xde
 13899 41db 04       		.byte	0x4
 13900 41dc 18       		.uleb128 0x18
 13901 41dd 64696D00 		.ascii	"dim\000"
 13902 41e1 39       		.byte	0x39
 13903 41e2 1D       		.byte	0x1d
 13904 41e3 DE000000 		.4byte	0xde
 13905 41e7 06       		.byte	0x6
 13906 41e8 00       		.byte	0
 13907 41e9 0B       		.uleb128 0xb
 13908 41ea 04       		.byte	0x4
 13909 41eb EF410000 		.4byte	0x41ef
 13910 41ef 03       		.uleb128 0x3
 13911 41f0 04       		.byte	0x4
 13912 41f1 04       		.byte	0x4
 13913 41f2 170B0000 		.4byte	.LASF889
 13914 41f6 07       		.uleb128 0x7
 13915 41f7 17110000 		.4byte	.LASF890
 13916 41fb 08       		.byte	0x8
 13917 41fc 39       		.byte	0x39
 13918 41fd 20       		.byte	0x20
 13919 41fe 23420000 		.4byte	0x4223
 13920 4202 18       		.uleb128 0x18
 13921 4203 62756600 		.ascii	"buf\000"
 13922 4207 39       		.byte	0x39
 13923 4208 21       		.byte	0x21
 13924 4209 E9410000 		.4byte	0x41e9
 13925 420d 00       		.byte	0
 13926 420e 18       		.uleb128 0x18
 13927 420f 6E00     		.ascii	"n\000"
ARM GAS  C:\Users\osour\AppData\Local\Temp\ccsBkKuy.s 			page 251


 13928 4211 39       		.byte	0x39
 13929 4212 22       		.byte	0x22
 13930 4213 DE000000 		.4byte	0xde
 13931 4217 04       		.byte	0x4
 13932 4218 18       		.uleb128 0x18
 13933 4219 6D00     		.ascii	"m\000"
 13934 421b 39       		.byte	0x39
 13935 421c 23       		.byte	0x23
 13936 421d DE000000 		.4byte	0xde
 13937 4221 06       		.byte	0x6
 13938 4222 00       		.byte	0
 13939 4223 1D       		.uleb128 0x1d
 13940 4224 08       		.byte	0x8
 13941 4225 39       		.byte	0x39
 13942 4226 35       		.byte	0x35
 13943 4227 68420000 		.4byte	0x4268
 13944 422b 23       		.uleb128 0x23
 13945 422c 6200     		.ascii	"b\000"
 13946 422e 39       		.byte	0x39
 13947 422f 36       		.byte	0x36
 13948 4230 A4150000 		.4byte	0x15a4
 13949 4234 23       		.uleb128 0x23
 13950 4235 7300     		.ascii	"s\000"
 13951 4237 39       		.byte	0x39
 13952 4238 37       		.byte	0x37
 13953 4239 EF410000 		.4byte	0x41ef
 13954 423d 23       		.uleb128 0x23
 13955 423e 6900     		.ascii	"i\000"
 13956 4240 39       		.byte	0x39
 13957 4241 38       		.byte	0x38
 13958 4242 E9000000 		.4byte	0xe9
 13959 4246 23       		.uleb128 0x23
 13960 4247 73747200 		.ascii	"str\000"
 13961 424b 39       		.byte	0x39
 13962 424c 39       		.byte	0x39
 13963 424d 87410000 		.4byte	0x4187
 13964 4251 2A       		.uleb128 0x2a
 13965 4252 0A010000 		.4byte	.LASF891
 13966 4256 39       		.byte	0x39
 13967 4257 3A       		.byte	0x3a
 13968 4258 B8410000 		.4byte	0x41b8
 13969 425c 23       		.uleb128 0x23
 13970 425d 6D617400 		.ascii	"mat\000"
 13971 4261 39       		.byte	0x39
 13972 4262 3B       		.byte	0x3b
 13973 4263 F6410000 		.4byte	0x41f6
 13974 4267 00       		.byte	0
 13975 4268 2F       		.uleb128 0x2f
 13976 4269 62757300 		.ascii	"bus\000"
 13977 426d 3A       		.byte	0x3a
 13978 426e 0E       		.byte	0xe
 13979 426f F0380000 		.4byte	0x38f0
 13980 4273 16       		.uleb128 0x16
 13981 4274 CC0E0000 		.4byte	.LASF892
 13982 4278 3A       		.byte	0x3a
 13983 4279 10       		.byte	0x10
 13984 427a B2400000 		.4byte	0x40b2
ARM GAS  C:\Users\osour\AppData\Local\Temp\ccsBkKuy.s 			page 252


 13985 427e 21       		.uleb128 0x21
 13986 427f 07       		.byte	0x7
 13987 4280 01       		.byte	0x1
 13988 4281 42000000 		.4byte	0x42
 13989 4285 3B       		.byte	0x3b
 13990 4286 70       		.byte	0x70
 13991 4287 EC420000 		.4byte	0x42ec
 13992 428b 22       		.uleb128 0x22
 13993 428c B2030000 		.4byte	.LASF893
 13994 4290 00       		.byte	0
 13995 4291 22       		.uleb128 0x22
 13996 4292 72020000 		.4byte	.LASF894
 13997 4296 01       		.byte	0x1
 13998 4297 22       		.uleb128 0x22
 13999 4298 AB0B0000 		.4byte	.LASF895
 14000 429c 02       		.byte	0x2
 14001 429d 22       		.uleb128 0x22
 14002 429e 0E1C0000 		.4byte	.LASF896
 14003 42a2 03       		.byte	0x3
 14004 42a3 22       		.uleb128 0x22
 14005 42a4 A2210000 		.4byte	.LASF897
 14006 42a8 04       		.byte	0x4
 14007 42a9 22       		.uleb128 0x22
 14008 42aa A4080000 		.4byte	.LASF898
 14009 42ae 05       		.byte	0x5
 14010 42af 22       		.uleb128 0x22
 14011 42b0 FF0C0000 		.4byte	.LASF899
 14012 42b4 06       		.byte	0x6
 14013 42b5 22       		.uleb128 0x22
 14014 42b6 09220000 		.4byte	.LASF900
 14015 42ba 07       		.byte	0x7
 14016 42bb 22       		.uleb128 0x22
 14017 42bc C40E0000 		.4byte	.LASF901
 14018 42c0 08       		.byte	0x8
 14019 42c1 22       		.uleb128 0x22
 14020 42c2 C41D0000 		.4byte	.LASF902
 14021 42c6 09       		.byte	0x9
 14022 42c7 22       		.uleb128 0x22
 14023 42c8 3D290000 		.4byte	.LASF903
 14024 42cc 0A       		.byte	0xa
 14025 42cd 22       		.uleb128 0x22
 14026 42ce 1D0B0000 		.4byte	.LASF904
 14027 42d2 0B       		.byte	0xb
 14028 42d3 22       		.uleb128 0x22
 14029 42d4 5C000000 		.4byte	.LASF905
 14030 42d8 0C       		.byte	0xc
 14031 42d9 22       		.uleb128 0x22
 14032 42da DD120000 		.4byte	.LASF906
 14033 42de 0D       		.byte	0xd
 14034 42df 22       		.uleb128 0x22
 14035 42e0 88260000 		.4byte	.LASF907
 14036 42e4 0E       		.byte	0xe
 14037 42e5 22       		.uleb128 0x22
 14038 42e6 EC0F0000 		.4byte	.LASF908
 14039 42ea 0F       		.byte	0xf
 14040 42eb 00       		.byte	0
 14041 42ec 21       		.uleb128 0x21
ARM GAS  C:\Users\osour\AppData\Local\Temp\ccsBkKuy.s 			page 253


 14042 42ed 07       		.byte	0x7
 14043 42ee 01       		.byte	0x1
 14044 42ef 42000000 		.4byte	0x42
 14045 42f3 3B       		.byte	0x3b
 14046 42f4 86       		.byte	0x86
 14047 42f5 0C430000 		.4byte	0x430c
 14048 42f9 22       		.uleb128 0x22
 14049 42fa 50010000 		.4byte	.LASF909
 14050 42fe 00       		.byte	0
 14051 42ff 22       		.uleb128 0x22
 14052 4300 831E0000 		.4byte	.LASF910
 14053 4304 01       		.byte	0x1
 14054 4305 22       		.uleb128 0x22
 14055 4306 EE210000 		.4byte	.LASF911
 14056 430a 02       		.byte	0x2
 14057 430b 00       		.byte	0
 14058 430c 13       		.uleb128 0x13
 14059 430d 27110000 		.4byte	0x1127
 14060 4311 17430000 		.4byte	0x4317
 14061 4315 30       		.uleb128 0x30
 14062 4316 00       		.byte	0
 14063 4317 05       		.uleb128 0x5
 14064 4318 0C430000 		.4byte	0x430c
 14065 431c 16       		.uleb128 0x16
 14066 431d 2C1A0000 		.4byte	.LASF912
 14067 4321 3C       		.byte	0x3c
 14068 4322 A5       		.byte	0xa5
 14069 4323 17430000 		.4byte	0x4317
 14070 4327 17       		.uleb128 0x17
 14071 4328 0C       		.byte	0xc
 14072 4329 3D       		.byte	0x3d
 14073 432a 16       		.byte	0x16
 14074 432b 54430000 		.4byte	0x4354
 14075 432f 08       		.uleb128 0x8
 14076 4330 D10F0000 		.4byte	.LASF913
 14077 4334 3D       		.byte	0x3d
 14078 4335 18       		.byte	0x18
 14079 4336 EF410000 		.4byte	0x41ef
 14080 433a 00       		.byte	0
 14081 433b 08       		.uleb128 0x8
 14082 433c 1E030000 		.4byte	.LASF914
 14083 4340 3D       		.byte	0x3d
 14084 4341 1A       		.byte	0x1a
 14085 4342 EF410000 		.4byte	0x41ef
 14086 4346 04       		.byte	0x4
 14087 4347 08       		.uleb128 0x8
 14088 4348 F9020000 		.4byte	.LASF915
 14089 434c 3D       		.byte	0x3d
 14090 434d 24       		.byte	0x24
 14091 434e EF410000 		.4byte	0x41ef
 14092 4352 08       		.byte	0x8
 14093 4353 00       		.byte	0
 14094 4354 02       		.uleb128 0x2
 14095 4355 F9200000 		.4byte	.LASF916
 14096 4359 3D       		.byte	0x3d
 14097 435a 28       		.byte	0x28
 14098 435b 27430000 		.4byte	0x4327
ARM GAS  C:\Users\osour\AppData\Local\Temp\ccsBkKuy.s 			page 254


 14099 435f 13       		.uleb128 0x13
 14100 4360 20110000 		.4byte	0x1120
 14101 4364 70430000 		.4byte	0x4370
 14102 4368 29       		.uleb128 0x29
 14103 4369 B1000000 		.4byte	0xb1
 14104 436d 2A10     		.2byte	0x102a
 14105 436f 00       		.byte	0
 14106 4370 16       		.uleb128 0x16
 14107 4371 9B1F0000 		.4byte	.LASF755
 14108 4375 01       		.byte	0x1
 14109 4376 36       		.byte	0x36
 14110 4377 5F430000 		.4byte	0x435f
 14111 437b 16       		.uleb128 0x16
 14112 437c A50C0000 		.4byte	.LASF917
 14113 4380 01       		.byte	0x1
 14114 4381 39       		.byte	0x39
 14115 4382 AA000000 		.4byte	0xaa
 14116 4386 2F       		.uleb128 0x2f
 14117 4387 6300     		.ascii	"c\000"
 14118 4389 01       		.byte	0x1
 14119 438a 3A       		.byte	0x3a
 14120 438b 20110000 		.4byte	0x1120
 14121 438f 31       		.uleb128 0x31
 14122 4390 820C0000 		.4byte	.LASF1017
 14123 4394 01       		.byte	0x1
 14124 4395 43       		.byte	0x43
 14125 4396 AA000000 		.4byte	0xaa
 14126 439a 00000000 		.4byte	.LFB260
 14127 439e 94220000 		.4byte	.LFE260-.LFB260
 14128 43a2 01       		.uleb128 0x1
 14129 43a3 9C       		.byte	0x9c
 14130 43a4 E0680000 		.4byte	0x68e0
 14131 43a8 32       		.uleb128 0x32
 14132 43a9 633100   		.ascii	"c1\000"
 14133 43ac 01       		.byte	0x1
 14134 43ad 44       		.byte	0x44
 14135 43ae 20110000 		.4byte	0x1120
 14136 43b2 05       		.uleb128 0x5
 14137 43b3 03       		.byte	0x3
 14138 43b4 00000000 		.4byte	c1.13528
 14139 43b8 32       		.uleb128 0x32
 14140 43b9 633200   		.ascii	"c2\000"
 14141 43bc 01       		.byte	0x1
 14142 43bd 44       		.byte	0x44
 14143 43be 20110000 		.4byte	0x1120
 14144 43c2 05       		.uleb128 0x5
 14145 43c3 03       		.byte	0x3
 14146 43c4 00000000 		.4byte	c2.13529
 14147 43c8 33       		.uleb128 0x33
 14148 43c9 0D070000 		.4byte	.LASF918
 14149 43cd 01       		.byte	0x1
 14150 43ce 44       		.byte	0x44
 14151 43cf 20110000 		.4byte	0x1120
 14152 43d3 05       		.uleb128 0x5
 14153 43d4 03       		.byte	0x3
 14154 43d5 00000000 		.4byte	wait_cam.13530
 14155 43d9 32       		.uleb128 0x32
ARM GAS  C:\Users\osour\AppData\Local\Temp\ccsBkKuy.s 			page 255


 14156 43da 6900     		.ascii	"i\000"
 14157 43dc 01       		.byte	0x1
 14158 43dd 45       		.byte	0x45
 14159 43de AA000000 		.4byte	0xaa
 14160 43e2 05       		.uleb128 0x5
 14161 43e3 03       		.byte	0x3
 14162 43e4 00000000 		.4byte	i.13531
 14163 43e8 32       		.uleb128 0x32
 14164 43e9 6A00     		.ascii	"j\000"
 14165 43eb 01       		.byte	0x1
 14166 43ec 45       		.byte	0x45
 14167 43ed AA000000 		.4byte	0xaa
 14168 43f1 05       		.uleb128 0x5
 14169 43f2 03       		.byte	0x3
 14170 43f3 00000000 		.4byte	j.13532
 14171 43f7 34       		.uleb128 0x34
 14172 43f8 6E00     		.ascii	"n\000"
 14173 43fa 01       		.byte	0x1
 14174 43fb 45       		.byte	0x45
 14175 43fc AA000000 		.4byte	0xaa
 14176 4400 33       		.uleb128 0x33
 14177 4401 5D160000 		.4byte	.LASF919
 14178 4405 01       		.byte	0x1
 14179 4406 45       		.byte	0x45
 14180 4407 AA000000 		.4byte	0xaa
 14181 440b 05       		.uleb128 0x5
 14182 440c 03       		.byte	0x3
 14183 440d 00000000 		.4byte	speedr.13534
 14184 4411 33       		.uleb128 0x33
 14185 4412 41160000 		.4byte	.LASF920
 14186 4416 01       		.byte	0x1
 14187 4417 45       		.byte	0x45
 14188 4418 AA000000 		.4byte	0xaa
 14189 441c 05       		.uleb128 0x5
 14190 441d 03       		.byte	0x3
 14191 441e 00000000 		.4byte	speedl.13535
 14192 4422 33       		.uleb128 0x33
 14193 4423 F6000000 		.4byte	.LASF921
 14194 4427 01       		.byte	0x1
 14195 4428 45       		.byte	0x45
 14196 4429 AA000000 		.4byte	0xaa
 14197 442d 05       		.uleb128 0x5
 14198 442e 03       		.byte	0x3
 14199 442f 00000000 		.4byte	positionr.13536
 14200 4433 33       		.uleb128 0x33
 14201 4434 EC000000 		.4byte	.LASF922
 14202 4438 01       		.byte	0x1
 14203 4439 45       		.byte	0x45
 14204 443a AA000000 		.4byte	0xaa
 14205 443e 05       		.uleb128 0x5
 14206 443f 03       		.byte	0x3
 14207 4440 00000000 		.4byte	positionl.13537
 14208 4444 33       		.uleb128 0x33
 14209 4445 74000000 		.4byte	.LASF923
 14210 4449 01       		.byte	0x1
 14211 444a 45       		.byte	0x45
 14212 444b AA000000 		.4byte	0xaa
ARM GAS  C:\Users\osour\AppData\Local\Temp\ccsBkKuy.s 			page 256


 14213 444f 05       		.uleb128 0x5
 14214 4450 03       		.byte	0x3
 14215 4451 00000000 		.4byte	LED_nbr.13538
 14216 4455 33       		.uleb128 0x33
 14217 4456 69270000 		.4byte	.LASF924
 14218 445a 01       		.byte	0x1
 14219 445b 45       		.byte	0x45
 14220 445c AA000000 		.4byte	0xaa
 14221 4460 05       		.uleb128 0x5
 14222 4461 03       		.byte	0x3
 14223 4462 00000000 		.4byte	LED_action.13539
 14224 4466 33       		.uleb128 0x33
 14225 4467 7C0B0000 		.4byte	.LASF925
 14226 446b 01       		.byte	0x1
 14227 446c 45       		.byte	0x45
 14228 446d AA000000 		.4byte	0xaa
 14229 4471 05       		.uleb128 0x5
 14230 4472 03       		.byte	0x3
 14231 4473 00000000 		.4byte	accx.13540
 14232 4477 33       		.uleb128 0x33
 14233 4478 810B0000 		.4byte	.LASF926
 14234 447c 01       		.byte	0x1
 14235 447d 45       		.byte	0x45
 14236 447e AA000000 		.4byte	0xaa
 14237 4482 05       		.uleb128 0x5
 14238 4483 03       		.byte	0x3
 14239 4484 00000000 		.4byte	accy.13541
 14240 4488 33       		.uleb128 0x33
 14241 4489 7C0D0000 		.4byte	.LASF927
 14242 448d 01       		.byte	0x1
 14243 448e 45       		.byte	0x45
 14244 448f AA000000 		.4byte	0xaa
 14245 4493 05       		.uleb128 0x5
 14246 4494 03       		.byte	0x3
 14247 4495 00000000 		.4byte	accz.13542
 14248 4499 33       		.uleb128 0x33
 14249 449a 592A0000 		.4byte	.LASF928
 14250 449e 01       		.byte	0x1
 14251 449f 45       		.byte	0x45
 14252 44a0 AA000000 		.4byte	0xaa
 14253 44a4 05       		.uleb128 0x5
 14254 44a5 03       		.byte	0x3
 14255 44a6 00000000 		.4byte	sound.13543
 14256 44aa 33       		.uleb128 0x33
 14257 44ab B1270000 		.4byte	.LASF929
 14258 44af 01       		.byte	0x1
 14259 44b0 45       		.byte	0x45
 14260 44b1 AA000000 		.4byte	0xaa
 14261 44b5 05       		.uleb128 0x5
 14262 44b6 03       		.byte	0x3
 14263 44b7 00000000 		.4byte	gyrox.13544
 14264 44bb 33       		.uleb128 0x33
 14265 44bc EB0E0000 		.4byte	.LASF930
 14266 44c0 01       		.byte	0x1
 14267 44c1 45       		.byte	0x45
 14268 44c2 AA000000 		.4byte	0xaa
 14269 44c6 05       		.uleb128 0x5
ARM GAS  C:\Users\osour\AppData\Local\Temp\ccsBkKuy.s 			page 257


 14270 44c7 03       		.byte	0x3
 14271 44c8 00000000 		.4byte	gyroy.13545
 14272 44cc 33       		.uleb128 0x33
 14273 44cd B7270000 		.4byte	.LASF931
 14274 44d1 01       		.byte	0x1
 14275 44d2 45       		.byte	0x45
 14276 44d3 AA000000 		.4byte	0xaa
 14277 44d7 05       		.uleb128 0x5
 14278 44d8 03       		.byte	0x3
 14279 44d9 00000000 		.4byte	gyroz.13546
 14280 44dd 33       		.uleb128 0x33
 14281 44de 6B1B0000 		.4byte	.LASF932
 14282 44e2 01       		.byte	0x1
 14283 44e3 46       		.byte	0x46
 14284 44e4 AA000000 		.4byte	0xaa
 14285 44e8 05       		.uleb128 0x5
 14286 44e9 03       		.byte	0x3
 14287 44ea 00000000 		.4byte	cam_mode.13547
 14288 44ee 33       		.uleb128 0x33
 14289 44ef CD0D0000 		.4byte	.LASF933
 14290 44f3 01       		.byte	0x1
 14291 44f4 46       		.byte	0x46
 14292 44f5 AA000000 		.4byte	0xaa
 14293 44f9 05       		.uleb128 0x5
 14294 44fa 03       		.byte	0x3
 14295 44fb 00000000 		.4byte	cam_width.13548
 14296 44ff 33       		.uleb128 0x33
 14297 4500 EE200000 		.4byte	.LASF934
 14298 4504 01       		.byte	0x1
 14299 4505 46       		.byte	0x46
 14300 4506 AA000000 		.4byte	0xaa
 14301 450a 05       		.uleb128 0x5
 14302 450b 03       		.byte	0x3
 14303 450c 00000000 		.4byte	cam_heigth.13549
 14304 4510 33       		.uleb128 0x33
 14305 4511 94020000 		.4byte	.LASF935
 14306 4515 01       		.byte	0x1
 14307 4516 46       		.byte	0x46
 14308 4517 AA000000 		.4byte	0xaa
 14309 451b 05       		.uleb128 0x5
 14310 451c 03       		.byte	0x3
 14311 451d 00000000 		.4byte	cam_zoom.13550
 14312 4521 33       		.uleb128 0x33
 14313 4522 100C0000 		.4byte	.LASF936
 14314 4526 01       		.byte	0x1
 14315 4527 46       		.byte	0x46
 14316 4528 AA000000 		.4byte	0xaa
 14317 452c 05       		.uleb128 0x5
 14318 452d 03       		.byte	0x3
 14319 452e 00000000 		.4byte	cam_size.13551
 14320 4532 33       		.uleb128 0x33
 14321 4533 C1130000 		.4byte	.LASF937
 14322 4537 01       		.byte	0x1
 14323 4538 46       		.byte	0x46
 14324 4539 AA000000 		.4byte	0xaa
 14325 453d 05       		.uleb128 0x5
 14326 453e 03       		.byte	0x3
ARM GAS  C:\Users\osour\AppData\Local\Temp\ccsBkKuy.s 			page 258


 14327 453f 00000000 		.4byte	cam_x1.13552
 14328 4543 33       		.uleb128 0x33
 14329 4544 2A190000 		.4byte	.LASF938
 14330 4548 01       		.byte	0x1
 14331 4549 46       		.byte	0x46
 14332 454a AA000000 		.4byte	0xaa
 14333 454e 05       		.uleb128 0x5
 14334 454f 03       		.byte	0x3
 14335 4550 00000000 		.4byte	cam_y1.13553
 14336 4554 33       		.uleb128 0x33
 14337 4555 AC100000 		.4byte	.LASF939
 14338 4559 01       		.byte	0x1
 14339 455a 47       		.byte	0x47
 14340 455b 20110000 		.4byte	0x1120
 14341 455f 05       		.uleb128 0x5
 14342 4560 03       		.byte	0x3
 14343 4561 00000000 		.4byte	first.13554
 14344 4565 33       		.uleb128 0x33
 14345 4566 6E030000 		.4byte	.LASF940
 14346 456a 01       		.byte	0x1
 14347 456b 48       		.byte	0x48
 14348 456c E0680000 		.4byte	0x68e0
 14349 4570 05       		.uleb128 0x5
 14350 4571 03       		.byte	0x3
 14351 4572 00000000 		.4byte	rgb_value.13555
 14352 4576 35       		.uleb128 0x35
 14353 4577 70747200 		.ascii	"ptr\000"
 14354 457b 01       		.byte	0x1
 14355 457c 49       		.byte	0x49
 14356 457d A1370000 		.4byte	0x37a1
 14357 4581 00000000 		.4byte	.LLST0
 14358 4585 32       		.uleb128 0x32
 14359 4586 6D6F6400 		.ascii	"mod\000"
 14360 458a 01       		.byte	0x1
 14361 458b 4A       		.byte	0x4a
 14362 458c AA000000 		.4byte	0xaa
 14363 4590 05       		.uleb128 0x5
 14364 4591 03       		.byte	0x3
 14365 4592 00000000 		.4byte	mod.13557
 14366 4596 32       		.uleb128 0x32
 14367 4597 72656700 		.ascii	"reg\000"
 14368 459b 01       		.byte	0x1
 14369 459c 4A       		.byte	0x4a
 14370 459d AA000000 		.4byte	0xaa
 14371 45a1 05       		.uleb128 0x5
 14372 45a2 03       		.byte	0x3
 14373 45a3 00000000 		.4byte	reg.13558
 14374 45a7 32       		.uleb128 0x32
 14375 45a8 76616C00 		.ascii	"val\000"
 14376 45ac 01       		.byte	0x1
 14377 45ad 4A       		.byte	0x4a
 14378 45ae AA000000 		.4byte	0xaa
 14379 45b2 05       		.uleb128 0x5
 14380 45b3 03       		.byte	0x3
 14381 45b4 00000000 		.4byte	val.13559
 14382 45b8 36       		.uleb128 0x36
 14383 45b9 9B060000 		.4byte	.LASF941
ARM GAS  C:\Users\osour\AppData\Local\Temp\ccsBkKuy.s 			page 259


 14384 45bd 01       		.byte	0x1
 14385 45be 4C       		.byte	0x4c
 14386 45bf 20110000 		.4byte	0x1120
 14387 45c3 68000000 		.4byte	.LLST1
 14388 45c7 36       		.uleb128 0x36
 14389 45c8 2F060000 		.4byte	.LASF942
 14390 45cc 01       		.byte	0x1
 14391 45cd 4C       		.byte	0x4c
 14392 45ce 20110000 		.4byte	0x1120
 14393 45d2 CB000000 		.4byte	.LLST2
 14394 45d6 36       		.uleb128 0x36
 14395 45d7 DE140000 		.4byte	.LASF943
 14396 45db 01       		.byte	0x1
 14397 45dc 4C       		.byte	0x4c
 14398 45dd 20110000 		.4byte	0x1120
 14399 45e1 5A010000 		.4byte	.LLST3
 14400 45e5 33       		.uleb128 0x33
 14401 45e6 0D1F0000 		.4byte	.LASF944
 14402 45ea 01       		.byte	0x1
 14403 45eb 4E       		.byte	0x4e
 14404 45ec 54430000 		.4byte	0x4354
 14405 45f0 05       		.uleb128 0x5
 14406 45f1 03       		.byte	0x3
 14407 45f2 00000000 		.4byte	accelero.13563
 14408 45f6 36       		.uleb128 0x36
 14409 45f7 FE090000 		.4byte	.LASF945
 14410 45fb 01       		.byte	0x1
 14411 45fc 50       		.byte	0x50
 14412 45fd AA000000 		.4byte	0xaa
 14413 4601 D0010000 		.4byte	.LLST4
 14414 4605 36       		.uleb128 0x36
 14415 4606 00010000 		.4byte	.LASF946
 14416 460a 01       		.byte	0x1
 14417 460b 51       		.byte	0x51
 14418 460c B1000000 		.4byte	0xb1
 14419 4610 16020000 		.4byte	.LLST5
 14420 4614 36       		.uleb128 0x36
 14421 4615 FE010000 		.4byte	.LASF947
 14422 4619 01       		.byte	0x1
 14423 461a 52       		.byte	0x52
 14424 461b C3000000 		.4byte	0xc3
 14425 461f 4D020000 		.4byte	.LLST6
 14426 4623 36       		.uleb128 0x36
 14427 4624 DE1E0000 		.4byte	.LASF948
 14428 4628 01       		.byte	0x1
 14429 4629 53       		.byte	0x53
 14430 462a DE000000 		.4byte	0xde
 14431 462e 85020000 		.4byte	.LLST7
 14432 4632 33       		.uleb128 0x33
 14433 4633 A4280000 		.4byte	.LASF949
 14434 4637 01       		.byte	0x1
 14435 4638 77       		.byte	0x77
 14436 4639 AA000000 		.4byte	0xaa
 14437 463d 05       		.uleb128 0x5
 14438 463e 03       		.byte	0x3
 14439 463f 00000000 		.4byte	HWversion.13568
 14440 4643 37       		.uleb128 0x37
ARM GAS  C:\Users\osour\AppData\Local\Temp\ccsBkKuy.s 			page 260


 14441 4644 F00C0000 		.4byte	.LBB3
 14442 4648 12000000 		.4byte	.LBE3-.LBB3
 14443 464c 6A460000 		.4byte	0x466a
 14444 4650 38       		.uleb128 0x38
 14445 4651 5F5F7800 		.ascii	"__x\000"
 14446 4655 01       		.byte	0x1
 14447 4656 B202     		.2byte	0x2b2
 14448 4658 20110000 		.4byte	0x1120
 14449 465c 0A030000 		.4byte	.LLST9
 14450 4660 39       		.uleb128 0x39
 14451 4661 F40C0000 		.4byte	.LVL144
 14452 4665 F0680000 		.4byte	0x68f0
 14453 4669 00       		.byte	0
 14454 466a 3A       		.uleb128 0x3a
 14455 466b 00000000 		.4byte	.Ldebug_ranges0+0
 14456 466f 64600000 		.4byte	0x6064
 14457 4673 38       		.uleb128 0x38
 14458 4674 7400     		.ascii	"t\000"
 14459 4676 01       		.byte	0x1
 14460 4677 C703     		.2byte	0x3c7
 14461 4679 78000000 		.4byte	0x78
 14462 467d 1D030000 		.4byte	.LLST8
 14463 4681 39       		.uleb128 0x39
 14464 4682 C4010000 		.4byte	.LVL26
 14465 4686 FB680000 		.4byte	0x68fb
 14466 468a 39       		.uleb128 0x39
 14467 468b CA010000 		.4byte	.LVL27
 14468 468f 06690000 		.4byte	0x6906
 14469 4693 39       		.uleb128 0x39
 14470 4694 D0010000 		.4byte	.LVL28
 14471 4698 11690000 		.4byte	0x6911
 14472 469c 3B       		.uleb128 0x3b
 14473 469d DE010000 		.4byte	.LVL29
 14474 46a1 1C690000 		.4byte	0x691c
 14475 46a5 C5460000 		.4byte	0x46c5
 14476 46a9 3C       		.uleb128 0x3c
 14477 46aa 01       		.uleb128 0x1
 14478 46ab 50       		.byte	0x50
 14479 46ac 02       		.uleb128 0x2
 14480 46ad 7A       		.byte	0x7a
 14481 46ae 00       		.sleb128 0
 14482 46af 3C       		.uleb128 0x3c
 14483 46b0 01       		.uleb128 0x1
 14484 46b1 51       		.byte	0x51
 14485 46b2 05       		.uleb128 0x5
 14486 46b3 03       		.byte	0x3
 14487 46b4 F8000000 		.4byte	.LC13
 14488 46b8 3C       		.uleb128 0x3c
 14489 46b9 01       		.uleb128 0x1
 14490 46ba 52       		.byte	0x52
 14491 46bb 02       		.uleb128 0x2
 14492 46bc 74       		.byte	0x74
 14493 46bd 00       		.sleb128 0
 14494 46be 3C       		.uleb128 0x3c
 14495 46bf 01       		.uleb128 0x1
 14496 46c0 53       		.byte	0x53
 14497 46c1 02       		.uleb128 0x2
ARM GAS  C:\Users\osour\AppData\Local\Temp\ccsBkKuy.s 			page 261


 14498 46c2 75       		.byte	0x75
 14499 46c3 00       		.sleb128 0
 14500 46c4 00       		.byte	0
 14501 46c5 3B       		.uleb128 0x3b
 14502 46c6 EC010000 		.4byte	.LVL30
 14503 46ca 27690000 		.4byte	0x6927
 14504 46ce D9460000 		.4byte	0x46d9
 14505 46d2 3C       		.uleb128 0x3c
 14506 46d3 01       		.uleb128 0x1
 14507 46d4 50       		.byte	0x50
 14508 46d5 02       		.uleb128 0x2
 14509 46d6 7A       		.byte	0x7a
 14510 46d7 00       		.sleb128 0
 14511 46d8 00       		.byte	0
 14512 46d9 3B       		.uleb128 0x3b
 14513 46da F4010000 		.4byte	.LVL31
 14514 46de 32690000 		.4byte	0x6932
 14515 46e2 ED460000 		.4byte	0x46ed
 14516 46e6 3C       		.uleb128 0x3c
 14517 46e7 01       		.uleb128 0x1
 14518 46e8 50       		.byte	0x50
 14519 46e9 02       		.uleb128 0x2
 14520 46ea 7A       		.byte	0x7a
 14521 46eb 00       		.sleb128 0
 14522 46ec 00       		.byte	0
 14523 46ed 39       		.uleb128 0x39
 14524 46ee F8010000 		.4byte	.LVL32
 14525 46f2 3D690000 		.4byte	0x693d
 14526 46f6 39       		.uleb128 0x39
 14527 46f7 F20D0000 		.4byte	.LVL146
 14528 46fb 48690000 		.4byte	0x6948
 14529 46ff 3B       		.uleb128 0x3b
 14530 4700 FC0D0000 		.4byte	.LVL147
 14531 4704 1C690000 		.4byte	0x691c
 14532 4708 1C470000 		.4byte	0x471c
 14533 470c 3C       		.uleb128 0x3c
 14534 470d 01       		.uleb128 0x1
 14535 470e 50       		.byte	0x50
 14536 470f 02       		.uleb128 0x2
 14537 4710 7A       		.byte	0x7a
 14538 4711 00       		.sleb128 0
 14539 4712 3C       		.uleb128 0x3c
 14540 4713 01       		.uleb128 0x1
 14541 4714 51       		.byte	0x51
 14542 4715 05       		.uleb128 0x5
 14543 4716 03       		.byte	0x3
 14544 4717 B40A0000 		.4byte	.LC85
 14545 471b 00       		.byte	0
 14546 471c 3B       		.uleb128 0x3b
 14547 471d 0A0E0000 		.4byte	.LVL148
 14548 4721 27690000 		.4byte	0x6927
 14549 4725 30470000 		.4byte	0x4730
 14550 4729 3C       		.uleb128 0x3c
 14551 472a 01       		.uleb128 0x1
 14552 472b 50       		.byte	0x50
 14553 472c 02       		.uleb128 0x2
 14554 472d 7A       		.byte	0x7a
ARM GAS  C:\Users\osour\AppData\Local\Temp\ccsBkKuy.s 			page 262


 14555 472e 00       		.sleb128 0
 14556 472f 00       		.byte	0
 14557 4730 3B       		.uleb128 0x3b
 14558 4731 120E0000 		.4byte	.LVL149
 14559 4735 32690000 		.4byte	0x6932
 14560 4739 44470000 		.4byte	0x4744
 14561 473d 3C       		.uleb128 0x3c
 14562 473e 01       		.uleb128 0x1
 14563 473f 50       		.byte	0x50
 14564 4740 02       		.uleb128 0x2
 14565 4741 7A       		.byte	0x7a
 14566 4742 00       		.sleb128 0
 14567 4743 00       		.byte	0
 14568 4744 39       		.uleb128 0x39
 14569 4745 160E0000 		.4byte	.LVL150
 14570 4749 3D690000 		.4byte	0x693d
 14571 474d 39       		.uleb128 0x39
 14572 474e 460E0000 		.4byte	.LVL151
 14573 4752 53690000 		.4byte	0x6953
 14574 4756 3B       		.uleb128 0x3b
 14575 4757 500E0000 		.4byte	.LVL152
 14576 475b 5E690000 		.4byte	0x695e
 14577 475f 69470000 		.4byte	0x4769
 14578 4763 3C       		.uleb128 0x3c
 14579 4764 01       		.uleb128 0x1
 14580 4765 51       		.byte	0x51
 14581 4766 01       		.uleb128 0x1
 14582 4767 30       		.byte	0x30
 14583 4768 00       		.byte	0
 14584 4769 39       		.uleb128 0x39
 14585 476a 580E0000 		.4byte	.LVL153
 14586 476e 69690000 		.4byte	0x6969
 14587 4772 3B       		.uleb128 0x3b
 14588 4773 6C0E0000 		.4byte	.LVL154
 14589 4777 1C690000 		.4byte	0x691c
 14590 477b 8C470000 		.4byte	0x478c
 14591 477f 3C       		.uleb128 0x3c
 14592 4780 01       		.uleb128 0x1
 14593 4781 50       		.byte	0x50
 14594 4782 02       		.uleb128 0x2
 14595 4783 7A       		.byte	0x7a
 14596 4784 00       		.sleb128 0
 14597 4785 3C       		.uleb128 0x3c
 14598 4786 01       		.uleb128 0x1
 14599 4787 51       		.byte	0x51
 14600 4788 02       		.uleb128 0x2
 14601 4789 75       		.byte	0x75
 14602 478a 00       		.sleb128 0
 14603 478b 00       		.byte	0
 14604 478c 3B       		.uleb128 0x3b
 14605 478d 780E0000 		.4byte	.LVL155
 14606 4791 27690000 		.4byte	0x6927
 14607 4795 A0470000 		.4byte	0x47a0
 14608 4799 3C       		.uleb128 0x3c
 14609 479a 01       		.uleb128 0x1
 14610 479b 50       		.byte	0x50
 14611 479c 02       		.uleb128 0x2
ARM GAS  C:\Users\osour\AppData\Local\Temp\ccsBkKuy.s 			page 263


 14612 479d 74       		.byte	0x74
 14613 479e 00       		.sleb128 0
 14614 479f 00       		.byte	0
 14615 47a0 3B       		.uleb128 0x3b
 14616 47a1 800E0000 		.4byte	.LVL156
 14617 47a5 32690000 		.4byte	0x6932
 14618 47a9 B4470000 		.4byte	0x47b4
 14619 47ad 3C       		.uleb128 0x3c
 14620 47ae 01       		.uleb128 0x1
 14621 47af 50       		.byte	0x50
 14622 47b0 02       		.uleb128 0x2
 14623 47b1 74       		.byte	0x74
 14624 47b2 00       		.sleb128 0
 14625 47b3 00       		.byte	0
 14626 47b4 39       		.uleb128 0x39
 14627 47b5 840E0000 		.4byte	.LVL157
 14628 47b9 3D690000 		.4byte	0x693d
 14629 47bd 39       		.uleb128 0x39
 14630 47be 8E0E0000 		.4byte	.LVL158
 14631 47c2 74690000 		.4byte	0x6974
 14632 47c6 39       		.uleb128 0x39
 14633 47c7 940E0000 		.4byte	.LVL159
 14634 47cb 7F690000 		.4byte	0x697f
 14635 47cf 3B       		.uleb128 0x3b
 14636 47d0 A00E0000 		.4byte	.LVL160
 14637 47d4 1C690000 		.4byte	0x691c
 14638 47d8 F2470000 		.4byte	0x47f2
 14639 47dc 3C       		.uleb128 0x3c
 14640 47dd 01       		.uleb128 0x1
 14641 47de 50       		.byte	0x50
 14642 47df 02       		.uleb128 0x2
 14643 47e0 7A       		.byte	0x7a
 14644 47e1 00       		.sleb128 0
 14645 47e2 3C       		.uleb128 0x3c
 14646 47e3 01       		.uleb128 0x1
 14647 47e4 51       		.byte	0x51
 14648 47e5 05       		.uleb128 0x5
 14649 47e6 03       		.byte	0x3
 14650 47e7 980A0000 		.4byte	.LC81
 14651 47eb 3C       		.uleb128 0x3c
 14652 47ec 01       		.uleb128 0x1
 14653 47ed 52       		.byte	0x52
 14654 47ee 02       		.uleb128 0x2
 14655 47ef 74       		.byte	0x74
 14656 47f0 00       		.sleb128 0
 14657 47f1 00       		.byte	0
 14658 47f2 3B       		.uleb128 0x3b
 14659 47f3 BC0E0000 		.4byte	.LVL162
 14660 47f7 32690000 		.4byte	0x6932
 14661 47fb 06480000 		.4byte	0x4806
 14662 47ff 3C       		.uleb128 0x3c
 14663 4800 01       		.uleb128 0x1
 14664 4801 50       		.byte	0x50
 14665 4802 02       		.uleb128 0x2
 14666 4803 7A       		.byte	0x7a
 14667 4804 00       		.sleb128 0
 14668 4805 00       		.byte	0
ARM GAS  C:\Users\osour\AppData\Local\Temp\ccsBkKuy.s 			page 264


 14669 4806 39       		.uleb128 0x39
 14670 4807 C00E0000 		.4byte	.LVL163
 14671 480b 3D690000 		.4byte	0x693d
 14672 480f 3B       		.uleb128 0x3b
 14673 4810 DE0E0000 		.4byte	.LVL164
 14674 4814 32690000 		.4byte	0x6932
 14675 4818 2C480000 		.4byte	0x482c
 14676 481c 3C       		.uleb128 0x3c
 14677 481d 01       		.uleb128 0x1
 14678 481e 50       		.byte	0x50
 14679 481f 05       		.uleb128 0x5
 14680 4820 03       		.byte	0x3
 14681 4821 D40A0000 		.4byte	.LC88
 14682 4825 3C       		.uleb128 0x3c
 14683 4826 01       		.uleb128 0x1
 14684 4827 51       		.byte	0x51
 14685 4828 02       		.uleb128 0x2
 14686 4829 08       		.byte	0x8
 14687 482a 25       		.byte	0x25
 14688 482b 00       		.byte	0
 14689 482c 39       		.uleb128 0x39
 14690 482d E20E0000 		.4byte	.LVL165
 14691 4831 3D690000 		.4byte	0x693d
 14692 4835 3B       		.uleb128 0x3b
 14693 4836 F20E0000 		.4byte	.LVL166
 14694 483a 1C690000 		.4byte	0x691c
 14695 483e 52480000 		.4byte	0x4852
 14696 4842 3C       		.uleb128 0x3c
 14697 4843 01       		.uleb128 0x1
 14698 4844 50       		.byte	0x50
 14699 4845 02       		.uleb128 0x2
 14700 4846 7A       		.byte	0x7a
 14701 4847 00       		.sleb128 0
 14702 4848 3C       		.uleb128 0x3c
 14703 4849 01       		.uleb128 0x1
 14704 484a 51       		.byte	0x51
 14705 484b 05       		.uleb128 0x5
 14706 484c 03       		.byte	0x3
 14707 484d 500B0000 		.4byte	.LC96
 14708 4851 00       		.byte	0
 14709 4852 3B       		.uleb128 0x3b
 14710 4853 F80E0000 		.4byte	.LVL167
 14711 4857 27690000 		.4byte	0x6927
 14712 485b 66480000 		.4byte	0x4866
 14713 485f 3C       		.uleb128 0x3c
 14714 4860 01       		.uleb128 0x1
 14715 4861 50       		.byte	0x50
 14716 4862 02       		.uleb128 0x2
 14717 4863 7A       		.byte	0x7a
 14718 4864 00       		.sleb128 0
 14719 4865 00       		.byte	0
 14720 4866 3B       		.uleb128 0x3b
 14721 4867 000F0000 		.4byte	.LVL168
 14722 486b 32690000 		.4byte	0x6932
 14723 486f 7A480000 		.4byte	0x487a
 14724 4873 3C       		.uleb128 0x3c
 14725 4874 01       		.uleb128 0x1
ARM GAS  C:\Users\osour\AppData\Local\Temp\ccsBkKuy.s 			page 265


 14726 4875 50       		.byte	0x50
 14727 4876 02       		.uleb128 0x2
 14728 4877 7A       		.byte	0x7a
 14729 4878 00       		.sleb128 0
 14730 4879 00       		.byte	0
 14731 487a 39       		.uleb128 0x39
 14732 487b 040F0000 		.4byte	.LVL169
 14733 487f 3D690000 		.4byte	0x693d
 14734 4883 39       		.uleb128 0x39
 14735 4884 160F0000 		.4byte	.LVL170
 14736 4888 53690000 		.4byte	0x6953
 14737 488c 3B       		.uleb128 0x3b
 14738 488d 380F0000 		.4byte	.LVL171
 14739 4891 5E690000 		.4byte	0x695e
 14740 4895 C3480000 		.4byte	0x48c3
 14741 4899 3C       		.uleb128 0x3c
 14742 489a 01       		.uleb128 0x1
 14743 489b 50       		.byte	0x50
 14744 489c 02       		.uleb128 0x2
 14745 489d 09       		.byte	0x9
 14746 489e C0       		.byte	0xc0
 14747 489f 3C       		.uleb128 0x3c
 14748 48a0 01       		.uleb128 0x1
 14749 48a1 51       		.byte	0x51
 14750 48a2 1F       		.uleb128 0x1f
 14751 48a3 74       		.byte	0x74
 14752 48a4 00       		.sleb128 0
 14753 48a5 08       		.byte	0x8
 14754 48a6 FF       		.byte	0xff
 14755 48a7 1A       		.byte	0x1a
 14756 48a8 31       		.byte	0x31
 14757 48a9 1C       		.byte	0x1c
 14758 48aa 08       		.byte	0x8
 14759 48ab FF       		.byte	0xff
 14760 48ac 1A       		.byte	0x1a
 14761 48ad 74       		.byte	0x74
 14762 48ae 00       		.sleb128 0
 14763 48af 08       		.byte	0x8
 14764 48b0 FF       		.byte	0xff
 14765 48b1 1A       		.byte	0x1a
 14766 48b2 23       		.byte	0x23
 14767 48b3 01       		.uleb128 0x1
 14768 48b4 08       		.byte	0x8
 14769 48b5 FF       		.byte	0xff
 14770 48b6 1A       		.byte	0x1a
 14771 48b7 74       		.byte	0x74
 14772 48b8 00       		.sleb128 0
 14773 48b9 4F       		.byte	0x4f
 14774 48ba 24       		.byte	0x24
 14775 48bb 30       		.byte	0x30
 14776 48bc 2D       		.byte	0x2d
 14777 48bd 28       		.byte	0x28
 14778 48be 0100     		.2byte	0x1
 14779 48c0 16       		.byte	0x16
 14780 48c1 13       		.byte	0x13
 14781 48c2 00       		.byte	0
 14782 48c3 3B       		.uleb128 0x3b
ARM GAS  C:\Users\osour\AppData\Local\Temp\ccsBkKuy.s 			page 266


 14783 48c4 6C0F0000 		.4byte	.LVL172
 14784 48c8 5E690000 		.4byte	0x695e
 14785 48cc D7480000 		.4byte	0x48d7
 14786 48d0 3C       		.uleb128 0x3c
 14787 48d1 01       		.uleb128 0x1
 14788 48d2 50       		.byte	0x50
 14789 48d3 02       		.uleb128 0x2
 14790 48d4 09       		.byte	0x9
 14791 48d5 C0       		.byte	0xc0
 14792 48d6 00       		.byte	0
 14793 48d7 39       		.uleb128 0x39
 14794 48d8 820F0000 		.4byte	.LVL173
 14795 48dc 69690000 		.4byte	0x6969
 14796 48e0 3B       		.uleb128 0x3b
 14797 48e1 CC0F0000 		.4byte	.LVL174
 14798 48e5 1C690000 		.4byte	0x691c
 14799 48e9 FD480000 		.4byte	0x48fd
 14800 48ed 3C       		.uleb128 0x3c
 14801 48ee 01       		.uleb128 0x1
 14802 48ef 50       		.byte	0x50
 14803 48f0 02       		.uleb128 0x2
 14804 48f1 7A       		.byte	0x7a
 14805 48f2 00       		.sleb128 0
 14806 48f3 3C       		.uleb128 0x3c
 14807 48f4 01       		.uleb128 0x1
 14808 48f5 51       		.byte	0x51
 14809 48f6 05       		.uleb128 0x5
 14810 48f7 03       		.byte	0x3
 14811 48f8 3C0A0000 		.4byte	.LC76
 14812 48fc 00       		.byte	0
 14813 48fd 3B       		.uleb128 0x3b
 14814 48fe DA0F0000 		.4byte	.LVL175
 14815 4902 27690000 		.4byte	0x6927
 14816 4906 11490000 		.4byte	0x4911
 14817 490a 3C       		.uleb128 0x3c
 14818 490b 01       		.uleb128 0x1
 14819 490c 50       		.byte	0x50
 14820 490d 02       		.uleb128 0x2
 14821 490e 7A       		.byte	0x7a
 14822 490f 00       		.sleb128 0
 14823 4910 00       		.byte	0
 14824 4911 3B       		.uleb128 0x3b
 14825 4912 E20F0000 		.4byte	.LVL176
 14826 4916 32690000 		.4byte	0x6932
 14827 491a 25490000 		.4byte	0x4925
 14828 491e 3C       		.uleb128 0x3c
 14829 491f 01       		.uleb128 0x1
 14830 4920 50       		.byte	0x50
 14831 4921 02       		.uleb128 0x2
 14832 4922 7A       		.byte	0x7a
 14833 4923 00       		.sleb128 0
 14834 4924 00       		.byte	0
 14835 4925 39       		.uleb128 0x39
 14836 4926 E60F0000 		.4byte	.LVL177
 14837 492a 3D690000 		.4byte	0x693d
 14838 492e 3B       		.uleb128 0x3b
 14839 492f 04100000 		.4byte	.LVL178
ARM GAS  C:\Users\osour\AppData\Local\Temp\ccsBkKuy.s 			page 267


 14840 4933 32690000 		.4byte	0x6932
 14841 4937 4B490000 		.4byte	0x494b
 14842 493b 3C       		.uleb128 0x3c
 14843 493c 01       		.uleb128 0x1
 14844 493d 50       		.byte	0x50
 14845 493e 05       		.uleb128 0x5
 14846 493f 03       		.byte	0x3
 14847 4940 EC090000 		.4byte	.LC73
 14848 4944 3C       		.uleb128 0x3c
 14849 4945 01       		.uleb128 0x1
 14850 4946 51       		.byte	0x51
 14851 4947 02       		.uleb128 0x2
 14852 4948 08       		.byte	0x8
 14853 4949 3E       		.byte	0x3e
 14854 494a 00       		.byte	0
 14855 494b 39       		.uleb128 0x39
 14856 494c 08100000 		.4byte	.LVL179
 14857 4950 3D690000 		.4byte	0x693d
 14858 4954 3B       		.uleb128 0x3b
 14859 4955 14100000 		.4byte	.LVL180
 14860 4959 8A690000 		.4byte	0x698a
 14861 495d 6C490000 		.4byte	0x496c
 14862 4961 3C       		.uleb128 0x3c
 14863 4962 01       		.uleb128 0x1
 14864 4963 50       		.byte	0x50
 14865 4964 01       		.uleb128 0x1
 14866 4965 38       		.byte	0x38
 14867 4966 3C       		.uleb128 0x3c
 14868 4967 01       		.uleb128 0x1
 14869 4968 51       		.byte	0x51
 14870 4969 01       		.uleb128 0x1
 14871 496a 31       		.byte	0x31
 14872 496b 00       		.byte	0
 14873 496c 3B       		.uleb128 0x3b
 14874 496d 1C100000 		.4byte	.LVL181
 14875 4971 95690000 		.4byte	0x6995
 14876 4975 81490000 		.4byte	0x4981
 14877 4979 3C       		.uleb128 0x3c
 14878 497a 01       		.uleb128 0x1
 14879 497b 50       		.byte	0x50
 14880 497c 03       		.uleb128 0x3
 14881 497d 0A       		.byte	0xa
 14882 497e 9001     		.2byte	0x190
 14883 4980 00       		.byte	0
 14884 4981 39       		.uleb128 0x39
 14885 4982 20100000 		.4byte	.LVL182
 14886 4986 A0690000 		.4byte	0x69a0
 14887 498a 3B       		.uleb128 0x3b
 14888 498b 26100000 		.4byte	.LVL183
 14889 498f 95690000 		.4byte	0x6995
 14890 4993 9E490000 		.4byte	0x499e
 14891 4997 3C       		.uleb128 0x3c
 14892 4998 01       		.uleb128 0x1
 14893 4999 50       		.byte	0x50
 14894 499a 02       		.uleb128 0x2
 14895 499b 08       		.byte	0x8
 14896 499c 64       		.byte	0x64
ARM GAS  C:\Users\osour\AppData\Local\Temp\ccsBkKuy.s 			page 268


 14897 499d 00       		.byte	0
 14898 499e 39       		.uleb128 0x39
 14899 499f 2A100000 		.4byte	.LVL184
 14900 49a3 AB690000 		.4byte	0x69ab
 14901 49a7 3B       		.uleb128 0x3b
 14902 49a8 32100000 		.4byte	.LVL185
 14903 49ac 32690000 		.4byte	0x6932
 14904 49b0 C3490000 		.4byte	0x49c3
 14905 49b4 3C       		.uleb128 0x3c
 14906 49b5 01       		.uleb128 0x1
 14907 49b6 50       		.byte	0x50
 14908 49b7 05       		.uleb128 0x5
 14909 49b8 03       		.byte	0x3
 14910 49b9 640B0000 		.4byte	.LC97
 14911 49bd 3C       		.uleb128 0x3c
 14912 49be 01       		.uleb128 0x1
 14913 49bf 51       		.byte	0x51
 14914 49c0 01       		.uleb128 0x1
 14915 49c1 49       		.byte	0x49
 14916 49c2 00       		.byte	0
 14917 49c3 39       		.uleb128 0x39
 14918 49c4 36100000 		.4byte	.LVL186
 14919 49c8 3D690000 		.4byte	0x693d
 14920 49cc 3B       		.uleb128 0x3b
 14921 49cd 96100000 		.4byte	.LVL188
 14922 49d1 B6690000 		.4byte	0x69b6
 14923 49d5 F8490000 		.4byte	0x49f8
 14924 49d9 3C       		.uleb128 0x3c
 14925 49da 01       		.uleb128 0x1
 14926 49db 50       		.byte	0x50
 14927 49dc 02       		.uleb128 0x2
 14928 49dd 7A       		.byte	0x7a
 14929 49de 00       		.sleb128 0
 14930 49df 3C       		.uleb128 0x3c
 14931 49e0 01       		.uleb128 0x1
 14932 49e1 51       		.byte	0x51
 14933 49e2 05       		.uleb128 0x5
 14934 49e3 03       		.byte	0x3
 14935 49e4 D0090000 		.4byte	.LC71
 14936 49e8 3C       		.uleb128 0x3c
 14937 49e9 01       		.uleb128 0x1
 14938 49ea 52       		.byte	0x52
 14939 49eb 03       		.uleb128 0x3
 14940 49ec 91       		.byte	0x91
 14941 49ed 40       		.sleb128 -64
 14942 49ee 06       		.byte	0x6
 14943 49ef 3C       		.uleb128 0x3c
 14944 49f0 01       		.uleb128 0x1
 14945 49f1 53       		.byte	0x53
 14946 49f2 04       		.uleb128 0x4
 14947 49f3 91       		.byte	0x91
 14948 49f4 B87F     		.sleb128 -72
 14949 49f6 06       		.byte	0x6
 14950 49f7 00       		.byte	0
 14951 49f8 39       		.uleb128 0x39
 14952 49f9 D4100000 		.4byte	.LVL189
 14953 49fd C1690000 		.4byte	0x69c1
ARM GAS  C:\Users\osour\AppData\Local\Temp\ccsBkKuy.s 			page 269


 14954 4a01 3B       		.uleb128 0x3b
 14955 4a02 22110000 		.4byte	.LVL190
 14956 4a06 CC690000 		.4byte	0x69cc
 14957 4a0a 244A0000 		.4byte	0x4a24
 14958 4a0e 3C       		.uleb128 0x3c
 14959 4a0f 02       		.uleb128 0x2
 14960 4a10 7D       		.byte	0x7d
 14961 4a11 00       		.sleb128 0
 14962 4a12 02       		.uleb128 0x2
 14963 4a13 75       		.byte	0x75
 14964 4a14 00       		.sleb128 0
 14965 4a15 3C       		.uleb128 0x3c
 14966 4a16 02       		.uleb128 0x2
 14967 4a17 7D       		.byte	0x7d
 14968 4a18 04       		.sleb128 4
 14969 4a19 02       		.uleb128 0x2
 14970 4a1a 75       		.byte	0x75
 14971 4a1b 00       		.sleb128 0
 14972 4a1c 3C       		.uleb128 0x3c
 14973 4a1d 02       		.uleb128 0x2
 14974 4a1e 7D       		.byte	0x7d
 14975 4a1f 08       		.sleb128 8
 14976 4a20 02       		.uleb128 0x2
 14977 4a21 74       		.byte	0x74
 14978 4a22 00       		.sleb128 0
 14979 4a23 00       		.byte	0
 14980 4a24 39       		.uleb128 0x39
 14981 4a25 26110000 		.4byte	.LVL191
 14982 4a29 D7690000 		.4byte	0x69d7
 14983 4a2d 3B       		.uleb128 0x3b
 14984 4a2e 36110000 		.4byte	.LVL192
 14985 4a32 32690000 		.4byte	0x6932
 14986 4a36 494A0000 		.4byte	0x4a49
 14987 4a3a 3C       		.uleb128 0x3c
 14988 4a3b 01       		.uleb128 0x1
 14989 4a3c 50       		.byte	0x50
 14990 4a3d 05       		.uleb128 0x5
 14991 4a3e 03       		.byte	0x3
 14992 4a3f E8090000 		.4byte	.LC72
 14993 4a43 3C       		.uleb128 0x3c
 14994 4a44 01       		.uleb128 0x1
 14995 4a45 51       		.byte	0x51
 14996 4a46 01       		.uleb128 0x1
 14997 4a47 33       		.byte	0x33
 14998 4a48 00       		.byte	0
 14999 4a49 39       		.uleb128 0x39
 15000 4a4a 3A110000 		.4byte	.LVL193
 15001 4a4e 3D690000 		.4byte	0x693d
 15002 4a52 3B       		.uleb128 0x3b
 15003 4a53 54110000 		.4byte	.LVL194
 15004 4a57 B6690000 		.4byte	0x69b6
 15005 4a5b 814A0000 		.4byte	0x4a81
 15006 4a5f 3C       		.uleb128 0x3c
 15007 4a60 01       		.uleb128 0x1
 15008 4a61 50       		.byte	0x50
 15009 4a62 02       		.uleb128 0x2
 15010 4a63 7A       		.byte	0x7a
ARM GAS  C:\Users\osour\AppData\Local\Temp\ccsBkKuy.s 			page 270


 15011 4a64 00       		.sleb128 0
 15012 4a65 3C       		.uleb128 0x3c
 15013 4a66 01       		.uleb128 0x1
 15014 4a67 51       		.byte	0x51
 15015 4a68 05       		.uleb128 0x5
 15016 4a69 03       		.byte	0x3
 15017 4a6a 0C0B0000 		.4byte	.LC91
 15018 4a6e 3C       		.uleb128 0x3c
 15019 4a6f 01       		.uleb128 0x1
 15020 4a70 52       		.byte	0x52
 15021 4a71 05       		.uleb128 0x5
 15022 4a72 03       		.byte	0x3
 15023 4a73 00000000 		.4byte	.LANCHOR24
 15024 4a77 3C       		.uleb128 0x3c
 15025 4a78 01       		.uleb128 0x1
 15026 4a79 53       		.byte	0x53
 15027 4a7a 05       		.uleb128 0x5
 15028 4a7b 03       		.byte	0x3
 15029 4a7c 00000000 		.4byte	.LANCHOR25
 15030 4a80 00       		.byte	0
 15031 4a81 3B       		.uleb128 0x3b
 15032 4a82 64110000 		.4byte	.LVL195
 15033 4a86 1C690000 		.4byte	0x691c
 15034 4a8a 9E4A0000 		.4byte	0x4a9e
 15035 4a8e 3C       		.uleb128 0x3c
 15036 4a8f 01       		.uleb128 0x1
 15037 4a90 50       		.byte	0x50
 15038 4a91 02       		.uleb128 0x2
 15039 4a92 7A       		.byte	0x7a
 15040 4a93 00       		.sleb128 0
 15041 4a94 3C       		.uleb128 0x3c
 15042 4a95 01       		.uleb128 0x1
 15043 4a96 51       		.byte	0x51
 15044 4a97 05       		.uleb128 0x5
 15045 4a98 03       		.byte	0x3
 15046 4a99 180B0000 		.4byte	.LC92
 15047 4a9d 00       		.byte	0
 15048 4a9e 3B       		.uleb128 0x3b
 15049 4a9f 72110000 		.4byte	.LVL196
 15050 4aa3 27690000 		.4byte	0x6927
 15051 4aa7 B24A0000 		.4byte	0x4ab2
 15052 4aab 3C       		.uleb128 0x3c
 15053 4aac 01       		.uleb128 0x1
 15054 4aad 50       		.byte	0x50
 15055 4aae 02       		.uleb128 0x2
 15056 4aaf 7A       		.byte	0x7a
 15057 4ab0 00       		.sleb128 0
 15058 4ab1 00       		.byte	0
 15059 4ab2 3B       		.uleb128 0x3b
 15060 4ab3 7A110000 		.4byte	.LVL197
 15061 4ab7 32690000 		.4byte	0x6932
 15062 4abb C64A0000 		.4byte	0x4ac6
 15063 4abf 3C       		.uleb128 0x3c
 15064 4ac0 01       		.uleb128 0x1
 15065 4ac1 50       		.byte	0x50
 15066 4ac2 02       		.uleb128 0x2
 15067 4ac3 7A       		.byte	0x7a
ARM GAS  C:\Users\osour\AppData\Local\Temp\ccsBkKuy.s 			page 271


 15068 4ac4 00       		.sleb128 0
 15069 4ac5 00       		.byte	0
 15070 4ac6 39       		.uleb128 0x39
 15071 4ac7 7E110000 		.4byte	.LVL198
 15072 4acb 3D690000 		.4byte	0x693d
 15073 4acf 39       		.uleb128 0x39
 15074 4ad0 86110000 		.4byte	.LVL199
 15075 4ad4 53690000 		.4byte	0x6953
 15076 4ad8 39       		.uleb128 0x39
 15077 4ad9 92110000 		.4byte	.LVL200
 15078 4add 5E690000 		.4byte	0x695e
 15079 4ae1 39       		.uleb128 0x39
 15080 4ae2 9C110000 		.4byte	.LVL201
 15081 4ae6 69690000 		.4byte	0x6969
 15082 4aea 3B       		.uleb128 0x3b
 15083 4aeb A6110000 		.4byte	.LVL202
 15084 4aef 1C690000 		.4byte	0x691c
 15085 4af3 074B0000 		.4byte	0x4b07
 15086 4af7 3C       		.uleb128 0x3c
 15087 4af8 01       		.uleb128 0x1
 15088 4af9 50       		.byte	0x50
 15089 4afa 02       		.uleb128 0x2
 15090 4afb 7A       		.byte	0x7a
 15091 4afc 00       		.sleb128 0
 15092 4afd 3C       		.uleb128 0x3c
 15093 4afe 01       		.uleb128 0x1
 15094 4aff 51       		.byte	0x51
 15095 4b00 05       		.uleb128 0x5
 15096 4b01 03       		.byte	0x3
 15097 4b02 240B0000 		.4byte	.LC93
 15098 4b06 00       		.byte	0
 15099 4b07 3B       		.uleb128 0x3b
 15100 4b08 AC110000 		.4byte	.LVL203
 15101 4b0c 27690000 		.4byte	0x6927
 15102 4b10 1B4B0000 		.4byte	0x4b1b
 15103 4b14 3C       		.uleb128 0x3c
 15104 4b15 01       		.uleb128 0x1
 15105 4b16 50       		.byte	0x50
 15106 4b17 02       		.uleb128 0x2
 15107 4b18 7A       		.byte	0x7a
 15108 4b19 00       		.sleb128 0
 15109 4b1a 00       		.byte	0
 15110 4b1b 3B       		.uleb128 0x3b
 15111 4b1c B4110000 		.4byte	.LVL204
 15112 4b20 32690000 		.4byte	0x6932
 15113 4b24 2F4B0000 		.4byte	0x4b2f
 15114 4b28 3C       		.uleb128 0x3c
 15115 4b29 01       		.uleb128 0x1
 15116 4b2a 50       		.byte	0x50
 15117 4b2b 02       		.uleb128 0x2
 15118 4b2c 7A       		.byte	0x7a
 15119 4b2d 00       		.sleb128 0
 15120 4b2e 00       		.byte	0
 15121 4b2f 39       		.uleb128 0x39
 15122 4b30 B8110000 		.4byte	.LVL205
 15123 4b34 3D690000 		.4byte	0x693d
 15124 4b38 3B       		.uleb128 0x3b
ARM GAS  C:\Users\osour\AppData\Local\Temp\ccsBkKuy.s 			page 272


 15125 4b39 D2110000 		.4byte	.LVL207
 15126 4b3d 32690000 		.4byte	0x6932
 15127 4b41 4C4B0000 		.4byte	0x4b4c
 15128 4b45 3C       		.uleb128 0x3c
 15129 4b46 01       		.uleb128 0x1
 15130 4b47 50       		.byte	0x50
 15131 4b48 02       		.uleb128 0x2
 15132 4b49 7A       		.byte	0x7a
 15133 4b4a 00       		.sleb128 0
 15134 4b4b 00       		.byte	0
 15135 4b4c 39       		.uleb128 0x39
 15136 4b4d D6110000 		.4byte	.LVL208
 15137 4b51 3D690000 		.4byte	0x693d
 15138 4b55 3B       		.uleb128 0x3b
 15139 4b56 E4110000 		.4byte	.LVL209
 15140 4b5a E2690000 		.4byte	0x69e2
 15141 4b5e 684B0000 		.4byte	0x4b68
 15142 4b62 3C       		.uleb128 0x3c
 15143 4b63 01       		.uleb128 0x1
 15144 4b64 50       		.byte	0x50
 15145 4b65 01       		.uleb128 0x1
 15146 4b66 30       		.byte	0x30
 15147 4b67 00       		.byte	0
 15148 4b68 3B       		.uleb128 0x3b
 15149 4b69 EC110000 		.4byte	.LVL210
 15150 4b6d E2690000 		.4byte	0x69e2
 15151 4b71 7B4B0000 		.4byte	0x4b7b
 15152 4b75 3C       		.uleb128 0x3c
 15153 4b76 01       		.uleb128 0x1
 15154 4b77 50       		.byte	0x50
 15155 4b78 01       		.uleb128 0x1
 15156 4b79 31       		.byte	0x31
 15157 4b7a 00       		.byte	0
 15158 4b7b 3B       		.uleb128 0x3b
 15159 4b7c F4110000 		.4byte	.LVL211
 15160 4b80 E2690000 		.4byte	0x69e2
 15161 4b84 8E4B0000 		.4byte	0x4b8e
 15162 4b88 3C       		.uleb128 0x3c
 15163 4b89 01       		.uleb128 0x1
 15164 4b8a 50       		.byte	0x50
 15165 4b8b 01       		.uleb128 0x1
 15166 4b8c 32       		.byte	0x32
 15167 4b8d 00       		.byte	0
 15168 4b8e 3B       		.uleb128 0x3b
 15169 4b8f FC110000 		.4byte	.LVL212
 15170 4b93 E2690000 		.4byte	0x69e2
 15171 4b97 A14B0000 		.4byte	0x4ba1
 15172 4b9b 3C       		.uleb128 0x3c
 15173 4b9c 01       		.uleb128 0x1
 15174 4b9d 50       		.byte	0x50
 15175 4b9e 01       		.uleb128 0x1
 15176 4b9f 33       		.byte	0x33
 15177 4ba0 00       		.byte	0
 15178 4ba1 3B       		.uleb128 0x3b
 15179 4ba2 04120000 		.4byte	.LVL213
 15180 4ba6 E2690000 		.4byte	0x69e2
 15181 4baa B44B0000 		.4byte	0x4bb4
ARM GAS  C:\Users\osour\AppData\Local\Temp\ccsBkKuy.s 			page 273


 15182 4bae 3C       		.uleb128 0x3c
 15183 4baf 01       		.uleb128 0x1
 15184 4bb0 50       		.byte	0x50
 15185 4bb1 01       		.uleb128 0x1
 15186 4bb2 34       		.byte	0x34
 15187 4bb3 00       		.byte	0
 15188 4bb4 3B       		.uleb128 0x3b
 15189 4bb5 0C120000 		.4byte	.LVL214
 15190 4bb9 E2690000 		.4byte	0x69e2
 15191 4bbd C74B0000 		.4byte	0x4bc7
 15192 4bc1 3C       		.uleb128 0x3c
 15193 4bc2 01       		.uleb128 0x1
 15194 4bc3 50       		.byte	0x50
 15195 4bc4 01       		.uleb128 0x1
 15196 4bc5 35       		.byte	0x35
 15197 4bc6 00       		.byte	0
 15198 4bc7 3B       		.uleb128 0x3b
 15199 4bc8 14120000 		.4byte	.LVL215
 15200 4bcc E2690000 		.4byte	0x69e2
 15201 4bd0 DA4B0000 		.4byte	0x4bda
 15202 4bd4 3C       		.uleb128 0x3c
 15203 4bd5 01       		.uleb128 0x1
 15204 4bd6 50       		.byte	0x50
 15205 4bd7 01       		.uleb128 0x1
 15206 4bd8 36       		.byte	0x36
 15207 4bd9 00       		.byte	0
 15208 4bda 3B       		.uleb128 0x3b
 15209 4bdb 1C120000 		.4byte	.LVL216
 15210 4bdf E2690000 		.4byte	0x69e2
 15211 4be3 ED4B0000 		.4byte	0x4bed
 15212 4be7 3C       		.uleb128 0x3c
 15213 4be8 01       		.uleb128 0x1
 15214 4be9 50       		.byte	0x50
 15215 4bea 01       		.uleb128 0x1
 15216 4beb 37       		.byte	0x37
 15217 4bec 00       		.byte	0
 15218 4bed 3B       		.uleb128 0x3b
 15219 4bee 3A120000 		.4byte	.LVL217
 15220 4bf2 1C690000 		.4byte	0x691c
 15221 4bf6 414C0000 		.4byte	0x4c41
 15222 4bfa 3C       		.uleb128 0x3c
 15223 4bfb 01       		.uleb128 0x1
 15224 4bfc 50       		.byte	0x50
 15225 4bfd 02       		.uleb128 0x2
 15226 4bfe 7A       		.byte	0x7a
 15227 4bff 00       		.sleb128 0
 15228 4c00 3C       		.uleb128 0x3c
 15229 4c01 01       		.uleb128 0x1
 15230 4c02 51       		.byte	0x51
 15231 4c03 05       		.uleb128 0x5
 15232 4c04 03       		.byte	0x3
 15233 4c05 6C0A0000 		.4byte	.LC78
 15234 4c09 3C       		.uleb128 0x3c
 15235 4c0a 01       		.uleb128 0x1
 15236 4c0b 52       		.byte	0x52
 15237 4c0c 04       		.uleb128 0x4
 15238 4c0d 91       		.byte	0x91
ARM GAS  C:\Users\osour\AppData\Local\Temp\ccsBkKuy.s 			page 274


 15239 4c0e A47F     		.sleb128 -92
 15240 4c10 06       		.byte	0x6
 15241 4c11 3C       		.uleb128 0x3c
 15242 4c12 01       		.uleb128 0x1
 15243 4c13 53       		.byte	0x53
 15244 4c14 02       		.uleb128 0x2
 15245 4c15 74       		.byte	0x74
 15246 4c16 00       		.sleb128 0
 15247 4c17 3C       		.uleb128 0x3c
 15248 4c18 02       		.uleb128 0x2
 15249 4c19 7D       		.byte	0x7d
 15250 4c1a 00       		.sleb128 0
 15251 4c1b 04       		.uleb128 0x4
 15252 4c1c 91       		.byte	0x91
 15253 4c1d 987F     		.sleb128 -104
 15254 4c1f 06       		.byte	0x6
 15255 4c20 3C       		.uleb128 0x3c
 15256 4c21 02       		.uleb128 0x2
 15257 4c22 7D       		.byte	0x7d
 15258 4c23 04       		.sleb128 4
 15259 4c24 02       		.uleb128 0x2
 15260 4c25 75       		.byte	0x75
 15261 4c26 00       		.sleb128 0
 15262 4c27 3C       		.uleb128 0x3c
 15263 4c28 02       		.uleb128 0x2
 15264 4c29 7D       		.byte	0x7d
 15265 4c2a 08       		.sleb128 8
 15266 4c2b 02       		.uleb128 0x2
 15267 4c2c 76       		.byte	0x76
 15268 4c2d 00       		.sleb128 0
 15269 4c2e 3C       		.uleb128 0x3c
 15270 4c2f 02       		.uleb128 0x2
 15271 4c30 7D       		.byte	0x7d
 15272 4c31 0C       		.sleb128 12
 15273 4c32 04       		.uleb128 0x4
 15274 4c33 91       		.byte	0x91
 15275 4c34 A07F     		.sleb128 -96
 15276 4c36 06       		.byte	0x6
 15277 4c37 3C       		.uleb128 0x3c
 15278 4c38 02       		.uleb128 0x2
 15279 4c39 7D       		.byte	0x7d
 15280 4c3a 10       		.sleb128 16
 15281 4c3b 04       		.uleb128 0x4
 15282 4c3c 91       		.byte	0x91
 15283 4c3d 9C7F     		.sleb128 -100
 15284 4c3f 06       		.byte	0x6
 15285 4c40 00       		.byte	0
 15286 4c41 3B       		.uleb128 0x3b
 15287 4c42 56120000 		.4byte	.LVL219
 15288 4c46 32690000 		.4byte	0x6932
 15289 4c4a 554C0000 		.4byte	0x4c55
 15290 4c4e 3C       		.uleb128 0x3c
 15291 4c4f 01       		.uleb128 0x1
 15292 4c50 50       		.byte	0x50
 15293 4c51 02       		.uleb128 0x2
 15294 4c52 7A       		.byte	0x7a
 15295 4c53 00       		.sleb128 0
ARM GAS  C:\Users\osour\AppData\Local\Temp\ccsBkKuy.s 			page 275


 15296 4c54 00       		.byte	0
 15297 4c55 39       		.uleb128 0x39
 15298 4c56 5A120000 		.4byte	.LVL220
 15299 4c5a 3D690000 		.4byte	0x693d
 15300 4c5e 3B       		.uleb128 0x3b
 15301 4c5f 6C120000 		.4byte	.LVL221
 15302 4c63 B6690000 		.4byte	0x69b6
 15303 4c67 844C0000 		.4byte	0x4c84
 15304 4c6b 3C       		.uleb128 0x3c
 15305 4c6c 01       		.uleb128 0x1
 15306 4c6d 50       		.byte	0x50
 15307 4c6e 02       		.uleb128 0x2
 15308 4c6f 7A       		.byte	0x7a
 15309 4c70 00       		.sleb128 0
 15310 4c71 3C       		.uleb128 0x3c
 15311 4c72 01       		.uleb128 0x1
 15312 4c73 51       		.byte	0x51
 15313 4c74 05       		.uleb128 0x5
 15314 4c75 03       		.byte	0x3
 15315 4c76 A80A0000 		.4byte	.LC83
 15316 4c7a 3C       		.uleb128 0x3c
 15317 4c7b 01       		.uleb128 0x1
 15318 4c7c 52       		.byte	0x52
 15319 4c7d 05       		.uleb128 0x5
 15320 4c7e 03       		.byte	0x3
 15321 4c7f 00000000 		.4byte	.LANCHOR31
 15322 4c83 00       		.byte	0
 15323 4c84 39       		.uleb128 0x39
 15324 4c85 76120000 		.4byte	.LVL222
 15325 4c89 ED690000 		.4byte	0x69ed
 15326 4c8d 3B       		.uleb128 0x3b
 15327 4c8e A2120000 		.4byte	.LVL223
 15328 4c92 B6690000 		.4byte	0x69b6
 15329 4c96 BC4C0000 		.4byte	0x4cbc
 15330 4c9a 3C       		.uleb128 0x3c
 15331 4c9b 01       		.uleb128 0x1
 15332 4c9c 50       		.byte	0x50
 15333 4c9d 02       		.uleb128 0x2
 15334 4c9e 7A       		.byte	0x7a
 15335 4c9f 00       		.sleb128 0
 15336 4ca0 3C       		.uleb128 0x3c
 15337 4ca1 01       		.uleb128 0x1
 15338 4ca2 51       		.byte	0x51
 15339 4ca3 05       		.uleb128 0x5
 15340 4ca4 03       		.byte	0x3
 15341 4ca5 2C0A0000 		.4byte	.LC74
 15342 4ca9 3C       		.uleb128 0x3c
 15343 4caa 01       		.uleb128 0x1
 15344 4cab 52       		.byte	0x52
 15345 4cac 05       		.uleb128 0x5
 15346 4cad 03       		.byte	0x3
 15347 4cae 00000000 		.4byte	.LANCHOR30
 15348 4cb2 3C       		.uleb128 0x3c
 15349 4cb3 01       		.uleb128 0x1
 15350 4cb4 53       		.byte	0x53
 15351 4cb5 05       		.uleb128 0x5
 15352 4cb6 03       		.byte	0x3
ARM GAS  C:\Users\osour\AppData\Local\Temp\ccsBkKuy.s 			page 276


 15353 4cb7 00000000 		.4byte	.LANCHOR27
 15354 4cbb 00       		.byte	0
 15355 4cbc 39       		.uleb128 0x39
 15356 4cbd AE120000 		.4byte	.LVL224
 15357 4cc1 8A690000 		.4byte	0x698a
 15358 4cc5 3B       		.uleb128 0x3b
 15359 4cc6 C4120000 		.4byte	.LVL225
 15360 4cca 32690000 		.4byte	0x6932
 15361 4cce E14C0000 		.4byte	0x4ce1
 15362 4cd2 3C       		.uleb128 0x3c
 15363 4cd3 01       		.uleb128 0x1
 15364 4cd4 50       		.byte	0x50
 15365 4cd5 05       		.uleb128 0x5
 15366 4cd6 03       		.byte	0x3
 15367 4cd7 380A0000 		.4byte	.LC75
 15368 4cdb 3C       		.uleb128 0x3c
 15369 4cdc 01       		.uleb128 0x1
 15370 4cdd 51       		.byte	0x51
 15371 4cde 01       		.uleb128 0x1
 15372 4cdf 33       		.byte	0x33
 15373 4ce0 00       		.byte	0
 15374 4ce1 39       		.uleb128 0x39
 15375 4ce2 C8120000 		.4byte	.LVL226
 15376 4ce6 3D690000 		.4byte	0x693d
 15377 4cea 3B       		.uleb128 0x3b
 15378 4ceb DC120000 		.4byte	.LVL227
 15379 4cef B6690000 		.4byte	0x69b6
 15380 4cf3 194D0000 		.4byte	0x4d19
 15381 4cf7 3C       		.uleb128 0x3c
 15382 4cf8 01       		.uleb128 0x1
 15383 4cf9 50       		.byte	0x50
 15384 4cfa 02       		.uleb128 0x2
 15385 4cfb 7A       		.byte	0x7a
 15386 4cfc 00       		.sleb128 0
 15387 4cfd 3C       		.uleb128 0x3c
 15388 4cfe 01       		.uleb128 0x1
 15389 4cff 51       		.byte	0x51
 15390 4d00 05       		.uleb128 0x5
 15391 4d01 03       		.byte	0x3
 15392 4d02 880A0000 		.4byte	.LC79
 15393 4d06 3C       		.uleb128 0x3c
 15394 4d07 01       		.uleb128 0x1
 15395 4d08 52       		.byte	0x52
 15396 4d09 05       		.uleb128 0x5
 15397 4d0a 03       		.byte	0x3
 15398 4d0b 00000000 		.4byte	.LANCHOR22
 15399 4d0f 3C       		.uleb128 0x3c
 15400 4d10 01       		.uleb128 0x1
 15401 4d11 53       		.byte	0x53
 15402 4d12 05       		.uleb128 0x5
 15403 4d13 03       		.byte	0x3
 15404 4d14 00000000 		.4byte	.LANCHOR23
 15405 4d18 00       		.byte	0
 15406 4d19 39       		.uleb128 0x39
 15407 4d1a E4120000 		.4byte	.LVL228
 15408 4d1e F8690000 		.4byte	0x69f8
 15409 4d22 39       		.uleb128 0x39
ARM GAS  C:\Users\osour\AppData\Local\Temp\ccsBkKuy.s 			page 277


 15410 4d23 EC120000 		.4byte	.LVL229
 15411 4d27 036A0000 		.4byte	0x6a03
 15412 4d2b 3B       		.uleb128 0x3b
 15413 4d2c 02130000 		.4byte	.LVL230
 15414 4d30 32690000 		.4byte	0x6932
 15415 4d34 474D0000 		.4byte	0x4d47
 15416 4d38 3C       		.uleb128 0x3c
 15417 4d39 01       		.uleb128 0x1
 15418 4d3a 50       		.byte	0x50
 15419 4d3b 05       		.uleb128 0x5
 15420 4d3c 03       		.byte	0x3
 15421 4d3d 940A0000 		.4byte	.LC80
 15422 4d41 3C       		.uleb128 0x3c
 15423 4d42 01       		.uleb128 0x1
 15424 4d43 51       		.byte	0x51
 15425 4d44 01       		.uleb128 0x1
 15426 4d45 33       		.byte	0x33
 15427 4d46 00       		.byte	0
 15428 4d47 39       		.uleb128 0x39
 15429 4d48 06130000 		.4byte	.LVL231
 15430 4d4c 3D690000 		.4byte	0x693d
 15431 4d50 3B       		.uleb128 0x3b
 15432 4d51 7A130000 		.4byte	.LVL232
 15433 4d55 0E6A0000 		.4byte	0x6a0e
 15434 4d59 634D0000 		.4byte	0x4d63
 15435 4d5d 3C       		.uleb128 0x3c
 15436 4d5e 01       		.uleb128 0x1
 15437 4d5f 50       		.byte	0x50
 15438 4d60 01       		.uleb128 0x1
 15439 4d61 30       		.byte	0x30
 15440 4d62 00       		.byte	0
 15441 4d63 3B       		.uleb128 0x3b
 15442 4d64 82130000 		.4byte	.LVL233
 15443 4d68 0E6A0000 		.4byte	0x6a0e
 15444 4d6c 764D0000 		.4byte	0x4d76
 15445 4d70 3C       		.uleb128 0x3c
 15446 4d71 01       		.uleb128 0x1
 15447 4d72 50       		.byte	0x50
 15448 4d73 01       		.uleb128 0x1
 15449 4d74 31       		.byte	0x31
 15450 4d75 00       		.byte	0
 15451 4d76 3B       		.uleb128 0x3b
 15452 4d77 8A130000 		.4byte	.LVL234
 15453 4d7b 0E6A0000 		.4byte	0x6a0e
 15454 4d7f 894D0000 		.4byte	0x4d89
 15455 4d83 3C       		.uleb128 0x3c
 15456 4d84 01       		.uleb128 0x1
 15457 4d85 50       		.byte	0x50
 15458 4d86 01       		.uleb128 0x1
 15459 4d87 32       		.byte	0x32
 15460 4d88 00       		.byte	0
 15461 4d89 3B       		.uleb128 0x3b
 15462 4d8a 92130000 		.4byte	.LVL235
 15463 4d8e 0E6A0000 		.4byte	0x6a0e
 15464 4d92 9C4D0000 		.4byte	0x4d9c
 15465 4d96 3C       		.uleb128 0x3c
 15466 4d97 01       		.uleb128 0x1
ARM GAS  C:\Users\osour\AppData\Local\Temp\ccsBkKuy.s 			page 278


 15467 4d98 50       		.byte	0x50
 15468 4d99 01       		.uleb128 0x1
 15469 4d9a 33       		.byte	0x33
 15470 4d9b 00       		.byte	0
 15471 4d9c 3B       		.uleb128 0x3b
 15472 4d9d 9A130000 		.4byte	.LVL236
 15473 4da1 0E6A0000 		.4byte	0x6a0e
 15474 4da5 AF4D0000 		.4byte	0x4daf
 15475 4da9 3C       		.uleb128 0x3c
 15476 4daa 01       		.uleb128 0x1
 15477 4dab 50       		.byte	0x50
 15478 4dac 01       		.uleb128 0x1
 15479 4dad 34       		.byte	0x34
 15480 4dae 00       		.byte	0
 15481 4daf 3B       		.uleb128 0x3b
 15482 4db0 A2130000 		.4byte	.LVL237
 15483 4db4 0E6A0000 		.4byte	0x6a0e
 15484 4db8 C24D0000 		.4byte	0x4dc2
 15485 4dbc 3C       		.uleb128 0x3c
 15486 4dbd 01       		.uleb128 0x1
 15487 4dbe 50       		.byte	0x50
 15488 4dbf 01       		.uleb128 0x1
 15489 4dc0 35       		.byte	0x35
 15490 4dc1 00       		.byte	0
 15491 4dc2 3B       		.uleb128 0x3b
 15492 4dc3 AA130000 		.4byte	.LVL238
 15493 4dc7 0E6A0000 		.4byte	0x6a0e
 15494 4dcb D54D0000 		.4byte	0x4dd5
 15495 4dcf 3C       		.uleb128 0x3c
 15496 4dd0 01       		.uleb128 0x1
 15497 4dd1 50       		.byte	0x50
 15498 4dd2 01       		.uleb128 0x1
 15499 4dd3 36       		.byte	0x36
 15500 4dd4 00       		.byte	0
 15501 4dd5 3B       		.uleb128 0x3b
 15502 4dd6 B2130000 		.4byte	.LVL239
 15503 4dda 0E6A0000 		.4byte	0x6a0e
 15504 4dde E84D0000 		.4byte	0x4de8
 15505 4de2 3C       		.uleb128 0x3c
 15506 4de3 01       		.uleb128 0x1
 15507 4de4 50       		.byte	0x50
 15508 4de5 01       		.uleb128 0x1
 15509 4de6 37       		.byte	0x37
 15510 4de7 00       		.byte	0
 15511 4de8 3B       		.uleb128 0x3b
 15512 4de9 D0130000 		.4byte	.LVL240
 15513 4ded 1C690000 		.4byte	0x691c
 15514 4df1 3C4E0000 		.4byte	0x4e3c
 15515 4df5 3C       		.uleb128 0x3c
 15516 4df6 01       		.uleb128 0x1
 15517 4df7 50       		.byte	0x50
 15518 4df8 02       		.uleb128 0x2
 15519 4df9 7A       		.byte	0x7a
 15520 4dfa 00       		.sleb128 0
 15521 4dfb 3C       		.uleb128 0x3c
 15522 4dfc 01       		.uleb128 0x1
 15523 4dfd 51       		.byte	0x51
ARM GAS  C:\Users\osour\AppData\Local\Temp\ccsBkKuy.s 			page 279


 15524 4dfe 05       		.uleb128 0x5
 15525 4dff 03       		.byte	0x3
 15526 4e00 500A0000 		.4byte	.LC77
 15527 4e04 3C       		.uleb128 0x3c
 15528 4e05 01       		.uleb128 0x1
 15529 4e06 52       		.byte	0x52
 15530 4e07 04       		.uleb128 0x4
 15531 4e08 91       		.byte	0x91
 15532 4e09 A47F     		.sleb128 -92
 15533 4e0b 06       		.byte	0x6
 15534 4e0c 3C       		.uleb128 0x3c
 15535 4e0d 01       		.uleb128 0x1
 15536 4e0e 53       		.byte	0x53
 15537 4e0f 02       		.uleb128 0x2
 15538 4e10 74       		.byte	0x74
 15539 4e11 00       		.sleb128 0
 15540 4e12 3C       		.uleb128 0x3c
 15541 4e13 02       		.uleb128 0x2
 15542 4e14 7D       		.byte	0x7d
 15543 4e15 00       		.sleb128 0
 15544 4e16 04       		.uleb128 0x4
 15545 4e17 91       		.byte	0x91
 15546 4e18 987F     		.sleb128 -104
 15547 4e1a 06       		.byte	0x6
 15548 4e1b 3C       		.uleb128 0x3c
 15549 4e1c 02       		.uleb128 0x2
 15550 4e1d 7D       		.byte	0x7d
 15551 4e1e 04       		.sleb128 4
 15552 4e1f 02       		.uleb128 0x2
 15553 4e20 75       		.byte	0x75
 15554 4e21 00       		.sleb128 0
 15555 4e22 3C       		.uleb128 0x3c
 15556 4e23 02       		.uleb128 0x2
 15557 4e24 7D       		.byte	0x7d
 15558 4e25 08       		.sleb128 8
 15559 4e26 02       		.uleb128 0x2
 15560 4e27 76       		.byte	0x76
 15561 4e28 00       		.sleb128 0
 15562 4e29 3C       		.uleb128 0x3c
 15563 4e2a 02       		.uleb128 0x2
 15564 4e2b 7D       		.byte	0x7d
 15565 4e2c 0C       		.sleb128 12
 15566 4e2d 04       		.uleb128 0x4
 15567 4e2e 91       		.byte	0x91
 15568 4e2f A07F     		.sleb128 -96
 15569 4e31 06       		.byte	0x6
 15570 4e32 3C       		.uleb128 0x3c
 15571 4e33 02       		.uleb128 0x2
 15572 4e34 7D       		.byte	0x7d
 15573 4e35 10       		.sleb128 16
 15574 4e36 04       		.uleb128 0x4
 15575 4e37 91       		.byte	0x91
 15576 4e38 9C7F     		.sleb128 -100
 15577 4e3a 06       		.byte	0x6
 15578 4e3b 00       		.byte	0
 15579 4e3c 3B       		.uleb128 0x3b
 15580 4e3d EC130000 		.4byte	.LVL242
ARM GAS  C:\Users\osour\AppData\Local\Temp\ccsBkKuy.s 			page 280


 15581 4e41 32690000 		.4byte	0x6932
 15582 4e45 504E0000 		.4byte	0x4e50
 15583 4e49 3C       		.uleb128 0x3c
 15584 4e4a 01       		.uleb128 0x1
 15585 4e4b 50       		.byte	0x50
 15586 4e4c 02       		.uleb128 0x2
 15587 4e4d 7A       		.byte	0x7a
 15588 4e4e 00       		.sleb128 0
 15589 4e4f 00       		.byte	0
 15590 4e50 39       		.uleb128 0x39
 15591 4e51 F0130000 		.4byte	.LVL243
 15592 4e55 3D690000 		.4byte	0x693d
 15593 4e59 3B       		.uleb128 0x3b
 15594 4e5a 10140000 		.4byte	.LVL244
 15595 4e5e B6690000 		.4byte	0x69b6
 15596 4e62 8F4E0000 		.4byte	0x4e8f
 15597 4e66 3C       		.uleb128 0x3c
 15598 4e67 01       		.uleb128 0x1
 15599 4e68 50       		.byte	0x50
 15600 4e69 02       		.uleb128 0x2
 15601 4e6a 7A       		.byte	0x7a
 15602 4e6b 00       		.sleb128 0
 15603 4e6c 3C       		.uleb128 0x3c
 15604 4e6d 01       		.uleb128 0x1
 15605 4e6e 51       		.byte	0x51
 15606 4e6f 05       		.uleb128 0x5
 15607 4e70 03       		.byte	0x3
 15608 4e71 FC0A0000 		.4byte	.LC89
 15609 4e75 3C       		.uleb128 0x3c
 15610 4e76 01       		.uleb128 0x1
 15611 4e77 52       		.byte	0x52
 15612 4e78 05       		.uleb128 0x5
 15613 4e79 03       		.byte	0x3
 15614 4e7a 00000000 		.4byte	.LANCHOR24
 15615 4e7e 3C       		.uleb128 0x3c
 15616 4e7f 01       		.uleb128 0x1
 15617 4e80 53       		.byte	0x53
 15618 4e81 05       		.uleb128 0x5
 15619 4e82 03       		.byte	0x3
 15620 4e83 00000000 		.4byte	.LANCHOR25
 15621 4e87 3C       		.uleb128 0x3c
 15622 4e88 02       		.uleb128 0x2
 15623 4e89 7D       		.byte	0x7d
 15624 4e8a 00       		.sleb128 0
 15625 4e8b 02       		.uleb128 0x2
 15626 4e8c 74       		.byte	0x74
 15627 4e8d 00       		.sleb128 0
 15628 4e8e 00       		.byte	0
 15629 4e8f 39       		.uleb128 0x39
 15630 4e90 14140000 		.4byte	.LVL245
 15631 4e94 53690000 		.4byte	0x6953
 15632 4e98 39       		.uleb128 0x39
 15633 4e99 22140000 		.4byte	.LVL246
 15634 4e9d 196A0000 		.4byte	0x6a19
 15635 4ea1 39       		.uleb128 0x39
 15636 4ea2 26140000 		.4byte	.LVL247
 15637 4ea6 69690000 		.4byte	0x6969
ARM GAS  C:\Users\osour\AppData\Local\Temp\ccsBkKuy.s 			page 281


 15638 4eaa 3B       		.uleb128 0x3b
 15639 4eab 36140000 		.4byte	.LVL248
 15640 4eaf 32690000 		.4byte	0x6932
 15641 4eb3 C64E0000 		.4byte	0x4ec6
 15642 4eb7 3C       		.uleb128 0x3c
 15643 4eb8 01       		.uleb128 0x1
 15644 4eb9 50       		.byte	0x50
 15645 4eba 05       		.uleb128 0x5
 15646 4ebb 03       		.byte	0x3
 15647 4ebc 080B0000 		.4byte	.LC90
 15648 4ec0 3C       		.uleb128 0x3c
 15649 4ec1 01       		.uleb128 0x1
 15650 4ec2 51       		.byte	0x51
 15651 4ec3 01       		.uleb128 0x1
 15652 4ec4 33       		.byte	0x33
 15653 4ec5 00       		.byte	0
 15654 4ec6 39       		.uleb128 0x39
 15655 4ec7 3A140000 		.4byte	.LVL249
 15656 4ecb 3D690000 		.4byte	0x693d
 15657 4ecf 3B       		.uleb128 0x3b
 15658 4ed0 48140000 		.4byte	.LVL250
 15659 4ed4 246A0000 		.4byte	0x6a24
 15660 4ed8 E24E0000 		.4byte	0x4ee2
 15661 4edc 3C       		.uleb128 0x3c
 15662 4edd 01       		.uleb128 0x1
 15663 4ede 50       		.byte	0x50
 15664 4edf 01       		.uleb128 0x1
 15665 4ee0 30       		.byte	0x30
 15666 4ee1 00       		.byte	0
 15667 4ee2 3B       		.uleb128 0x3b
 15668 4ee3 50140000 		.4byte	.LVL251
 15669 4ee7 246A0000 		.4byte	0x6a24
 15670 4eeb F54E0000 		.4byte	0x4ef5
 15671 4eef 3C       		.uleb128 0x3c
 15672 4ef0 01       		.uleb128 0x1
 15673 4ef1 50       		.byte	0x50
 15674 4ef2 01       		.uleb128 0x1
 15675 4ef3 31       		.byte	0x31
 15676 4ef4 00       		.byte	0
 15677 4ef5 3B       		.uleb128 0x3b
 15678 4ef6 58140000 		.4byte	.LVL252
 15679 4efa 246A0000 		.4byte	0x6a24
 15680 4efe 084F0000 		.4byte	0x4f08
 15681 4f02 3C       		.uleb128 0x3c
 15682 4f03 01       		.uleb128 0x1
 15683 4f04 50       		.byte	0x50
 15684 4f05 01       		.uleb128 0x1
 15685 4f06 32       		.byte	0x32
 15686 4f07 00       		.byte	0
 15687 4f08 3B       		.uleb128 0x3b
 15688 4f09 66140000 		.4byte	.LVL253
 15689 4f0d 1C690000 		.4byte	0x691c
 15690 4f11 314F0000 		.4byte	0x4f31
 15691 4f15 3C       		.uleb128 0x3c
 15692 4f16 01       		.uleb128 0x1
 15693 4f17 50       		.byte	0x50
 15694 4f18 02       		.uleb128 0x2
ARM GAS  C:\Users\osour\AppData\Local\Temp\ccsBkKuy.s 			page 282


 15695 4f19 7A       		.byte	0x7a
 15696 4f1a 00       		.sleb128 0
 15697 4f1b 3C       		.uleb128 0x3c
 15698 4f1c 01       		.uleb128 0x1
 15699 4f1d 51       		.byte	0x51
 15700 4f1e 05       		.uleb128 0x5
 15701 4f1f 03       		.byte	0x3
 15702 4f20 C40A0000 		.4byte	.LC87
 15703 4f24 3C       		.uleb128 0x3c
 15704 4f25 01       		.uleb128 0x1
 15705 4f26 52       		.byte	0x52
 15706 4f27 02       		.uleb128 0x2
 15707 4f28 74       		.byte	0x74
 15708 4f29 00       		.sleb128 0
 15709 4f2a 3C       		.uleb128 0x3c
 15710 4f2b 01       		.uleb128 0x1
 15711 4f2c 53       		.byte	0x53
 15712 4f2d 02       		.uleb128 0x2
 15713 4f2e 75       		.byte	0x75
 15714 4f2f 00       		.sleb128 0
 15715 4f30 00       		.byte	0
 15716 4f31 3B       		.uleb128 0x3b
 15717 4f32 82140000 		.4byte	.LVL255
 15718 4f36 32690000 		.4byte	0x6932
 15719 4f3a 454F0000 		.4byte	0x4f45
 15720 4f3e 3C       		.uleb128 0x3c
 15721 4f3f 01       		.uleb128 0x1
 15722 4f40 50       		.byte	0x50
 15723 4f41 02       		.uleb128 0x2
 15724 4f42 7A       		.byte	0x7a
 15725 4f43 00       		.sleb128 0
 15726 4f44 00       		.byte	0
 15727 4f45 39       		.uleb128 0x39
 15728 4f46 86140000 		.4byte	.LVL256
 15729 4f4a 3D690000 		.4byte	0x693d
 15730 4f4e 3B       		.uleb128 0x3b
 15731 4f4f 94140000 		.4byte	.LVL257
 15732 4f53 2F6A0000 		.4byte	0x6a2f
 15733 4f57 614F0000 		.4byte	0x4f61
 15734 4f5b 3C       		.uleb128 0x3c
 15735 4f5c 01       		.uleb128 0x1
 15736 4f5d 50       		.byte	0x50
 15737 4f5e 01       		.uleb128 0x1
 15738 4f5f 30       		.byte	0x30
 15739 4f60 00       		.byte	0
 15740 4f61 3B       		.uleb128 0x3b
 15741 4f62 9A140000 		.4byte	.LVL258
 15742 4f66 3A6A0000 		.4byte	0x6a3a
 15743 4f6a 744F0000 		.4byte	0x4f74
 15744 4f6e 3C       		.uleb128 0x3c
 15745 4f6f 01       		.uleb128 0x1
 15746 4f70 50       		.byte	0x50
 15747 4f71 01       		.uleb128 0x1
 15748 4f72 30       		.byte	0x30
 15749 4f73 00       		.byte	0
 15750 4f74 3B       		.uleb128 0x3b
 15751 4f75 A2140000 		.4byte	.LVL259
ARM GAS  C:\Users\osour\AppData\Local\Temp\ccsBkKuy.s 			page 283


 15752 4f79 8A690000 		.4byte	0x698a
 15753 4f7d 8C4F0000 		.4byte	0x4f8c
 15754 4f81 3C       		.uleb128 0x3c
 15755 4f82 01       		.uleb128 0x1
 15756 4f83 50       		.byte	0x50
 15757 4f84 01       		.uleb128 0x1
 15758 4f85 38       		.byte	0x38
 15759 4f86 3C       		.uleb128 0x3c
 15760 4f87 01       		.uleb128 0x1
 15761 4f88 51       		.byte	0x51
 15762 4f89 01       		.uleb128 0x1
 15763 4f8a 30       		.byte	0x30
 15764 4f8b 00       		.byte	0
 15765 4f8c 3B       		.uleb128 0x3b
 15766 4f8d B8140000 		.4byte	.LVL260
 15767 4f91 32690000 		.4byte	0x6932
 15768 4f95 A84F0000 		.4byte	0x4fa8
 15769 4f99 3C       		.uleb128 0x3c
 15770 4f9a 01       		.uleb128 0x1
 15771 4f9b 50       		.byte	0x50
 15772 4f9c 05       		.uleb128 0x5
 15773 4f9d 03       		.byte	0x3
 15774 4f9e A40A0000 		.4byte	.LC82
 15775 4fa2 3C       		.uleb128 0x3c
 15776 4fa3 01       		.uleb128 0x1
 15777 4fa4 51       		.byte	0x51
 15778 4fa5 01       		.uleb128 0x1
 15779 4fa6 33       		.byte	0x33
 15780 4fa7 00       		.byte	0
 15781 4fa8 39       		.uleb128 0x39
 15782 4fa9 BC140000 		.4byte	.LVL261
 15783 4fad 3D690000 		.4byte	0x693d
 15784 4fb1 3B       		.uleb128 0x3b
 15785 4fb2 EC140000 		.4byte	.LVL262
 15786 4fb6 1C690000 		.4byte	0x691c
 15787 4fba D54F0000 		.4byte	0x4fd5
 15788 4fbe 3C       		.uleb128 0x3c
 15789 4fbf 01       		.uleb128 0x1
 15790 4fc0 50       		.byte	0x50
 15791 4fc1 02       		.uleb128 0x2
 15792 4fc2 7A       		.byte	0x7a
 15793 4fc3 00       		.sleb128 0
 15794 4fc4 3C       		.uleb128 0x3c
 15795 4fc5 01       		.uleb128 0x1
 15796 4fc6 51       		.byte	0x51
 15797 4fc7 05       		.uleb128 0x5
 15798 4fc8 03       		.byte	0x3
 15799 4fc9 BC090000 		.4byte	.LC70
 15800 4fcd 3C       		.uleb128 0x3c
 15801 4fce 02       		.uleb128 0x2
 15802 4fcf 7D       		.byte	0x7d
 15803 4fd0 08       		.sleb128 8
 15804 4fd1 02       		.uleb128 0x2
 15805 4fd2 74       		.byte	0x74
 15806 4fd3 00       		.sleb128 0
 15807 4fd4 00       		.byte	0
 15808 4fd5 3B       		.uleb128 0x3b
ARM GAS  C:\Users\osour\AppData\Local\Temp\ccsBkKuy.s 			page 284


 15809 4fd6 FA140000 		.4byte	.LVL263
 15810 4fda 27690000 		.4byte	0x6927
 15811 4fde E94F0000 		.4byte	0x4fe9
 15812 4fe2 3C       		.uleb128 0x3c
 15813 4fe3 01       		.uleb128 0x1
 15814 4fe4 50       		.byte	0x50
 15815 4fe5 02       		.uleb128 0x2
 15816 4fe6 7A       		.byte	0x7a
 15817 4fe7 00       		.sleb128 0
 15818 4fe8 00       		.byte	0
 15819 4fe9 3B       		.uleb128 0x3b
 15820 4fea 02150000 		.4byte	.LVL264
 15821 4fee 32690000 		.4byte	0x6932
 15822 4ff2 FD4F0000 		.4byte	0x4ffd
 15823 4ff6 3C       		.uleb128 0x3c
 15824 4ff7 01       		.uleb128 0x1
 15825 4ff8 50       		.byte	0x50
 15826 4ff9 02       		.uleb128 0x2
 15827 4ffa 7A       		.byte	0x7a
 15828 4ffb 00       		.sleb128 0
 15829 4ffc 00       		.byte	0
 15830 4ffd 39       		.uleb128 0x39
 15831 4ffe 06150000 		.4byte	.LVL265
 15832 5002 3D690000 		.4byte	0x693d
 15833 5006 3B       		.uleb128 0x3b
 15834 5007 1C150000 		.4byte	.LVL266
 15835 500b 456A0000 		.4byte	0x6a45
 15836 500f 1F500000 		.4byte	0x501f
 15837 5013 3C       		.uleb128 0x3c
 15838 5014 01       		.uleb128 0x1
 15839 5015 50       		.byte	0x50
 15840 5016 02       		.uleb128 0x2
 15841 5017 77       		.byte	0x77
 15842 5018 00       		.sleb128 0
 15843 5019 3C       		.uleb128 0x3c
 15844 501a 01       		.uleb128 0x1
 15845 501b 51       		.byte	0x51
 15846 501c 01       		.uleb128 0x1
 15847 501d 31       		.byte	0x31
 15848 501e 00       		.byte	0
 15849 501f 3B       		.uleb128 0x3b
 15850 5020 26150000 		.4byte	.LVL267
 15851 5024 456A0000 		.4byte	0x6a45
 15852 5028 37500000 		.4byte	0x5037
 15853 502c 3C       		.uleb128 0x3c
 15854 502d 01       		.uleb128 0x1
 15855 502e 50       		.byte	0x50
 15856 502f 01       		.uleb128 0x1
 15857 5030 31       		.byte	0x31
 15858 5031 3C       		.uleb128 0x3c
 15859 5032 01       		.uleb128 0x1
 15860 5033 51       		.byte	0x51
 15861 5034 01       		.uleb128 0x1
 15862 5035 31       		.byte	0x31
 15863 5036 00       		.byte	0
 15864 5037 3B       		.uleb128 0x3b
 15865 5038 30150000 		.4byte	.LVL268
ARM GAS  C:\Users\osour\AppData\Local\Temp\ccsBkKuy.s 			page 285


 15866 503c 456A0000 		.4byte	0x6a45
 15867 5040 4F500000 		.4byte	0x504f
 15868 5044 3C       		.uleb128 0x3c
 15869 5045 01       		.uleb128 0x1
 15870 5046 50       		.byte	0x50
 15871 5047 01       		.uleb128 0x1
 15872 5048 32       		.byte	0x32
 15873 5049 3C       		.uleb128 0x3c
 15874 504a 01       		.uleb128 0x1
 15875 504b 51       		.byte	0x51
 15876 504c 01       		.uleb128 0x1
 15877 504d 31       		.byte	0x31
 15878 504e 00       		.byte	0
 15879 504f 3B       		.uleb128 0x3b
 15880 5050 3E150000 		.4byte	.LVL269
 15881 5054 1C690000 		.4byte	0x691c
 15882 5058 78500000 		.4byte	0x5078
 15883 505c 3C       		.uleb128 0x3c
 15884 505d 01       		.uleb128 0x1
 15885 505e 50       		.byte	0x50
 15886 505f 02       		.uleb128 0x2
 15887 5060 7A       		.byte	0x7a
 15888 5061 00       		.sleb128 0
 15889 5062 3C       		.uleb128 0x3c
 15890 5063 01       		.uleb128 0x1
 15891 5064 51       		.byte	0x51
 15892 5065 05       		.uleb128 0x5
 15893 5066 03       		.byte	0x3
 15894 5067 5C000000 		.4byte	.LC1
 15895 506b 3C       		.uleb128 0x3c
 15896 506c 01       		.uleb128 0x1
 15897 506d 52       		.byte	0x52
 15898 506e 02       		.uleb128 0x2
 15899 506f 74       		.byte	0x74
 15900 5070 00       		.sleb128 0
 15901 5071 3C       		.uleb128 0x3c
 15902 5072 01       		.uleb128 0x1
 15903 5073 53       		.byte	0x53
 15904 5074 02       		.uleb128 0x2
 15905 5075 75       		.byte	0x75
 15906 5076 00       		.sleb128 0
 15907 5077 00       		.byte	0
 15908 5078 3B       		.uleb128 0x3b
 15909 5079 4C150000 		.4byte	.LVL270
 15910 507d 27690000 		.4byte	0x6927
 15911 5081 8C500000 		.4byte	0x508c
 15912 5085 3C       		.uleb128 0x3c
 15913 5086 01       		.uleb128 0x1
 15914 5087 50       		.byte	0x50
 15915 5088 02       		.uleb128 0x2
 15916 5089 7A       		.byte	0x7a
 15917 508a 00       		.sleb128 0
 15918 508b 00       		.byte	0
 15919 508c 3B       		.uleb128 0x3b
 15920 508d 54150000 		.4byte	.LVL271
 15921 5091 32690000 		.4byte	0x6932
 15922 5095 A0500000 		.4byte	0x50a0
ARM GAS  C:\Users\osour\AppData\Local\Temp\ccsBkKuy.s 			page 286


 15923 5099 3C       		.uleb128 0x3c
 15924 509a 01       		.uleb128 0x1
 15925 509b 50       		.byte	0x50
 15926 509c 02       		.uleb128 0x2
 15927 509d 7A       		.byte	0x7a
 15928 509e 00       		.sleb128 0
 15929 509f 00       		.byte	0
 15930 50a0 39       		.uleb128 0x39
 15931 50a1 58150000 		.4byte	.LVL272
 15932 50a5 3D690000 		.4byte	0x693d
 15933 50a9 3B       		.uleb128 0x3b
 15934 50aa 70150000 		.4byte	.LVL273
 15935 50ae 1C690000 		.4byte	0x691c
 15936 50b2 C6500000 		.4byte	0x50c6
 15937 50b6 3C       		.uleb128 0x3c
 15938 50b7 01       		.uleb128 0x1
 15939 50b8 50       		.byte	0x50
 15940 50b9 02       		.uleb128 0x2
 15941 50ba 7A       		.byte	0x7a
 15942 50bb 00       		.sleb128 0
 15943 50bc 3C       		.uleb128 0x3c
 15944 50bd 01       		.uleb128 0x1
 15945 50be 51       		.byte	0x51
 15946 50bf 05       		.uleb128 0x5
 15947 50c0 03       		.byte	0x3
 15948 50c1 AC000000 		.4byte	.LC9
 15949 50c5 00       		.byte	0
 15950 50c6 3B       		.uleb128 0x3b
 15951 50c7 8C150000 		.4byte	.LVL275
 15952 50cb 32690000 		.4byte	0x6932
 15953 50cf DA500000 		.4byte	0x50da
 15954 50d3 3C       		.uleb128 0x3c
 15955 50d4 01       		.uleb128 0x1
 15956 50d5 50       		.byte	0x50
 15957 50d6 02       		.uleb128 0x2
 15958 50d7 7A       		.byte	0x7a
 15959 50d8 00       		.sleb128 0
 15960 50d9 00       		.byte	0
 15961 50da 39       		.uleb128 0x39
 15962 50db 90150000 		.4byte	.LVL276
 15963 50df 3D690000 		.4byte	0x693d
 15964 50e3 3B       		.uleb128 0x3b
 15965 50e4 A4150000 		.4byte	.LVL277
 15966 50e8 B6690000 		.4byte	0x69b6
 15967 50ec 12510000 		.4byte	0x5112
 15968 50f0 3C       		.uleb128 0x3c
 15969 50f1 01       		.uleb128 0x1
 15970 50f2 50       		.byte	0x50
 15971 50f3 02       		.uleb128 0x2
 15972 50f4 7A       		.byte	0x7a
 15973 50f5 00       		.sleb128 0
 15974 50f6 3C       		.uleb128 0x3c
 15975 50f7 01       		.uleb128 0x1
 15976 50f8 51       		.byte	0x51
 15977 50f9 05       		.uleb128 0x5
 15978 50fa 03       		.byte	0x3
 15979 50fb 9C000000 		.4byte	.LC7
ARM GAS  C:\Users\osour\AppData\Local\Temp\ccsBkKuy.s 			page 287


 15980 50ff 3C       		.uleb128 0x3c
 15981 5100 01       		.uleb128 0x1
 15982 5101 52       		.byte	0x52
 15983 5102 05       		.uleb128 0x5
 15984 5103 03       		.byte	0x3
 15985 5104 00000000 		.4byte	.LANCHOR7
 15986 5108 3C       		.uleb128 0x3c
 15987 5109 01       		.uleb128 0x1
 15988 510a 53       		.byte	0x53
 15989 510b 05       		.uleb128 0x5
 15990 510c 03       		.byte	0x3
 15991 510d 00000000 		.4byte	.LANCHOR6
 15992 5111 00       		.byte	0
 15993 5112 39       		.uleb128 0x39
 15994 5113 AC150000 		.4byte	.LVL278
 15995 5117 2F6A0000 		.4byte	0x6a2f
 15996 511b 39       		.uleb128 0x39
 15997 511c B4150000 		.4byte	.LVL279
 15998 5120 3A6A0000 		.4byte	0x6a3a
 15999 5124 3B       		.uleb128 0x3b
 16000 5125 CA150000 		.4byte	.LVL280
 16001 5129 32690000 		.4byte	0x6932
 16002 512d 40510000 		.4byte	0x5140
 16003 5131 3C       		.uleb128 0x3c
 16004 5132 01       		.uleb128 0x1
 16005 5133 50       		.byte	0x50
 16006 5134 05       		.uleb128 0x5
 16007 5135 03       		.byte	0x3
 16008 5136 A8000000 		.4byte	.LC8
 16009 513a 3C       		.uleb128 0x3c
 16010 513b 01       		.uleb128 0x1
 16011 513c 51       		.byte	0x51
 16012 513d 01       		.uleb128 0x1
 16013 513e 33       		.byte	0x33
 16014 513f 00       		.byte	0
 16015 5140 39       		.uleb128 0x39
 16016 5141 CE150000 		.4byte	.LVL281
 16017 5145 3D690000 		.4byte	0x693d
 16018 5149 39       		.uleb128 0x39
 16019 514a DA150000 		.4byte	.LVL282
 16020 514e 506A0000 		.4byte	0x6a50
 16021 5152 39       		.uleb128 0x39
 16022 5153 E0150000 		.4byte	.LVL283
 16023 5157 5B6A0000 		.4byte	0x6a5b
 16024 515b 39       		.uleb128 0x39
 16025 515c E6150000 		.4byte	.LVL284
 16026 5160 666A0000 		.4byte	0x6a66
 16027 5164 3B       		.uleb128 0x3b
 16028 5165 F4150000 		.4byte	.LVL285
 16029 5169 1C690000 		.4byte	0x691c
 16030 516d 8D510000 		.4byte	0x518d
 16031 5171 3C       		.uleb128 0x3c
 16032 5172 01       		.uleb128 0x1
 16033 5173 50       		.byte	0x50
 16034 5174 02       		.uleb128 0x2
 16035 5175 7A       		.byte	0x7a
 16036 5176 00       		.sleb128 0
ARM GAS  C:\Users\osour\AppData\Local\Temp\ccsBkKuy.s 			page 288


 16037 5177 3C       		.uleb128 0x3c
 16038 5178 01       		.uleb128 0x1
 16039 5179 51       		.byte	0x51
 16040 517a 05       		.uleb128 0x5
 16041 517b 03       		.byte	0x3
 16042 517c C4000000 		.4byte	.LC12
 16043 5180 3C       		.uleb128 0x3c
 16044 5181 01       		.uleb128 0x1
 16045 5182 52       		.byte	0x52
 16046 5183 02       		.uleb128 0x2
 16047 5184 74       		.byte	0x74
 16048 5185 00       		.sleb128 0
 16049 5186 3C       		.uleb128 0x3c
 16050 5187 01       		.uleb128 0x1
 16051 5188 53       		.byte	0x53
 16052 5189 02       		.uleb128 0x2
 16053 518a 75       		.byte	0x75
 16054 518b 00       		.sleb128 0
 16055 518c 00       		.byte	0
 16056 518d 3B       		.uleb128 0x3b
 16057 518e 10160000 		.4byte	.LVL287
 16058 5192 32690000 		.4byte	0x6932
 16059 5196 A1510000 		.4byte	0x51a1
 16060 519a 3C       		.uleb128 0x3c
 16061 519b 01       		.uleb128 0x1
 16062 519c 50       		.byte	0x50
 16063 519d 02       		.uleb128 0x2
 16064 519e 7A       		.byte	0x7a
 16065 519f 00       		.sleb128 0
 16066 51a0 00       		.byte	0
 16067 51a1 39       		.uleb128 0x39
 16068 51a2 14160000 		.4byte	.LVL288
 16069 51a6 3D690000 		.4byte	0x693d
 16070 51aa 3B       		.uleb128 0x3b
 16071 51ab 52160000 		.4byte	.LVL289
 16072 51af 1C690000 		.4byte	0x691c
 16073 51b3 C7510000 		.4byte	0x51c7
 16074 51b7 3C       		.uleb128 0x3c
 16075 51b8 01       		.uleb128 0x1
 16076 51b9 50       		.byte	0x50
 16077 51ba 02       		.uleb128 0x2
 16078 51bb 7A       		.byte	0x7a
 16079 51bc 00       		.sleb128 0
 16080 51bd 3C       		.uleb128 0x3c
 16081 51be 01       		.uleb128 0x1
 16082 51bf 51       		.byte	0x51
 16083 51c0 05       		.uleb128 0x5
 16084 51c1 03       		.byte	0x3
 16085 51c2 94000000 		.4byte	.LC6
 16086 51c6 00       		.byte	0
 16087 51c7 3B       		.uleb128 0x3b
 16088 51c8 6E160000 		.4byte	.LVL291
 16089 51cc 32690000 		.4byte	0x6932
 16090 51d0 DB510000 		.4byte	0x51db
 16091 51d4 3C       		.uleb128 0x3c
 16092 51d5 01       		.uleb128 0x1
 16093 51d6 50       		.byte	0x50
ARM GAS  C:\Users\osour\AppData\Local\Temp\ccsBkKuy.s 			page 289


 16094 51d7 02       		.uleb128 0x2
 16095 51d8 7A       		.byte	0x7a
 16096 51d9 00       		.sleb128 0
 16097 51da 00       		.byte	0
 16098 51db 39       		.uleb128 0x39
 16099 51dc 72160000 		.4byte	.LVL292
 16100 51e0 3D690000 		.4byte	0x693d
 16101 51e4 3B       		.uleb128 0x3b
 16102 51e5 E6160000 		.4byte	.LVL293
 16103 51e9 32690000 		.4byte	0x6932
 16104 51ed 00520000 		.4byte	0x5200
 16105 51f1 3C       		.uleb128 0x3c
 16106 51f2 01       		.uleb128 0x1
 16107 51f3 50       		.byte	0x50
 16108 51f4 05       		.uleb128 0x5
 16109 51f5 03       		.byte	0x3
 16110 51f6 14010000 		.4byte	.LC15
 16111 51fa 3C       		.uleb128 0x3c
 16112 51fb 01       		.uleb128 0x1
 16113 51fc 51       		.byte	0x51
 16114 51fd 01       		.uleb128 0x1
 16115 51fe 31       		.byte	0x31
 16116 51ff 00       		.byte	0
 16117 5200 39       		.uleb128 0x39
 16118 5201 EA160000 		.4byte	.LVL294
 16119 5205 3D690000 		.4byte	0x693d
 16120 5209 3B       		.uleb128 0x3b
 16121 520a F6160000 		.4byte	.LVL295
 16122 520e 32690000 		.4byte	0x6932
 16123 5212 26520000 		.4byte	0x5226
 16124 5216 3C       		.uleb128 0x3c
 16125 5217 01       		.uleb128 0x1
 16126 5218 50       		.byte	0x50
 16127 5219 05       		.uleb128 0x5
 16128 521a 03       		.byte	0x3
 16129 521b 18010000 		.4byte	.LC16
 16130 521f 3C       		.uleb128 0x3c
 16131 5220 01       		.uleb128 0x1
 16132 5221 51       		.byte	0x51
 16133 5222 02       		.uleb128 0x2
 16134 5223 08       		.byte	0x8
 16135 5224 21       		.byte	0x21
 16136 5225 00       		.byte	0
 16137 5226 39       		.uleb128 0x39
 16138 5227 FA160000 		.4byte	.LVL296
 16139 522b 3D690000 		.4byte	0x693d
 16140 522f 3B       		.uleb128 0x3b
 16141 5230 06170000 		.4byte	.LVL297
 16142 5234 32690000 		.4byte	0x6932
 16143 5238 4C520000 		.4byte	0x524c
 16144 523c 3C       		.uleb128 0x3c
 16145 523d 01       		.uleb128 0x1
 16146 523e 50       		.byte	0x50
 16147 523f 05       		.uleb128 0x5
 16148 5240 03       		.byte	0x3
 16149 5241 3C010000 		.4byte	.LC17
 16150 5245 3C       		.uleb128 0x3c
ARM GAS  C:\Users\osour\AppData\Local\Temp\ccsBkKuy.s 			page 290


 16151 5246 01       		.uleb128 0x1
 16152 5247 51       		.byte	0x51
 16153 5248 02       		.uleb128 0x2
 16154 5249 08       		.byte	0x8
 16155 524a 31       		.byte	0x31
 16156 524b 00       		.byte	0
 16157 524c 39       		.uleb128 0x39
 16158 524d 0A170000 		.4byte	.LVL298
 16159 5251 3D690000 		.4byte	0x693d
 16160 5255 39       		.uleb128 0x39
 16161 5256 12170000 		.4byte	.LVL299
 16162 525a 716A0000 		.4byte	0x6a71
 16163 525e 3B       		.uleb128 0x3b
 16164 525f 20170000 		.4byte	.LVL300
 16165 5263 32690000 		.4byte	0x6932
 16166 5267 7B520000 		.4byte	0x527b
 16167 526b 3C       		.uleb128 0x3c
 16168 526c 01       		.uleb128 0x1
 16169 526d 50       		.byte	0x50
 16170 526e 05       		.uleb128 0x5
 16171 526f 03       		.byte	0x3
 16172 5270 70010000 		.4byte	.LC18
 16173 5274 3C       		.uleb128 0x3c
 16174 5275 01       		.uleb128 0x1
 16175 5276 51       		.byte	0x51
 16176 5277 02       		.uleb128 0x2
 16177 5278 08       		.byte	0x8
 16178 5279 21       		.byte	0x21
 16179 527a 00       		.byte	0
 16180 527b 39       		.uleb128 0x39
 16181 527c 24170000 		.4byte	.LVL301
 16182 5280 3D690000 		.4byte	0x693d
 16183 5284 3B       		.uleb128 0x3b
 16184 5285 30170000 		.4byte	.LVL302
 16185 5289 32690000 		.4byte	0x6932
 16186 528d A1520000 		.4byte	0x52a1
 16187 5291 3C       		.uleb128 0x3c
 16188 5292 01       		.uleb128 0x1
 16189 5293 50       		.byte	0x50
 16190 5294 05       		.uleb128 0x5
 16191 5295 03       		.byte	0x3
 16192 5296 C4010000 		.4byte	.LC20
 16193 529a 3C       		.uleb128 0x3c
 16194 529b 01       		.uleb128 0x1
 16195 529c 51       		.byte	0x51
 16196 529d 02       		.uleb128 0x2
 16197 529e 08       		.byte	0x8
 16198 529f 25       		.byte	0x25
 16199 52a0 00       		.byte	0
 16200 52a1 39       		.uleb128 0x39
 16201 52a2 34170000 		.4byte	.LVL303
 16202 52a6 3D690000 		.4byte	0x693d
 16203 52aa 3B       		.uleb128 0x3b
 16204 52ab 40170000 		.4byte	.LVL304
 16205 52af 32690000 		.4byte	0x6932
 16206 52b3 C7520000 		.4byte	0x52c7
 16207 52b7 3C       		.uleb128 0x3c
ARM GAS  C:\Users\osour\AppData\Local\Temp\ccsBkKuy.s 			page 291


 16208 52b8 01       		.uleb128 0x1
 16209 52b9 50       		.byte	0x50
 16210 52ba 05       		.uleb128 0x5
 16211 52bb 03       		.byte	0x3
 16212 52bc EC010000 		.4byte	.LC21
 16213 52c0 3C       		.uleb128 0x3c
 16214 52c1 01       		.uleb128 0x1
 16215 52c2 51       		.byte	0x51
 16216 52c3 02       		.uleb128 0x2
 16217 52c4 08       		.byte	0x8
 16218 52c5 2E       		.byte	0x2e
 16219 52c6 00       		.byte	0
 16220 52c7 39       		.uleb128 0x39
 16221 52c8 44170000 		.4byte	.LVL305
 16222 52cc 3D690000 		.4byte	0x693d
 16223 52d0 3B       		.uleb128 0x3b
 16224 52d1 50170000 		.4byte	.LVL306
 16225 52d5 32690000 		.4byte	0x6932
 16226 52d9 ED520000 		.4byte	0x52ed
 16227 52dd 3C       		.uleb128 0x3c
 16228 52de 01       		.uleb128 0x1
 16229 52df 50       		.byte	0x50
 16230 52e0 05       		.uleb128 0x5
 16231 52e1 03       		.byte	0x3
 16232 52e2 1C020000 		.4byte	.LC22
 16233 52e6 3C       		.uleb128 0x3c
 16234 52e7 01       		.uleb128 0x1
 16235 52e8 51       		.byte	0x51
 16236 52e9 02       		.uleb128 0x2
 16237 52ea 08       		.byte	0x8
 16238 52eb 2E       		.byte	0x2e
 16239 52ec 00       		.byte	0
 16240 52ed 39       		.uleb128 0x39
 16241 52ee 54170000 		.4byte	.LVL307
 16242 52f2 3D690000 		.4byte	0x693d
 16243 52f6 3B       		.uleb128 0x3b
 16244 52f7 60170000 		.4byte	.LVL308
 16245 52fb 32690000 		.4byte	0x6932
 16246 52ff 13530000 		.4byte	0x5313
 16247 5303 3C       		.uleb128 0x3c
 16248 5304 01       		.uleb128 0x1
 16249 5305 50       		.byte	0x50
 16250 5306 05       		.uleb128 0x5
 16251 5307 03       		.byte	0x3
 16252 5308 4C020000 		.4byte	.LC23
 16253 530c 3C       		.uleb128 0x3c
 16254 530d 01       		.uleb128 0x1
 16255 530e 51       		.byte	0x51
 16256 530f 02       		.uleb128 0x2
 16257 5310 08       		.byte	0x8
 16258 5311 32       		.byte	0x32
 16259 5312 00       		.byte	0
 16260 5313 39       		.uleb128 0x39
 16261 5314 64170000 		.4byte	.LVL309
 16262 5318 3D690000 		.4byte	0x693d
 16263 531c 3B       		.uleb128 0x3b
 16264 531d 70170000 		.4byte	.LVL310
ARM GAS  C:\Users\osour\AppData\Local\Temp\ccsBkKuy.s 			page 292


 16265 5321 32690000 		.4byte	0x6932
 16266 5325 38530000 		.4byte	0x5338
 16267 5329 3C       		.uleb128 0x3c
 16268 532a 01       		.uleb128 0x1
 16269 532b 50       		.byte	0x50
 16270 532c 05       		.uleb128 0x5
 16271 532d 03       		.byte	0x3
 16272 532e 80020000 		.4byte	.LC24
 16273 5332 3C       		.uleb128 0x3c
 16274 5333 01       		.uleb128 0x1
 16275 5334 51       		.byte	0x51
 16276 5335 01       		.uleb128 0x1
 16277 5336 4F       		.byte	0x4f
 16278 5337 00       		.byte	0
 16279 5338 39       		.uleb128 0x39
 16280 5339 74170000 		.4byte	.LVL311
 16281 533d 3D690000 		.4byte	0x693d
 16282 5341 39       		.uleb128 0x39
 16283 5342 7C170000 		.4byte	.LVL312
 16284 5346 716A0000 		.4byte	0x6a71
 16285 534a 3B       		.uleb128 0x3b
 16286 534b 8A170000 		.4byte	.LVL313
 16287 534f 32690000 		.4byte	0x6932
 16288 5353 66530000 		.4byte	0x5366
 16289 5357 3C       		.uleb128 0x3c
 16290 5358 01       		.uleb128 0x1
 16291 5359 50       		.byte	0x50
 16292 535a 05       		.uleb128 0x5
 16293 535b 03       		.byte	0x3
 16294 535c BC020000 		.4byte	.LC26
 16295 5360 3C       		.uleb128 0x3c
 16296 5361 01       		.uleb128 0x1
 16297 5362 51       		.byte	0x51
 16298 5363 01       		.uleb128 0x1
 16299 5364 48       		.byte	0x48
 16300 5365 00       		.byte	0
 16301 5366 39       		.uleb128 0x39
 16302 5367 8E170000 		.4byte	.LVL314
 16303 536b 3D690000 		.4byte	0x693d
 16304 536f 3B       		.uleb128 0x3b
 16305 5370 9A170000 		.4byte	.LVL315
 16306 5374 32690000 		.4byte	0x6932
 16307 5378 8C530000 		.4byte	0x538c
 16308 537c 3C       		.uleb128 0x3c
 16309 537d 01       		.uleb128 0x1
 16310 537e 50       		.byte	0x50
 16311 537f 05       		.uleb128 0x5
 16312 5380 03       		.byte	0x3
 16313 5381 D8020000 		.4byte	.LC27
 16314 5385 3C       		.uleb128 0x3c
 16315 5386 01       		.uleb128 0x1
 16316 5387 51       		.byte	0x51
 16317 5388 02       		.uleb128 0x2
 16318 5389 08       		.byte	0x8
 16319 538a 28       		.byte	0x28
 16320 538b 00       		.byte	0
 16321 538c 39       		.uleb128 0x39
ARM GAS  C:\Users\osour\AppData\Local\Temp\ccsBkKuy.s 			page 293


 16322 538d 9E170000 		.4byte	.LVL316
 16323 5391 3D690000 		.4byte	0x693d
 16324 5395 3B       		.uleb128 0x3b
 16325 5396 AA170000 		.4byte	.LVL317
 16326 539a 32690000 		.4byte	0x6932
 16327 539e B2530000 		.4byte	0x53b2
 16328 53a2 3C       		.uleb128 0x3c
 16329 53a3 01       		.uleb128 0x1
 16330 53a4 50       		.byte	0x50
 16331 53a5 05       		.uleb128 0x5
 16332 53a6 03       		.byte	0x3
 16333 53a7 04030000 		.4byte	.LC28
 16334 53ab 3C       		.uleb128 0x3c
 16335 53ac 01       		.uleb128 0x1
 16336 53ad 51       		.byte	0x51
 16337 53ae 02       		.uleb128 0x2
 16338 53af 08       		.byte	0x8
 16339 53b0 4F       		.byte	0x4f
 16340 53b1 00       		.byte	0
 16341 53b2 39       		.uleb128 0x39
 16342 53b3 AE170000 		.4byte	.LVL318
 16343 53b7 3D690000 		.4byte	0x693d
 16344 53bb 3B       		.uleb128 0x3b
 16345 53bc BA170000 		.4byte	.LVL319
 16346 53c0 32690000 		.4byte	0x6932
 16347 53c4 D8530000 		.4byte	0x53d8
 16348 53c8 3C       		.uleb128 0x3c
 16349 53c9 01       		.uleb128 0x1
 16350 53ca 50       		.byte	0x50
 16351 53cb 05       		.uleb128 0x5
 16352 53cc 03       		.byte	0x3
 16353 53cd 54030000 		.4byte	.LC29
 16354 53d1 3C       		.uleb128 0x3c
 16355 53d2 01       		.uleb128 0x1
 16356 53d3 51       		.byte	0x51
 16357 53d4 02       		.uleb128 0x2
 16358 53d5 08       		.byte	0x8
 16359 53d6 2F       		.byte	0x2f
 16360 53d7 00       		.byte	0
 16361 53d8 39       		.uleb128 0x39
 16362 53d9 BE170000 		.4byte	.LVL320
 16363 53dd 3D690000 		.4byte	0x693d
 16364 53e1 3B       		.uleb128 0x3b
 16365 53e2 CA170000 		.4byte	.LVL321
 16366 53e6 32690000 		.4byte	0x6932
 16367 53ea FE530000 		.4byte	0x53fe
 16368 53ee 3C       		.uleb128 0x3c
 16369 53ef 01       		.uleb128 0x1
 16370 53f0 50       		.byte	0x50
 16371 53f1 05       		.uleb128 0x5
 16372 53f2 03       		.byte	0x3
 16373 53f3 84030000 		.4byte	.LC30
 16374 53f7 3C       		.uleb128 0x3c
 16375 53f8 01       		.uleb128 0x1
 16376 53f9 51       		.byte	0x51
 16377 53fa 02       		.uleb128 0x2
 16378 53fb 08       		.byte	0x8
ARM GAS  C:\Users\osour\AppData\Local\Temp\ccsBkKuy.s 			page 294


 16379 53fc 33       		.byte	0x33
 16380 53fd 00       		.byte	0
 16381 53fe 39       		.uleb128 0x39
 16382 53ff CE170000 		.4byte	.LVL322
 16383 5403 3D690000 		.4byte	0x693d
 16384 5407 3B       		.uleb128 0x3b
 16385 5408 DA170000 		.4byte	.LVL323
 16386 540c 32690000 		.4byte	0x6932
 16387 5410 24540000 		.4byte	0x5424
 16388 5414 3C       		.uleb128 0x3c
 16389 5415 01       		.uleb128 0x1
 16390 5416 50       		.byte	0x50
 16391 5417 05       		.uleb128 0x5
 16392 5418 03       		.byte	0x3
 16393 5419 B8030000 		.4byte	.LC31
 16394 541d 3C       		.uleb128 0x3c
 16395 541e 01       		.uleb128 0x1
 16396 541f 51       		.byte	0x51
 16397 5420 02       		.uleb128 0x2
 16398 5421 08       		.byte	0x8
 16399 5422 21       		.byte	0x21
 16400 5423 00       		.byte	0
 16401 5424 39       		.uleb128 0x39
 16402 5425 DE170000 		.4byte	.LVL324
 16403 5429 3D690000 		.4byte	0x693d
 16404 542d 3B       		.uleb128 0x3b
 16405 542e EA170000 		.4byte	.LVL325
 16406 5432 32690000 		.4byte	0x6932
 16407 5436 49540000 		.4byte	0x5449
 16408 543a 3C       		.uleb128 0x3c
 16409 543b 01       		.uleb128 0x1
 16410 543c 50       		.byte	0x50
 16411 543d 05       		.uleb128 0x5
 16412 543e 03       		.byte	0x3
 16413 543f DC030000 		.4byte	.LC32
 16414 5443 3C       		.uleb128 0x3c
 16415 5444 01       		.uleb128 0x1
 16416 5445 51       		.byte	0x51
 16417 5446 01       		.uleb128 0x1
 16418 5447 4D       		.byte	0x4d
 16419 5448 00       		.byte	0
 16420 5449 39       		.uleb128 0x39
 16421 544a EE170000 		.4byte	.LVL326
 16422 544e 3D690000 		.4byte	0x693d
 16423 5452 3B       		.uleb128 0x3b
 16424 5453 FA170000 		.4byte	.LVL327
 16425 5457 32690000 		.4byte	0x6932
 16426 545b 6F540000 		.4byte	0x546f
 16427 545f 3C       		.uleb128 0x3c
 16428 5460 01       		.uleb128 0x1
 16429 5461 50       		.byte	0x50
 16430 5462 05       		.uleb128 0x5
 16431 5463 03       		.byte	0x3
 16432 5464 FC030000 		.4byte	.LC33
 16433 5468 3C       		.uleb128 0x3c
 16434 5469 01       		.uleb128 0x1
 16435 546a 51       		.byte	0x51
ARM GAS  C:\Users\osour\AppData\Local\Temp\ccsBkKuy.s 			page 295


 16436 546b 02       		.uleb128 0x2
 16437 546c 08       		.byte	0x8
 16438 546d 21       		.byte	0x21
 16439 546e 00       		.byte	0
 16440 546f 39       		.uleb128 0x39
 16441 5470 FE170000 		.4byte	.LVL328
 16442 5474 3D690000 		.4byte	0x693d
 16443 5478 3B       		.uleb128 0x3b
 16444 5479 0A180000 		.4byte	.LVL329
 16445 547d 32690000 		.4byte	0x6932
 16446 5481 95540000 		.4byte	0x5495
 16447 5485 3C       		.uleb128 0x3c
 16448 5486 01       		.uleb128 0x1
 16449 5487 50       		.byte	0x50
 16450 5488 05       		.uleb128 0x5
 16451 5489 03       		.byte	0x3
 16452 548a 20040000 		.4byte	.LC34
 16453 548e 3C       		.uleb128 0x3c
 16454 548f 01       		.uleb128 0x1
 16455 5490 51       		.byte	0x51
 16456 5491 02       		.uleb128 0x2
 16457 5492 08       		.byte	0x8
 16458 5493 31       		.byte	0x31
 16459 5494 00       		.byte	0
 16460 5495 39       		.uleb128 0x39
 16461 5496 0E180000 		.4byte	.LVL330
 16462 549a 3D690000 		.4byte	0x693d
 16463 549e 3B       		.uleb128 0x3b
 16464 549f 1A180000 		.4byte	.LVL331
 16465 54a3 32690000 		.4byte	0x6932
 16466 54a7 BB540000 		.4byte	0x54bb
 16467 54ab 3C       		.uleb128 0x3c
 16468 54ac 01       		.uleb128 0x1
 16469 54ad 50       		.byte	0x50
 16470 54ae 05       		.uleb128 0x5
 16471 54af 03       		.byte	0x3
 16472 54b0 54040000 		.4byte	.LC35
 16473 54b4 3C       		.uleb128 0x3c
 16474 54b5 01       		.uleb128 0x1
 16475 54b6 51       		.byte	0x51
 16476 54b7 02       		.uleb128 0x2
 16477 54b8 08       		.byte	0x8
 16478 54b9 31       		.byte	0x31
 16479 54ba 00       		.byte	0
 16480 54bb 39       		.uleb128 0x39
 16481 54bc 1E180000 		.4byte	.LVL332
 16482 54c0 3D690000 		.4byte	0x693d
 16483 54c4 3B       		.uleb128 0x3b
 16484 54c5 2A180000 		.4byte	.LVL333
 16485 54c9 32690000 		.4byte	0x6932
 16486 54cd E1540000 		.4byte	0x54e1
 16487 54d1 3C       		.uleb128 0x3c
 16488 54d2 01       		.uleb128 0x1
 16489 54d3 50       		.byte	0x50
 16490 54d4 05       		.uleb128 0x5
 16491 54d5 03       		.byte	0x3
 16492 54d6 88040000 		.4byte	.LC36
ARM GAS  C:\Users\osour\AppData\Local\Temp\ccsBkKuy.s 			page 296


 16493 54da 3C       		.uleb128 0x3c
 16494 54db 01       		.uleb128 0x1
 16495 54dc 51       		.byte	0x51
 16496 54dd 02       		.uleb128 0x2
 16497 54de 08       		.byte	0x8
 16498 54df 20       		.byte	0x20
 16499 54e0 00       		.byte	0
 16500 54e1 39       		.uleb128 0x39
 16501 54e2 2E180000 		.4byte	.LVL334
 16502 54e6 3D690000 		.4byte	0x693d
 16503 54ea 3B       		.uleb128 0x3b
 16504 54eb 3A180000 		.4byte	.LVL335
 16505 54ef 32690000 		.4byte	0x6932
 16506 54f3 07550000 		.4byte	0x5507
 16507 54f7 3C       		.uleb128 0x3c
 16508 54f8 01       		.uleb128 0x1
 16509 54f9 50       		.byte	0x50
 16510 54fa 05       		.uleb128 0x5
 16511 54fb 03       		.byte	0x3
 16512 54fc AC040000 		.4byte	.LC37
 16513 5500 3C       		.uleb128 0x3c
 16514 5501 01       		.uleb128 0x1
 16515 5502 51       		.byte	0x51
 16516 5503 02       		.uleb128 0x2
 16517 5504 08       		.byte	0x8
 16518 5505 31       		.byte	0x31
 16519 5506 00       		.byte	0
 16520 5507 39       		.uleb128 0x39
 16521 5508 3E180000 		.4byte	.LVL336
 16522 550c 3D690000 		.4byte	0x693d
 16523 5510 3B       		.uleb128 0x3b
 16524 5511 4A180000 		.4byte	.LVL337
 16525 5515 32690000 		.4byte	0x6932
 16526 5519 2D550000 		.4byte	0x552d
 16527 551d 3C       		.uleb128 0x3c
 16528 551e 01       		.uleb128 0x1
 16529 551f 50       		.byte	0x50
 16530 5520 05       		.uleb128 0x5
 16531 5521 03       		.byte	0x3
 16532 5522 E0040000 		.4byte	.LC38
 16533 5526 3C       		.uleb128 0x3c
 16534 5527 01       		.uleb128 0x1
 16535 5528 51       		.byte	0x51
 16536 5529 02       		.uleb128 0x2
 16537 552a 08       		.byte	0x8
 16538 552b 32       		.byte	0x32
 16539 552c 00       		.byte	0
 16540 552d 39       		.uleb128 0x39
 16541 552e 4E180000 		.4byte	.LVL338
 16542 5532 3D690000 		.4byte	0x693d
 16543 5536 39       		.uleb128 0x39
 16544 5537 56180000 		.4byte	.LVL339
 16545 553b 716A0000 		.4byte	0x6a71
 16546 553f 3B       		.uleb128 0x3b
 16547 5540 64180000 		.4byte	.LVL340
 16548 5544 32690000 		.4byte	0x6932
 16549 5548 5C550000 		.4byte	0x555c
ARM GAS  C:\Users\osour\AppData\Local\Temp\ccsBkKuy.s 			page 297


 16550 554c 3C       		.uleb128 0x3c
 16551 554d 01       		.uleb128 0x1
 16552 554e 50       		.byte	0x50
 16553 554f 05       		.uleb128 0x5
 16554 5550 03       		.byte	0x3
 16555 5551 34050000 		.4byte	.LC40
 16556 5555 3C       		.uleb128 0x3c
 16557 5556 01       		.uleb128 0x1
 16558 5557 51       		.byte	0x51
 16559 5558 02       		.uleb128 0x2
 16560 5559 08       		.byte	0x8
 16561 555a 2C       		.byte	0x2c
 16562 555b 00       		.byte	0
 16563 555c 39       		.uleb128 0x39
 16564 555d 68180000 		.4byte	.LVL341
 16565 5561 3D690000 		.4byte	0x693d
 16566 5565 3B       		.uleb128 0x3b
 16567 5566 74180000 		.4byte	.LVL342
 16568 556a 32690000 		.4byte	0x6932
 16569 556e 82550000 		.4byte	0x5582
 16570 5572 3C       		.uleb128 0x3c
 16571 5573 01       		.uleb128 0x1
 16572 5574 50       		.byte	0x50
 16573 5575 05       		.uleb128 0x5
 16574 5576 03       		.byte	0x3
 16575 5577 64050000 		.4byte	.LC41
 16576 557b 3C       		.uleb128 0x3c
 16577 557c 01       		.uleb128 0x1
 16578 557d 51       		.byte	0x51
 16579 557e 02       		.uleb128 0x2
 16580 557f 08       		.byte	0x8
 16581 5580 25       		.byte	0x25
 16582 5581 00       		.byte	0
 16583 5582 39       		.uleb128 0x39
 16584 5583 78180000 		.4byte	.LVL343
 16585 5587 3D690000 		.4byte	0x693d
 16586 558b 3B       		.uleb128 0x3b
 16587 558c 84180000 		.4byte	.LVL344
 16588 5590 32690000 		.4byte	0x6932
 16589 5594 A8550000 		.4byte	0x55a8
 16590 5598 3C       		.uleb128 0x3c
 16591 5599 01       		.uleb128 0x1
 16592 559a 50       		.byte	0x50
 16593 559b 05       		.uleb128 0x5
 16594 559c 03       		.byte	0x3
 16595 559d 8C050000 		.4byte	.LC42
 16596 55a1 3C       		.uleb128 0x3c
 16597 55a2 01       		.uleb128 0x1
 16598 55a3 51       		.byte	0x51
 16599 55a4 02       		.uleb128 0x2
 16600 55a5 08       		.byte	0x8
 16601 55a6 2B       		.byte	0x2b
 16602 55a7 00       		.byte	0
 16603 55a8 39       		.uleb128 0x39
 16604 55a9 88180000 		.4byte	.LVL345
 16605 55ad 3D690000 		.4byte	0x693d
 16606 55b1 3B       		.uleb128 0x3b
ARM GAS  C:\Users\osour\AppData\Local\Temp\ccsBkKuy.s 			page 298


 16607 55b2 94180000 		.4byte	.LVL346
 16608 55b6 32690000 		.4byte	0x6932
 16609 55ba CE550000 		.4byte	0x55ce
 16610 55be 3C       		.uleb128 0x3c
 16611 55bf 01       		.uleb128 0x1
 16612 55c0 50       		.byte	0x50
 16613 55c1 05       		.uleb128 0x5
 16614 55c2 03       		.byte	0x3
 16615 55c3 B8050000 		.4byte	.LC43
 16616 55c7 3C       		.uleb128 0x3c
 16617 55c8 01       		.uleb128 0x1
 16618 55c9 51       		.byte	0x51
 16619 55ca 02       		.uleb128 0x2
 16620 55cb 08       		.byte	0x8
 16621 55cc 2A       		.byte	0x2a
 16622 55cd 00       		.byte	0
 16623 55ce 39       		.uleb128 0x39
 16624 55cf 98180000 		.4byte	.LVL347
 16625 55d3 3D690000 		.4byte	0x693d
 16626 55d7 3B       		.uleb128 0x3b
 16627 55d8 AA180000 		.4byte	.LVL348
 16628 55dc B6690000 		.4byte	0x69b6
 16629 55e0 FD550000 		.4byte	0x55fd
 16630 55e4 3C       		.uleb128 0x3c
 16631 55e5 01       		.uleb128 0x1
 16632 55e6 50       		.byte	0x50
 16633 55e7 02       		.uleb128 0x2
 16634 55e8 7A       		.byte	0x7a
 16635 55e9 00       		.sleb128 0
 16636 55ea 3C       		.uleb128 0x3c
 16637 55eb 01       		.uleb128 0x1
 16638 55ec 51       		.byte	0x51
 16639 55ed 05       		.uleb128 0x5
 16640 55ee 03       		.byte	0x3
 16641 55ef 88000000 		.4byte	.LC4
 16642 55f3 3C       		.uleb128 0x3c
 16643 55f4 01       		.uleb128 0x1
 16644 55f5 52       		.byte	0x52
 16645 55f6 05       		.uleb128 0x5
 16646 55f7 03       		.byte	0x3
 16647 55f8 00000000 		.4byte	.LANCHOR27
 16648 55fc 00       		.byte	0
 16649 55fd 39       		.uleb128 0x39
 16650 55fe B2180000 		.4byte	.LVL349
 16651 5602 7C6A0000 		.4byte	0x6a7c
 16652 5606 3B       		.uleb128 0x3b
 16653 5607 C8180000 		.4byte	.LVL350
 16654 560b 32690000 		.4byte	0x6932
 16655 560f 22560000 		.4byte	0x5622
 16656 5613 3C       		.uleb128 0x3c
 16657 5614 01       		.uleb128 0x1
 16658 5615 50       		.byte	0x50
 16659 5616 05       		.uleb128 0x5
 16660 5617 03       		.byte	0x3
 16661 5618 90000000 		.4byte	.LC5
 16662 561c 3C       		.uleb128 0x3c
 16663 561d 01       		.uleb128 0x1
ARM GAS  C:\Users\osour\AppData\Local\Temp\ccsBkKuy.s 			page 299


 16664 561e 51       		.byte	0x51
 16665 561f 01       		.uleb128 0x1
 16666 5620 33       		.byte	0x33
 16667 5621 00       		.byte	0
 16668 5622 39       		.uleb128 0x39
 16669 5623 CC180000 		.4byte	.LVL351
 16670 5627 3D690000 		.4byte	0x693d
 16671 562b 3B       		.uleb128 0x3b
 16672 562c DE180000 		.4byte	.LVL352
 16673 5630 B6690000 		.4byte	0x69b6
 16674 5634 51560000 		.4byte	0x5651
 16675 5638 3C       		.uleb128 0x3c
 16676 5639 01       		.uleb128 0x1
 16677 563a 50       		.byte	0x50
 16678 563b 02       		.uleb128 0x2
 16679 563c 7A       		.byte	0x7a
 16680 563d 00       		.sleb128 0
 16681 563e 3C       		.uleb128 0x3c
 16682 563f 01       		.uleb128 0x1
 16683 5640 51       		.byte	0x51
 16684 5641 05       		.uleb128 0x5
 16685 5642 03       		.byte	0x3
 16686 5643 B8000000 		.4byte	.LC10
 16687 5647 3C       		.uleb128 0x3c
 16688 5648 01       		.uleb128 0x1
 16689 5649 52       		.byte	0x52
 16690 564a 05       		.uleb128 0x5
 16691 564b 03       		.byte	0x3
 16692 564c 00000000 		.4byte	.LANCHOR27
 16693 5650 00       		.byte	0
 16694 5651 39       		.uleb128 0x39
 16695 5652 E6180000 		.4byte	.LVL353
 16696 5656 876A0000 		.4byte	0x6a87
 16697 565a 3B       		.uleb128 0x3b
 16698 565b FC180000 		.4byte	.LVL354
 16699 565f 32690000 		.4byte	0x6932
 16700 5663 76560000 		.4byte	0x5676
 16701 5667 3C       		.uleb128 0x3c
 16702 5668 01       		.uleb128 0x1
 16703 5669 50       		.byte	0x50
 16704 566a 05       		.uleb128 0x5
 16705 566b 03       		.byte	0x3
 16706 566c C0000000 		.4byte	.LC11
 16707 5670 3C       		.uleb128 0x3c
 16708 5671 01       		.uleb128 0x1
 16709 5672 51       		.byte	0x51
 16710 5673 01       		.uleb128 0x1
 16711 5674 33       		.byte	0x33
 16712 5675 00       		.byte	0
 16713 5676 39       		.uleb128 0x39
 16714 5677 00190000 		.4byte	.LVL355
 16715 567b 3D690000 		.4byte	0x693d
 16716 567f 3B       		.uleb128 0x3b
 16717 5680 14190000 		.4byte	.LVL356
 16718 5684 926A0000 		.4byte	0x6a92
 16719 5688 9B560000 		.4byte	0x569b
 16720 568c 3C       		.uleb128 0x3c
ARM GAS  C:\Users\osour\AppData\Local\Temp\ccsBkKuy.s 			page 300


 16721 568d 01       		.uleb128 0x1
 16722 568e 50       		.byte	0x50
 16723 568f 03       		.uleb128 0x3
 16724 5690 0A       		.byte	0xa
 16725 5691 142B     		.2byte	0x2b14
 16726 5693 3C       		.uleb128 0x3c
 16727 5694 01       		.uleb128 0x1
 16728 5695 51       		.byte	0x51
 16729 5696 03       		.uleb128 0x3
 16730 5697 0A       		.byte	0xa
 16731 5698 501F     		.2byte	0x1f50
 16732 569a 00       		.byte	0
 16733 569b 3B       		.uleb128 0x3b
 16734 569c 2A190000 		.4byte	.LVL357
 16735 56a0 32690000 		.4byte	0x6932
 16736 56a4 B7560000 		.4byte	0x56b7
 16737 56a8 3C       		.uleb128 0x3c
 16738 56a9 01       		.uleb128 0x1
 16739 56aa 50       		.byte	0x50
 16740 56ab 05       		.uleb128 0x5
 16741 56ac 03       		.byte	0x3
 16742 56ad B00A0000 		.4byte	.LC84
 16743 56b1 3C       		.uleb128 0x3c
 16744 56b2 01       		.uleb128 0x1
 16745 56b3 51       		.byte	0x51
 16746 56b4 01       		.uleb128 0x1
 16747 56b5 33       		.byte	0x33
 16748 56b6 00       		.byte	0
 16749 56b7 39       		.uleb128 0x39
 16750 56b8 2E190000 		.4byte	.LVL358
 16751 56bc 3D690000 		.4byte	0x693d
 16752 56c0 3B       		.uleb128 0x3b
 16753 56c1 42190000 		.4byte	.LVL359
 16754 56c5 926A0000 		.4byte	0x6a92
 16755 56c9 DC560000 		.4byte	0x56dc
 16756 56cd 3C       		.uleb128 0x3c
 16757 56ce 01       		.uleb128 0x1
 16758 56cf 50       		.byte	0x50
 16759 56d0 03       		.uleb128 0x3
 16760 56d1 0A       		.byte	0xa
 16761 56d2 7E1C     		.2byte	0x1c7e
 16762 56d4 3C       		.uleb128 0x3c
 16763 56d5 01       		.uleb128 0x1
 16764 56d6 51       		.byte	0x51
 16765 56d7 03       		.uleb128 0x3
 16766 56d8 0A       		.byte	0xa
 16767 56d9 940E     		.2byte	0xe94
 16768 56db 00       		.byte	0
 16769 56dc 3B       		.uleb128 0x3b
 16770 56dd 4E190000 		.4byte	.LVL360
 16771 56e1 9D6A0000 		.4byte	0x6a9d
 16772 56e5 F9560000 		.4byte	0x56f9
 16773 56e9 3C       		.uleb128 0x3c
 16774 56ea 01       		.uleb128 0x1
 16775 56eb 50       		.byte	0x50
 16776 56ec 01       		.uleb128 0x1
 16777 56ed 3B       		.byte	0x3b
ARM GAS  C:\Users\osour\AppData\Local\Temp\ccsBkKuy.s 			page 301


 16778 56ee 3C       		.uleb128 0x3c
 16779 56ef 01       		.uleb128 0x1
 16780 56f0 51       		.byte	0x51
 16781 56f1 01       		.uleb128 0x1
 16782 56f2 32       		.byte	0x32
 16783 56f3 3C       		.uleb128 0x3c
 16784 56f4 01       		.uleb128 0x1
 16785 56f5 52       		.byte	0x52
 16786 56f6 01       		.uleb128 0x1
 16787 56f7 30       		.byte	0x30
 16788 56f8 00       		.byte	0
 16789 56f9 3B       		.uleb128 0x3b
 16790 56fa 5A190000 		.4byte	.LVL361
 16791 56fe 9D6A0000 		.4byte	0x6a9d
 16792 5702 16570000 		.4byte	0x5716
 16793 5706 3C       		.uleb128 0x3c
 16794 5707 01       		.uleb128 0x1
 16795 5708 50       		.byte	0x50
 16796 5709 01       		.uleb128 0x1
 16797 570a 34       		.byte	0x34
 16798 570b 3C       		.uleb128 0x3c
 16799 570c 01       		.uleb128 0x1
 16800 570d 51       		.byte	0x51
 16801 570e 01       		.uleb128 0x1
 16802 570f 32       		.byte	0x32
 16803 5710 3C       		.uleb128 0x3c
 16804 5711 01       		.uleb128 0x1
 16805 5712 52       		.byte	0x52
 16806 5713 01       		.uleb128 0x1
 16807 5714 30       		.byte	0x30
 16808 5715 00       		.byte	0
 16809 5716 3B       		.uleb128 0x3b
 16810 5717 66190000 		.4byte	.LVL362
 16811 571b 9D6A0000 		.4byte	0x6a9d
 16812 571f 33570000 		.4byte	0x5733
 16813 5723 3C       		.uleb128 0x3c
 16814 5724 01       		.uleb128 0x1
 16815 5725 50       		.byte	0x50
 16816 5726 01       		.uleb128 0x1
 16817 5727 33       		.byte	0x33
 16818 5728 3C       		.uleb128 0x3c
 16819 5729 01       		.uleb128 0x1
 16820 572a 51       		.byte	0x51
 16821 572b 01       		.uleb128 0x1
 16822 572c 32       		.byte	0x32
 16823 572d 3C       		.uleb128 0x3c
 16824 572e 01       		.uleb128 0x1
 16825 572f 52       		.byte	0x52
 16826 5730 01       		.uleb128 0x1
 16827 5731 30       		.byte	0x30
 16828 5732 00       		.byte	0
 16829 5733 3B       		.uleb128 0x3b
 16830 5734 7E190000 		.4byte	.LVL363
 16831 5738 32690000 		.4byte	0x6932
 16832 573c 4F570000 		.4byte	0x574f
 16833 5740 3C       		.uleb128 0x3c
 16834 5741 01       		.uleb128 0x1
ARM GAS  C:\Users\osour\AppData\Local\Temp\ccsBkKuy.s 			page 302


 16835 5742 50       		.byte	0x50
 16836 5743 05       		.uleb128 0x5
 16837 5744 03       		.byte	0x3
 16838 5745 380B0000 		.4byte	.LC95
 16839 5749 3C       		.uleb128 0x3c
 16840 574a 01       		.uleb128 0x1
 16841 574b 51       		.byte	0x51
 16842 574c 01       		.uleb128 0x1
 16843 574d 45       		.byte	0x45
 16844 574e 00       		.byte	0
 16845 574f 39       		.uleb128 0x39
 16846 5750 82190000 		.4byte	.LVL364
 16847 5754 3D690000 		.4byte	0x693d
 16848 5758 39       		.uleb128 0x39
 16849 5759 A8190000 		.4byte	.LVL365
 16850 575d A86A0000 		.4byte	0x6aa8
 16851 5761 39       		.uleb128 0x39
 16852 5762 AE190000 		.4byte	.LVL366
 16853 5766 B36A0000 		.4byte	0x6ab3
 16854 576a 3B       		.uleb128 0x3b
 16855 576b BA190000 		.4byte	.LVL367
 16856 576f 1C690000 		.4byte	0x691c
 16857 5773 8D570000 		.4byte	0x578d
 16858 5777 3C       		.uleb128 0x3c
 16859 5778 01       		.uleb128 0x1
 16860 5779 50       		.byte	0x50
 16861 577a 02       		.uleb128 0x2
 16862 577b 7A       		.byte	0x7a
 16863 577c 00       		.sleb128 0
 16864 577d 3C       		.uleb128 0x3c
 16865 577e 01       		.uleb128 0x1
 16866 577f 51       		.byte	0x51
 16867 5780 05       		.uleb128 0x5
 16868 5781 03       		.byte	0x3
 16869 5782 78000000 		.4byte	.LC3
 16870 5786 3C       		.uleb128 0x3c
 16871 5787 01       		.uleb128 0x1
 16872 5788 52       		.byte	0x52
 16873 5789 02       		.uleb128 0x2
 16874 578a 74       		.byte	0x74
 16875 578b 00       		.sleb128 0
 16876 578c 00       		.byte	0
 16877 578d 3B       		.uleb128 0x3b
 16878 578e 101C0000 		.4byte	.LVL390
 16879 5792 8A690000 		.4byte	0x698a
 16880 5796 A5570000 		.4byte	0x57a5
 16881 579a 3C       		.uleb128 0x3c
 16882 579b 01       		.uleb128 0x1
 16883 579c 50       		.byte	0x50
 16884 579d 01       		.uleb128 0x1
 16885 579e 38       		.byte	0x38
 16886 579f 3C       		.uleb128 0x3c
 16887 57a0 01       		.uleb128 0x1
 16888 57a1 51       		.byte	0x51
 16889 57a2 01       		.uleb128 0x1
 16890 57a3 31       		.byte	0x31
 16891 57a4 00       		.byte	0
ARM GAS  C:\Users\osour\AppData\Local\Temp\ccsBkKuy.s 			page 303


 16892 57a5 3B       		.uleb128 0x3b
 16893 57a6 181C0000 		.4byte	.LVL391
 16894 57aa 95690000 		.4byte	0x6995
 16895 57ae BA570000 		.4byte	0x57ba
 16896 57b2 3C       		.uleb128 0x3c
 16897 57b3 01       		.uleb128 0x1
 16898 57b4 50       		.byte	0x50
 16899 57b5 03       		.uleb128 0x3
 16900 57b6 0A       		.byte	0xa
 16901 57b7 9001     		.2byte	0x190
 16902 57b9 00       		.byte	0
 16903 57ba 39       		.uleb128 0x39
 16904 57bb 1C1C0000 		.4byte	.LVL392
 16905 57bf A0690000 		.4byte	0x69a0
 16906 57c3 3B       		.uleb128 0x3b
 16907 57c4 221C0000 		.4byte	.LVL393
 16908 57c8 95690000 		.4byte	0x6995
 16909 57cc D7570000 		.4byte	0x57d7
 16910 57d0 3C       		.uleb128 0x3c
 16911 57d1 01       		.uleb128 0x1
 16912 57d2 50       		.byte	0x50
 16913 57d3 02       		.uleb128 0x2
 16914 57d4 08       		.byte	0x8
 16915 57d5 64       		.byte	0x64
 16916 57d6 00       		.byte	0
 16917 57d7 39       		.uleb128 0x39
 16918 57d8 261C0000 		.4byte	.LVL394
 16919 57dc AB690000 		.4byte	0x69ab
 16920 57e0 3B       		.uleb128 0x3b
 16921 57e1 361C0000 		.4byte	.LVL396
 16922 57e5 1C690000 		.4byte	0x691c
 16923 57e9 FD570000 		.4byte	0x57fd
 16924 57ed 3C       		.uleb128 0x3c
 16925 57ee 01       		.uleb128 0x1
 16926 57ef 50       		.byte	0x50
 16927 57f0 02       		.uleb128 0x2
 16928 57f1 7A       		.byte	0x7a
 16929 57f2 00       		.sleb128 0
 16930 57f3 3C       		.uleb128 0x3c
 16931 57f4 01       		.uleb128 0x1
 16932 57f5 51       		.byte	0x51
 16933 57f6 05       		.uleb128 0x5
 16934 57f7 03       		.byte	0x3
 16935 57f8 500B0000 		.4byte	.LC96
 16936 57fc 00       		.byte	0
 16937 57fd 39       		.uleb128 0x39
 16938 57fe 6A1C0000 		.4byte	.LVL397
 16939 5802 A86A0000 		.4byte	0x6aa8
 16940 5806 39       		.uleb128 0x39
 16941 5807 701C0000 		.4byte	.LVL398
 16942 580b B36A0000 		.4byte	0x6ab3
 16943 580f 3B       		.uleb128 0x3b
 16944 5810 7C1C0000 		.4byte	.LVL399
 16945 5814 1C690000 		.4byte	0x691c
 16946 5818 32580000 		.4byte	0x5832
 16947 581c 3C       		.uleb128 0x3c
 16948 581d 01       		.uleb128 0x1
ARM GAS  C:\Users\osour\AppData\Local\Temp\ccsBkKuy.s 			page 304


 16949 581e 50       		.byte	0x50
 16950 581f 02       		.uleb128 0x2
 16951 5820 7A       		.byte	0x7a
 16952 5821 00       		.sleb128 0
 16953 5822 3C       		.uleb128 0x3c
 16954 5823 01       		.uleb128 0x1
 16955 5824 51       		.byte	0x51
 16956 5825 05       		.uleb128 0x5
 16957 5826 03       		.byte	0x3
 16958 5827 78000000 		.4byte	.LC3
 16959 582b 3C       		.uleb128 0x3c
 16960 582c 01       		.uleb128 0x1
 16961 582d 52       		.byte	0x52
 16962 582e 02       		.uleb128 0x2
 16963 582f 74       		.byte	0x74
 16964 5830 00       		.sleb128 0
 16965 5831 00       		.byte	0
 16966 5832 3B       		.uleb128 0x3b
 16967 5833 921C0000 		.4byte	.LVL401
 16968 5837 32690000 		.4byte	0x6932
 16969 583b 46580000 		.4byte	0x5846
 16970 583f 3C       		.uleb128 0x3c
 16971 5840 01       		.uleb128 0x1
 16972 5841 50       		.byte	0x50
 16973 5842 02       		.uleb128 0x2
 16974 5843 7A       		.byte	0x7a
 16975 5844 00       		.sleb128 0
 16976 5845 00       		.byte	0
 16977 5846 39       		.uleb128 0x39
 16978 5847 961C0000 		.4byte	.LVL402
 16979 584b 3D690000 		.4byte	0x693d
 16980 584f 39       		.uleb128 0x39
 16981 5850 A21C0000 		.4byte	.LVL403
 16982 5854 27690000 		.4byte	0x6927
 16983 5858 3B       		.uleb128 0x3b
 16984 5859 AA1C0000 		.4byte	.LVL404
 16985 585d BE6A0000 		.4byte	0x6abe
 16986 5861 6C580000 		.4byte	0x586c
 16987 5865 3C       		.uleb128 0x3c
 16988 5866 01       		.uleb128 0x1
 16989 5867 50       		.byte	0x50
 16990 5868 02       		.uleb128 0x2
 16991 5869 74       		.byte	0x74
 16992 586a 00       		.sleb128 0
 16993 586b 00       		.byte	0
 16994 586c 39       		.uleb128 0x39
 16995 586d AE1C0000 		.4byte	.LVL405
 16996 5871 C96A0000 		.4byte	0x6ac9
 16997 5875 39       		.uleb128 0x39
 16998 5876 BA1C0000 		.4byte	.LVL406
 16999 587a BE6A0000 		.4byte	0x6abe
 17000 587e 39       		.uleb128 0x39
 17001 587f BE1C0000 		.4byte	.LVL407
 17002 5883 C96A0000 		.4byte	0x6ac9
 17003 5887 3B       		.uleb128 0x3b
 17004 5888 CA1C0000 		.4byte	.LVL408
 17005 588c 8A690000 		.4byte	0x698a
ARM GAS  C:\Users\osour\AppData\Local\Temp\ccsBkKuy.s 			page 305


 17006 5890 9F580000 		.4byte	0x589f
 17007 5894 3C       		.uleb128 0x3c
 17008 5895 01       		.uleb128 0x1
 17009 5896 50       		.byte	0x50
 17010 5897 01       		.uleb128 0x1
 17011 5898 38       		.byte	0x38
 17012 5899 3C       		.uleb128 0x3c
 17013 589a 01       		.uleb128 0x1
 17014 589b 51       		.byte	0x51
 17015 589c 01       		.uleb128 0x1
 17016 589d 31       		.byte	0x31
 17017 589e 00       		.byte	0
 17018 589f 3B       		.uleb128 0x3b
 17019 58a0 D21C0000 		.4byte	.LVL409
 17020 58a4 95690000 		.4byte	0x6995
 17021 58a8 B4580000 		.4byte	0x58b4
 17022 58ac 3C       		.uleb128 0x3c
 17023 58ad 01       		.uleb128 0x1
 17024 58ae 50       		.byte	0x50
 17025 58af 03       		.uleb128 0x3
 17026 58b0 0A       		.byte	0xa
 17027 58b1 9001     		.2byte	0x190
 17028 58b3 00       		.byte	0
 17029 58b4 39       		.uleb128 0x39
 17030 58b5 D61C0000 		.4byte	.LVL410
 17031 58b9 A0690000 		.4byte	0x69a0
 17032 58bd 3B       		.uleb128 0x3b
 17033 58be DC1C0000 		.4byte	.LVL411
 17034 58c2 95690000 		.4byte	0x6995
 17035 58c6 D1580000 		.4byte	0x58d1
 17036 58ca 3C       		.uleb128 0x3c
 17037 58cb 01       		.uleb128 0x1
 17038 58cc 50       		.byte	0x50
 17039 58cd 02       		.uleb128 0x2
 17040 58ce 08       		.byte	0x8
 17041 58cf 64       		.byte	0x64
 17042 58d0 00       		.byte	0
 17043 58d1 39       		.uleb128 0x39
 17044 58d2 E01C0000 		.4byte	.LVL412
 17045 58d6 AB690000 		.4byte	0x69ab
 17046 58da 3B       		.uleb128 0x3b
 17047 58db E81C0000 		.4byte	.LVL413
 17048 58df BE6A0000 		.4byte	0x6abe
 17049 58e3 F6580000 		.4byte	0x58f6
 17050 58e7 3C       		.uleb128 0x3c
 17051 58e8 01       		.uleb128 0x1
 17052 58e9 50       		.byte	0x50
 17053 58ea 05       		.uleb128 0x5
 17054 58eb 03       		.byte	0x3
 17055 58ec 640B0000 		.4byte	.LC97
 17056 58f0 3C       		.uleb128 0x3c
 17057 58f1 01       		.uleb128 0x1
 17058 58f2 51       		.byte	0x51
 17059 58f3 01       		.uleb128 0x1
 17060 58f4 49       		.byte	0x49
 17061 58f5 00       		.byte	0
 17062 58f6 39       		.uleb128 0x39
ARM GAS  C:\Users\osour\AppData\Local\Temp\ccsBkKuy.s 			page 306


 17063 58f7 EC1C0000 		.4byte	.LVL414
 17064 58fb C96A0000 		.4byte	0x6ac9
 17065 58ff 39       		.uleb128 0x39
 17066 5900 F81C0000 		.4byte	.LVL416
 17067 5904 BE6A0000 		.4byte	0x6abe
 17068 5908 39       		.uleb128 0x39
 17069 5909 FC1C0000 		.4byte	.LVL417
 17070 590d C96A0000 		.4byte	0x6ac9
 17071 5911 3B       		.uleb128 0x3b
 17072 5912 0C1D0000 		.4byte	.LVL418
 17073 5916 1C690000 		.4byte	0x691c
 17074 591a 2E590000 		.4byte	0x592e
 17075 591e 3C       		.uleb128 0x3c
 17076 591f 01       		.uleb128 0x1
 17077 5920 50       		.byte	0x50
 17078 5921 02       		.uleb128 0x2
 17079 5922 7A       		.byte	0x7a
 17080 5923 00       		.sleb128 0
 17081 5924 3C       		.uleb128 0x3c
 17082 5925 01       		.uleb128 0x1
 17083 5926 51       		.byte	0x51
 17084 5927 05       		.uleb128 0x5
 17085 5928 03       		.byte	0x3
 17086 5929 500B0000 		.4byte	.LC96
 17087 592d 00       		.byte	0
 17088 592e 3B       		.uleb128 0x3b
 17089 592f 121D0000 		.4byte	.LVL419
 17090 5933 27690000 		.4byte	0x6927
 17091 5937 42590000 		.4byte	0x5942
 17092 593b 3C       		.uleb128 0x3c
 17093 593c 01       		.uleb128 0x1
 17094 593d 50       		.byte	0x50
 17095 593e 02       		.uleb128 0x2
 17096 593f 7A       		.byte	0x7a
 17097 5940 00       		.sleb128 0
 17098 5941 00       		.byte	0
 17099 5942 3B       		.uleb128 0x3b
 17100 5943 1A1D0000 		.4byte	.LVL420
 17101 5947 BE6A0000 		.4byte	0x6abe
 17102 594b 56590000 		.4byte	0x5956
 17103 594f 3C       		.uleb128 0x3c
 17104 5950 01       		.uleb128 0x1
 17105 5951 50       		.byte	0x50
 17106 5952 02       		.uleb128 0x2
 17107 5953 7A       		.byte	0x7a
 17108 5954 00       		.sleb128 0
 17109 5955 00       		.byte	0
 17110 5956 39       		.uleb128 0x39
 17111 5957 1E1D0000 		.4byte	.LVL421
 17112 595b C96A0000 		.4byte	0x6ac9
 17113 595f 3B       		.uleb128 0x3b
 17114 5960 2C1D0000 		.4byte	.LVL422
 17115 5964 27690000 		.4byte	0x6927
 17116 5968 73590000 		.4byte	0x5973
 17117 596c 3C       		.uleb128 0x3c
 17118 596d 01       		.uleb128 0x1
 17119 596e 50       		.byte	0x50
ARM GAS  C:\Users\osour\AppData\Local\Temp\ccsBkKuy.s 			page 307


 17120 596f 02       		.uleb128 0x2
 17121 5970 7A       		.byte	0x7a
 17122 5971 00       		.sleb128 0
 17123 5972 00       		.byte	0
 17124 5973 3B       		.uleb128 0x3b
 17125 5974 341D0000 		.4byte	.LVL423
 17126 5978 BE6A0000 		.4byte	0x6abe
 17127 597c 87590000 		.4byte	0x5987
 17128 5980 3C       		.uleb128 0x3c
 17129 5981 01       		.uleb128 0x1
 17130 5982 50       		.byte	0x50
 17131 5983 02       		.uleb128 0x2
 17132 5984 7A       		.byte	0x7a
 17133 5985 00       		.sleb128 0
 17134 5986 00       		.byte	0
 17135 5987 39       		.uleb128 0x39
 17136 5988 381D0000 		.4byte	.LVL424
 17137 598c C96A0000 		.4byte	0x6ac9
 17138 5990 39       		.uleb128 0x39
 17139 5991 9C1D0000 		.4byte	.LVL425
 17140 5995 BE6A0000 		.4byte	0x6abe
 17141 5999 39       		.uleb128 0x39
 17142 599a A01D0000 		.4byte	.LVL426
 17143 599e C96A0000 		.4byte	0x6ac9
 17144 59a2 39       		.uleb128 0x39
 17145 59a3 A81D0000 		.4byte	.LVL427
 17146 59a7 716A0000 		.4byte	0x6a71
 17147 59ab 39       		.uleb128 0x39
 17148 59ac B21D0000 		.4byte	.LVL428
 17149 59b0 716A0000 		.4byte	0x6a71
 17150 59b4 3B       		.uleb128 0x3b
 17151 59b5 C01D0000 		.4byte	.LVL429
 17152 59b9 BE6A0000 		.4byte	0x6abe
 17153 59bd D0590000 		.4byte	0x59d0
 17154 59c1 3C       		.uleb128 0x3c
 17155 59c2 01       		.uleb128 0x1
 17156 59c3 50       		.byte	0x50
 17157 59c4 05       		.uleb128 0x5
 17158 59c5 03       		.byte	0x3
 17159 59c6 00060000 		.4byte	.LC45
 17160 59ca 3C       		.uleb128 0x3c
 17161 59cb 01       		.uleb128 0x1
 17162 59cc 51       		.byte	0x51
 17163 59cd 01       		.uleb128 0x1
 17164 59ce 49       		.byte	0x49
 17165 59cf 00       		.byte	0
 17166 59d0 39       		.uleb128 0x39
 17167 59d1 C41D0000 		.4byte	.LVL430
 17168 59d5 C96A0000 		.4byte	0x6ac9
 17169 59d9 3B       		.uleb128 0x3b
 17170 59da D01D0000 		.4byte	.LVL431
 17171 59de BE6A0000 		.4byte	0x6abe
 17172 59e2 F6590000 		.4byte	0x59f6
 17173 59e6 3C       		.uleb128 0x3c
 17174 59e7 01       		.uleb128 0x1
 17175 59e8 50       		.byte	0x50
 17176 59e9 05       		.uleb128 0x5
ARM GAS  C:\Users\osour\AppData\Local\Temp\ccsBkKuy.s 			page 308


 17177 59ea 03       		.byte	0x3
 17178 59eb 44060000 		.4byte	.LC47
 17179 59ef 3C       		.uleb128 0x3c
 17180 59f0 01       		.uleb128 0x1
 17181 59f1 51       		.byte	0x51
 17182 59f2 02       		.uleb128 0x2
 17183 59f3 08       		.byte	0x8
 17184 59f4 2B       		.byte	0x2b
 17185 59f5 00       		.byte	0
 17186 59f6 39       		.uleb128 0x39
 17187 59f7 D41D0000 		.4byte	.LVL432
 17188 59fb C96A0000 		.4byte	0x6ac9
 17189 59ff 3B       		.uleb128 0x3b
 17190 5a00 E01D0000 		.4byte	.LVL433
 17191 5a04 BE6A0000 		.4byte	0x6abe
 17192 5a08 1B5A0000 		.4byte	0x5a1b
 17193 5a0c 3C       		.uleb128 0x3c
 17194 5a0d 01       		.uleb128 0x1
 17195 5a0e 50       		.byte	0x50
 17196 5a0f 05       		.uleb128 0x5
 17197 5a10 03       		.byte	0x3
 17198 5a11 70060000 		.4byte	.LC48
 17199 5a15 3C       		.uleb128 0x3c
 17200 5a16 01       		.uleb128 0x1
 17201 5a17 51       		.byte	0x51
 17202 5a18 01       		.uleb128 0x1
 17203 5a19 4D       		.byte	0x4d
 17204 5a1a 00       		.byte	0
 17205 5a1b 39       		.uleb128 0x39
 17206 5a1c E41D0000 		.4byte	.LVL434
 17207 5a20 C96A0000 		.4byte	0x6ac9
 17208 5a24 3B       		.uleb128 0x3b
 17209 5a25 F01D0000 		.4byte	.LVL435
 17210 5a29 BE6A0000 		.4byte	0x6abe
 17211 5a2d 415A0000 		.4byte	0x5a41
 17212 5a31 3C       		.uleb128 0x3c
 17213 5a32 01       		.uleb128 0x1
 17214 5a33 50       		.byte	0x50
 17215 5a34 05       		.uleb128 0x5
 17216 5a35 03       		.byte	0x3
 17217 5a36 90060000 		.4byte	.LC49
 17218 5a3a 3C       		.uleb128 0x3c
 17219 5a3b 01       		.uleb128 0x1
 17220 5a3c 51       		.byte	0x51
 17221 5a3d 02       		.uleb128 0x2
 17222 5a3e 08       		.byte	0x8
 17223 5a3f 26       		.byte	0x26
 17224 5a40 00       		.byte	0
 17225 5a41 39       		.uleb128 0x39
 17226 5a42 F41D0000 		.4byte	.LVL436
 17227 5a46 C96A0000 		.4byte	0x6ac9
 17228 5a4a 3B       		.uleb128 0x3b
 17229 5a4b 001E0000 		.4byte	.LVL437
 17230 5a4f BE6A0000 		.4byte	0x6abe
 17231 5a53 675A0000 		.4byte	0x5a67
 17232 5a57 3C       		.uleb128 0x3c
 17233 5a58 01       		.uleb128 0x1
ARM GAS  C:\Users\osour\AppData\Local\Temp\ccsBkKuy.s 			page 309


 17234 5a59 50       		.byte	0x50
 17235 5a5a 05       		.uleb128 0x5
 17236 5a5b 03       		.byte	0x3
 17237 5a5c B8060000 		.4byte	.LC50
 17238 5a60 3C       		.uleb128 0x3c
 17239 5a61 01       		.uleb128 0x1
 17240 5a62 51       		.byte	0x51
 17241 5a63 02       		.uleb128 0x2
 17242 5a64 08       		.byte	0x8
 17243 5a65 26       		.byte	0x26
 17244 5a66 00       		.byte	0
 17245 5a67 39       		.uleb128 0x39
 17246 5a68 041E0000 		.4byte	.LVL438
 17247 5a6c C96A0000 		.4byte	0x6ac9
 17248 5a70 3B       		.uleb128 0x3b
 17249 5a71 101E0000 		.4byte	.LVL439
 17250 5a75 BE6A0000 		.4byte	0x6abe
 17251 5a79 8D5A0000 		.4byte	0x5a8d
 17252 5a7d 3C       		.uleb128 0x3c
 17253 5a7e 01       		.uleb128 0x1
 17254 5a7f 50       		.byte	0x50
 17255 5a80 05       		.uleb128 0x5
 17256 5a81 03       		.byte	0x3
 17257 5a82 E0060000 		.4byte	.LC51
 17258 5a86 3C       		.uleb128 0x3c
 17259 5a87 01       		.uleb128 0x1
 17260 5a88 51       		.byte	0x51
 17261 5a89 02       		.uleb128 0x2
 17262 5a8a 08       		.byte	0x8
 17263 5a8b 2C       		.byte	0x2c
 17264 5a8c 00       		.byte	0
 17265 5a8d 39       		.uleb128 0x39
 17266 5a8e 141E0000 		.4byte	.LVL440
 17267 5a92 C96A0000 		.4byte	0x6ac9
 17268 5a96 3B       		.uleb128 0x3b
 17269 5a97 201E0000 		.4byte	.LVL441
 17270 5a9b BE6A0000 		.4byte	0x6abe
 17271 5a9f B25A0000 		.4byte	0x5ab2
 17272 5aa3 3C       		.uleb128 0x3c
 17273 5aa4 01       		.uleb128 0x1
 17274 5aa5 50       		.byte	0x50
 17275 5aa6 05       		.uleb128 0x5
 17276 5aa7 03       		.byte	0x3
 17277 5aa8 10070000 		.4byte	.LC52
 17278 5aac 3C       		.uleb128 0x3c
 17279 5aad 01       		.uleb128 0x1
 17280 5aae 51       		.byte	0x51
 17281 5aaf 01       		.uleb128 0x1
 17282 5ab0 47       		.byte	0x47
 17283 5ab1 00       		.byte	0
 17284 5ab2 39       		.uleb128 0x39
 17285 5ab3 241E0000 		.4byte	.LVL442
 17286 5ab7 C96A0000 		.4byte	0x6ac9
 17287 5abb 3B       		.uleb128 0x3b
 17288 5abc 301E0000 		.4byte	.LVL443
 17289 5ac0 BE6A0000 		.4byte	0x6abe
 17290 5ac4 D75A0000 		.4byte	0x5ad7
ARM GAS  C:\Users\osour\AppData\Local\Temp\ccsBkKuy.s 			page 310


 17291 5ac8 3C       		.uleb128 0x3c
 17292 5ac9 01       		.uleb128 0x1
 17293 5aca 50       		.byte	0x50
 17294 5acb 05       		.uleb128 0x5
 17295 5acc 03       		.byte	0x3
 17296 5acd 28070000 		.4byte	.LC53
 17297 5ad1 3C       		.uleb128 0x3c
 17298 5ad2 01       		.uleb128 0x1
 17299 5ad3 51       		.byte	0x51
 17300 5ad4 01       		.uleb128 0x1
 17301 5ad5 40       		.byte	0x40
 17302 5ad6 00       		.byte	0
 17303 5ad7 39       		.uleb128 0x39
 17304 5ad8 341E0000 		.4byte	.LVL444
 17305 5adc C96A0000 		.4byte	0x6ac9
 17306 5ae0 3B       		.uleb128 0x3b
 17307 5ae1 401E0000 		.4byte	.LVL445
 17308 5ae5 BE6A0000 		.4byte	0x6abe
 17309 5ae9 FD5A0000 		.4byte	0x5afd
 17310 5aed 3C       		.uleb128 0x3c
 17311 5aee 01       		.uleb128 0x1
 17312 5aef 50       		.byte	0x50
 17313 5af0 05       		.uleb128 0x5
 17314 5af1 03       		.byte	0x3
 17315 5af2 3C070000 		.4byte	.LC54
 17316 5af6 3C       		.uleb128 0x3c
 17317 5af7 01       		.uleb128 0x1
 17318 5af8 51       		.byte	0x51
 17319 5af9 02       		.uleb128 0x2
 17320 5afa 08       		.byte	0x8
 17321 5afb 22       		.byte	0x22
 17322 5afc 00       		.byte	0
 17323 5afd 39       		.uleb128 0x39
 17324 5afe 441E0000 		.4byte	.LVL446
 17325 5b02 C96A0000 		.4byte	0x6ac9
 17326 5b06 3B       		.uleb128 0x3b
 17327 5b07 501E0000 		.4byte	.LVL447
 17328 5b0b BE6A0000 		.4byte	0x6abe
 17329 5b0f 235B0000 		.4byte	0x5b23
 17330 5b13 3C       		.uleb128 0x3c
 17331 5b14 01       		.uleb128 0x1
 17332 5b15 50       		.byte	0x50
 17333 5b16 05       		.uleb128 0x5
 17334 5b17 03       		.byte	0x3
 17335 5b18 60070000 		.4byte	.LC55
 17336 5b1c 3C       		.uleb128 0x3c
 17337 5b1d 01       		.uleb128 0x1
 17338 5b1e 51       		.byte	0x51
 17339 5b1f 02       		.uleb128 0x2
 17340 5b20 08       		.byte	0x8
 17341 5b21 4D       		.byte	0x4d
 17342 5b22 00       		.byte	0
 17343 5b23 39       		.uleb128 0x39
 17344 5b24 541E0000 		.4byte	.LVL448
 17345 5b28 C96A0000 		.4byte	0x6ac9
 17346 5b2c 3B       		.uleb128 0x3b
 17347 5b2d 601E0000 		.4byte	.LVL449
ARM GAS  C:\Users\osour\AppData\Local\Temp\ccsBkKuy.s 			page 311


 17348 5b31 BE6A0000 		.4byte	0x6abe
 17349 5b35 495B0000 		.4byte	0x5b49
 17350 5b39 3C       		.uleb128 0x3c
 17351 5b3a 01       		.uleb128 0x1
 17352 5b3b 50       		.byte	0x50
 17353 5b3c 05       		.uleb128 0x5
 17354 5b3d 03       		.byte	0x3
 17355 5b3e B0070000 		.4byte	.LC56
 17356 5b42 3C       		.uleb128 0x3c
 17357 5b43 01       		.uleb128 0x1
 17358 5b44 51       		.byte	0x51
 17359 5b45 02       		.uleb128 0x2
 17360 5b46 08       		.byte	0x8
 17361 5b47 27       		.byte	0x27
 17362 5b48 00       		.byte	0
 17363 5b49 39       		.uleb128 0x39
 17364 5b4a 641E0000 		.4byte	.LVL450
 17365 5b4e C96A0000 		.4byte	0x6ac9
 17366 5b52 3B       		.uleb128 0x3b
 17367 5b53 701E0000 		.4byte	.LVL451
 17368 5b57 BE6A0000 		.4byte	0x6abe
 17369 5b5b 6F5B0000 		.4byte	0x5b6f
 17370 5b5f 3C       		.uleb128 0x3c
 17371 5b60 01       		.uleb128 0x1
 17372 5b61 50       		.byte	0x50
 17373 5b62 05       		.uleb128 0x5
 17374 5b63 03       		.byte	0x3
 17375 5b64 D8070000 		.4byte	.LC57
 17376 5b68 3C       		.uleb128 0x3c
 17377 5b69 01       		.uleb128 0x1
 17378 5b6a 51       		.byte	0x51
 17379 5b6b 02       		.uleb128 0x2
 17380 5b6c 08       		.byte	0x8
 17381 5b6d 2B       		.byte	0x2b
 17382 5b6e 00       		.byte	0
 17383 5b6f 39       		.uleb128 0x39
 17384 5b70 741E0000 		.4byte	.LVL452
 17385 5b74 C96A0000 		.4byte	0x6ac9
 17386 5b78 3B       		.uleb128 0x3b
 17387 5b79 801E0000 		.4byte	.LVL453
 17388 5b7d BE6A0000 		.4byte	0x6abe
 17389 5b81 945B0000 		.4byte	0x5b94
 17390 5b85 3C       		.uleb128 0x3c
 17391 5b86 01       		.uleb128 0x1
 17392 5b87 50       		.byte	0x50
 17393 5b88 05       		.uleb128 0x5
 17394 5b89 03       		.byte	0x3
 17395 5b8a 04080000 		.4byte	.LC58
 17396 5b8e 3C       		.uleb128 0x3c
 17397 5b8f 01       		.uleb128 0x1
 17398 5b90 51       		.byte	0x51
 17399 5b91 01       		.uleb128 0x1
 17400 5b92 49       		.byte	0x49
 17401 5b93 00       		.byte	0
 17402 5b94 39       		.uleb128 0x39
 17403 5b95 841E0000 		.4byte	.LVL454
 17404 5b99 C96A0000 		.4byte	0x6ac9
ARM GAS  C:\Users\osour\AppData\Local\Temp\ccsBkKuy.s 			page 312


 17405 5b9d 3B       		.uleb128 0x3b
 17406 5b9e 901E0000 		.4byte	.LVL455
 17407 5ba2 BE6A0000 		.4byte	0x6abe
 17408 5ba6 B95B0000 		.4byte	0x5bb9
 17409 5baa 3C       		.uleb128 0x3c
 17410 5bab 01       		.uleb128 0x1
 17411 5bac 50       		.byte	0x50
 17412 5bad 05       		.uleb128 0x5
 17413 5bae 03       		.byte	0x3
 17414 5baf 20080000 		.4byte	.LC59
 17415 5bb3 3C       		.uleb128 0x3c
 17416 5bb4 01       		.uleb128 0x1
 17417 5bb5 51       		.byte	0x51
 17418 5bb6 01       		.uleb128 0x1
 17419 5bb7 45       		.byte	0x45
 17420 5bb8 00       		.byte	0
 17421 5bb9 39       		.uleb128 0x39
 17422 5bba 941E0000 		.4byte	.LVL456
 17423 5bbe C96A0000 		.4byte	0x6ac9
 17424 5bc2 3B       		.uleb128 0x3b
 17425 5bc3 A01E0000 		.4byte	.LVL457
 17426 5bc7 BE6A0000 		.4byte	0x6abe
 17427 5bcb DE5B0000 		.4byte	0x5bde
 17428 5bcf 3C       		.uleb128 0x3c
 17429 5bd0 01       		.uleb128 0x1
 17430 5bd1 50       		.byte	0x50
 17431 5bd2 05       		.uleb128 0x5
 17432 5bd3 03       		.byte	0x3
 17433 5bd4 38080000 		.4byte	.LC60
 17434 5bd8 3C       		.uleb128 0x3c
 17435 5bd9 01       		.uleb128 0x1
 17436 5bda 51       		.byte	0x51
 17437 5bdb 01       		.uleb128 0x1
 17438 5bdc 49       		.byte	0x49
 17439 5bdd 00       		.byte	0
 17440 5bde 39       		.uleb128 0x39
 17441 5bdf A41E0000 		.4byte	.LVL458
 17442 5be3 C96A0000 		.4byte	0x6ac9
 17443 5be7 3B       		.uleb128 0x3b
 17444 5be8 B01E0000 		.4byte	.LVL459
 17445 5bec BE6A0000 		.4byte	0x6abe
 17446 5bf0 045C0000 		.4byte	0x5c04
 17447 5bf4 3C       		.uleb128 0x3c
 17448 5bf5 01       		.uleb128 0x1
 17449 5bf6 50       		.byte	0x50
 17450 5bf7 05       		.uleb128 0x5
 17451 5bf8 03       		.byte	0x3
 17452 5bf9 54080000 		.4byte	.LC61
 17453 5bfd 3C       		.uleb128 0x3c
 17454 5bfe 01       		.uleb128 0x1
 17455 5bff 51       		.byte	0x51
 17456 5c00 02       		.uleb128 0x2
 17457 5c01 08       		.byte	0x8
 17458 5c02 29       		.byte	0x29
 17459 5c03 00       		.byte	0
 17460 5c04 39       		.uleb128 0x39
 17461 5c05 B41E0000 		.4byte	.LVL460
ARM GAS  C:\Users\osour\AppData\Local\Temp\ccsBkKuy.s 			page 313


 17462 5c09 C96A0000 		.4byte	0x6ac9
 17463 5c0d 3B       		.uleb128 0x3b
 17464 5c0e C01E0000 		.4byte	.LVL461
 17465 5c12 BE6A0000 		.4byte	0x6abe
 17466 5c16 2A5C0000 		.4byte	0x5c2a
 17467 5c1a 3C       		.uleb128 0x3c
 17468 5c1b 01       		.uleb128 0x1
 17469 5c1c 50       		.byte	0x50
 17470 5c1d 05       		.uleb128 0x5
 17471 5c1e 03       		.byte	0x3
 17472 5c1f 80080000 		.4byte	.LC62
 17473 5c23 3C       		.uleb128 0x3c
 17474 5c24 01       		.uleb128 0x1
 17475 5c25 51       		.byte	0x51
 17476 5c26 02       		.uleb128 0x2
 17477 5c27 08       		.byte	0x8
 17478 5c28 29       		.byte	0x29
 17479 5c29 00       		.byte	0
 17480 5c2a 39       		.uleb128 0x39
 17481 5c2b C41E0000 		.4byte	.LVL462
 17482 5c2f C96A0000 		.4byte	0x6ac9
 17483 5c33 3B       		.uleb128 0x3b
 17484 5c34 D01E0000 		.4byte	.LVL463
 17485 5c38 BE6A0000 		.4byte	0x6abe
 17486 5c3c 4F5C0000 		.4byte	0x5c4f
 17487 5c40 3C       		.uleb128 0x3c
 17488 5c41 01       		.uleb128 0x1
 17489 5c42 50       		.byte	0x50
 17490 5c43 05       		.uleb128 0x5
 17491 5c44 03       		.byte	0x3
 17492 5c45 AC080000 		.4byte	.LC63
 17493 5c49 3C       		.uleb128 0x3c
 17494 5c4a 01       		.uleb128 0x1
 17495 5c4b 51       		.byte	0x51
 17496 5c4c 01       		.uleb128 0x1
 17497 5c4d 48       		.byte	0x48
 17498 5c4e 00       		.byte	0
 17499 5c4f 39       		.uleb128 0x39
 17500 5c50 D41E0000 		.4byte	.LVL464
 17501 5c54 C96A0000 		.4byte	0x6ac9
 17502 5c58 3B       		.uleb128 0x3b
 17503 5c59 E01E0000 		.4byte	.LVL465
 17504 5c5d BE6A0000 		.4byte	0x6abe
 17505 5c61 755C0000 		.4byte	0x5c75
 17506 5c65 3C       		.uleb128 0x3c
 17507 5c66 01       		.uleb128 0x1
 17508 5c67 50       		.byte	0x50
 17509 5c68 05       		.uleb128 0x5
 17510 5c69 03       		.byte	0x3
 17511 5c6a C8080000 		.4byte	.LC64
 17512 5c6e 3C       		.uleb128 0x3c
 17513 5c6f 01       		.uleb128 0x1
 17514 5c70 51       		.byte	0x51
 17515 5c71 02       		.uleb128 0x2
 17516 5c72 08       		.byte	0x8
 17517 5c73 29       		.byte	0x29
 17518 5c74 00       		.byte	0
ARM GAS  C:\Users\osour\AppData\Local\Temp\ccsBkKuy.s 			page 314


 17519 5c75 39       		.uleb128 0x39
 17520 5c76 E41E0000 		.4byte	.LVL466
 17521 5c7a C96A0000 		.4byte	0x6ac9
 17522 5c7e 3B       		.uleb128 0x3b
 17523 5c7f F01E0000 		.4byte	.LVL467
 17524 5c83 BE6A0000 		.4byte	0x6abe
 17525 5c87 9B5C0000 		.4byte	0x5c9b
 17526 5c8b 3C       		.uleb128 0x3c
 17527 5c8c 01       		.uleb128 0x1
 17528 5c8d 50       		.byte	0x50
 17529 5c8e 05       		.uleb128 0x5
 17530 5c8f 03       		.byte	0x3
 17531 5c90 F4080000 		.4byte	.LC65
 17532 5c94 3C       		.uleb128 0x3c
 17533 5c95 01       		.uleb128 0x1
 17534 5c96 51       		.byte	0x51
 17535 5c97 02       		.uleb128 0x2
 17536 5c98 08       		.byte	0x8
 17537 5c99 2C       		.byte	0x2c
 17538 5c9a 00       		.byte	0
 17539 5c9b 39       		.uleb128 0x39
 17540 5c9c F41E0000 		.4byte	.LVL468
 17541 5ca0 C96A0000 		.4byte	0x6ac9
 17542 5ca4 3B       		.uleb128 0x3b
 17543 5ca5 001F0000 		.4byte	.LVL469
 17544 5ca9 BE6A0000 		.4byte	0x6abe
 17545 5cad C15C0000 		.4byte	0x5cc1
 17546 5cb1 3C       		.uleb128 0x3c
 17547 5cb2 01       		.uleb128 0x1
 17548 5cb3 50       		.byte	0x50
 17549 5cb4 05       		.uleb128 0x5
 17550 5cb5 03       		.byte	0x3
 17551 5cb6 24090000 		.4byte	.LC66
 17552 5cba 3C       		.uleb128 0x3c
 17553 5cbb 01       		.uleb128 0x1
 17554 5cbc 51       		.byte	0x51
 17555 5cbd 02       		.uleb128 0x2
 17556 5cbe 08       		.byte	0x8
 17557 5cbf 24       		.byte	0x24
 17558 5cc0 00       		.byte	0
 17559 5cc1 39       		.uleb128 0x39
 17560 5cc2 041F0000 		.4byte	.LVL470
 17561 5cc6 C96A0000 		.4byte	0x6ac9
 17562 5cca 3B       		.uleb128 0x3b
 17563 5ccb 101F0000 		.4byte	.LVL471
 17564 5ccf BE6A0000 		.4byte	0x6abe
 17565 5cd3 E65C0000 		.4byte	0x5ce6
 17566 5cd7 3C       		.uleb128 0x3c
 17567 5cd8 01       		.uleb128 0x1
 17568 5cd9 50       		.byte	0x50
 17569 5cda 05       		.uleb128 0x5
 17570 5cdb 03       		.byte	0x3
 17571 5cdc 4C090000 		.4byte	.LC67
 17572 5ce0 3C       		.uleb128 0x3c
 17573 5ce1 01       		.uleb128 0x1
 17574 5ce2 51       		.byte	0x51
 17575 5ce3 01       		.uleb128 0x1
ARM GAS  C:\Users\osour\AppData\Local\Temp\ccsBkKuy.s 			page 315


 17576 5ce4 4D       		.byte	0x4d
 17577 5ce5 00       		.byte	0
 17578 5ce6 39       		.uleb128 0x39
 17579 5ce7 141F0000 		.4byte	.LVL472
 17580 5ceb C96A0000 		.4byte	0x6ac9
 17581 5cef 3B       		.uleb128 0x3b
 17582 5cf0 201F0000 		.4byte	.LVL473
 17583 5cf4 BE6A0000 		.4byte	0x6abe
 17584 5cf8 0C5D0000 		.4byte	0x5d0c
 17585 5cfc 3C       		.uleb128 0x3c
 17586 5cfd 01       		.uleb128 0x1
 17587 5cfe 50       		.byte	0x50
 17588 5cff 05       		.uleb128 0x5
 17589 5d00 03       		.byte	0x3
 17590 5d01 6C090000 		.4byte	.LC68
 17591 5d05 3C       		.uleb128 0x3c
 17592 5d06 01       		.uleb128 0x1
 17593 5d07 51       		.byte	0x51
 17594 5d08 02       		.uleb128 0x2
 17595 5d09 08       		.byte	0x8
 17596 5d0a 25       		.byte	0x25
 17597 5d0b 00       		.byte	0
 17598 5d0c 39       		.uleb128 0x39
 17599 5d0d 241F0000 		.4byte	.LVL474
 17600 5d11 C96A0000 		.4byte	0x6ac9
 17601 5d15 3B       		.uleb128 0x3b
 17602 5d16 301F0000 		.4byte	.LVL475
 17603 5d1a BE6A0000 		.4byte	0x6abe
 17604 5d1e 325D0000 		.4byte	0x5d32
 17605 5d22 3C       		.uleb128 0x3c
 17606 5d23 01       		.uleb128 0x1
 17607 5d24 50       		.byte	0x50
 17608 5d25 05       		.uleb128 0x5
 17609 5d26 03       		.byte	0x3
 17610 5d27 94090000 		.4byte	.LC69
 17611 5d2b 3C       		.uleb128 0x3c
 17612 5d2c 01       		.uleb128 0x1
 17613 5d2d 51       		.byte	0x51
 17614 5d2e 02       		.uleb128 0x2
 17615 5d2f 08       		.byte	0x8
 17616 5d30 24       		.byte	0x24
 17617 5d31 00       		.byte	0
 17618 5d32 39       		.uleb128 0x39
 17619 5d33 341F0000 		.4byte	.LVL476
 17620 5d37 C96A0000 		.4byte	0x6ac9
 17621 5d3b 39       		.uleb128 0x39
 17622 5d3c 401F0000 		.4byte	.LVL477
 17623 5d40 BE6A0000 		.4byte	0x6abe
 17624 5d44 39       		.uleb128 0x39
 17625 5d45 441F0000 		.4byte	.LVL478
 17626 5d49 C96A0000 		.4byte	0x6ac9
 17627 5d4d 39       		.uleb128 0x39
 17628 5d4e 501F0000 		.4byte	.LVL479
 17629 5d52 BE6A0000 		.4byte	0x6abe
 17630 5d56 39       		.uleb128 0x39
 17631 5d57 541F0000 		.4byte	.LVL480
 17632 5d5b C96A0000 		.4byte	0x6ac9
ARM GAS  C:\Users\osour\AppData\Local\Temp\ccsBkKuy.s 			page 316


 17633 5d5f 39       		.uleb128 0x39
 17634 5d60 601F0000 		.4byte	.LVL481
 17635 5d64 BE6A0000 		.4byte	0x6abe
 17636 5d68 39       		.uleb128 0x39
 17637 5d69 641F0000 		.4byte	.LVL482
 17638 5d6d C96A0000 		.4byte	0x6ac9
 17639 5d71 39       		.uleb128 0x39
 17640 5d72 701F0000 		.4byte	.LVL483
 17641 5d76 BE6A0000 		.4byte	0x6abe
 17642 5d7a 39       		.uleb128 0x39
 17643 5d7b 741F0000 		.4byte	.LVL484
 17644 5d7f C96A0000 		.4byte	0x6ac9
 17645 5d83 39       		.uleb128 0x39
 17646 5d84 801F0000 		.4byte	.LVL485
 17647 5d88 BE6A0000 		.4byte	0x6abe
 17648 5d8c 39       		.uleb128 0x39
 17649 5d8d 841F0000 		.4byte	.LVL486
 17650 5d91 C96A0000 		.4byte	0x6ac9
 17651 5d95 39       		.uleb128 0x39
 17652 5d96 901F0000 		.4byte	.LVL487
 17653 5d9a BE6A0000 		.4byte	0x6abe
 17654 5d9e 39       		.uleb128 0x39
 17655 5d9f 941F0000 		.4byte	.LVL488
 17656 5da3 C96A0000 		.4byte	0x6ac9
 17657 5da7 39       		.uleb128 0x39
 17658 5da8 A01F0000 		.4byte	.LVL489
 17659 5dac BE6A0000 		.4byte	0x6abe
 17660 5db0 39       		.uleb128 0x39
 17661 5db1 A41F0000 		.4byte	.LVL490
 17662 5db5 C96A0000 		.4byte	0x6ac9
 17663 5db9 39       		.uleb128 0x39
 17664 5dba B01F0000 		.4byte	.LVL491
 17665 5dbe BE6A0000 		.4byte	0x6abe
 17666 5dc2 39       		.uleb128 0x39
 17667 5dc3 B41F0000 		.4byte	.LVL492
 17668 5dc7 C96A0000 		.4byte	0x6ac9
 17669 5dcb 39       		.uleb128 0x39
 17670 5dcc C01F0000 		.4byte	.LVL493
 17671 5dd0 BE6A0000 		.4byte	0x6abe
 17672 5dd4 39       		.uleb128 0x39
 17673 5dd5 C41F0000 		.4byte	.LVL494
 17674 5dd9 C96A0000 		.4byte	0x6ac9
 17675 5ddd 39       		.uleb128 0x39
 17676 5dde D01F0000 		.4byte	.LVL495
 17677 5de2 BE6A0000 		.4byte	0x6abe
 17678 5de6 39       		.uleb128 0x39
 17679 5de7 D41F0000 		.4byte	.LVL496
 17680 5deb C96A0000 		.4byte	0x6ac9
 17681 5def 39       		.uleb128 0x39
 17682 5df0 E01F0000 		.4byte	.LVL497
 17683 5df4 BE6A0000 		.4byte	0x6abe
 17684 5df8 39       		.uleb128 0x39
 17685 5df9 E41F0000 		.4byte	.LVL498
 17686 5dfd C96A0000 		.4byte	0x6ac9
 17687 5e01 39       		.uleb128 0x39
 17688 5e02 F01F0000 		.4byte	.LVL499
 17689 5e06 BE6A0000 		.4byte	0x6abe
ARM GAS  C:\Users\osour\AppData\Local\Temp\ccsBkKuy.s 			page 317


 17690 5e0a 39       		.uleb128 0x39
 17691 5e0b F41F0000 		.4byte	.LVL500
 17692 5e0f C96A0000 		.4byte	0x6ac9
 17693 5e13 39       		.uleb128 0x39
 17694 5e14 00200000 		.4byte	.LVL501
 17695 5e18 BE6A0000 		.4byte	0x6abe
 17696 5e1c 39       		.uleb128 0x39
 17697 5e1d 04200000 		.4byte	.LVL502
 17698 5e21 C96A0000 		.4byte	0x6ac9
 17699 5e25 39       		.uleb128 0x39
 17700 5e26 10200000 		.4byte	.LVL503
 17701 5e2a BE6A0000 		.4byte	0x6abe
 17702 5e2e 39       		.uleb128 0x39
 17703 5e2f 14200000 		.4byte	.LVL504
 17704 5e33 C96A0000 		.4byte	0x6ac9
 17705 5e37 3B       		.uleb128 0x3b
 17706 5e38 22200000 		.4byte	.LVL505
 17707 5e3c 27690000 		.4byte	0x6927
 17708 5e40 4B5E0000 		.4byte	0x5e4b
 17709 5e44 3C       		.uleb128 0x3c
 17710 5e45 01       		.uleb128 0x1
 17711 5e46 50       		.byte	0x50
 17712 5e47 02       		.uleb128 0x2
 17713 5e48 7A       		.byte	0x7a
 17714 5e49 00       		.sleb128 0
 17715 5e4a 00       		.byte	0
 17716 5e4b 3B       		.uleb128 0x3b
 17717 5e4c 2A200000 		.4byte	.LVL506
 17718 5e50 BE6A0000 		.4byte	0x6abe
 17719 5e54 5F5E0000 		.4byte	0x5e5f
 17720 5e58 3C       		.uleb128 0x3c
 17721 5e59 01       		.uleb128 0x1
 17722 5e5a 50       		.byte	0x50
 17723 5e5b 02       		.uleb128 0x2
 17724 5e5c 7A       		.byte	0x7a
 17725 5e5d 00       		.sleb128 0
 17726 5e5e 00       		.byte	0
 17727 5e5f 39       		.uleb128 0x39
 17728 5e60 2E200000 		.4byte	.LVL507
 17729 5e64 C96A0000 		.4byte	0x6ac9
 17730 5e68 3B       		.uleb128 0x3b
 17731 5e69 3C200000 		.4byte	.LVL508
 17732 5e6d 27690000 		.4byte	0x6927
 17733 5e71 7C5E0000 		.4byte	0x5e7c
 17734 5e75 3C       		.uleb128 0x3c
 17735 5e76 01       		.uleb128 0x1
 17736 5e77 50       		.byte	0x50
 17737 5e78 02       		.uleb128 0x2
 17738 5e79 7A       		.byte	0x7a
 17739 5e7a 00       		.sleb128 0
 17740 5e7b 00       		.byte	0
 17741 5e7c 3B       		.uleb128 0x3b
 17742 5e7d 44200000 		.4byte	.LVL509
 17743 5e81 BE6A0000 		.4byte	0x6abe
 17744 5e85 905E0000 		.4byte	0x5e90
 17745 5e89 3C       		.uleb128 0x3c
 17746 5e8a 01       		.uleb128 0x1
ARM GAS  C:\Users\osour\AppData\Local\Temp\ccsBkKuy.s 			page 318


 17747 5e8b 50       		.byte	0x50
 17748 5e8c 02       		.uleb128 0x2
 17749 5e8d 7A       		.byte	0x7a
 17750 5e8e 00       		.sleb128 0
 17751 5e8f 00       		.byte	0
 17752 5e90 39       		.uleb128 0x39
 17753 5e91 48200000 		.4byte	.LVL510
 17754 5e95 C96A0000 		.4byte	0x6ac9
 17755 5e99 39       		.uleb128 0x39
 17756 5e9a 54200000 		.4byte	.LVL511
 17757 5e9e BE6A0000 		.4byte	0x6abe
 17758 5ea2 39       		.uleb128 0x39
 17759 5ea3 58200000 		.4byte	.LVL512
 17760 5ea7 C96A0000 		.4byte	0x6ac9
 17761 5eab 39       		.uleb128 0x39
 17762 5eac 64200000 		.4byte	.LVL513
 17763 5eb0 BE6A0000 		.4byte	0x6abe
 17764 5eb4 39       		.uleb128 0x39
 17765 5eb5 68200000 		.4byte	.LVL514
 17766 5eb9 C96A0000 		.4byte	0x6ac9
 17767 5ebd 39       		.uleb128 0x39
 17768 5ebe 74200000 		.4byte	.LVL515
 17769 5ec2 D46A0000 		.4byte	0x6ad4
 17770 5ec6 39       		.uleb128 0x39
 17771 5ec7 78200000 		.4byte	.LVL516
 17772 5ecb DF6A0000 		.4byte	0x6adf
 17773 5ecf 39       		.uleb128 0x39
 17774 5ed0 84200000 		.4byte	.LVL517
 17775 5ed4 BE6A0000 		.4byte	0x6abe
 17776 5ed8 39       		.uleb128 0x39
 17777 5ed9 88200000 		.4byte	.LVL518
 17778 5edd C96A0000 		.4byte	0x6ac9
 17779 5ee1 39       		.uleb128 0x39
 17780 5ee2 94200000 		.4byte	.LVL519
 17781 5ee6 BE6A0000 		.4byte	0x6abe
 17782 5eea 39       		.uleb128 0x39
 17783 5eeb 98200000 		.4byte	.LVL520
 17784 5eef C96A0000 		.4byte	0x6ac9
 17785 5ef3 39       		.uleb128 0x39
 17786 5ef4 A4200000 		.4byte	.LVL521
 17787 5ef8 27690000 		.4byte	0x6927
 17788 5efc 3B       		.uleb128 0x3b
 17789 5efd AC200000 		.4byte	.LVL522
 17790 5f01 BE6A0000 		.4byte	0x6abe
 17791 5f05 105F0000 		.4byte	0x5f10
 17792 5f09 3C       		.uleb128 0x3c
 17793 5f0a 01       		.uleb128 0x1
 17794 5f0b 50       		.byte	0x50
 17795 5f0c 02       		.uleb128 0x2
 17796 5f0d 7A       		.byte	0x7a
 17797 5f0e 00       		.sleb128 0
 17798 5f0f 00       		.byte	0
 17799 5f10 39       		.uleb128 0x39
 17800 5f11 B0200000 		.4byte	.LVL523
 17801 5f15 C96A0000 		.4byte	0x6ac9
 17802 5f19 3B       		.uleb128 0x3b
 17803 5f1a 3E210000 		.4byte	.LVL524
ARM GAS  C:\Users\osour\AppData\Local\Temp\ccsBkKuy.s 			page 319


 17804 5f1e BE6A0000 		.4byte	0x6abe
 17805 5f22 365F0000 		.4byte	0x5f36
 17806 5f26 3C       		.uleb128 0x3c
 17807 5f27 01       		.uleb128 0x1
 17808 5f28 50       		.byte	0x50
 17809 5f29 05       		.uleb128 0x5
 17810 5f2a 03       		.byte	0x3
 17811 5f2b 1C060000 		.4byte	.LC46
 17812 5f2f 3C       		.uleb128 0x3c
 17813 5f30 01       		.uleb128 0x1
 17814 5f31 51       		.byte	0x51
 17815 5f32 02       		.uleb128 0x2
 17816 5f33 08       		.byte	0x8
 17817 5f34 27       		.byte	0x27
 17818 5f35 00       		.byte	0
 17819 5f36 39       		.uleb128 0x39
 17820 5f37 42210000 		.4byte	.LVL525
 17821 5f3b C96A0000 		.4byte	0x6ac9
 17822 5f3f 3B       		.uleb128 0x3b
 17823 5f40 50210000 		.4byte	.LVL526
 17824 5f44 32690000 		.4byte	0x6932
 17825 5f48 5C5F0000 		.4byte	0x5f5c
 17826 5f4c 3C       		.uleb128 0x3c
 17827 5f4d 01       		.uleb128 0x1
 17828 5f4e 50       		.byte	0x50
 17829 5f4f 05       		.uleb128 0x5
 17830 5f50 03       		.byte	0x3
 17831 5f51 94010000 		.4byte	.LC19
 17832 5f55 3C       		.uleb128 0x3c
 17833 5f56 01       		.uleb128 0x1
 17834 5f57 51       		.byte	0x51
 17835 5f58 02       		.uleb128 0x2
 17836 5f59 08       		.byte	0x8
 17837 5f5a 2F       		.byte	0x2f
 17838 5f5b 00       		.byte	0
 17839 5f5c 39       		.uleb128 0x39
 17840 5f5d 54210000 		.4byte	.LVL527
 17841 5f61 3D690000 		.4byte	0x693d
 17842 5f65 39       		.uleb128 0x39
 17843 5f66 60210000 		.4byte	.LVL528
 17844 5f6a 27690000 		.4byte	0x6927
 17845 5f6e 3B       		.uleb128 0x3b
 17846 5f6f 68210000 		.4byte	.LVL529
 17847 5f73 BE6A0000 		.4byte	0x6abe
 17848 5f77 825F0000 		.4byte	0x5f82
 17849 5f7b 3C       		.uleb128 0x3c
 17850 5f7c 01       		.uleb128 0x1
 17851 5f7d 50       		.byte	0x50
 17852 5f7e 02       		.uleb128 0x2
 17853 5f7f 7A       		.byte	0x7a
 17854 5f80 00       		.sleb128 0
 17855 5f81 00       		.byte	0
 17856 5f82 39       		.uleb128 0x39
 17857 5f83 6C210000 		.4byte	.LVL530
 17858 5f87 C96A0000 		.4byte	0x6ac9
 17859 5f8b 39       		.uleb128 0x39
 17860 5f8c 78210000 		.4byte	.LVL531
ARM GAS  C:\Users\osour\AppData\Local\Temp\ccsBkKuy.s 			page 320


 17861 5f90 BE6A0000 		.4byte	0x6abe
 17862 5f94 39       		.uleb128 0x39
 17863 5f95 7C210000 		.4byte	.LVL532
 17864 5f99 C96A0000 		.4byte	0x6ac9
 17865 5f9d 39       		.uleb128 0x39
 17866 5f9e 88210000 		.4byte	.LVL533
 17867 5fa2 27690000 		.4byte	0x6927
 17868 5fa6 3B       		.uleb128 0x3b
 17869 5fa7 90210000 		.4byte	.LVL534
 17870 5fab BE6A0000 		.4byte	0x6abe
 17871 5faf BA5F0000 		.4byte	0x5fba
 17872 5fb3 3C       		.uleb128 0x3c
 17873 5fb4 01       		.uleb128 0x1
 17874 5fb5 50       		.byte	0x50
 17875 5fb6 02       		.uleb128 0x2
 17876 5fb7 7A       		.byte	0x7a
 17877 5fb8 00       		.sleb128 0
 17878 5fb9 00       		.byte	0
 17879 5fba 39       		.uleb128 0x39
 17880 5fbb 94210000 		.4byte	.LVL535
 17881 5fbf C96A0000 		.4byte	0x6ac9
 17882 5fc3 3B       		.uleb128 0x3b
 17883 5fc4 A4210000 		.4byte	.LVL536
 17884 5fc8 32690000 		.4byte	0x6932
 17885 5fcc DF5F0000 		.4byte	0x5fdf
 17886 5fd0 3C       		.uleb128 0x3c
 17887 5fd1 01       		.uleb128 0x1
 17888 5fd2 50       		.byte	0x50
 17889 5fd3 05       		.uleb128 0x5
 17890 5fd4 03       		.byte	0x3
 17891 5fd5 A0020000 		.4byte	.LC25
 17892 5fd9 3C       		.uleb128 0x3c
 17893 5fda 01       		.uleb128 0x1
 17894 5fdb 51       		.byte	0x51
 17895 5fdc 01       		.uleb128 0x1
 17896 5fdd 48       		.byte	0x48
 17897 5fde 00       		.byte	0
 17898 5fdf 39       		.uleb128 0x39
 17899 5fe0 A8210000 		.4byte	.LVL537
 17900 5fe4 3D690000 		.4byte	0x693d
 17901 5fe8 3B       		.uleb128 0x3b
 17902 5fe9 B8210000 		.4byte	.LVL538
 17903 5fed BE6A0000 		.4byte	0x6abe
 17904 5ff1 04600000 		.4byte	0x6004
 17905 5ff5 3C       		.uleb128 0x3c
 17906 5ff6 01       		.uleb128 0x1
 17907 5ff7 50       		.byte	0x50
 17908 5ff8 05       		.uleb128 0x5
 17909 5ff9 03       		.byte	0x3
 17910 5ffa E4050000 		.4byte	.LC44
 17911 5ffe 3C       		.uleb128 0x3c
 17912 5fff 01       		.uleb128 0x1
 17913 6000 51       		.byte	0x51
 17914 6001 01       		.uleb128 0x1
 17915 6002 49       		.byte	0x49
 17916 6003 00       		.byte	0
 17917 6004 39       		.uleb128 0x39
ARM GAS  C:\Users\osour\AppData\Local\Temp\ccsBkKuy.s 			page 321


 17918 6005 BC210000 		.4byte	.LVL539
 17919 6009 C96A0000 		.4byte	0x6ac9
 17920 600d 3B       		.uleb128 0x3b
 17921 600e CA210000 		.4byte	.LVL540
 17922 6012 32690000 		.4byte	0x6932
 17923 6016 29600000 		.4byte	0x6029
 17924 601a 3C       		.uleb128 0x3c
 17925 601b 01       		.uleb128 0x1
 17926 601c 50       		.byte	0x50
 17927 601d 05       		.uleb128 0x5
 17928 601e 03       		.byte	0x3
 17929 601f 14050000 		.4byte	.LC39
 17930 6023 3C       		.uleb128 0x3c
 17931 6024 01       		.uleb128 0x1
 17932 6025 51       		.byte	0x51
 17933 6026 01       		.uleb128 0x1
 17934 6027 4F       		.byte	0x4f
 17935 6028 00       		.byte	0
 17936 6029 39       		.uleb128 0x39
 17937 602a CE210000 		.4byte	.LVL541
 17938 602e 3D690000 		.4byte	0x693d
 17939 6032 39       		.uleb128 0x39
 17940 6033 DA210000 		.4byte	.LVL542
 17941 6037 A86A0000 		.4byte	0x6aa8
 17942 603b 39       		.uleb128 0x39
 17943 603c E0210000 		.4byte	.LVL543
 17944 6040 B36A0000 		.4byte	0x6ab3
 17945 6044 3D       		.uleb128 0x3d
 17946 6045 EC210000 		.4byte	.LVL544
 17947 6049 1C690000 		.4byte	0x691c
 17948 604d 3C       		.uleb128 0x3c
 17949 604e 01       		.uleb128 0x1
 17950 604f 50       		.byte	0x50
 17951 6050 02       		.uleb128 0x2
 17952 6051 7A       		.byte	0x7a
 17953 6052 00       		.sleb128 0
 17954 6053 3C       		.uleb128 0x3c
 17955 6054 01       		.uleb128 0x1
 17956 6055 51       		.byte	0x51
 17957 6056 05       		.uleb128 0x5
 17958 6057 03       		.byte	0x3
 17959 6058 78000000 		.4byte	.LC3
 17960 605c 3C       		.uleb128 0x3c
 17961 605d 01       		.uleb128 0x1
 17962 605e 52       		.byte	0x52
 17963 605f 02       		.uleb128 0x2
 17964 6060 74       		.byte	0x74
 17965 6061 00       		.sleb128 0
 17966 6062 00       		.byte	0
 17967 6063 00       		.byte	0
 17968 6064 39       		.uleb128 0x39
 17969 6065 14000000 		.4byte	.LVL1
 17970 6069 EA6A0000 		.4byte	0x6aea
 17971 606d 39       		.uleb128 0x39
 17972 606e 18000000 		.4byte	.LVL2
 17973 6072 F56A0000 		.4byte	0x6af5
 17974 6076 39       		.uleb128 0x39
ARM GAS  C:\Users\osour\AppData\Local\Temp\ccsBkKuy.s 			page 322


 17975 6077 30000000 		.4byte	.LVL4
 17976 607b 006B0000 		.4byte	0x6b00
 17977 607f 39       		.uleb128 0x39
 17978 6080 48000000 		.4byte	.LVL5
 17979 6084 0B6B0000 		.4byte	0x6b0b
 17980 6088 39       		.uleb128 0x39
 17981 6089 4C000000 		.4byte	.LVL6
 17982 608d 166B0000 		.4byte	0x6b16
 17983 6091 3B       		.uleb128 0x3b
 17984 6092 5A000000 		.4byte	.LVL7
 17985 6096 216B0000 		.4byte	0x6b21
 17986 609a BA600000 		.4byte	0x60ba
 17987 609e 3C       		.uleb128 0x3c
 17988 609f 01       		.uleb128 0x1
 17989 60a0 50       		.byte	0x50
 17990 60a1 02       		.uleb128 0x2
 17991 60a2 08       		.byte	0x8
 17992 60a3 7F       		.byte	0x7f
 17993 60a4 3C       		.uleb128 0x3c
 17994 60a5 01       		.uleb128 0x1
 17995 60a6 51       		.byte	0x51
 17996 60a7 03       		.uleb128 0x3
 17997 60a8 0A       		.byte	0xa
 17998 60a9 FEFF     		.2byte	0xfffe
 17999 60ab 3C       		.uleb128 0x3c
 18000 60ac 01       		.uleb128 0x1
 18001 60ad 52       		.byte	0x52
 18002 60ae 05       		.uleb128 0x5
 18003 60af 03       		.byte	0x3
 18004 60b0 00000000 		.4byte	.LANCHOR0
 18005 60b4 3C       		.uleb128 0x3c
 18006 60b5 01       		.uleb128 0x1
 18007 60b6 53       		.byte	0x53
 18008 60b7 01       		.uleb128 0x1
 18009 60b8 31       		.byte	0x31
 18010 60b9 00       		.byte	0
 18011 60ba 39       		.uleb128 0x39
 18012 60bb 76000000 		.4byte	.LVL8
 18013 60bf C1690000 		.4byte	0x69c1
 18014 60c3 3B       		.uleb128 0x3b
 18015 60c4 A4000000 		.4byte	.LVL9
 18016 60c8 CC690000 		.4byte	0x69cc
 18017 60cc E6600000 		.4byte	0x60e6
 18018 60d0 3C       		.uleb128 0x3c
 18019 60d1 02       		.uleb128 0x2
 18020 60d2 7D       		.byte	0x7d
 18021 60d3 00       		.sleb128 0
 18022 60d4 02       		.uleb128 0x2
 18023 60d5 75       		.byte	0x75
 18024 60d6 00       		.sleb128 0
 18025 60d7 3C       		.uleb128 0x3c
 18026 60d8 02       		.uleb128 0x2
 18027 60d9 7D       		.byte	0x7d
 18028 60da 04       		.sleb128 4
 18029 60db 02       		.uleb128 0x2
 18030 60dc 75       		.byte	0x75
 18031 60dd 00       		.sleb128 0
ARM GAS  C:\Users\osour\AppData\Local\Temp\ccsBkKuy.s 			page 323


 18032 60de 3C       		.uleb128 0x3c
 18033 60df 02       		.uleb128 0x2
 18034 60e0 7D       		.byte	0x7d
 18035 60e1 08       		.sleb128 8
 18036 60e2 02       		.uleb128 0x2
 18037 60e3 74       		.byte	0x74
 18038 60e4 00       		.sleb128 0
 18039 60e5 00       		.byte	0
 18040 60e6 39       		.uleb128 0x39
 18041 60e7 A8000000 		.4byte	.LVL10
 18042 60eb D7690000 		.4byte	0x69d7
 18043 60ef 39       		.uleb128 0x39
 18044 60f0 B4000000 		.4byte	.LVL11
 18045 60f4 2C6B0000 		.4byte	0x6b2c
 18046 60f8 3B       		.uleb128 0x3b
 18047 60f9 BC000000 		.4byte	.LVL12
 18048 60fd 32690000 		.4byte	0x6932
 18049 6101 15610000 		.4byte	0x6115
 18050 6105 3C       		.uleb128 0x3c
 18051 6106 01       		.uleb128 0x1
 18052 6107 50       		.byte	0x50
 18053 6108 05       		.uleb128 0x5
 18054 6109 03       		.byte	0x3
 18055 610a 00000000 		.4byte	.LC0
 18056 610e 3C       		.uleb128 0x3c
 18057 610f 01       		.uleb128 0x1
 18058 6110 51       		.byte	0x51
 18059 6111 02       		.uleb128 0x2
 18060 6112 08       		.byte	0x8
 18061 6113 58       		.byte	0x58
 18062 6114 00       		.byte	0
 18063 6115 39       		.uleb128 0x39
 18064 6116 C0000000 		.4byte	.LVL13
 18065 611a 3D690000 		.4byte	0x693d
 18066 611e 3B       		.uleb128 0x3b
 18067 611f EE000000 		.4byte	.LVL18
 18068 6123 376B0000 		.4byte	0x6b37
 18069 6127 32610000 		.4byte	0x6132
 18070 612b 3C       		.uleb128 0x3c
 18071 612c 01       		.uleb128 0x1
 18072 612d 50       		.byte	0x50
 18073 612e 02       		.uleb128 0x2
 18074 612f 75       		.byte	0x75
 18075 6130 00       		.sleb128 0
 18076 6131 00       		.byte	0
 18077 6132 39       		.uleb128 0x39
 18078 6133 F6000000 		.4byte	.LVL19
 18079 6137 666A0000 		.4byte	0x6a66
 18080 613b 39       		.uleb128 0x39
 18081 613c FC000000 		.4byte	.LVL21
 18082 6140 5B6A0000 		.4byte	0x6a5b
 18083 6144 3B       		.uleb128 0x3b
 18084 6145 52010000 		.4byte	.LVL24
 18085 6149 376B0000 		.4byte	0x6b37
 18086 614d 58610000 		.4byte	0x6158
 18087 6151 3C       		.uleb128 0x3c
 18088 6152 01       		.uleb128 0x1
ARM GAS  C:\Users\osour\AppData\Local\Temp\ccsBkKuy.s 			page 324


 18089 6153 50       		.byte	0x50
 18090 6154 02       		.uleb128 0x2
 18091 6155 74       		.byte	0x74
 18092 6156 00       		.sleb128 0
 18093 6157 00       		.byte	0
 18094 6158 3B       		.uleb128 0x3b
 18095 6159 7E010000 		.4byte	.LVL25
 18096 615d 376B0000 		.4byte	0x6b37
 18097 6161 6C610000 		.4byte	0x616c
 18098 6165 3C       		.uleb128 0x3c
 18099 6166 01       		.uleb128 0x1
 18100 6167 50       		.byte	0x50
 18101 6168 02       		.uleb128 0x2
 18102 6169 74       		.byte	0x74
 18103 616a 00       		.sleb128 0
 18104 616b 00       		.byte	0
 18105 616c 3B       		.uleb128 0x3b
 18106 616d 0C020000 		.4byte	.LVL36
 18107 6171 426B0000 		.4byte	0x6b42
 18108 6175 80610000 		.4byte	0x6180
 18109 6179 3C       		.uleb128 0x3c
 18110 617a 01       		.uleb128 0x1
 18111 617b 50       		.byte	0x50
 18112 617c 02       		.uleb128 0x2
 18113 617d 75       		.byte	0x75
 18114 617e 00       		.sleb128 0
 18115 617f 00       		.byte	0
 18116 6180 39       		.uleb128 0x39
 18117 6181 16020000 		.4byte	.LVL37
 18118 6185 666A0000 		.4byte	0x6a66
 18119 6189 39       		.uleb128 0x39
 18120 618a 1C020000 		.4byte	.LVL39
 18121 618e 5B6A0000 		.4byte	0x6a5b
 18122 6192 3B       		.uleb128 0x3b
 18123 6193 4C020000 		.4byte	.LVL41
 18124 6197 426B0000 		.4byte	0x6b42
 18125 619b A6610000 		.4byte	0x61a6
 18126 619f 3C       		.uleb128 0x3c
 18127 61a0 01       		.uleb128 0x1
 18128 61a1 50       		.byte	0x50
 18129 61a2 02       		.uleb128 0x2
 18130 61a3 74       		.byte	0x74
 18131 61a4 00       		.sleb128 0
 18132 61a5 00       		.byte	0
 18133 61a6 3B       		.uleb128 0x3b
 18134 61a7 78020000 		.4byte	.LVL42
 18135 61ab 426B0000 		.4byte	0x6b42
 18136 61af BA610000 		.4byte	0x61ba
 18137 61b3 3C       		.uleb128 0x3c
 18138 61b4 01       		.uleb128 0x1
 18139 61b5 50       		.byte	0x50
 18140 61b6 02       		.uleb128 0x2
 18141 61b7 74       		.byte	0x74
 18142 61b8 00       		.sleb128 0
 18143 61b9 00       		.byte	0
 18144 61ba 3B       		.uleb128 0x3b
 18145 61bb A4020000 		.4byte	.LVL45
ARM GAS  C:\Users\osour\AppData\Local\Temp\ccsBkKuy.s 			page 325


 18146 61bf 2F6A0000 		.4byte	0x6a2f
 18147 61c3 CE610000 		.4byte	0x61ce
 18148 61c7 3C       		.uleb128 0x3c
 18149 61c8 01       		.uleb128 0x1
 18150 61c9 50       		.byte	0x50
 18151 61ca 02       		.uleb128 0x2
 18152 61cb 74       		.byte	0x74
 18153 61cc 00       		.sleb128 0
 18154 61cd 00       		.byte	0
 18155 61ce 39       		.uleb128 0x39
 18156 61cf AC020000 		.4byte	.LVL46
 18157 61d3 3A6A0000 		.4byte	0x6a3a
 18158 61d7 3B       		.uleb128 0x3b
 18159 61d8 76030000 		.4byte	.LVL49
 18160 61dc 926A0000 		.4byte	0x6a92
 18161 61e0 F3610000 		.4byte	0x61f3
 18162 61e4 3C       		.uleb128 0x3c
 18163 61e5 01       		.uleb128 0x1
 18164 61e6 50       		.byte	0x50
 18165 61e7 03       		.uleb128 0x3
 18166 61e8 0A       		.byte	0xa
 18167 61e9 142B     		.2byte	0x2b14
 18168 61eb 3C       		.uleb128 0x3c
 18169 61ec 01       		.uleb128 0x1
 18170 61ed 51       		.byte	0x51
 18171 61ee 03       		.uleb128 0x3
 18172 61ef 0A       		.byte	0xa
 18173 61f0 501F     		.2byte	0x1f50
 18174 61f2 00       		.byte	0
 18175 61f3 3B       		.uleb128 0x3b
 18176 61f4 90030000 		.4byte	.LVL52
 18177 61f8 2F6A0000 		.4byte	0x6a2f
 18178 61fc 07620000 		.4byte	0x6207
 18179 6200 3C       		.uleb128 0x3c
 18180 6201 01       		.uleb128 0x1
 18181 6202 50       		.byte	0x50
 18182 6203 02       		.uleb128 0x2
 18183 6204 74       		.byte	0x74
 18184 6205 00       		.sleb128 0
 18185 6206 00       		.byte	0
 18186 6207 39       		.uleb128 0x39
 18187 6208 98030000 		.4byte	.LVL53
 18188 620c 3A6A0000 		.4byte	0x6a3a
 18189 6210 3B       		.uleb128 0x3b
 18190 6211 18040000 		.4byte	.LVL56
 18191 6215 926A0000 		.4byte	0x6a92
 18192 6219 2C620000 		.4byte	0x622c
 18193 621d 3C       		.uleb128 0x3c
 18194 621e 01       		.uleb128 0x1
 18195 621f 50       		.byte	0x50
 18196 6220 03       		.uleb128 0x3
 18197 6221 0A       		.byte	0xa
 18198 6222 142B     		.2byte	0x2b14
 18199 6224 3C       		.uleb128 0x3c
 18200 6225 01       		.uleb128 0x1
 18201 6226 51       		.byte	0x51
 18202 6227 03       		.uleb128 0x3
ARM GAS  C:\Users\osour\AppData\Local\Temp\ccsBkKuy.s 			page 326


 18203 6228 0A       		.byte	0xa
 18204 6229 501F     		.2byte	0x1f50
 18205 622b 00       		.byte	0
 18206 622c 3B       		.uleb128 0x3b
 18207 622d 3A050000 		.4byte	.LVL58
 18208 6231 426B0000 		.4byte	0x6b42
 18209 6235 40620000 		.4byte	0x6240
 18210 6239 3C       		.uleb128 0x3c
 18211 623a 01       		.uleb128 0x1
 18212 623b 50       		.byte	0x50
 18213 623c 02       		.uleb128 0x2
 18214 623d 74       		.byte	0x74
 18215 623e 00       		.sleb128 0
 18216 623f 00       		.byte	0
 18217 6240 3B       		.uleb128 0x3b
 18218 6241 46050000 		.4byte	.LVL59
 18219 6245 426B0000 		.4byte	0x6b42
 18220 6249 54620000 		.4byte	0x6254
 18221 624d 3C       		.uleb128 0x3c
 18222 624e 01       		.uleb128 0x1
 18223 624f 50       		.byte	0x50
 18224 6250 02       		.uleb128 0x2
 18225 6251 74       		.byte	0x74
 18226 6252 00       		.sleb128 0
 18227 6253 00       		.byte	0
 18228 6254 39       		.uleb128 0x39
 18229 6255 62050000 		.4byte	.LVL60
 18230 6259 876A0000 		.4byte	0x6a87
 18231 625d 3B       		.uleb128 0x3b
 18232 625e 6E050000 		.4byte	.LVL61
 18233 6262 376B0000 		.4byte	0x6b37
 18234 6266 71620000 		.4byte	0x6271
 18235 626a 3C       		.uleb128 0x3c
 18236 626b 01       		.uleb128 0x1
 18237 626c 50       		.byte	0x50
 18238 626d 02       		.uleb128 0x2
 18239 626e 76       		.byte	0x76
 18240 626f 00       		.sleb128 0
 18241 6270 00       		.byte	0
 18242 6271 3B       		.uleb128 0x3b
 18243 6272 A4050000 		.4byte	.LVL62
 18244 6276 32690000 		.4byte	0x6932
 18245 627a 85620000 		.4byte	0x6285
 18246 627e 3C       		.uleb128 0x3c
 18247 627f 01       		.uleb128 0x1
 18248 6280 50       		.byte	0x50
 18249 6281 02       		.uleb128 0x2
 18250 6282 7A       		.byte	0x7a
 18251 6283 00       		.sleb128 0
 18252 6284 00       		.byte	0
 18253 6285 39       		.uleb128 0x39
 18254 6286 A8050000 		.4byte	.LVL63
 18255 628a 3D690000 		.4byte	0x693d
 18256 628e 3B       		.uleb128 0x3b
 18257 628f B4050000 		.4byte	.LVL64
 18258 6293 426B0000 		.4byte	0x6b42
 18259 6297 A2620000 		.4byte	0x62a2
ARM GAS  C:\Users\osour\AppData\Local\Temp\ccsBkKuy.s 			page 327


 18260 629b 3C       		.uleb128 0x3c
 18261 629c 01       		.uleb128 0x1
 18262 629d 50       		.byte	0x50
 18263 629e 02       		.uleb128 0x2
 18264 629f 76       		.byte	0x76
 18265 62a0 00       		.sleb128 0
 18266 62a1 00       		.byte	0
 18267 62a2 3B       		.uleb128 0x3b
 18268 62a3 BE050000 		.4byte	.LVL65
 18269 62a7 426B0000 		.4byte	0x6b42
 18270 62ab B6620000 		.4byte	0x62b6
 18271 62af 3C       		.uleb128 0x3c
 18272 62b0 01       		.uleb128 0x1
 18273 62b1 50       		.byte	0x50
 18274 62b2 02       		.uleb128 0x2
 18275 62b3 76       		.byte	0x76
 18276 62b4 00       		.sleb128 0
 18277 62b5 00       		.byte	0
 18278 62b6 39       		.uleb128 0x39
 18279 62b7 C8050000 		.4byte	.LVL66
 18280 62bb 74690000 		.4byte	0x6974
 18281 62bf 39       		.uleb128 0x39
 18282 62c0 E2050000 		.4byte	.LVL67
 18283 62c4 7F690000 		.4byte	0x697f
 18284 62c8 3B       		.uleb128 0x3b
 18285 62c9 0E060000 		.4byte	.LVL68
 18286 62cd 376B0000 		.4byte	0x6b37
 18287 62d1 DC620000 		.4byte	0x62dc
 18288 62d5 3C       		.uleb128 0x3c
 18289 62d6 01       		.uleb128 0x1
 18290 62d7 50       		.byte	0x50
 18291 62d8 02       		.uleb128 0x2
 18292 62d9 74       		.byte	0x74
 18293 62da 00       		.sleb128 0
 18294 62db 00       		.byte	0
 18295 62dc 3B       		.uleb128 0x3b
 18296 62dd 1A060000 		.4byte	.LVL69
 18297 62e1 376B0000 		.4byte	0x6b37
 18298 62e5 F0620000 		.4byte	0x62f0
 18299 62e9 3C       		.uleb128 0x3c
 18300 62ea 01       		.uleb128 0x1
 18301 62eb 50       		.byte	0x50
 18302 62ec 02       		.uleb128 0x2
 18303 62ed 74       		.byte	0x74
 18304 62ee 00       		.sleb128 0
 18305 62ef 00       		.byte	0
 18306 62f0 3B       		.uleb128 0x3b
 18307 62f1 36060000 		.4byte	.LVL70
 18308 62f5 376B0000 		.4byte	0x6b37
 18309 62f9 04630000 		.4byte	0x6304
 18310 62fd 3C       		.uleb128 0x3c
 18311 62fe 01       		.uleb128 0x1
 18312 62ff 50       		.byte	0x50
 18313 6300 02       		.uleb128 0x2
 18314 6301 74       		.byte	0x74
 18315 6302 00       		.sleb128 0
 18316 6303 00       		.byte	0
ARM GAS  C:\Users\osour\AppData\Local\Temp\ccsBkKuy.s 			page 328


 18317 6304 3B       		.uleb128 0x3b
 18318 6305 42060000 		.4byte	.LVL71
 18319 6309 376B0000 		.4byte	0x6b37
 18320 630d 18630000 		.4byte	0x6318
 18321 6311 3C       		.uleb128 0x3c
 18322 6312 01       		.uleb128 0x1
 18323 6313 50       		.byte	0x50
 18324 6314 02       		.uleb128 0x2
 18325 6315 74       		.byte	0x74
 18326 6316 00       		.sleb128 0
 18327 6317 00       		.byte	0
 18328 6318 39       		.uleb128 0x39
 18329 6319 60060000 		.4byte	.LVL72
 18330 631d F8690000 		.4byte	0x69f8
 18331 6321 39       		.uleb128 0x39
 18332 6322 66060000 		.4byte	.LVL73
 18333 6326 036A0000 		.4byte	0x6a03
 18334 632a 3B       		.uleb128 0x3b
 18335 632b 6E060000 		.4byte	.LVL74
 18336 632f 426B0000 		.4byte	0x6b42
 18337 6333 3E630000 		.4byte	0x633e
 18338 6337 3C       		.uleb128 0x3c
 18339 6338 01       		.uleb128 0x1
 18340 6339 50       		.byte	0x50
 18341 633a 02       		.uleb128 0x2
 18342 633b 74       		.byte	0x74
 18343 633c 00       		.sleb128 0
 18344 633d 00       		.byte	0
 18345 633e 3B       		.uleb128 0x3b
 18346 633f 7A060000 		.4byte	.LVL75
 18347 6343 426B0000 		.4byte	0x6b42
 18348 6347 52630000 		.4byte	0x6352
 18349 634b 3C       		.uleb128 0x3c
 18350 634c 01       		.uleb128 0x1
 18351 634d 50       		.byte	0x50
 18352 634e 02       		.uleb128 0x2
 18353 634f 74       		.byte	0x74
 18354 6350 00       		.sleb128 0
 18355 6351 00       		.byte	0
 18356 6352 3B       		.uleb128 0x3b
 18357 6353 96060000 		.4byte	.LVL76
 18358 6357 426B0000 		.4byte	0x6b42
 18359 635b 66630000 		.4byte	0x6366
 18360 635f 3C       		.uleb128 0x3c
 18361 6360 01       		.uleb128 0x1
 18362 6361 50       		.byte	0x50
 18363 6362 02       		.uleb128 0x2
 18364 6363 74       		.byte	0x74
 18365 6364 00       		.sleb128 0
 18366 6365 00       		.byte	0
 18367 6366 3B       		.uleb128 0x3b
 18368 6367 A2060000 		.4byte	.LVL77
 18369 636b 426B0000 		.4byte	0x6b42
 18370 636f 7A630000 		.4byte	0x637a
 18371 6373 3C       		.uleb128 0x3c
 18372 6374 01       		.uleb128 0x1
 18373 6375 50       		.byte	0x50
ARM GAS  C:\Users\osour\AppData\Local\Temp\ccsBkKuy.s 			page 329


 18374 6376 02       		.uleb128 0x2
 18375 6377 74       		.byte	0x74
 18376 6378 00       		.sleb128 0
 18377 6379 00       		.byte	0
 18378 637a 39       		.uleb128 0x39
 18379 637b B2060000 		.4byte	.LVL78
 18380 637f E2690000 		.4byte	0x69e2
 18381 6383 39       		.uleb128 0x39
 18382 6384 F2060000 		.4byte	.LVL79
 18383 6388 376B0000 		.4byte	0x6b37
 18384 638c 3B       		.uleb128 0x3b
 18385 638d 18070000 		.4byte	.LVL80
 18386 6391 4D6B0000 		.4byte	0x6b4d
 18387 6395 9F630000 		.4byte	0x639f
 18388 6399 3C       		.uleb128 0x3c
 18389 639a 01       		.uleb128 0x1
 18390 639b 50       		.byte	0x50
 18391 639c 01       		.uleb128 0x1
 18392 639d 30       		.byte	0x30
 18393 639e 00       		.byte	0
 18394 639f 3B       		.uleb128 0x3b
 18395 63a0 24070000 		.4byte	.LVL81
 18396 63a4 4D6B0000 		.4byte	0x6b4d
 18397 63a8 B2630000 		.4byte	0x63b2
 18398 63ac 3C       		.uleb128 0x3c
 18399 63ad 01       		.uleb128 0x1
 18400 63ae 50       		.byte	0x50
 18401 63af 01       		.uleb128 0x1
 18402 63b0 31       		.byte	0x31
 18403 63b1 00       		.byte	0
 18404 63b2 3B       		.uleb128 0x3b
 18405 63b3 30070000 		.4byte	.LVL82
 18406 63b7 4D6B0000 		.4byte	0x6b4d
 18407 63bb C5630000 		.4byte	0x63c5
 18408 63bf 3C       		.uleb128 0x3c
 18409 63c0 01       		.uleb128 0x1
 18410 63c1 50       		.byte	0x50
 18411 63c2 01       		.uleb128 0x1
 18412 63c3 32       		.byte	0x32
 18413 63c4 00       		.byte	0
 18414 63c5 3B       		.uleb128 0x3b
 18415 63c6 3C070000 		.4byte	.LVL83
 18416 63ca 4D6B0000 		.4byte	0x6b4d
 18417 63ce D8630000 		.4byte	0x63d8
 18418 63d2 3C       		.uleb128 0x3c
 18419 63d3 01       		.uleb128 0x1
 18420 63d4 50       		.byte	0x50
 18421 63d5 01       		.uleb128 0x1
 18422 63d6 33       		.byte	0x33
 18423 63d7 00       		.byte	0
 18424 63d8 39       		.uleb128 0x39
 18425 63d9 4A070000 		.4byte	.LVL84
 18426 63dd 426B0000 		.4byte	0x6b42
 18427 63e1 3B       		.uleb128 0x3b
 18428 63e2 56070000 		.4byte	.LVL85
 18429 63e6 246A0000 		.4byte	0x6a24
 18430 63ea F4630000 		.4byte	0x63f4
ARM GAS  C:\Users\osour\AppData\Local\Temp\ccsBkKuy.s 			page 330


 18431 63ee 3C       		.uleb128 0x3c
 18432 63ef 01       		.uleb128 0x1
 18433 63f0 50       		.byte	0x50
 18434 63f1 01       		.uleb128 0x1
 18435 63f2 30       		.byte	0x30
 18436 63f3 00       		.byte	0
 18437 63f4 3B       		.uleb128 0x3b
 18438 63f5 72070000 		.4byte	.LVL86
 18439 63f9 246A0000 		.4byte	0x6a24
 18440 63fd 07640000 		.4byte	0x6407
 18441 6401 3C       		.uleb128 0x3c
 18442 6402 01       		.uleb128 0x1
 18443 6403 50       		.byte	0x50
 18444 6404 01       		.uleb128 0x1
 18445 6405 31       		.byte	0x31
 18446 6406 00       		.byte	0
 18447 6407 3B       		.uleb128 0x3b
 18448 6408 8E070000 		.4byte	.LVL87
 18449 640c 246A0000 		.4byte	0x6a24
 18450 6410 1A640000 		.4byte	0x641a
 18451 6414 3C       		.uleb128 0x3c
 18452 6415 01       		.uleb128 0x1
 18453 6416 50       		.byte	0x50
 18454 6417 01       		.uleb128 0x1
 18455 6418 32       		.byte	0x32
 18456 6419 00       		.byte	0
 18457 641a 39       		.uleb128 0x39
 18458 641b 10080000 		.4byte	.LVL88
 18459 641f A86A0000 		.4byte	0x6aa8
 18460 6423 3B       		.uleb128 0x3b
 18461 6424 60080000 		.4byte	.LVL90
 18462 6428 376B0000 		.4byte	0x6b37
 18463 642c 3A640000 		.4byte	0x643a
 18464 6430 3C       		.uleb128 0x3c
 18465 6431 01       		.uleb128 0x1
 18466 6432 50       		.byte	0x50
 18467 6433 05       		.uleb128 0x5
 18468 6434 03       		.byte	0x3
 18469 6435 00000000 		.4byte	.LANCHOR24
 18470 6439 00       		.byte	0
 18471 643a 3B       		.uleb128 0x3b
 18472 643b 6C080000 		.4byte	.LVL91
 18473 643f 376B0000 		.4byte	0x6b37
 18474 6443 4E640000 		.4byte	0x644e
 18475 6447 3C       		.uleb128 0x3c
 18476 6448 01       		.uleb128 0x1
 18477 6449 50       		.byte	0x50
 18478 644a 02       		.uleb128 0x2
 18479 644b 74       		.byte	0x74
 18480 644c 00       		.sleb128 0
 18481 644d 00       		.byte	0
 18482 644e 3B       		.uleb128 0x3b
 18483 644f 78080000 		.4byte	.LVL92
 18484 6453 376B0000 		.4byte	0x6b37
 18485 6457 62640000 		.4byte	0x6462
 18486 645b 3C       		.uleb128 0x3c
 18487 645c 01       		.uleb128 0x1
ARM GAS  C:\Users\osour\AppData\Local\Temp\ccsBkKuy.s 			page 331


 18488 645d 50       		.byte	0x50
 18489 645e 02       		.uleb128 0x2
 18490 645f 74       		.byte	0x74
 18491 6460 00       		.sleb128 0
 18492 6461 00       		.byte	0
 18493 6462 39       		.uleb128 0x39
 18494 6463 80080000 		.4byte	.LVL93
 18495 6467 53690000 		.4byte	0x6953
 18496 646b 39       		.uleb128 0x39
 18497 646c 90080000 		.4byte	.LVL94
 18498 6470 196A0000 		.4byte	0x6a19
 18499 6474 39       		.uleb128 0x39
 18500 6475 94080000 		.4byte	.LVL95
 18501 6479 69690000 		.4byte	0x6969
 18502 647d 3B       		.uleb128 0x3b
 18503 647e 9C080000 		.4byte	.LVL96
 18504 6482 426B0000 		.4byte	0x6b42
 18505 6486 94640000 		.4byte	0x6494
 18506 648a 3C       		.uleb128 0x3c
 18507 648b 01       		.uleb128 0x1
 18508 648c 50       		.byte	0x50
 18509 648d 05       		.uleb128 0x5
 18510 648e 03       		.byte	0x3
 18511 648f 00000000 		.4byte	.LANCHOR24
 18512 6493 00       		.byte	0
 18513 6494 3B       		.uleb128 0x3b
 18514 6495 A8080000 		.4byte	.LVL97
 18515 6499 426B0000 		.4byte	0x6b42
 18516 649d A8640000 		.4byte	0x64a8
 18517 64a1 3C       		.uleb128 0x3c
 18518 64a2 01       		.uleb128 0x1
 18519 64a3 50       		.byte	0x50
 18520 64a4 02       		.uleb128 0x2
 18521 64a5 74       		.byte	0x74
 18522 64a6 00       		.sleb128 0
 18523 64a7 00       		.byte	0
 18524 64a8 3B       		.uleb128 0x3b
 18525 64a9 B4080000 		.4byte	.LVL98
 18526 64ad 426B0000 		.4byte	0x6b42
 18527 64b1 BC640000 		.4byte	0x64bc
 18528 64b5 3C       		.uleb128 0x3c
 18529 64b6 01       		.uleb128 0x1
 18530 64b7 50       		.byte	0x50
 18531 64b8 02       		.uleb128 0x2
 18532 64b9 74       		.byte	0x74
 18533 64ba 00       		.sleb128 0
 18534 64bb 00       		.byte	0
 18535 64bc 39       		.uleb128 0x39
 18536 64bd CE080000 		.4byte	.LVL99
 18537 64c1 586B0000 		.4byte	0x6b58
 18538 64c5 39       		.uleb128 0x39
 18539 64c6 0A090000 		.4byte	.LVL103
 18540 64ca 0B6B0000 		.4byte	0x6b0b
 18541 64ce 39       		.uleb128 0x39
 18542 64cf 0E090000 		.4byte	.LVL104
 18543 64d3 53690000 		.4byte	0x6953
 18544 64d7 3B       		.uleb128 0x3b
ARM GAS  C:\Users\osour\AppData\Local\Temp\ccsBkKuy.s 			page 332


 18545 64d8 16090000 		.4byte	.LVL105
 18546 64dc 5E690000 		.4byte	0x695e
 18547 64e0 F1640000 		.4byte	0x64f1
 18548 64e4 3C       		.uleb128 0x3c
 18549 64e5 01       		.uleb128 0x1
 18550 64e6 50       		.byte	0x50
 18551 64e7 02       		.uleb128 0x2
 18552 64e8 09       		.byte	0x9
 18553 64e9 C0       		.byte	0xc0
 18554 64ea 3C       		.uleb128 0x3c
 18555 64eb 01       		.uleb128 0x1
 18556 64ec 51       		.byte	0x51
 18557 64ed 02       		.uleb128 0x2
 18558 64ee 77       		.byte	0x77
 18559 64ef 00       		.sleb128 0
 18560 64f0 00       		.byte	0
 18561 64f1 39       		.uleb128 0x39
 18562 64f2 42090000 		.4byte	.LVL106
 18563 64f6 5E690000 		.4byte	0x695e
 18564 64fa 39       		.uleb128 0x39
 18565 64fb 80090000 		.4byte	.LVL107
 18566 64ff 5E690000 		.4byte	0x695e
 18567 6503 39       		.uleb128 0x39
 18568 6504 98090000 		.4byte	.LVL108
 18569 6508 636B0000 		.4byte	0x6b63
 18570 650c 39       		.uleb128 0x39
 18571 650d BA090000 		.4byte	.LVL109
 18572 6511 0E6A0000 		.4byte	0x6a0e
 18573 6515 3B       		.uleb128 0x3b
 18574 6516 F4090000 		.4byte	.LVL110
 18575 651a 376B0000 		.4byte	0x6b37
 18576 651e 29650000 		.4byte	0x6529
 18577 6522 3C       		.uleb128 0x3c
 18578 6523 01       		.uleb128 0x1
 18579 6524 50       		.byte	0x50
 18580 6525 02       		.uleb128 0x2
 18581 6526 74       		.byte	0x74
 18582 6527 00       		.sleb128 0
 18583 6528 00       		.byte	0
 18584 6529 3B       		.uleb128 0x3b
 18585 652a 000A0000 		.4byte	.LVL111
 18586 652e 376B0000 		.4byte	0x6b37
 18587 6532 3D650000 		.4byte	0x653d
 18588 6536 3C       		.uleb128 0x3c
 18589 6537 01       		.uleb128 0x1
 18590 6538 50       		.byte	0x50
 18591 6539 02       		.uleb128 0x2
 18592 653a 74       		.byte	0x74
 18593 653b 00       		.sleb128 0
 18594 653c 00       		.byte	0
 18595 653d 3B       		.uleb128 0x3b
 18596 653e 1C0A0000 		.4byte	.LVL112
 18597 6542 376B0000 		.4byte	0x6b37
 18598 6546 51650000 		.4byte	0x6551
 18599 654a 3C       		.uleb128 0x3c
 18600 654b 01       		.uleb128 0x1
 18601 654c 50       		.byte	0x50
ARM GAS  C:\Users\osour\AppData\Local\Temp\ccsBkKuy.s 			page 333


 18602 654d 02       		.uleb128 0x2
 18603 654e 74       		.byte	0x74
 18604 654f 00       		.sleb128 0
 18605 6550 00       		.byte	0
 18606 6551 3B       		.uleb128 0x3b
 18607 6552 280A0000 		.4byte	.LVL113
 18608 6556 376B0000 		.4byte	0x6b37
 18609 655a 65650000 		.4byte	0x6565
 18610 655e 3C       		.uleb128 0x3c
 18611 655f 01       		.uleb128 0x1
 18612 6560 50       		.byte	0x50
 18613 6561 02       		.uleb128 0x2
 18614 6562 74       		.byte	0x74
 18615 6563 00       		.sleb128 0
 18616 6564 00       		.byte	0
 18617 6565 39       		.uleb128 0x39
 18618 6566 460A0000 		.4byte	.LVL114
 18619 656a 2F6A0000 		.4byte	0x6a2f
 18620 656e 39       		.uleb128 0x39
 18621 656f 4C0A0000 		.4byte	.LVL115
 18622 6573 3A6A0000 		.4byte	0x6a3a
 18623 6577 3B       		.uleb128 0x3b
 18624 6578 540A0000 		.4byte	.LVL116
 18625 657c 426B0000 		.4byte	0x6b42
 18626 6580 8B650000 		.4byte	0x658b
 18627 6584 3C       		.uleb128 0x3c
 18628 6585 01       		.uleb128 0x1
 18629 6586 50       		.byte	0x50
 18630 6587 02       		.uleb128 0x2
 18631 6588 74       		.byte	0x74
 18632 6589 00       		.sleb128 0
 18633 658a 00       		.byte	0
 18634 658b 3B       		.uleb128 0x3b
 18635 658c 600A0000 		.4byte	.LVL117
 18636 6590 426B0000 		.4byte	0x6b42
 18637 6594 9F650000 		.4byte	0x659f
 18638 6598 3C       		.uleb128 0x3c
 18639 6599 01       		.uleb128 0x1
 18640 659a 50       		.byte	0x50
 18641 659b 02       		.uleb128 0x2
 18642 659c 74       		.byte	0x74
 18643 659d 00       		.sleb128 0
 18644 659e 00       		.byte	0
 18645 659f 3B       		.uleb128 0x3b
 18646 65a0 7C0A0000 		.4byte	.LVL118
 18647 65a4 426B0000 		.4byte	0x6b42
 18648 65a8 B3650000 		.4byte	0x65b3
 18649 65ac 3C       		.uleb128 0x3c
 18650 65ad 01       		.uleb128 0x1
 18651 65ae 50       		.byte	0x50
 18652 65af 02       		.uleb128 0x2
 18653 65b0 74       		.byte	0x74
 18654 65b1 00       		.sleb128 0
 18655 65b2 00       		.byte	0
 18656 65b3 3B       		.uleb128 0x3b
 18657 65b4 880A0000 		.4byte	.LVL119
 18658 65b8 426B0000 		.4byte	0x6b42
ARM GAS  C:\Users\osour\AppData\Local\Temp\ccsBkKuy.s 			page 334


 18659 65bc C7650000 		.4byte	0x65c7
 18660 65c0 3C       		.uleb128 0x3c
 18661 65c1 01       		.uleb128 0x1
 18662 65c2 50       		.byte	0x50
 18663 65c3 02       		.uleb128 0x2
 18664 65c4 74       		.byte	0x74
 18665 65c5 00       		.sleb128 0
 18666 65c6 00       		.byte	0
 18667 65c7 3B       		.uleb128 0x3b
 18668 65c8 3A0B0000 		.4byte	.LVL127
 18669 65cc 376B0000 		.4byte	0x6b37
 18670 65d0 DB650000 		.4byte	0x65db
 18671 65d4 3C       		.uleb128 0x3c
 18672 65d5 01       		.uleb128 0x1
 18673 65d6 50       		.byte	0x50
 18674 65d7 02       		.uleb128 0x2
 18675 65d8 74       		.byte	0x74
 18676 65d9 00       		.sleb128 0
 18677 65da 00       		.byte	0
 18678 65db 3B       		.uleb128 0x3b
 18679 65dc 460B0000 		.4byte	.LVL128
 18680 65e0 376B0000 		.4byte	0x6b37
 18681 65e4 EF650000 		.4byte	0x65ef
 18682 65e8 3C       		.uleb128 0x3c
 18683 65e9 01       		.uleb128 0x1
 18684 65ea 50       		.byte	0x50
 18685 65eb 02       		.uleb128 0x2
 18686 65ec 74       		.byte	0x74
 18687 65ed 00       		.sleb128 0
 18688 65ee 00       		.byte	0
 18689 65ef 3B       		.uleb128 0x3b
 18690 65f0 760B0000 		.4byte	.LVL129
 18691 65f4 246A0000 		.4byte	0x6a24
 18692 65f8 02660000 		.4byte	0x6602
 18693 65fc 3C       		.uleb128 0x3c
 18694 65fd 01       		.uleb128 0x1
 18695 65fe 50       		.byte	0x50
 18696 65ff 01       		.uleb128 0x1
 18697 6600 30       		.byte	0x30
 18698 6601 00       		.byte	0
 18699 6602 3B       		.uleb128 0x3b
 18700 6603 920B0000 		.4byte	.LVL130
 18701 6607 246A0000 		.4byte	0x6a24
 18702 660b 15660000 		.4byte	0x6615
 18703 660f 3C       		.uleb128 0x3c
 18704 6610 01       		.uleb128 0x1
 18705 6611 50       		.byte	0x50
 18706 6612 01       		.uleb128 0x1
 18707 6613 31       		.byte	0x31
 18708 6614 00       		.byte	0
 18709 6615 3B       		.uleb128 0x3b
 18710 6616 AE0B0000 		.4byte	.LVL131
 18711 661a 246A0000 		.4byte	0x6a24
 18712 661e 28660000 		.4byte	0x6628
 18713 6622 3C       		.uleb128 0x3c
 18714 6623 01       		.uleb128 0x1
 18715 6624 50       		.byte	0x50
ARM GAS  C:\Users\osour\AppData\Local\Temp\ccsBkKuy.s 			page 335


 18716 6625 01       		.uleb128 0x1
 18717 6626 32       		.byte	0x32
 18718 6627 00       		.byte	0
 18719 6628 3B       		.uleb128 0x3b
 18720 6629 CA0B0000 		.4byte	.LVL132
 18721 662d 246A0000 		.4byte	0x6a24
 18722 6631 3B660000 		.4byte	0x663b
 18723 6635 3C       		.uleb128 0x3c
 18724 6636 01       		.uleb128 0x1
 18725 6637 50       		.byte	0x50
 18726 6638 01       		.uleb128 0x1
 18727 6639 33       		.byte	0x33
 18728 663a 00       		.byte	0
 18729 663b 39       		.uleb128 0x39
 18730 663c F80B0000 		.4byte	.LVL133
 18731 6640 6E6B0000 		.4byte	0x6b6e
 18732 6644 39       		.uleb128 0x39
 18733 6645 080C0000 		.4byte	.LVL134
 18734 6649 53690000 		.4byte	0x6953
 18735 664d 39       		.uleb128 0x39
 18736 664e 1A0C0000 		.4byte	.LVL135
 18737 6652 376B0000 		.4byte	0x6b37
 18738 6656 39       		.uleb128 0x39
 18739 6657 400C0000 		.4byte	.LVL136
 18740 665b 376B0000 		.4byte	0x6b37
 18741 665f 39       		.uleb128 0x39
 18742 6660 660C0000 		.4byte	.LVL137
 18743 6664 376B0000 		.4byte	0x6b37
 18744 6668 3B       		.uleb128 0x3b
 18745 6669 8A0C0000 		.4byte	.LVL138
 18746 666d 196A0000 		.4byte	0x6a19
 18747 6671 7C660000 		.4byte	0x667c
 18748 6675 3C       		.uleb128 0x3c
 18749 6676 01       		.uleb128 0x1
 18750 6677 50       		.byte	0x50
 18751 6678 02       		.uleb128 0x2
 18752 6679 09       		.byte	0x9
 18753 667a B0       		.byte	0xb0
 18754 667b 00       		.byte	0
 18755 667c 3B       		.uleb128 0x3b
 18756 667d AE0C0000 		.4byte	.LVL139
 18757 6681 196A0000 		.4byte	0x6a19
 18758 6685 90660000 		.4byte	0x6690
 18759 6689 3C       		.uleb128 0x3c
 18760 668a 01       		.uleb128 0x1
 18761 668b 50       		.byte	0x50
 18762 668c 02       		.uleb128 0x2
 18763 668d 09       		.byte	0x9
 18764 668e B0       		.byte	0xb0
 18765 668f 00       		.byte	0
 18766 6690 3B       		.uleb128 0x3b
 18767 6691 D20C0000 		.4byte	.LVL140
 18768 6695 196A0000 		.4byte	0x6a19
 18769 6699 A4660000 		.4byte	0x66a4
 18770 669d 3C       		.uleb128 0x3c
 18771 669e 01       		.uleb128 0x1
 18772 669f 50       		.byte	0x50
ARM GAS  C:\Users\osour\AppData\Local\Temp\ccsBkKuy.s 			page 336


 18773 66a0 02       		.uleb128 0x2
 18774 66a1 09       		.byte	0x9
 18775 66a2 B0       		.byte	0xb0
 18776 66a3 00       		.byte	0
 18777 66a4 3B       		.uleb128 0x3b
 18778 66a5 EA0C0000 		.4byte	.LVL141
 18779 66a9 196A0000 		.4byte	0x6a19
 18780 66ad C3660000 		.4byte	0x66c3
 18781 66b1 3C       		.uleb128 0x3c
 18782 66b2 01       		.uleb128 0x1
 18783 66b3 50       		.byte	0x50
 18784 66b4 02       		.uleb128 0x2
 18785 66b5 09       		.byte	0x9
 18786 66b6 B0       		.byte	0xb0
 18787 66b7 3C       		.uleb128 0x3c
 18788 66b8 01       		.uleb128 0x1
 18789 66b9 51       		.byte	0x51
 18790 66ba 02       		.uleb128 0x2
 18791 66bb 09       		.byte	0x9
 18792 66bc 91       		.byte	0x91
 18793 66bd 3C       		.uleb128 0x3c
 18794 66be 01       		.uleb128 0x1
 18795 66bf 52       		.byte	0x52
 18796 66c0 01       		.uleb128 0x1
 18797 66c1 31       		.byte	0x31
 18798 66c2 00       		.byte	0
 18799 66c3 39       		.uleb128 0x39
 18800 66c4 EE0C0000 		.4byte	.LVL142
 18801 66c8 69690000 		.4byte	0x6969
 18802 66cc 3B       		.uleb128 0x3b
 18803 66cd AC0E0000 		.4byte	.LVL161
 18804 66d1 27690000 		.4byte	0x6927
 18805 66d5 E0660000 		.4byte	0x66e0
 18806 66d9 3C       		.uleb128 0x3c
 18807 66da 01       		.uleb128 0x1
 18808 66db 50       		.byte	0x50
 18809 66dc 02       		.uleb128 0x2
 18810 66dd 7A       		.byte	0x7a
 18811 66de 00       		.sleb128 0
 18812 66df 00       		.byte	0
 18813 66e0 3B       		.uleb128 0x3b
 18814 66e1 C2110000 		.4byte	.LVL206
 18815 66e5 27690000 		.4byte	0x6927
 18816 66e9 F4660000 		.4byte	0x66f4
 18817 66ed 3C       		.uleb128 0x3c
 18818 66ee 01       		.uleb128 0x1
 18819 66ef 50       		.byte	0x50
 18820 66f0 02       		.uleb128 0x2
 18821 66f1 7A       		.byte	0x7a
 18822 66f2 00       		.sleb128 0
 18823 66f3 00       		.byte	0
 18824 66f4 3B       		.uleb128 0x3b
 18825 66f5 46120000 		.4byte	.LVL218
 18826 66f9 27690000 		.4byte	0x6927
 18827 66fd 08670000 		.4byte	0x6708
 18828 6701 3C       		.uleb128 0x3c
 18829 6702 01       		.uleb128 0x1
ARM GAS  C:\Users\osour\AppData\Local\Temp\ccsBkKuy.s 			page 337


 18830 6703 50       		.byte	0x50
 18831 6704 02       		.uleb128 0x2
 18832 6705 7A       		.byte	0x7a
 18833 6706 00       		.sleb128 0
 18834 6707 00       		.byte	0
 18835 6708 3B       		.uleb128 0x3b
 18836 6709 DC130000 		.4byte	.LVL241
 18837 670d 27690000 		.4byte	0x6927
 18838 6711 1C670000 		.4byte	0x671c
 18839 6715 3C       		.uleb128 0x3c
 18840 6716 01       		.uleb128 0x1
 18841 6717 50       		.byte	0x50
 18842 6718 02       		.uleb128 0x2
 18843 6719 7A       		.byte	0x7a
 18844 671a 00       		.sleb128 0
 18845 671b 00       		.byte	0
 18846 671c 3B       		.uleb128 0x3b
 18847 671d 72140000 		.4byte	.LVL254
 18848 6721 27690000 		.4byte	0x6927
 18849 6725 30670000 		.4byte	0x6730
 18850 6729 3C       		.uleb128 0x3c
 18851 672a 01       		.uleb128 0x1
 18852 672b 50       		.byte	0x50
 18853 672c 02       		.uleb128 0x2
 18854 672d 7A       		.byte	0x7a
 18855 672e 00       		.sleb128 0
 18856 672f 00       		.byte	0
 18857 6730 3B       		.uleb128 0x3b
 18858 6731 7C150000 		.4byte	.LVL274
 18859 6735 27690000 		.4byte	0x6927
 18860 6739 44670000 		.4byte	0x6744
 18861 673d 3C       		.uleb128 0x3c
 18862 673e 01       		.uleb128 0x1
 18863 673f 50       		.byte	0x50
 18864 6740 02       		.uleb128 0x2
 18865 6741 7A       		.byte	0x7a
 18866 6742 00       		.sleb128 0
 18867 6743 00       		.byte	0
 18868 6744 3B       		.uleb128 0x3b
 18869 6745 00160000 		.4byte	.LVL286
 18870 6749 27690000 		.4byte	0x6927
 18871 674d 58670000 		.4byte	0x6758
 18872 6751 3C       		.uleb128 0x3c
 18873 6752 01       		.uleb128 0x1
 18874 6753 50       		.byte	0x50
 18875 6754 02       		.uleb128 0x2
 18876 6755 7A       		.byte	0x7a
 18877 6756 00       		.sleb128 0
 18878 6757 00       		.byte	0
 18879 6758 3B       		.uleb128 0x3b
 18880 6759 5E160000 		.4byte	.LVL290
 18881 675d 27690000 		.4byte	0x6927
 18882 6761 6C670000 		.4byte	0x676c
 18883 6765 3C       		.uleb128 0x3c
 18884 6766 01       		.uleb128 0x1
 18885 6767 50       		.byte	0x50
 18886 6768 02       		.uleb128 0x2
ARM GAS  C:\Users\osour\AppData\Local\Temp\ccsBkKuy.s 			page 338


 18887 6769 7A       		.byte	0x7a
 18888 676a 00       		.sleb128 0
 18889 676b 00       		.byte	0
 18890 676c 3B       		.uleb128 0x3b
 18891 676d AE1A0000 		.4byte	.LVL371
 18892 6771 BE6A0000 		.4byte	0x6abe
 18893 6775 80670000 		.4byte	0x6780
 18894 6779 3C       		.uleb128 0x3c
 18895 677a 01       		.uleb128 0x1
 18896 677b 50       		.byte	0x50
 18897 677c 02       		.uleb128 0x2
 18898 677d 7A       		.byte	0x7a
 18899 677e 00       		.sleb128 0
 18900 677f 00       		.byte	0
 18901 6780 39       		.uleb128 0x39
 18902 6781 B21A0000 		.4byte	.LVL372
 18903 6785 C96A0000 		.4byte	0x6ac9
 18904 6789 39       		.uleb128 0x39
 18905 678a C21A0000 		.4byte	.LVL373
 18906 678e 8A690000 		.4byte	0x698a
 18907 6792 39       		.uleb128 0x39
 18908 6793 CA1A0000 		.4byte	.LVL374
 18909 6797 7C6A0000 		.4byte	0x6a7c
 18910 679b 39       		.uleb128 0x39
 18911 679c D21A0000 		.4byte	.LVL375
 18912 67a0 48690000 		.4byte	0x6948
 18913 67a4 3B       		.uleb128 0x3b
 18914 67a5 F61A0000 		.4byte	.LVL376
 18915 67a9 456A0000 		.4byte	0x6a45
 18916 67ad BD670000 		.4byte	0x67bd
 18917 67b1 3C       		.uleb128 0x3c
 18918 67b2 01       		.uleb128 0x1
 18919 67b3 50       		.byte	0x50
 18920 67b4 02       		.uleb128 0x2
 18921 67b5 77       		.byte	0x77
 18922 67b6 00       		.sleb128 0
 18923 67b7 3C       		.uleb128 0x3c
 18924 67b8 01       		.uleb128 0x1
 18925 67b9 51       		.byte	0x51
 18926 67ba 01       		.uleb128 0x1
 18927 67bb 31       		.byte	0x31
 18928 67bc 00       		.byte	0
 18929 67bd 3B       		.uleb128 0x3b
 18930 67be 041B0000 		.4byte	.LVL377
 18931 67c2 456A0000 		.4byte	0x6a45
 18932 67c6 D5670000 		.4byte	0x67d5
 18933 67ca 3C       		.uleb128 0x3c
 18934 67cb 01       		.uleb128 0x1
 18935 67cc 50       		.byte	0x50
 18936 67cd 01       		.uleb128 0x1
 18937 67ce 31       		.byte	0x31
 18938 67cf 3C       		.uleb128 0x3c
 18939 67d0 01       		.uleb128 0x1
 18940 67d1 51       		.byte	0x51
 18941 67d2 01       		.uleb128 0x1
 18942 67d3 31       		.byte	0x31
 18943 67d4 00       		.byte	0
ARM GAS  C:\Users\osour\AppData\Local\Temp\ccsBkKuy.s 			page 339


 18944 67d5 3B       		.uleb128 0x3b
 18945 67d6 0E1B0000 		.4byte	.LVL378
 18946 67da 456A0000 		.4byte	0x6a45
 18947 67de ED670000 		.4byte	0x67ed
 18948 67e2 3C       		.uleb128 0x3c
 18949 67e3 01       		.uleb128 0x1
 18950 67e4 50       		.byte	0x50
 18951 67e5 01       		.uleb128 0x1
 18952 67e6 32       		.byte	0x32
 18953 67e7 3C       		.uleb128 0x3c
 18954 67e8 01       		.uleb128 0x1
 18955 67e9 51       		.byte	0x51
 18956 67ea 01       		.uleb128 0x1
 18957 67eb 31       		.byte	0x31
 18958 67ec 00       		.byte	0
 18959 67ed 39       		.uleb128 0x39
 18960 67ee 341B0000 		.4byte	.LVL379
 18961 67f2 796B0000 		.4byte	0x6b79
 18962 67f6 3B       		.uleb128 0x3b
 18963 67f7 581B0000 		.4byte	.LVL380
 18964 67fb 846B0000 		.4byte	0x6b84
 18965 67ff 1F680000 		.4byte	0x681f
 18966 6803 3C       		.uleb128 0x3c
 18967 6804 01       		.uleb128 0x1
 18968 6805 50       		.byte	0x50
 18969 6806 05       		.uleb128 0x5
 18970 6807 03       		.byte	0x3
 18971 6808 00000000 		.4byte	.LANCHOR20
 18972 680c 3C       		.uleb128 0x3c
 18973 680d 01       		.uleb128 0x1
 18974 680e 51       		.byte	0x51
 18975 680f 05       		.uleb128 0x5
 18976 6810 03       		.byte	0x3
 18977 6811 00000000 		.4byte	.LANCHOR19
 18978 6815 3C       		.uleb128 0x3c
 18979 6816 01       		.uleb128 0x1
 18980 6817 52       		.byte	0x52
 18981 6818 05       		.uleb128 0x5
 18982 6819 03       		.byte	0x3
 18983 681a 00000000 		.4byte	.LANCHOR18
 18984 681e 00       		.byte	0
 18985 681f 39       		.uleb128 0x39
 18986 6820 8E1B0000 		.4byte	.LVL381
 18987 6824 8F6B0000 		.4byte	0x6b8f
 18988 6828 39       		.uleb128 0x39
 18989 6829 CC1B0000 		.4byte	.LVL383
 18990 682d ED690000 		.4byte	0x69ed
 18991 6831 39       		.uleb128 0x39
 18992 6832 DA1B0000 		.4byte	.LVL385
 18993 6836 ED690000 		.4byte	0x69ed
 18994 683a 39       		.uleb128 0x39
 18995 683b EC1B0000 		.4byte	.LVL387
 18996 683f 9A6B0000 		.4byte	0x6b9a
 18997 6843 39       		.uleb128 0x39
 18998 6844 F01B0000 		.4byte	.LVL388
 18999 6848 A56B0000 		.4byte	0x6ba5
 19000 684c 3B       		.uleb128 0x3b
ARM GAS  C:\Users\osour\AppData\Local\Temp\ccsBkKuy.s 			page 340


 19001 684d 001C0000 		.4byte	.LVL389
 19002 6851 B06B0000 		.4byte	0x6bb0
 19003 6855 65680000 		.4byte	0x6865
 19004 6859 3C       		.uleb128 0x3c
 19005 685a 01       		.uleb128 0x1
 19006 685b 50       		.byte	0x50
 19007 685c 07       		.uleb128 0x7
 19008 685d 7A       		.byte	0x7a
 19009 685e 00       		.sleb128 0
 19010 685f 91       		.byte	0x91
 19011 6860 B47F     		.sleb128 -76
 19012 6862 06       		.byte	0x6
 19013 6863 22       		.byte	0x22
 19014 6864 00       		.byte	0
 19015 6865 3B       		.uleb128 0x3b
 19016 6866 821C0000 		.4byte	.LVL400
 19017 686a 27690000 		.4byte	0x6927
 19018 686e 79680000 		.4byte	0x6879
 19019 6872 3C       		.uleb128 0x3c
 19020 6873 01       		.uleb128 0x1
 19021 6874 50       		.byte	0x50
 19022 6875 02       		.uleb128 0x2
 19023 6876 7A       		.byte	0x7a
 19024 6877 00       		.sleb128 0
 19025 6878 00       		.byte	0
 19026 6879 39       		.uleb128 0x39
 19027 687a FA210000 		.4byte	.LVL546
 19028 687e 2C6B0000 		.4byte	0x6b2c
 19029 6882 3B       		.uleb128 0x3b
 19030 6883 02220000 		.4byte	.LVL547
 19031 6887 BE6A0000 		.4byte	0x6abe
 19032 688b 9F680000 		.4byte	0x689f
 19033 688f 3C       		.uleb128 0x3c
 19034 6890 01       		.uleb128 0x1
 19035 6891 50       		.byte	0x50
 19036 6892 05       		.uleb128 0x5
 19037 6893 03       		.byte	0x3
 19038 6894 00000000 		.4byte	.LC0
 19039 6898 3C       		.uleb128 0x3c
 19040 6899 01       		.uleb128 0x1
 19041 689a 51       		.byte	0x51
 19042 689b 02       		.uleb128 0x2
 19043 689c 08       		.byte	0x8
 19044 689d 58       		.byte	0x58
 19045 689e 00       		.byte	0
 19046 689f 39       		.uleb128 0x39
 19047 68a0 06220000 		.4byte	.LVL548
 19048 68a4 C96A0000 		.4byte	0x6ac9
 19049 68a8 39       		.uleb128 0x39
 19050 68a9 16220000 		.4byte	.LVL550
 19051 68ad 006B0000 		.4byte	0x6b00
 19052 68b1 39       		.uleb128 0x39
 19053 68b2 2E220000 		.4byte	.LVL551
 19054 68b6 166B0000 		.4byte	0x6b16
 19055 68ba 3D       		.uleb128 0x3d
 19056 68bb 3C220000 		.4byte	.LVL552
 19057 68bf 216B0000 		.4byte	0x6b21
ARM GAS  C:\Users\osour\AppData\Local\Temp\ccsBkKuy.s 			page 341


 19058 68c3 3C       		.uleb128 0x3c
 19059 68c4 01       		.uleb128 0x1
 19060 68c5 50       		.byte	0x50
 19061 68c6 02       		.uleb128 0x2
 19062 68c7 08       		.byte	0x8
 19063 68c8 7F       		.byte	0x7f
 19064 68c9 3C       		.uleb128 0x3c
 19065 68ca 01       		.uleb128 0x1
 19066 68cb 51       		.byte	0x51
 19067 68cc 03       		.uleb128 0x3
 19068 68cd 0A       		.byte	0xa
 19069 68ce FEFF     		.2byte	0xfffe
 19070 68d0 3C       		.uleb128 0x3c
 19071 68d1 01       		.uleb128 0x1
 19072 68d2 52       		.byte	0x52
 19073 68d3 05       		.uleb128 0x5
 19074 68d4 03       		.byte	0x3
 19075 68d5 00000000 		.4byte	.LANCHOR0
 19076 68d9 3C       		.uleb128 0x3c
 19077 68da 01       		.uleb128 0x1
 19078 68db 53       		.byte	0x53
 19079 68dc 01       		.uleb128 0x1
 19080 68dd 31       		.byte	0x31
 19081 68de 00       		.byte	0
 19082 68df 00       		.byte	0
 19083 68e0 13       		.uleb128 0x13
 19084 68e1 20110000 		.4byte	0x1120
 19085 68e5 F0680000 		.4byte	0x68f0
 19086 68e9 14       		.uleb128 0x14
 19087 68ea B1000000 		.4byte	0xb1
 19088 68ee 0B       		.byte	0xb
 19089 68ef 00       		.byte	0
 19090 68f0 3E       		.uleb128 0x3e
 19091 68f1 471D0000 		.4byte	.LASF950
 19092 68f5 471D0000 		.4byte	.LASF950
 19093 68f9 3C       		.byte	0x3c
 19094 68fa 45       		.byte	0x45
 19095 68fb 3E       		.uleb128 0x3e
 19096 68fc EA0C0000 		.4byte	.LASF951
 19097 6900 EA0C0000 		.4byte	.LASF951
 19098 6904 3E       		.byte	0x3e
 19099 6905 17       		.byte	0x17
 19100 6906 3E       		.uleb128 0x3e
 19101 6907 EE1F0000 		.4byte	.LASF952
 19102 690b EE1F0000 		.4byte	.LASF952
 19103 690f 3E       		.byte	0x3e
 19104 6910 19       		.byte	0x19
 19105 6911 3E       		.uleb128 0x3e
 19106 6912 7C000000 		.4byte	.LASF953
 19107 6916 7C000000 		.4byte	.LASF953
 19108 691a 3E       		.byte	0x3e
 19109 691b 1B       		.byte	0x1b
 19110 691c 3E       		.uleb128 0x3e
 19111 691d 23090000 		.4byte	.LASF954
 19112 6921 23090000 		.4byte	.LASF954
 19113 6925 3F       		.byte	0x3f
 19114 6926 F4       		.byte	0xf4
ARM GAS  C:\Users\osour\AppData\Local\Temp\ccsBkKuy.s 			page 342


 19115 6927 3E       		.uleb128 0x3e
 19116 6928 7C1E0000 		.4byte	.LASF955
 19117 692c 7C1E0000 		.4byte	.LASF955
 19118 6930 40       		.byte	0x40
 19119 6931 29       		.byte	0x29
 19120 6932 3E       		.uleb128 0x3e
 19121 6933 34210000 		.4byte	.LASF956
 19122 6937 34210000 		.4byte	.LASF956
 19123 693b 41       		.byte	0x41
 19124 693c 71       		.byte	0x71
 19125 693d 3E       		.uleb128 0x3e
 19126 693e 02150000 		.4byte	.LASF957
 19127 6942 02150000 		.4byte	.LASF957
 19128 6946 41       		.byte	0x41
 19129 6947 76       		.byte	0x76
 19130 6948 3E       		.uleb128 0x3e
 19131 6949 9F260000 		.4byte	.LASF958
 19132 694d 9F260000 		.4byte	.LASF958
 19133 6951 3E       		.byte	0x3e
 19134 6952 15       		.byte	0x15
 19135 6953 3E       		.uleb128 0x3e
 19136 6954 28160000 		.4byte	.LASF959
 19137 6958 28160000 		.4byte	.LASF959
 19138 695c 42       		.byte	0x42
 19139 695d 29       		.byte	0x29
 19140 695e 3E       		.uleb128 0x3e
 19141 695f 781C0000 		.4byte	.LASF960
 19142 6963 781C0000 		.4byte	.LASF960
 19143 6967 42       		.byte	0x42
 19144 6968 28       		.byte	0x28
 19145 6969 3E       		.uleb128 0x3e
 19146 696a 6E080000 		.4byte	.LASF961
 19147 696e 6E080000 		.4byte	.LASF961
 19148 6972 42       		.byte	0x42
 19149 6973 2A       		.byte	0x2a
 19150 6974 3E       		.uleb128 0x3e
 19151 6975 DB000000 		.4byte	.LASF962
 19152 6979 DB000000 		.4byte	.LASF962
 19153 697d 43       		.byte	0x43
 19154 697e 40       		.byte	0x40
 19155 697f 3E       		.uleb128 0x3e
 19156 6980 F8160000 		.4byte	.LASF963
 19157 6984 F8160000 		.4byte	.LASF963
 19158 6988 43       		.byte	0x43
 19159 6989 41       		.byte	0x41
 19160 698a 3E       		.uleb128 0x3e
 19161 698b 9C040000 		.4byte	.LASF964
 19162 698f 9C040000 		.4byte	.LASF964
 19163 6993 44       		.byte	0x44
 19164 6994 3A       		.byte	0x3a
 19165 6995 3E       		.uleb128 0x3e
 19166 6996 DD230000 		.4byte	.LASF965
 19167 699a DD230000 		.4byte	.LASF965
 19168 699e 45       		.byte	0x45
 19169 699f 96       		.byte	0x96
 19170 69a0 3E       		.uleb128 0x3e
 19171 69a1 B51B0000 		.4byte	.LASF966
ARM GAS  C:\Users\osour\AppData\Local\Temp\ccsBkKuy.s 			page 343


 19172 69a5 B51B0000 		.4byte	.LASF966
 19173 69a9 44       		.byte	0x44
 19174 69aa 3B       		.byte	0x3b
 19175 69ab 3E       		.uleb128 0x3e
 19176 69ac 15040000 		.4byte	.LASF967
 19177 69b0 15040000 		.4byte	.LASF967
 19178 69b4 46       		.byte	0x46
 19179 69b5 0B       		.byte	0xb
 19180 69b6 3E       		.uleb128 0x3e
 19181 69b7 E40A0000 		.4byte	.LASF968
 19182 69bb E40A0000 		.4byte	.LASF968
 19183 69bf 3F       		.byte	0x3f
 19184 69c0 CC       		.byte	0xcc
 19185 69c1 3E       		.uleb128 0x3e
 19186 69c2 EC220000 		.4byte	.LASF969
 19187 69c6 EC220000 		.4byte	.LASF969
 19188 69ca 47       		.byte	0x47
 19189 69cb 22       		.byte	0x22
 19190 69cc 3E       		.uleb128 0x3e
 19191 69cd E4070000 		.4byte	.LASF970
 19192 69d1 E4070000 		.4byte	.LASF970
 19193 69d5 47       		.byte	0x47
 19194 69d6 1D       		.byte	0x1d
 19195 69d7 3E       		.uleb128 0x3e
 19196 69d8 8C1D0000 		.4byte	.LASF971
 19197 69dc 8C1D0000 		.4byte	.LASF971
 19198 69e0 47       		.byte	0x47
 19199 69e1 25       		.byte	0x25
 19200 69e2 3E       		.uleb128 0x3e
 19201 69e3 A9010000 		.4byte	.LASF972
 19202 69e7 A9010000 		.4byte	.LASF972
 19203 69eb 46       		.byte	0x46
 19204 69ec 30       		.byte	0x30
 19205 69ed 3E       		.uleb128 0x3e
 19206 69ee 5B030000 		.4byte	.LASF973
 19207 69f2 5B030000 		.4byte	.LASF973
 19208 69f6 48       		.byte	0x48
 19209 69f7 67       		.byte	0x67
 19210 69f8 3E       		.uleb128 0x3e
 19211 69f9 1E2A0000 		.4byte	.LASF974
 19212 69fd 1E2A0000 		.4byte	.LASF974
 19213 6a01 43       		.byte	0x43
 19214 6a02 3D       		.byte	0x3d
 19215 6a03 3E       		.uleb128 0x3e
 19216 6a04 FB1E0000 		.4byte	.LASF975
 19217 6a08 FB1E0000 		.4byte	.LASF975
 19218 6a0c 43       		.byte	0x43
 19219 6a0d 3E       		.byte	0x3e
 19220 6a0e 3E       		.uleb128 0x3e
 19221 6a0f 5A190000 		.4byte	.LASF976
 19222 6a13 5A190000 		.4byte	.LASF976
 19223 6a17 46       		.byte	0x46
 19224 6a18 27       		.byte	0x27
 19225 6a19 3E       		.uleb128 0x3e
 19226 6a1a 6D050000 		.4byte	.LASF977
 19227 6a1e 6D050000 		.4byte	.LASF977
 19228 6a22 42       		.byte	0x42
ARM GAS  C:\Users\osour\AppData\Local\Temp\ccsBkKuy.s 			page 344


 19229 6a23 27       		.byte	0x27
 19230 6a24 3E       		.uleb128 0x3e
 19231 6a25 E0260000 		.4byte	.LASF978
 19232 6a29 E0260000 		.4byte	.LASF978
 19233 6a2d 49       		.byte	0x49
 19234 6a2e 26       		.byte	0x26
 19235 6a2f 3E       		.uleb128 0x3e
 19236 6a30 0F0A0000 		.4byte	.LASF979
 19237 6a34 0F0A0000 		.4byte	.LASF979
 19238 6a38 43       		.byte	0x43
 19239 6a39 39       		.byte	0x39
 19240 6a3a 3E       		.uleb128 0x3e
 19241 6a3b 721D0000 		.4byte	.LASF980
 19242 6a3f 721D0000 		.4byte	.LASF980
 19243 6a43 43       		.byte	0x43
 19244 6a44 3A       		.byte	0x3a
 19245 6a45 3E       		.uleb128 0x3e
 19246 6a46 FD130000 		.4byte	.LASF981
 19247 6a4a FD130000 		.4byte	.LASF981
 19248 6a4e 3D       		.byte	0x3d
 19249 6a4f 42       		.byte	0x42
 19250 6a50 3E       		.uleb128 0x3e
 19251 6a51 37190000 		.4byte	.LASF982
 19252 6a55 37190000 		.4byte	.LASF982
 19253 6a59 4A       		.byte	0x4a
 19254 6a5a 72       		.byte	0x72
 19255 6a5b 3E       		.uleb128 0x3e
 19256 6a5c 4B0D0000 		.4byte	.LASF983
 19257 6a60 4B0D0000 		.4byte	.LASF983
 19258 6a64 4A       		.byte	0x4a
 19259 6a65 73       		.byte	0x73
 19260 6a66 3E       		.uleb128 0x3e
 19261 6a67 E1040000 		.4byte	.LASF984
 19262 6a6b E1040000 		.4byte	.LASF984
 19263 6a6f 4A       		.byte	0x4a
 19264 6a70 74       		.byte	0x74
 19265 6a71 3E       		.uleb128 0x3e
 19266 6a72 0F160000 		.4byte	.LASF985
 19267 6a76 0F160000 		.4byte	.LASF985
 19268 6a7a 4B       		.byte	0x4b
 19269 6a7b 23       		.byte	0x23
 19270 6a7c 3E       		.uleb128 0x3e
 19271 6a7d F4290000 		.4byte	.LASF986
 19272 6a81 F4290000 		.4byte	.LASF986
 19273 6a85 44       		.byte	0x44
 19274 6a86 46       		.byte	0x46
 19275 6a87 3E       		.uleb128 0x3e
 19276 6a88 A3150000 		.4byte	.LASF987
 19277 6a8c A3150000 		.4byte	.LASF987
 19278 6a90 44       		.byte	0x44
 19279 6a91 47       		.byte	0x47
 19280 6a92 3E       		.uleb128 0x3e
 19281 6a93 50160000 		.4byte	.LASF988
 19282 6a97 50160000 		.4byte	.LASF988
 19283 6a9b 48       		.byte	0x48
 19284 6a9c 68       		.byte	0x68
 19285 6a9d 3E       		.uleb128 0x3e
ARM GAS  C:\Users\osour\AppData\Local\Temp\ccsBkKuy.s 			page 345


 19286 6a9e FA120000 		.4byte	.LASF989
 19287 6aa2 FA120000 		.4byte	.LASF989
 19288 6aa6 3B       		.byte	0x3b
 19289 6aa7 A2       		.byte	0xa2
 19290 6aa8 3E       		.uleb128 0x3e
 19291 6aa9 AE0C0000 		.4byte	.LASF990
 19292 6aad AE0C0000 		.4byte	.LASF990
 19293 6ab1 4C       		.byte	0x4c
 19294 6ab2 0B       		.byte	0xb
 19295 6ab3 3E       		.uleb128 0x3e
 19296 6ab4 D4240000 		.4byte	.LASF991
 19297 6ab8 D4240000 		.4byte	.LASF991
 19298 6abc 4C       		.byte	0x4c
 19299 6abd 0D       		.byte	0xd
 19300 6abe 3E       		.uleb128 0x3e
 19301 6abf 49200000 		.4byte	.LASF992
 19302 6ac3 49200000 		.4byte	.LASF992
 19303 6ac7 41       		.byte	0x41
 19304 6ac8 8A       		.byte	0x8a
 19305 6ac9 3E       		.uleb128 0x3e
 19306 6aca 86010000 		.4byte	.LASF993
 19307 6ace 86010000 		.4byte	.LASF993
 19308 6ad2 41       		.byte	0x41
 19309 6ad3 8F       		.byte	0x8f
 19310 6ad4 3E       		.uleb128 0x3e
 19311 6ad5 39140000 		.4byte	.LASF994
 19312 6ad9 39140000 		.4byte	.LASF994
 19313 6add 48       		.byte	0x48
 19314 6ade 69       		.byte	0x69
 19315 6adf 3E       		.uleb128 0x3e
 19316 6ae0 A9130000 		.4byte	.LASF995
 19317 6ae4 A9130000 		.4byte	.LASF995
 19318 6ae8 3B       		.byte	0x3b
 19319 6ae9 AF       		.byte	0xaf
 19320 6aea 3E       		.uleb128 0x3e
 19321 6aeb 040B0000 		.4byte	.LASF996
 19322 6aef 040B0000 		.4byte	.LASF996
 19323 6af3 43       		.byte	0x43
 19324 6af4 37       		.byte	0x37
 19325 6af5 3E       		.uleb128 0x3e
 19326 6af6 57180000 		.4byte	.LASF997
 19327 6afa 57180000 		.4byte	.LASF997
 19328 6afe 4C       		.byte	0x4c
 19329 6aff 0A       		.byte	0xa
 19330 6b00 3E       		.uleb128 0x3e
 19331 6b01 19080000 		.4byte	.LASF998
 19332 6b05 19080000 		.4byte	.LASF998
 19333 6b09 4D       		.byte	0x4d
 19334 6b0a 24       		.byte	0x24
 19335 6b0b 3E       		.uleb128 0x3e
 19336 6b0c 080E0000 		.4byte	.LASF999
 19337 6b10 080E0000 		.4byte	.LASF999
 19338 6b14 42       		.byte	0x42
 19339 6b15 25       		.byte	0x25
 19340 6b16 3E       		.uleb128 0x3e
 19341 6b17 011E0000 		.4byte	.LASF1000
 19342 6b1b 011E0000 		.4byte	.LASF1000
ARM GAS  C:\Users\osour\AppData\Local\Temp\ccsBkKuy.s 			page 346


 19343 6b1f 4A       		.byte	0x4a
 19344 6b20 6F       		.byte	0x6f
 19345 6b21 3E       		.uleb128 0x3e
 19346 6b22 CE1A0000 		.4byte	.LASF1001
 19347 6b26 CE1A0000 		.4byte	.LASF1001
 19348 6b2a 4E       		.byte	0x4e
 19349 6b2b 12       		.byte	0x12
 19350 6b2c 3E       		.uleb128 0x3e
 19351 6b2d DC020000 		.4byte	.LASF1002
 19352 6b31 DC020000 		.4byte	.LASF1002
 19353 6b35 3D       		.byte	0x3d
 19354 6b36 49       		.byte	0x49
 19355 6b37 3E       		.uleb128 0x3e
 19356 6b38 90160000 		.4byte	.LASF1003
 19357 6b3c 90160000 		.4byte	.LASF1003
 19358 6b40 41       		.byte	0x41
 19359 6b41 6B       		.byte	0x6b
 19360 6b42 3E       		.uleb128 0x3e
 19361 6b43 0D240000 		.4byte	.LASF1004
 19362 6b47 0D240000 		.4byte	.LASF1004
 19363 6b4b 41       		.byte	0x41
 19364 6b4c 84       		.byte	0x84
 19365 6b4d 3E       		.uleb128 0x3e
 19366 6b4e 8D250000 		.4byte	.LASF1005
 19367 6b52 8D250000 		.4byte	.LASF1005
 19368 6b56 4F       		.byte	0x4f
 19369 6b57 3E       		.byte	0x3e
 19370 6b58 3E       		.uleb128 0x3e
 19371 6b59 961E0000 		.4byte	.LASF1006
 19372 6b5d 961E0000 		.4byte	.LASF1006
 19373 6b61 47       		.byte	0x47
 19374 6b62 27       		.byte	0x27
 19375 6b63 3E       		.uleb128 0x3e
 19376 6b64 F4040000 		.4byte	.LASF1007
 19377 6b68 F4040000 		.4byte	.LASF1007
 19378 6b6c 4D       		.byte	0x4d
 19379 6b6d 30       		.byte	0x30
 19380 6b6e 3E       		.uleb128 0x3e
 19381 6b6f 4E1C0000 		.4byte	.LASF1008
 19382 6b73 4E1C0000 		.4byte	.LASF1008
 19383 6b77 50       		.byte	0x50
 19384 6b78 08       		.byte	0x8
 19385 6b79 3E       		.uleb128 0x3e
 19386 6b7a 89000000 		.4byte	.LASF1009
 19387 6b7e 89000000 		.4byte	.LASF1009
 19388 6b82 51       		.byte	0x51
 19389 6b83 51       		.byte	0x51
 19390 6b84 3E       		.uleb128 0x3e
 19391 6b85 CA220000 		.4byte	.LASF1010
 19392 6b89 CA220000 		.4byte	.LASF1010
 19393 6b8d 3E       		.byte	0x3e
 19394 6b8e 12       		.byte	0x12
 19395 6b8f 3E       		.uleb128 0x3e
 19396 6b90 96010000 		.4byte	.LASF1011
 19397 6b94 96010000 		.4byte	.LASF1011
 19398 6b98 3D       		.byte	0x3d
 19399 6b99 4F       		.byte	0x4f
ARM GAS  C:\Users\osour\AppData\Local\Temp\ccsBkKuy.s 			page 347


 19400 6b9a 3E       		.uleb128 0x3e
 19401 6b9b 7B0F0000 		.4byte	.LASF1012
 19402 6b9f 7B0F0000 		.4byte	.LASF1012
 19403 6ba3 47       		.byte	0x47
 19404 6ba4 29       		.byte	0x29
 19405 6ba5 3E       		.uleb128 0x3e
 19406 6ba6 7F180000 		.4byte	.LASF1013
 19407 6baa 7F180000 		.4byte	.LASF1013
 19408 6bae 52       		.byte	0x52
 19409 6baf 6E       		.byte	0x6e
 19410 6bb0 3F       		.uleb128 0x3f
 19411 6bb1 1A050000 		.4byte	.LASF1018
 19412 6bb5 6C210000 		.4byte	.LASF1019
 19413 6bb9 53       		.byte	0x53
 19414 6bba 00       		.byte	0
 19415 6bbb 1A050000 		.4byte	.LASF1018
 19416 6bbf 00       		.byte	0
 19417              		.section	.debug_abbrev,"",%progbits
 19418              	.Ldebug_abbrev0:
 19419 0000 01       		.uleb128 0x1
 19420 0001 11       		.uleb128 0x11
 19421 0002 01       		.byte	0x1
 19422 0003 25       		.uleb128 0x25
 19423 0004 0E       		.uleb128 0xe
 19424 0005 13       		.uleb128 0x13
 19425 0006 0B       		.uleb128 0xb
 19426 0007 03       		.uleb128 0x3
 19427 0008 0E       		.uleb128 0xe
 19428 0009 1B       		.uleb128 0x1b
 19429 000a 0E       		.uleb128 0xe
 19430 000b 55       		.uleb128 0x55
 19431 000c 17       		.uleb128 0x17
 19432 000d 11       		.uleb128 0x11
 19433 000e 01       		.uleb128 0x1
 19434 000f 10       		.uleb128 0x10
 19435 0010 17       		.uleb128 0x17
 19436 0011 00       		.byte	0
 19437 0012 00       		.byte	0
 19438 0013 02       		.uleb128 0x2
 19439 0014 16       		.uleb128 0x16
 19440 0015 00       		.byte	0
 19441 0016 03       		.uleb128 0x3
 19442 0017 0E       		.uleb128 0xe
 19443 0018 3A       		.uleb128 0x3a
 19444 0019 0B       		.uleb128 0xb
 19445 001a 3B       		.uleb128 0x3b
 19446 001b 0B       		.uleb128 0xb
 19447 001c 49       		.uleb128 0x49
 19448 001d 13       		.uleb128 0x13
 19449 001e 00       		.byte	0
 19450 001f 00       		.byte	0
 19451 0020 03       		.uleb128 0x3
 19452 0021 24       		.uleb128 0x24
 19453 0022 00       		.byte	0
 19454 0023 0B       		.uleb128 0xb
 19455 0024 0B       		.uleb128 0xb
 19456 0025 3E       		.uleb128 0x3e
ARM GAS  C:\Users\osour\AppData\Local\Temp\ccsBkKuy.s 			page 348


 19457 0026 0B       		.uleb128 0xb
 19458 0027 03       		.uleb128 0x3
 19459 0028 0E       		.uleb128 0xe
 19460 0029 00       		.byte	0
 19461 002a 00       		.byte	0
 19462 002b 04       		.uleb128 0x4
 19463 002c 24       		.uleb128 0x24
 19464 002d 00       		.byte	0
 19465 002e 0B       		.uleb128 0xb
 19466 002f 0B       		.uleb128 0xb
 19467 0030 3E       		.uleb128 0x3e
 19468 0031 0B       		.uleb128 0xb
 19469 0032 03       		.uleb128 0x3
 19470 0033 08       		.uleb128 0x8
 19471 0034 00       		.byte	0
 19472 0035 00       		.byte	0
 19473 0036 05       		.uleb128 0x5
 19474 0037 26       		.uleb128 0x26
 19475 0038 00       		.byte	0
 19476 0039 49       		.uleb128 0x49
 19477 003a 13       		.uleb128 0x13
 19478 003b 00       		.byte	0
 19479 003c 00       		.byte	0
 19480 003d 06       		.uleb128 0x6
 19481 003e 35       		.uleb128 0x35
 19482 003f 00       		.byte	0
 19483 0040 49       		.uleb128 0x49
 19484 0041 13       		.uleb128 0x13
 19485 0042 00       		.byte	0
 19486 0043 00       		.byte	0
 19487 0044 07       		.uleb128 0x7
 19488 0045 13       		.uleb128 0x13
 19489 0046 01       		.byte	0x1
 19490 0047 03       		.uleb128 0x3
 19491 0048 0E       		.uleb128 0xe
 19492 0049 0B       		.uleb128 0xb
 19493 004a 0B       		.uleb128 0xb
 19494 004b 3A       		.uleb128 0x3a
 19495 004c 0B       		.uleb128 0xb
 19496 004d 3B       		.uleb128 0x3b
 19497 004e 0B       		.uleb128 0xb
 19498 004f 01       		.uleb128 0x1
 19499 0050 13       		.uleb128 0x13
 19500 0051 00       		.byte	0
 19501 0052 00       		.byte	0
 19502 0053 08       		.uleb128 0x8
 19503 0054 0D       		.uleb128 0xd
 19504 0055 00       		.byte	0
 19505 0056 03       		.uleb128 0x3
 19506 0057 0E       		.uleb128 0xe
 19507 0058 3A       		.uleb128 0x3a
 19508 0059 0B       		.uleb128 0xb
 19509 005a 3B       		.uleb128 0x3b
 19510 005b 0B       		.uleb128 0xb
 19511 005c 49       		.uleb128 0x49
 19512 005d 13       		.uleb128 0x13
 19513 005e 38       		.uleb128 0x38
ARM GAS  C:\Users\osour\AppData\Local\Temp\ccsBkKuy.s 			page 349


 19514 005f 0B       		.uleb128 0xb
 19515 0060 00       		.byte	0
 19516 0061 00       		.byte	0
 19517 0062 09       		.uleb128 0x9
 19518 0063 0D       		.uleb128 0xd
 19519 0064 00       		.byte	0
 19520 0065 03       		.uleb128 0x3
 19521 0066 08       		.uleb128 0x8
 19522 0067 3A       		.uleb128 0x3a
 19523 0068 0B       		.uleb128 0xb
 19524 0069 3B       		.uleb128 0x3b
 19525 006a 05       		.uleb128 0x5
 19526 006b 49       		.uleb128 0x49
 19527 006c 13       		.uleb128 0x13
 19528 006d 38       		.uleb128 0x38
 19529 006e 0B       		.uleb128 0xb
 19530 006f 00       		.byte	0
 19531 0070 00       		.byte	0
 19532 0071 0A       		.uleb128 0xa
 19533 0072 0D       		.uleb128 0xd
 19534 0073 00       		.byte	0
 19535 0074 03       		.uleb128 0x3
 19536 0075 0E       		.uleb128 0xe
 19537 0076 3A       		.uleb128 0x3a
 19538 0077 0B       		.uleb128 0xb
 19539 0078 3B       		.uleb128 0x3b
 19540 0079 05       		.uleb128 0x5
 19541 007a 49       		.uleb128 0x49
 19542 007b 13       		.uleb128 0x13
 19543 007c 38       		.uleb128 0x38
 19544 007d 0B       		.uleb128 0xb
 19545 007e 00       		.byte	0
 19546 007f 00       		.byte	0
 19547 0080 0B       		.uleb128 0xb
 19548 0081 0F       		.uleb128 0xf
 19549 0082 00       		.byte	0
 19550 0083 0B       		.uleb128 0xb
 19551 0084 0B       		.uleb128 0xb
 19552 0085 49       		.uleb128 0x49
 19553 0086 13       		.uleb128 0x13
 19554 0087 00       		.byte	0
 19555 0088 00       		.byte	0
 19556 0089 0C       		.uleb128 0xc
 19557 008a 13       		.uleb128 0x13
 19558 008b 01       		.byte	0x1
 19559 008c 03       		.uleb128 0x3
 19560 008d 0E       		.uleb128 0xe
 19561 008e 0B       		.uleb128 0xb
 19562 008f 0B       		.uleb128 0xb
 19563 0090 3A       		.uleb128 0x3a
 19564 0091 0B       		.uleb128 0xb
 19565 0092 3B       		.uleb128 0x3b
 19566 0093 05       		.uleb128 0x5
 19567 0094 01       		.uleb128 0x1
 19568 0095 13       		.uleb128 0x13
 19569 0096 00       		.byte	0
 19570 0097 00       		.byte	0
ARM GAS  C:\Users\osour\AppData\Local\Temp\ccsBkKuy.s 			page 350


 19571 0098 0D       		.uleb128 0xd
 19572 0099 15       		.uleb128 0x15
 19573 009a 01       		.byte	0x1
 19574 009b 27       		.uleb128 0x27
 19575 009c 19       		.uleb128 0x19
 19576 009d 01       		.uleb128 0x1
 19577 009e 13       		.uleb128 0x13
 19578 009f 00       		.byte	0
 19579 00a0 00       		.byte	0
 19580 00a1 0E       		.uleb128 0xe
 19581 00a2 05       		.uleb128 0x5
 19582 00a3 00       		.byte	0
 19583 00a4 49       		.uleb128 0x49
 19584 00a5 13       		.uleb128 0x13
 19585 00a6 00       		.byte	0
 19586 00a7 00       		.byte	0
 19587 00a8 0F       		.uleb128 0xf
 19588 00a9 0F       		.uleb128 0xf
 19589 00aa 00       		.byte	0
 19590 00ab 0B       		.uleb128 0xb
 19591 00ac 0B       		.uleb128 0xb
 19592 00ad 00       		.byte	0
 19593 00ae 00       		.byte	0
 19594 00af 10       		.uleb128 0x10
 19595 00b0 13       		.uleb128 0x13
 19596 00b1 01       		.byte	0x1
 19597 00b2 03       		.uleb128 0x3
 19598 00b3 0E       		.uleb128 0xe
 19599 00b4 0B       		.uleb128 0xb
 19600 00b5 05       		.uleb128 0x5
 19601 00b6 3A       		.uleb128 0x3a
 19602 00b7 0B       		.uleb128 0xb
 19603 00b8 3B       		.uleb128 0x3b
 19604 00b9 05       		.uleb128 0x5
 19605 00ba 01       		.uleb128 0x1
 19606 00bb 13       		.uleb128 0x13
 19607 00bc 00       		.byte	0
 19608 00bd 00       		.byte	0
 19609 00be 11       		.uleb128 0x11
 19610 00bf 0D       		.uleb128 0xd
 19611 00c0 00       		.byte	0
 19612 00c1 03       		.uleb128 0x3
 19613 00c2 0E       		.uleb128 0xe
 19614 00c3 3A       		.uleb128 0x3a
 19615 00c4 0B       		.uleb128 0xb
 19616 00c5 3B       		.uleb128 0x3b
 19617 00c6 05       		.uleb128 0x5
 19618 00c7 49       		.uleb128 0x49
 19619 00c8 13       		.uleb128 0x13
 19620 00c9 38       		.uleb128 0x38
 19621 00ca 05       		.uleb128 0x5
 19622 00cb 00       		.byte	0
 19623 00cc 00       		.byte	0
 19624 00cd 12       		.uleb128 0x12
 19625 00ce 0D       		.uleb128 0xd
 19626 00cf 00       		.byte	0
 19627 00d0 03       		.uleb128 0x3
ARM GAS  C:\Users\osour\AppData\Local\Temp\ccsBkKuy.s 			page 351


 19628 00d1 08       		.uleb128 0x8
 19629 00d2 3A       		.uleb128 0x3a
 19630 00d3 0B       		.uleb128 0xb
 19631 00d4 3B       		.uleb128 0x3b
 19632 00d5 05       		.uleb128 0x5
 19633 00d6 49       		.uleb128 0x49
 19634 00d7 13       		.uleb128 0x13
 19635 00d8 38       		.uleb128 0x38
 19636 00d9 05       		.uleb128 0x5
 19637 00da 00       		.byte	0
 19638 00db 00       		.byte	0
 19639 00dc 13       		.uleb128 0x13
 19640 00dd 01       		.uleb128 0x1
 19641 00de 01       		.byte	0x1
 19642 00df 49       		.uleb128 0x49
 19643 00e0 13       		.uleb128 0x13
 19644 00e1 01       		.uleb128 0x1
 19645 00e2 13       		.uleb128 0x13
 19646 00e3 00       		.byte	0
 19647 00e4 00       		.byte	0
 19648 00e5 14       		.uleb128 0x14
 19649 00e6 21       		.uleb128 0x21
 19650 00e7 00       		.byte	0
 19651 00e8 49       		.uleb128 0x49
 19652 00e9 13       		.uleb128 0x13
 19653 00ea 2F       		.uleb128 0x2f
 19654 00eb 0B       		.uleb128 0xb
 19655 00ec 00       		.byte	0
 19656 00ed 00       		.byte	0
 19657 00ee 15       		.uleb128 0x15
 19658 00ef 34       		.uleb128 0x34
 19659 00f0 00       		.byte	0
 19660 00f1 03       		.uleb128 0x3
 19661 00f2 0E       		.uleb128 0xe
 19662 00f3 3A       		.uleb128 0x3a
 19663 00f4 0B       		.uleb128 0xb
 19664 00f5 3B       		.uleb128 0x3b
 19665 00f6 05       		.uleb128 0x5
 19666 00f7 49       		.uleb128 0x49
 19667 00f8 13       		.uleb128 0x13
 19668 00f9 3F       		.uleb128 0x3f
 19669 00fa 19       		.uleb128 0x19
 19670 00fb 3C       		.uleb128 0x3c
 19671 00fc 19       		.uleb128 0x19
 19672 00fd 00       		.byte	0
 19673 00fe 00       		.byte	0
 19674 00ff 16       		.uleb128 0x16
 19675 0100 34       		.uleb128 0x34
 19676 0101 00       		.byte	0
 19677 0102 03       		.uleb128 0x3
 19678 0103 0E       		.uleb128 0xe
 19679 0104 3A       		.uleb128 0x3a
 19680 0105 0B       		.uleb128 0xb
 19681 0106 3B       		.uleb128 0x3b
 19682 0107 0B       		.uleb128 0xb
 19683 0108 49       		.uleb128 0x49
 19684 0109 13       		.uleb128 0x13
ARM GAS  C:\Users\osour\AppData\Local\Temp\ccsBkKuy.s 			page 352


 19685 010a 3F       		.uleb128 0x3f
 19686 010b 19       		.uleb128 0x19
 19687 010c 3C       		.uleb128 0x3c
 19688 010d 19       		.uleb128 0x19
 19689 010e 00       		.byte	0
 19690 010f 00       		.byte	0
 19691 0110 17       		.uleb128 0x17
 19692 0111 13       		.uleb128 0x13
 19693 0112 01       		.byte	0x1
 19694 0113 0B       		.uleb128 0xb
 19695 0114 0B       		.uleb128 0xb
 19696 0115 3A       		.uleb128 0x3a
 19697 0116 0B       		.uleb128 0xb
 19698 0117 3B       		.uleb128 0x3b
 19699 0118 0B       		.uleb128 0xb
 19700 0119 01       		.uleb128 0x1
 19701 011a 13       		.uleb128 0x13
 19702 011b 00       		.byte	0
 19703 011c 00       		.byte	0
 19704 011d 18       		.uleb128 0x18
 19705 011e 0D       		.uleb128 0xd
 19706 011f 00       		.byte	0
 19707 0120 03       		.uleb128 0x3
 19708 0121 08       		.uleb128 0x8
 19709 0122 3A       		.uleb128 0x3a
 19710 0123 0B       		.uleb128 0xb
 19711 0124 3B       		.uleb128 0x3b
 19712 0125 0B       		.uleb128 0xb
 19713 0126 49       		.uleb128 0x49
 19714 0127 13       		.uleb128 0x13
 19715 0128 38       		.uleb128 0x38
 19716 0129 0B       		.uleb128 0xb
 19717 012a 00       		.byte	0
 19718 012b 00       		.byte	0
 19719 012c 19       		.uleb128 0x19
 19720 012d 13       		.uleb128 0x13
 19721 012e 01       		.byte	0x1
 19722 012f 0B       		.uleb128 0xb
 19723 0130 0B       		.uleb128 0xb
 19724 0131 3A       		.uleb128 0x3a
 19725 0132 0B       		.uleb128 0xb
 19726 0133 3B       		.uleb128 0x3b
 19727 0134 05       		.uleb128 0x5
 19728 0135 01       		.uleb128 0x1
 19729 0136 13       		.uleb128 0x13
 19730 0137 00       		.byte	0
 19731 0138 00       		.byte	0
 19732 0139 1A       		.uleb128 0x1a
 19733 013a 16       		.uleb128 0x16
 19734 013b 00       		.byte	0
 19735 013c 03       		.uleb128 0x3
 19736 013d 0E       		.uleb128 0xe
 19737 013e 3A       		.uleb128 0x3a
 19738 013f 0B       		.uleb128 0xb
 19739 0140 3B       		.uleb128 0x3b
 19740 0141 05       		.uleb128 0x5
 19741 0142 49       		.uleb128 0x49
ARM GAS  C:\Users\osour\AppData\Local\Temp\ccsBkKuy.s 			page 353


 19742 0143 13       		.uleb128 0x13
 19743 0144 00       		.byte	0
 19744 0145 00       		.byte	0
 19745 0146 1B       		.uleb128 0x1b
 19746 0147 13       		.uleb128 0x13
 19747 0148 01       		.byte	0x1
 19748 0149 0B       		.uleb128 0xb
 19749 014a 05       		.uleb128 0x5
 19750 014b 3A       		.uleb128 0x3a
 19751 014c 0B       		.uleb128 0xb
 19752 014d 3B       		.uleb128 0x3b
 19753 014e 05       		.uleb128 0x5
 19754 014f 01       		.uleb128 0x1
 19755 0150 13       		.uleb128 0x13
 19756 0151 00       		.byte	0
 19757 0152 00       		.byte	0
 19758 0153 1C       		.uleb128 0x1c
 19759 0154 13       		.uleb128 0x13
 19760 0155 01       		.byte	0x1
 19761 0156 0B       		.uleb128 0xb
 19762 0157 05       		.uleb128 0x5
 19763 0158 3A       		.uleb128 0x3a
 19764 0159 0B       		.uleb128 0xb
 19765 015a 3B       		.uleb128 0x3b
 19766 015b 0B       		.uleb128 0xb
 19767 015c 01       		.uleb128 0x1
 19768 015d 13       		.uleb128 0x13
 19769 015e 00       		.byte	0
 19770 015f 00       		.byte	0
 19771 0160 1D       		.uleb128 0x1d
 19772 0161 17       		.uleb128 0x17
 19773 0162 01       		.byte	0x1
 19774 0163 0B       		.uleb128 0xb
 19775 0164 0B       		.uleb128 0xb
 19776 0165 3A       		.uleb128 0x3a
 19777 0166 0B       		.uleb128 0xb
 19778 0167 3B       		.uleb128 0x3b
 19779 0168 0B       		.uleb128 0xb
 19780 0169 01       		.uleb128 0x1
 19781 016a 13       		.uleb128 0x13
 19782 016b 00       		.byte	0
 19783 016c 00       		.byte	0
 19784 016d 1E       		.uleb128 0x1e
 19785 016e 0D       		.uleb128 0xd
 19786 016f 00       		.byte	0
 19787 0170 03       		.uleb128 0x3
 19788 0171 0E       		.uleb128 0xe
 19789 0172 3A       		.uleb128 0x3a
 19790 0173 0B       		.uleb128 0xb
 19791 0174 3B       		.uleb128 0x3b
 19792 0175 05       		.uleb128 0x5
 19793 0176 49       		.uleb128 0x49
 19794 0177 13       		.uleb128 0x13
 19795 0178 00       		.byte	0
 19796 0179 00       		.byte	0
 19797 017a 1F       		.uleb128 0x1f
 19798 017b 34       		.uleb128 0x34
ARM GAS  C:\Users\osour\AppData\Local\Temp\ccsBkKuy.s 			page 354


 19799 017c 00       		.byte	0
 19800 017d 03       		.uleb128 0x3
 19801 017e 08       		.uleb128 0x8
 19802 017f 3A       		.uleb128 0x3a
 19803 0180 0B       		.uleb128 0xb
 19804 0181 3B       		.uleb128 0x3b
 19805 0182 05       		.uleb128 0x5
 19806 0183 49       		.uleb128 0x49
 19807 0184 13       		.uleb128 0x13
 19808 0185 3F       		.uleb128 0x3f
 19809 0186 19       		.uleb128 0x19
 19810 0187 3C       		.uleb128 0x3c
 19811 0188 19       		.uleb128 0x19
 19812 0189 00       		.byte	0
 19813 018a 00       		.byte	0
 19814 018b 20       		.uleb128 0x20
 19815 018c 15       		.uleb128 0x15
 19816 018d 01       		.byte	0x1
 19817 018e 27       		.uleb128 0x27
 19818 018f 19       		.uleb128 0x19
 19819 0190 49       		.uleb128 0x49
 19820 0191 13       		.uleb128 0x13
 19821 0192 01       		.uleb128 0x1
 19822 0193 13       		.uleb128 0x13
 19823 0194 00       		.byte	0
 19824 0195 00       		.byte	0
 19825 0196 21       		.uleb128 0x21
 19826 0197 04       		.uleb128 0x4
 19827 0198 01       		.byte	0x1
 19828 0199 3E       		.uleb128 0x3e
 19829 019a 0B       		.uleb128 0xb
 19830 019b 0B       		.uleb128 0xb
 19831 019c 0B       		.uleb128 0xb
 19832 019d 49       		.uleb128 0x49
 19833 019e 13       		.uleb128 0x13
 19834 019f 3A       		.uleb128 0x3a
 19835 01a0 0B       		.uleb128 0xb
 19836 01a1 3B       		.uleb128 0x3b
 19837 01a2 0B       		.uleb128 0xb
 19838 01a3 01       		.uleb128 0x1
 19839 01a4 13       		.uleb128 0x13
 19840 01a5 00       		.byte	0
 19841 01a6 00       		.byte	0
 19842 01a7 22       		.uleb128 0x22
 19843 01a8 28       		.uleb128 0x28
 19844 01a9 00       		.byte	0
 19845 01aa 03       		.uleb128 0x3
 19846 01ab 0E       		.uleb128 0xe
 19847 01ac 1C       		.uleb128 0x1c
 19848 01ad 0B       		.uleb128 0xb
 19849 01ae 00       		.byte	0
 19850 01af 00       		.byte	0
 19851 01b0 23       		.uleb128 0x23
 19852 01b1 0D       		.uleb128 0xd
 19853 01b2 00       		.byte	0
 19854 01b3 03       		.uleb128 0x3
 19855 01b4 08       		.uleb128 0x8
ARM GAS  C:\Users\osour\AppData\Local\Temp\ccsBkKuy.s 			page 355


 19856 01b5 3A       		.uleb128 0x3a
 19857 01b6 0B       		.uleb128 0xb
 19858 01b7 3B       		.uleb128 0x3b
 19859 01b8 0B       		.uleb128 0xb
 19860 01b9 49       		.uleb128 0x49
 19861 01ba 13       		.uleb128 0x13
 19862 01bb 00       		.byte	0
 19863 01bc 00       		.byte	0
 19864 01bd 24       		.uleb128 0x24
 19865 01be 04       		.uleb128 0x4
 19866 01bf 01       		.byte	0x1
 19867 01c0 3E       		.uleb128 0x3e
 19868 01c1 0B       		.uleb128 0xb
 19869 01c2 0B       		.uleb128 0xb
 19870 01c3 0B       		.uleb128 0xb
 19871 01c4 49       		.uleb128 0x49
 19872 01c5 13       		.uleb128 0x13
 19873 01c6 3A       		.uleb128 0x3a
 19874 01c7 0B       		.uleb128 0xb
 19875 01c8 3B       		.uleb128 0x3b
 19876 01c9 05       		.uleb128 0x5
 19877 01ca 01       		.uleb128 0x1
 19878 01cb 13       		.uleb128 0x13
 19879 01cc 00       		.byte	0
 19880 01cd 00       		.byte	0
 19881 01ce 25       		.uleb128 0x25
 19882 01cf 26       		.uleb128 0x26
 19883 01d0 00       		.byte	0
 19884 01d1 00       		.byte	0
 19885 01d2 00       		.byte	0
 19886 01d3 26       		.uleb128 0x26
 19887 01d4 13       		.uleb128 0x13
 19888 01d5 01       		.byte	0x1
 19889 01d6 0B       		.uleb128 0xb
 19890 01d7 06       		.uleb128 0x6
 19891 01d8 3A       		.uleb128 0x3a
 19892 01d9 0B       		.uleb128 0xb
 19893 01da 3B       		.uleb128 0x3b
 19894 01db 0B       		.uleb128 0xb
 19895 01dc 01       		.uleb128 0x1
 19896 01dd 13       		.uleb128 0x13
 19897 01de 00       		.byte	0
 19898 01df 00       		.byte	0
 19899 01e0 27       		.uleb128 0x27
 19900 01e1 0D       		.uleb128 0xd
 19901 01e2 00       		.byte	0
 19902 01e3 03       		.uleb128 0x3
 19903 01e4 0E       		.uleb128 0xe
 19904 01e5 3A       		.uleb128 0x3a
 19905 01e6 0B       		.uleb128 0xb
 19906 01e7 3B       		.uleb128 0x3b
 19907 01e8 0B       		.uleb128 0xb
 19908 01e9 49       		.uleb128 0x49
 19909 01ea 13       		.uleb128 0x13
 19910 01eb 38       		.uleb128 0x38
 19911 01ec 05       		.uleb128 0x5
 19912 01ed 00       		.byte	0
ARM GAS  C:\Users\osour\AppData\Local\Temp\ccsBkKuy.s 			page 356


 19913 01ee 00       		.byte	0
 19914 01ef 28       		.uleb128 0x28
 19915 01f0 0D       		.uleb128 0xd
 19916 01f1 00       		.byte	0
 19917 01f2 03       		.uleb128 0x3
 19918 01f3 08       		.uleb128 0x8
 19919 01f4 3A       		.uleb128 0x3a
 19920 01f5 0B       		.uleb128 0xb
 19921 01f6 3B       		.uleb128 0x3b
 19922 01f7 0B       		.uleb128 0xb
 19923 01f8 49       		.uleb128 0x49
 19924 01f9 13       		.uleb128 0x13
 19925 01fa 38       		.uleb128 0x38
 19926 01fb 05       		.uleb128 0x5
 19927 01fc 00       		.byte	0
 19928 01fd 00       		.byte	0
 19929 01fe 29       		.uleb128 0x29
 19930 01ff 21       		.uleb128 0x21
 19931 0200 00       		.byte	0
 19932 0201 49       		.uleb128 0x49
 19933 0202 13       		.uleb128 0x13
 19934 0203 2F       		.uleb128 0x2f
 19935 0204 05       		.uleb128 0x5
 19936 0205 00       		.byte	0
 19937 0206 00       		.byte	0
 19938 0207 2A       		.uleb128 0x2a
 19939 0208 0D       		.uleb128 0xd
 19940 0209 00       		.byte	0
 19941 020a 03       		.uleb128 0x3
 19942 020b 0E       		.uleb128 0xe
 19943 020c 3A       		.uleb128 0x3a
 19944 020d 0B       		.uleb128 0xb
 19945 020e 3B       		.uleb128 0x3b
 19946 020f 0B       		.uleb128 0xb
 19947 0210 49       		.uleb128 0x49
 19948 0211 13       		.uleb128 0x13
 19949 0212 00       		.byte	0
 19950 0213 00       		.byte	0
 19951 0214 2B       		.uleb128 0x2b
 19952 0215 17       		.uleb128 0x17
 19953 0216 01       		.byte	0x1
 19954 0217 0B       		.uleb128 0xb
 19955 0218 0B       		.uleb128 0xb
 19956 0219 3A       		.uleb128 0x3a
 19957 021a 0B       		.uleb128 0xb
 19958 021b 3B       		.uleb128 0x3b
 19959 021c 05       		.uleb128 0x5
 19960 021d 01       		.uleb128 0x1
 19961 021e 13       		.uleb128 0x13
 19962 021f 00       		.byte	0
 19963 0220 00       		.byte	0
 19964 0221 2C       		.uleb128 0x2c
 19965 0222 13       		.uleb128 0x13
 19966 0223 00       		.byte	0
 19967 0224 03       		.uleb128 0x3
 19968 0225 0E       		.uleb128 0xe
 19969 0226 3C       		.uleb128 0x3c
ARM GAS  C:\Users\osour\AppData\Local\Temp\ccsBkKuy.s 			page 357


 19970 0227 19       		.uleb128 0x19
 19971 0228 00       		.byte	0
 19972 0229 00       		.byte	0
 19973 022a 2D       		.uleb128 0x2d
 19974 022b 13       		.uleb128 0x13
 19975 022c 01       		.byte	0x1
 19976 022d 03       		.uleb128 0x3
 19977 022e 0E       		.uleb128 0xe
 19978 022f 0B       		.uleb128 0xb
 19979 0230 05       		.uleb128 0x5
 19980 0231 3A       		.uleb128 0x3a
 19981 0232 0B       		.uleb128 0xb
 19982 0233 3B       		.uleb128 0x3b
 19983 0234 0B       		.uleb128 0xb
 19984 0235 01       		.uleb128 0x1
 19985 0236 13       		.uleb128 0x13
 19986 0237 00       		.byte	0
 19987 0238 00       		.byte	0
 19988 0239 2E       		.uleb128 0x2e
 19989 023a 15       		.uleb128 0x15
 19990 023b 00       		.byte	0
 19991 023c 27       		.uleb128 0x27
 19992 023d 19       		.uleb128 0x19
 19993 023e 00       		.byte	0
 19994 023f 00       		.byte	0
 19995 0240 2F       		.uleb128 0x2f
 19996 0241 34       		.uleb128 0x34
 19997 0242 00       		.byte	0
 19998 0243 03       		.uleb128 0x3
 19999 0244 08       		.uleb128 0x8
 20000 0245 3A       		.uleb128 0x3a
 20001 0246 0B       		.uleb128 0xb
 20002 0247 3B       		.uleb128 0x3b
 20003 0248 0B       		.uleb128 0xb
 20004 0249 49       		.uleb128 0x49
 20005 024a 13       		.uleb128 0x13
 20006 024b 3F       		.uleb128 0x3f
 20007 024c 19       		.uleb128 0x19
 20008 024d 3C       		.uleb128 0x3c
 20009 024e 19       		.uleb128 0x19
 20010 024f 00       		.byte	0
 20011 0250 00       		.byte	0
 20012 0251 30       		.uleb128 0x30
 20013 0252 21       		.uleb128 0x21
 20014 0253 00       		.byte	0
 20015 0254 00       		.byte	0
 20016 0255 00       		.byte	0
 20017 0256 31       		.uleb128 0x31
 20018 0257 2E       		.uleb128 0x2e
 20019 0258 01       		.byte	0x1
 20020 0259 3F       		.uleb128 0x3f
 20021 025a 19       		.uleb128 0x19
 20022 025b 03       		.uleb128 0x3
 20023 025c 0E       		.uleb128 0xe
 20024 025d 3A       		.uleb128 0x3a
 20025 025e 0B       		.uleb128 0xb
 20026 025f 3B       		.uleb128 0x3b
ARM GAS  C:\Users\osour\AppData\Local\Temp\ccsBkKuy.s 			page 358


 20027 0260 0B       		.uleb128 0xb
 20028 0261 27       		.uleb128 0x27
 20029 0262 19       		.uleb128 0x19
 20030 0263 49       		.uleb128 0x49
 20031 0264 13       		.uleb128 0x13
 20032 0265 11       		.uleb128 0x11
 20033 0266 01       		.uleb128 0x1
 20034 0267 12       		.uleb128 0x12
 20035 0268 06       		.uleb128 0x6
 20036 0269 40       		.uleb128 0x40
 20037 026a 18       		.uleb128 0x18
 20038 026b 9742     		.uleb128 0x2117
 20039 026d 19       		.uleb128 0x19
 20040 026e 01       		.uleb128 0x1
 20041 026f 13       		.uleb128 0x13
 20042 0270 00       		.byte	0
 20043 0271 00       		.byte	0
 20044 0272 32       		.uleb128 0x32
 20045 0273 34       		.uleb128 0x34
 20046 0274 00       		.byte	0
 20047 0275 03       		.uleb128 0x3
 20048 0276 08       		.uleb128 0x8
 20049 0277 3A       		.uleb128 0x3a
 20050 0278 0B       		.uleb128 0xb
 20051 0279 3B       		.uleb128 0x3b
 20052 027a 0B       		.uleb128 0xb
 20053 027b 49       		.uleb128 0x49
 20054 027c 13       		.uleb128 0x13
 20055 027d 02       		.uleb128 0x2
 20056 027e 18       		.uleb128 0x18
 20057 027f 00       		.byte	0
 20058 0280 00       		.byte	0
 20059 0281 33       		.uleb128 0x33
 20060 0282 34       		.uleb128 0x34
 20061 0283 00       		.byte	0
 20062 0284 03       		.uleb128 0x3
 20063 0285 0E       		.uleb128 0xe
 20064 0286 3A       		.uleb128 0x3a
 20065 0287 0B       		.uleb128 0xb
 20066 0288 3B       		.uleb128 0x3b
 20067 0289 0B       		.uleb128 0xb
 20068 028a 49       		.uleb128 0x49
 20069 028b 13       		.uleb128 0x13
 20070 028c 02       		.uleb128 0x2
 20071 028d 18       		.uleb128 0x18
 20072 028e 00       		.byte	0
 20073 028f 00       		.byte	0
 20074 0290 34       		.uleb128 0x34
 20075 0291 34       		.uleb128 0x34
 20076 0292 00       		.byte	0
 20077 0293 03       		.uleb128 0x3
 20078 0294 08       		.uleb128 0x8
 20079 0295 3A       		.uleb128 0x3a
 20080 0296 0B       		.uleb128 0xb
 20081 0297 3B       		.uleb128 0x3b
 20082 0298 0B       		.uleb128 0xb
 20083 0299 49       		.uleb128 0x49
ARM GAS  C:\Users\osour\AppData\Local\Temp\ccsBkKuy.s 			page 359


 20084 029a 13       		.uleb128 0x13
 20085 029b 00       		.byte	0
 20086 029c 00       		.byte	0
 20087 029d 35       		.uleb128 0x35
 20088 029e 34       		.uleb128 0x34
 20089 029f 00       		.byte	0
 20090 02a0 03       		.uleb128 0x3
 20091 02a1 08       		.uleb128 0x8
 20092 02a2 3A       		.uleb128 0x3a
 20093 02a3 0B       		.uleb128 0xb
 20094 02a4 3B       		.uleb128 0x3b
 20095 02a5 0B       		.uleb128 0xb
 20096 02a6 49       		.uleb128 0x49
 20097 02a7 13       		.uleb128 0x13
 20098 02a8 02       		.uleb128 0x2
 20099 02a9 17       		.uleb128 0x17
 20100 02aa 00       		.byte	0
 20101 02ab 00       		.byte	0
 20102 02ac 36       		.uleb128 0x36
 20103 02ad 34       		.uleb128 0x34
 20104 02ae 00       		.byte	0
 20105 02af 03       		.uleb128 0x3
 20106 02b0 0E       		.uleb128 0xe
 20107 02b1 3A       		.uleb128 0x3a
 20108 02b2 0B       		.uleb128 0xb
 20109 02b3 3B       		.uleb128 0x3b
 20110 02b4 0B       		.uleb128 0xb
 20111 02b5 49       		.uleb128 0x49
 20112 02b6 13       		.uleb128 0x13
 20113 02b7 02       		.uleb128 0x2
 20114 02b8 17       		.uleb128 0x17
 20115 02b9 00       		.byte	0
 20116 02ba 00       		.byte	0
 20117 02bb 37       		.uleb128 0x37
 20118 02bc 0B       		.uleb128 0xb
 20119 02bd 01       		.byte	0x1
 20120 02be 11       		.uleb128 0x11
 20121 02bf 01       		.uleb128 0x1
 20122 02c0 12       		.uleb128 0x12
 20123 02c1 06       		.uleb128 0x6
 20124 02c2 01       		.uleb128 0x1
 20125 02c3 13       		.uleb128 0x13
 20126 02c4 00       		.byte	0
 20127 02c5 00       		.byte	0
 20128 02c6 38       		.uleb128 0x38
 20129 02c7 34       		.uleb128 0x34
 20130 02c8 00       		.byte	0
 20131 02c9 03       		.uleb128 0x3
 20132 02ca 08       		.uleb128 0x8
 20133 02cb 3A       		.uleb128 0x3a
 20134 02cc 0B       		.uleb128 0xb
 20135 02cd 3B       		.uleb128 0x3b
 20136 02ce 05       		.uleb128 0x5
 20137 02cf 49       		.uleb128 0x49
 20138 02d0 13       		.uleb128 0x13
 20139 02d1 02       		.uleb128 0x2
 20140 02d2 17       		.uleb128 0x17
ARM GAS  C:\Users\osour\AppData\Local\Temp\ccsBkKuy.s 			page 360


 20141 02d3 00       		.byte	0
 20142 02d4 00       		.byte	0
 20143 02d5 39       		.uleb128 0x39
 20144 02d6 898201   		.uleb128 0x4109
 20145 02d9 00       		.byte	0
 20146 02da 11       		.uleb128 0x11
 20147 02db 01       		.uleb128 0x1
 20148 02dc 31       		.uleb128 0x31
 20149 02dd 13       		.uleb128 0x13
 20150 02de 00       		.byte	0
 20151 02df 00       		.byte	0
 20152 02e0 3A       		.uleb128 0x3a
 20153 02e1 0B       		.uleb128 0xb
 20154 02e2 01       		.byte	0x1
 20155 02e3 55       		.uleb128 0x55
 20156 02e4 17       		.uleb128 0x17
 20157 02e5 01       		.uleb128 0x1
 20158 02e6 13       		.uleb128 0x13
 20159 02e7 00       		.byte	0
 20160 02e8 00       		.byte	0
 20161 02e9 3B       		.uleb128 0x3b
 20162 02ea 898201   		.uleb128 0x4109
 20163 02ed 01       		.byte	0x1
 20164 02ee 11       		.uleb128 0x11
 20165 02ef 01       		.uleb128 0x1
 20166 02f0 31       		.uleb128 0x31
 20167 02f1 13       		.uleb128 0x13
 20168 02f2 01       		.uleb128 0x1
 20169 02f3 13       		.uleb128 0x13
 20170 02f4 00       		.byte	0
 20171 02f5 00       		.byte	0
 20172 02f6 3C       		.uleb128 0x3c
 20173 02f7 8A8201   		.uleb128 0x410a
 20174 02fa 00       		.byte	0
 20175 02fb 02       		.uleb128 0x2
 20176 02fc 18       		.uleb128 0x18
 20177 02fd 9142     		.uleb128 0x2111
 20178 02ff 18       		.uleb128 0x18
 20179 0300 00       		.byte	0
 20180 0301 00       		.byte	0
 20181 0302 3D       		.uleb128 0x3d
 20182 0303 898201   		.uleb128 0x4109
 20183 0306 01       		.byte	0x1
 20184 0307 11       		.uleb128 0x11
 20185 0308 01       		.uleb128 0x1
 20186 0309 31       		.uleb128 0x31
 20187 030a 13       		.uleb128 0x13
 20188 030b 00       		.byte	0
 20189 030c 00       		.byte	0
 20190 030d 3E       		.uleb128 0x3e
 20191 030e 2E       		.uleb128 0x2e
 20192 030f 00       		.byte	0
 20193 0310 3F       		.uleb128 0x3f
 20194 0311 19       		.uleb128 0x19
 20195 0312 3C       		.uleb128 0x3c
 20196 0313 19       		.uleb128 0x19
 20197 0314 6E       		.uleb128 0x6e
ARM GAS  C:\Users\osour\AppData\Local\Temp\ccsBkKuy.s 			page 361


 20198 0315 0E       		.uleb128 0xe
 20199 0316 03       		.uleb128 0x3
 20200 0317 0E       		.uleb128 0xe
 20201 0318 3A       		.uleb128 0x3a
 20202 0319 0B       		.uleb128 0xb
 20203 031a 3B       		.uleb128 0x3b
 20204 031b 0B       		.uleb128 0xb
 20205 031c 00       		.byte	0
 20206 031d 00       		.byte	0
 20207 031e 3F       		.uleb128 0x3f
 20208 031f 2E       		.uleb128 0x2e
 20209 0320 00       		.byte	0
 20210 0321 3F       		.uleb128 0x3f
 20211 0322 19       		.uleb128 0x19
 20212 0323 3C       		.uleb128 0x3c
 20213 0324 19       		.uleb128 0x19
 20214 0325 6E       		.uleb128 0x6e
 20215 0326 0E       		.uleb128 0xe
 20216 0327 03       		.uleb128 0x3
 20217 0328 0E       		.uleb128 0xe
 20218 0329 3A       		.uleb128 0x3a
 20219 032a 0B       		.uleb128 0xb
 20220 032b 3B       		.uleb128 0x3b
 20221 032c 0B       		.uleb128 0xb
 20222 032d 6E       		.uleb128 0x6e
 20223 032e 0E       		.uleb128 0xe
 20224 032f 00       		.byte	0
 20225 0330 00       		.byte	0
 20226 0331 00       		.byte	0
 20227              		.section	.debug_loc,"",%progbits
 20228              	.Ldebug_loc0:
 20229              	.LLST0:
 20230 0000 BA0A0000 		.4byte	.LVL120
 20231 0004 C60A0000 		.4byte	.LVL121
 20232 0008 0600     		.2byte	0x6
 20233 000a 03       		.byte	0x3
 20234 000b 00000000 		.4byte	accelero.13563
 20235 000f 9F       		.byte	0x9f
 20236 0010 C60A0000 		.4byte	.LVL121
 20237 0014 F00A0000 		.4byte	.LVL122
 20238 0018 0600     		.2byte	0x6
 20239 001a 03       		.byte	0x3
 20240 001b 01000000 		.4byte	accelero.13563+1
 20241 001f 9F       		.byte	0x9f
 20242 0020 F00A0000 		.4byte	.LVL122
 20243 0024 F20A0000 		.4byte	.LVL123
 20244 0028 0600     		.2byte	0x6
 20245 002a 03       		.byte	0x3
 20246 002b 02000000 		.4byte	accelero.13563+2
 20247 002f 9F       		.byte	0x9f
 20248 0030 F20A0000 		.4byte	.LVL123
 20249 0034 F40A0000 		.4byte	.LVL124
 20250 0038 0600     		.2byte	0x6
 20251 003a 03       		.byte	0x3
 20252 003b 03000000 		.4byte	accelero.13563+3
 20253 003f 9F       		.byte	0x9f
 20254 0040 F40A0000 		.4byte	.LVL124
ARM GAS  C:\Users\osour\AppData\Local\Temp\ccsBkKuy.s 			page 362


 20255 0044 F60A0000 		.4byte	.LVL125
 20256 0048 0600     		.2byte	0x6
 20257 004a 03       		.byte	0x3
 20258 004b 0A000000 		.4byte	accelero.13563+10
 20259 004f 9F       		.byte	0x9f
 20260 0050 F60A0000 		.4byte	.LVL125
 20261 0054 FE0A0000 		.4byte	.LVL126
 20262 0058 0600     		.2byte	0x6
 20263 005a 03       		.byte	0x3
 20264 005b 0B000000 		.4byte	accelero.13563+11
 20265 005f 9F       		.byte	0x9f
 20266 0060 00000000 		.4byte	0
 20267 0064 00000000 		.4byte	0
 20268              	.LLST1:
 20269 0068 10000000 		.4byte	.LVL0
 20270 006c DC000000 		.4byte	.LVL15
 20271 0070 0200     		.2byte	0x2
 20272 0072 30       		.byte	0x30
 20273 0073 9F       		.byte	0x9f
 20274 0074 F8000000 		.4byte	.LVL20
 20275 0078 26010000 		.4byte	.LVL22
 20276 007c 0100     		.2byte	0x1
 20277 007e 56       		.byte	0x56
 20278 007f 26010000 		.4byte	.LVL22
 20279 0083 2C010000 		.4byte	.LVL23
 20280 0087 0200     		.2byte	0x2
 20281 0089 30       		.byte	0x30
 20282 008a 9F       		.byte	0x9f
 20283 008b 18020000 		.4byte	.LVL38
 20284 008f 46020000 		.4byte	.LVL40
 20285 0093 0100     		.2byte	0x1
 20286 0095 56       		.byte	0x56
 20287 0096 90020000 		.4byte	.LVL43
 20288 009a 1E040000 		.4byte	.LVL57
 20289 009e 0100     		.2byte	0x1
 20290 00a0 56       		.byte	0x56
 20291 00a1 BE190000 		.4byte	.LVL368
 20292 00a5 6E1A0000 		.4byte	.LVL370
 20293 00a9 0100     		.2byte	0x1
 20294 00ab 56       		.byte	0x56
 20295 00ac C81B0000 		.4byte	.LVL382
 20296 00b0 E41B0000 		.4byte	.LVL386
 20297 00b4 0100     		.2byte	0x1
 20298 00b6 56       		.byte	0x56
 20299 00b7 F6210000 		.4byte	.LVL545
 20300 00bb 94220000 		.4byte	.LFE260
 20301 00bf 0200     		.2byte	0x2
 20302 00c1 30       		.byte	0x30
 20303 00c2 9F       		.byte	0x9f
 20304 00c3 00000000 		.4byte	0
 20305 00c7 00000000 		.4byte	0
 20306              	.LLST2:
 20307 00cb 10000000 		.4byte	.LVL0
 20308 00cf DC000000 		.4byte	.LVL15
 20309 00d3 0200     		.2byte	0x2
 20310 00d5 30       		.byte	0x30
 20311 00d6 9F       		.byte	0x9f
ARM GAS  C:\Users\osour\AppData\Local\Temp\ccsBkKuy.s 			page 363


 20312 00d7 FC000000 		.4byte	.LVL21
 20313 00db 26010000 		.4byte	.LVL22
 20314 00df 0100     		.2byte	0x1
 20315 00e1 50       		.byte	0x50
 20316 00e2 26010000 		.4byte	.LVL22
 20317 00e6 2C010000 		.4byte	.LVL23
 20318 00ea 0200     		.2byte	0x2
 20319 00ec 30       		.byte	0x30
 20320 00ed 9F       		.byte	0x9f
 20321 00ee 1C020000 		.4byte	.LVL39
 20322 00f2 46020000 		.4byte	.LVL40
 20323 00f6 0100     		.2byte	0x1
 20324 00f8 50       		.byte	0x50
 20325 00f9 90020000 		.4byte	.LVL43
 20326 00fd 9E020000 		.4byte	.LVL44
 20327 0101 0100     		.2byte	0x1
 20328 0103 50       		.byte	0x50
 20329 0104 B0020000 		.4byte	.LVL47
 20330 0108 6A030000 		.4byte	.LVL48
 20331 010c 0100     		.2byte	0x1
 20332 010e 50       		.byte	0x50
 20333 010f 7C030000 		.4byte	.LVL50
 20334 0113 8A030000 		.4byte	.LVL51
 20335 0117 0100     		.2byte	0x1
 20336 0119 50       		.byte	0x50
 20337 011a 9C030000 		.4byte	.LVL54
 20338 011e 0C040000 		.4byte	.LVL55
 20339 0122 0100     		.2byte	0x1
 20340 0124 50       		.byte	0x50
 20341 0125 BE190000 		.4byte	.LVL368
 20342 0129 6E1A0000 		.4byte	.LVL370
 20343 012d 0100     		.2byte	0x1
 20344 012f 50       		.byte	0x50
 20345 0130 C81B0000 		.4byte	.LVL382
 20346 0134 CB1B0000 		.4byte	.LVL383-1
 20347 0138 0100     		.2byte	0x1
 20348 013a 50       		.byte	0x50
 20349 013b D61B0000 		.4byte	.LVL384
 20350 013f D91B0000 		.4byte	.LVL385-1
 20351 0143 0100     		.2byte	0x1
 20352 0145 50       		.byte	0x50
 20353 0146 F6210000 		.4byte	.LVL545
 20354 014a 94220000 		.4byte	.LFE260
 20355 014e 0200     		.2byte	0x2
 20356 0150 30       		.byte	0x30
 20357 0151 9F       		.byte	0x9f
 20358 0152 00000000 		.4byte	0
 20359 0156 00000000 		.4byte	0
 20360              	.LLST3:
 20361 015a 10000000 		.4byte	.LVL0
 20362 015e DC000000 		.4byte	.LVL15
 20363 0162 0200     		.2byte	0x2
 20364 0164 30       		.byte	0x30
 20365 0165 9F       		.byte	0x9f
 20366 0166 DC000000 		.4byte	.LVL15
 20367 016a 26010000 		.4byte	.LVL22
 20368 016e 0300     		.2byte	0x3
ARM GAS  C:\Users\osour\AppData\Local\Temp\ccsBkKuy.s 			page 364


 20369 0170 91       		.byte	0x91
 20370 0171 907F     		.sleb128 -112
 20371 0173 26010000 		.4byte	.LVL22
 20372 0177 2C010000 		.4byte	.LVL23
 20373 017b 0200     		.2byte	0x2
 20374 017d 30       		.byte	0x30
 20375 017e 9F       		.byte	0x9f
 20376 017f 2C010000 		.4byte	.LVL23
 20377 0183 9E020000 		.4byte	.LVL44
 20378 0187 0300     		.2byte	0x3
 20379 0189 91       		.byte	0x91
 20380 018a 907F     		.sleb128 -112
 20381 018c 9E020000 		.4byte	.LVL44
 20382 0190 B0020000 		.4byte	.LVL47
 20383 0194 0100     		.2byte	0x1
 20384 0196 56       		.byte	0x56
 20385 0197 B0020000 		.4byte	.LVL47
 20386 019b 8A030000 		.4byte	.LVL51
 20387 019f 0300     		.2byte	0x3
 20388 01a1 91       		.byte	0x91
 20389 01a2 907F     		.sleb128 -112
 20390 01a4 8A030000 		.4byte	.LVL51
 20391 01a8 9C030000 		.4byte	.LVL54
 20392 01ac 0100     		.2byte	0x1
 20393 01ae 56       		.byte	0x56
 20394 01af 9C030000 		.4byte	.LVL54
 20395 01b3 F6210000 		.4byte	.LVL545
 20396 01b7 0300     		.2byte	0x3
 20397 01b9 91       		.byte	0x91
 20398 01ba 907F     		.sleb128 -112
 20399 01bc F6210000 		.4byte	.LVL545
 20400 01c0 94220000 		.4byte	.LFE260
 20401 01c4 0200     		.2byte	0x2
 20402 01c6 30       		.byte	0x30
 20403 01c7 9F       		.byte	0x9f
 20404 01c8 00000000 		.4byte	0
 20405 01cc 00000000 		.4byte	0
 20406              	.LLST4:
 20407 01d0 10000000 		.4byte	.LVL0
 20408 01d4 2C000000 		.4byte	.LVL3
 20409 01d8 0200     		.2byte	0x2
 20410 01da 30       		.byte	0x30
 20411 01db 9F       		.byte	0x9f
 20412 01dc 2C000000 		.4byte	.LVL3
 20413 01e0 C6000000 		.4byte	.LVL14
 20414 01e4 0300     		.2byte	0x3
 20415 01e6 91       		.byte	0x91
 20416 01e7 947F     		.sleb128 -108
 20417 01e9 26010000 		.4byte	.LVL22
 20418 01ed 2C010000 		.4byte	.LVL23
 20419 01f1 0200     		.2byte	0x2
 20420 01f3 30       		.byte	0x30
 20421 01f4 9F       		.byte	0x9f
 20422 01f5 F6210000 		.4byte	.LVL545
 20423 01f9 02220000 		.4byte	.LVL547
 20424 01fd 0300     		.2byte	0x3
 20425 01ff 91       		.byte	0x91
ARM GAS  C:\Users\osour\AppData\Local\Temp\ccsBkKuy.s 			page 365


 20426 0200 947F     		.sleb128 -108
 20427 0202 12220000 		.4byte	.LVL549
 20428 0206 94220000 		.4byte	.LFE260
 20429 020a 0200     		.2byte	0x2
 20430 020c 30       		.byte	0x30
 20431 020d 9F       		.byte	0x9f
 20432 020e 00000000 		.4byte	0
 20433 0212 00000000 		.4byte	0
 20434              	.LLST5:
 20435 0216 10000000 		.4byte	.LVL0
 20436 021a DC000000 		.4byte	.LVL15
 20437 021e 0200     		.2byte	0x2
 20438 0220 30       		.byte	0x30
 20439 0221 9F       		.byte	0x9f
 20440 0222 26010000 		.4byte	.LVL22
 20441 0226 2C010000 		.4byte	.LVL23
 20442 022a 0200     		.2byte	0x2
 20443 022c 30       		.byte	0x30
 20444 022d 9F       		.byte	0x9f
 20445 022e 10080000 		.4byte	.LVL88
 20446 0232 50080000 		.4byte	.LVL89
 20447 0236 0100     		.2byte	0x1
 20448 0238 50       		.byte	0x50
 20449 0239 F6210000 		.4byte	.LVL545
 20450 023d 94220000 		.4byte	.LFE260
 20451 0241 0200     		.2byte	0x2
 20452 0243 30       		.byte	0x30
 20453 0244 9F       		.byte	0x9f
 20454 0245 00000000 		.4byte	0
 20455 0249 00000000 		.4byte	0
 20456              	.LLST6:
 20457 024d 10000000 		.4byte	.LVL0
 20458 0251 C6000000 		.4byte	.LVL14
 20459 0255 0200     		.2byte	0x2
 20460 0257 30       		.byte	0x30
 20461 0258 9F       		.byte	0x9f
 20462 0259 26010000 		.4byte	.LVL22
 20463 025d 2C010000 		.4byte	.LVL23
 20464 0261 0200     		.2byte	0x2
 20465 0263 30       		.byte	0x30
 20466 0264 9F       		.byte	0x9f
 20467 0265 F6210000 		.4byte	.LVL545
 20468 0269 12220000 		.4byte	.LVL549
 20469 026d 0200     		.2byte	0x2
 20470 026f 30       		.byte	0x30
 20471 0270 9F       		.byte	0x9f
 20472 0271 12220000 		.4byte	.LVL549
 20473 0275 94220000 		.4byte	.LFE260
 20474 0279 0200     		.2byte	0x2
 20475 027b 31       		.byte	0x31
 20476 027c 9F       		.byte	0x9f
 20477 027d 00000000 		.4byte	0
 20478 0281 00000000 		.4byte	0
 20479              	.LLST7:
 20480 0285 10000000 		.4byte	.LVL0
 20481 0289 DC000000 		.4byte	.LVL15
 20482 028d 0200     		.2byte	0x2
ARM GAS  C:\Users\osour\AppData\Local\Temp\ccsBkKuy.s 			page 366


 20483 028f 30       		.byte	0x30
 20484 0290 9F       		.byte	0x9f
 20485 0291 DC000000 		.4byte	.LVL15
 20486 0295 26010000 		.4byte	.LVL22
 20487 0299 0300     		.2byte	0x3
 20488 029b 91       		.byte	0x91
 20489 029c B47F     		.sleb128 -76
 20490 029e 26010000 		.4byte	.LVL22
 20491 02a2 2C010000 		.4byte	.LVL23
 20492 02a6 0200     		.2byte	0x2
 20493 02a8 30       		.byte	0x30
 20494 02a9 9F       		.byte	0x9f
 20495 02aa FC010000 		.4byte	.LVL33
 20496 02ae 04020000 		.4byte	.LVL34
 20497 02b2 0300     		.2byte	0x3
 20498 02b4 91       		.byte	0x91
 20499 02b5 B47F     		.sleb128 -76
 20500 02b7 90020000 		.4byte	.LVL43
 20501 02bb 7C030000 		.4byte	.LVL50
 20502 02bf 0300     		.2byte	0x3
 20503 02c1 91       		.byte	0x91
 20504 02c2 B47F     		.sleb128 -76
 20505 02c4 F6080000 		.4byte	.LVL100
 20506 02c8 F8080000 		.4byte	.LVL101
 20507 02cc 0100     		.2byte	0x1
 20508 02ce 52       		.byte	0x52
 20509 02cf F8080000 		.4byte	.LVL101
 20510 02d3 00090000 		.4byte	.LVL102
 20511 02d7 0300     		.2byte	0x3
 20512 02d9 91       		.byte	0x91
 20513 02da B47F     		.sleb128 -76
 20514 02dc BE190000 		.4byte	.LVL368
 20515 02e0 601A0000 		.4byte	.LVL369
 20516 02e4 0300     		.2byte	0x3
 20517 02e6 91       		.byte	0x91
 20518 02e7 B47F     		.sleb128 -76
 20519 02e9 C81B0000 		.4byte	.LVL382
 20520 02ed D61B0000 		.4byte	.LVL384
 20521 02f1 0300     		.2byte	0x3
 20522 02f3 91       		.byte	0x91
 20523 02f4 B47F     		.sleb128 -76
 20524 02f6 F6210000 		.4byte	.LVL545
 20525 02fa 94220000 		.4byte	.LFE260
 20526 02fe 0200     		.2byte	0x2
 20527 0300 30       		.byte	0x30
 20528 0301 9F       		.byte	0x9f
 20529 0302 00000000 		.4byte	0
 20530 0306 00000000 		.4byte	0
 20531              	.LLST9:
 20532 030a F00C0000 		.4byte	.LVL143
 20533 030e 020D0000 		.4byte	.LVL145
 20534 0312 0100     		.2byte	0x1
 20535 0314 54       		.byte	0x54
 20536 0315 00000000 		.4byte	0
 20537 0319 00000000 		.4byte	0
 20538              	.LLST8:
 20539 031d 14100000 		.4byte	.LVL180
ARM GAS  C:\Users\osour\AppData\Local\Temp\ccsBkKuy.s 			page 367


 20540 0321 6C100000 		.4byte	.LVL187
 20541 0325 0200     		.2byte	0x2
 20542 0327 30       		.byte	0x30
 20543 0328 9F       		.byte	0x9f
 20544 0329 101C0000 		.4byte	.LVL390
 20545 032d 2A1C0000 		.4byte	.LVL395
 20546 0331 0200     		.2byte	0x2
 20547 0333 30       		.byte	0x30
 20548 0334 9F       		.byte	0x9f
 20549 0335 CA1C0000 		.4byte	.LVL408
 20550 0339 F41C0000 		.4byte	.LVL415
 20551 033d 0200     		.2byte	0x2
 20552 033f 30       		.byte	0x30
 20553 0340 9F       		.byte	0x9f
 20554 0341 00000000 		.4byte	0
 20555 0345 00000000 		.4byte	0
 20556              		.section	.debug_aranges,"",%progbits
 20557 0000 1C000000 		.4byte	0x1c
 20558 0004 0200     		.2byte	0x2
 20559 0006 00000000 		.4byte	.Ldebug_info0
 20560 000a 04       		.byte	0x4
 20561 000b 00       		.byte	0
 20562 000c 0000     		.2byte	0
 20563 000e 0000     		.2byte	0
 20564 0010 00000000 		.4byte	.LFB260
 20565 0014 94220000 		.4byte	.LFE260-.LFB260
 20566 0018 00000000 		.4byte	0
 20567 001c 00000000 		.4byte	0
 20568              		.section	.debug_ranges,"",%progbits
 20569              	.Ldebug_ranges0:
 20570 0000 BA010000 		.4byte	.LBB2
 20571 0004 FC010000 		.4byte	.LBE2
 20572 0008 E80D0000 		.4byte	.LBB4
 20573 000c 8A190000 		.4byte	.LBE4
 20574 0010 A4190000 		.4byte	.LBB5
 20575 0014 BE190000 		.4byte	.LBE5
 20576 0018 081C0000 		.4byte	.LBB6
 20577 001c F6210000 		.4byte	.LBE6
 20578 0020 00000000 		.4byte	0
 20579 0024 00000000 		.4byte	0
 20580 0028 00000000 		.4byte	.LFB260
 20581 002c 94220000 		.4byte	.LFE260
 20582 0030 00000000 		.4byte	0
 20583 0034 00000000 		.4byte	0
 20584              		.section	.debug_line,"",%progbits
 20585              	.Ldebug_line0:
 20586 0000 08180000 		.section	.debug_str,"MS",%progbits,1
 20586      0200C20D 
 20586      00000201 
 20586      FB0E0D00 
 20586      01010101 
 20587              	.LASF582:
 20588 0000 5553425F 		.ascii	"USB_STOP\000"
 20588      53544F50 
 20588      00
 20589              	.LASF195:
 20590 0009 706F7274 		.ascii	"port_intctx\000"
ARM GAS  C:\Users\osour\AppData\Local\Temp\ccsBkKuy.s 			page 368


 20590      5F696E74 
 20590      63747800 
 20591              	.LASF204:
 20592 0015 63685F74 		.ascii	"ch_trace_buffer_t\000"
 20592      72616365 
 20592      5F627566 
 20592      6665725F 
 20592      7400
 20593              	.LASF237:
 20594 0027 63685F70 		.ascii	"ch_ptrsize\000"
 20594      74727369 
 20594      7A6500
 20595              	.LASF763:
 20596 0032 6D657373 		.ascii	"messagebus_watcher_s\000"
 20596      61676562 
 20596      75735F77 
 20596      61746368 
 20596      65725F73 
 20597              	.LASF518:
 20598 0047 6576656E 		.ascii	"event\000"
 20598      7400
 20599              	.LASF860:
 20600 004d 5F6D6272 		.ascii	"_mbrtowc_state\000"
 20600      746F7763 
 20600      5F737461 
 20600      746500
 20601              	.LASF905:
 20602 005c 53414E44 		.ascii	"SANDSTORMS\000"
 20602      53544F52 
 20602      4D5300
 20603              	.LASF368:
 20604 0067 43414E5F 		.ascii	"CAN_STARTING\000"
 20604      53544152 
 20604      54494E47 
 20604      00
 20605              	.LASF923:
 20606 0074 4C45445F 		.ascii	"LED_nbr\000"
 20606      6E627200 
 20607              	.LASF953:
 20608 007c 6765745A 		.ascii	"getZAxisGyro\000"
 20608      41786973 
 20608      4779726F 
 20608      00
 20609              	.LASF1009:
 20610 0089 564C3533 		.ascii	"VL53L0X_get_dist_mm\000"
 20610      4C30585F 
 20610      6765745F 
 20610      64697374 
 20610      5F6D6D00 
 20611              	.LASF725:
 20612 009d 44434D49 		.ascii	"DCMI_ACTIVE_ONESHOT\000"
 20612      5F414354 
 20612      4956455F 
 20612      4F4E4553 
 20612      484F5400 
 20613              	.LASF32:
 20614 00b1 6D73675F 		.ascii	"msg_t\000"
ARM GAS  C:\Users\osour\AppData\Local\Temp\ccsBkKuy.s 			page 369


 20614      7400
 20615              	.LASF313:
 20616 00b7 61667268 		.ascii	"afrh\000"
 20616      00
 20617              	.LASF461:
 20618 00bc 4F504D4F 		.ascii	"OPMODE_SMBUS_DEVICE\000"
 20618      44455F53 
 20618      4D425553 
 20618      5F444556 
 20618      49434500 
 20619              	.LASF215:
 20620 00d0 6D5F6372 		.ascii	"m_crit_isr\000"
 20620      69745F69 
 20620      737200
 20621              	.LASF962:
 20622 00db 655F6765 		.ascii	"e_get_steps_left\000"
 20622      745F7374 
 20622      6570735F 
 20622      6C656674 
 20622      00
 20623              	.LASF922:
 20624 00ec 706F7369 		.ascii	"positionl\000"
 20624      74696F6E 
 20624      6C00
 20625              	.LASF921:
 20626 00f6 706F7369 		.ascii	"positionr\000"
 20626      74696F6E 
 20626      7200
 20627              	.LASF946:
 20628 0100 62617474 		.ascii	"battValue\000"
 20628      56616C75 
 20628      6500
 20629              	.LASF891:
 20630 010a 76656374 		.ascii	"vect\000"
 20630      00
 20631              	.LASF641:
 20632 010f 44494550 		.ascii	"DIEPTXF0\000"
 20632      54584630 
 20632      00
 20633              	.LASF717:
 20634 0118 55534244 		.ascii	"USBD1\000"
 20634      3100
 20635              	.LASF367:
 20636 011e 43414E5F 		.ascii	"CAN_STOP\000"
 20636      53544F50 
 20636      00
 20637              	.LASF250:
 20638 0127 63665F6F 		.ascii	"cf_off_time\000"
 20638      66665F74 
 20638      696D6500 
 20639              	.LASF91:
 20640 0133 63685F73 		.ascii	"ch_system_t\000"
 20640      79737465 
 20640      6D5F7400 
 20641              	.LASF1:
 20642 013f 5F5F7569 		.ascii	"__uint8_t\000"
 20642      6E74385F 
ARM GAS  C:\Users\osour\AppData\Local\Temp\ccsBkKuy.s 			page 370


 20642      7400
 20643              	.LASF221:
 20644 0149 77747365 		.ascii	"wtsemp\000"
 20644      6D7000
 20645              	.LASF909:
 20646 0150 4D4C5F53 		.ascii	"ML_SIMPLE_PLAY\000"
 20646      494D504C 
 20646      455F504C 
 20646      415900
 20647              	.LASF297:
 20648 015f 5F426F6F 		.ascii	"_Bool\000"
 20648      6C00
 20649              	.LASF409:
 20650 0165 64617461 		.ascii	"datamode\000"
 20650      6D6F6465 
 20650      00
 20651              	.LASF477:
 20652 016e 646D6172 		.ascii	"dmarx\000"
 20652      7800
 20653              	.LASF482:
 20654 0174 4932535F 		.ascii	"I2S_READY\000"
 20654      52454144 
 20654      5900
 20655              	.LASF793:
 20656 017e 5F617465 		.ascii	"_atexit\000"
 20656      78697400 
 20657              	.LASF993:
 20658 0186 655F7561 		.ascii	"e_uart2_sending\000"
 20658      7274325F 
 20658      73656E64 
 20658      696E6700 
 20659              	.LASF1011:
 20660 0196 655F7265 		.ascii	"e_read_acc_spheric\000"
 20660      61645F61 
 20660      63635F73 
 20660      70686572 
 20660      696300
 20661              	.LASF972:
 20662 01a9 655F6765 		.ascii	"e_get_ambient_light\000"
 20662      745F616D 
 20662      6269656E 
 20662      745F6C69 
 20662      67687400 
 20663              	.LASF875:
 20664 01bd 6368616E 		.ascii	"changed_cnt\000"
 20664      6765645F 
 20664      636E7400 
 20665              	.LASF872:
 20666 01c9 7375626F 		.ascii	"suboptarg\000"
 20666      70746172 
 20666      6700
 20667              	.LASF357:
 20668 01d3 73717231 		.ascii	"sqr1\000"
 20668      00
 20669              	.LASF760:
 20670 01d8 7075626C 		.ascii	"published\000"
 20670      69736865 
ARM GAS  C:\Users\osour\AppData\Local\Temp\ccsBkKuy.s 			page 371


 20670      6400
 20671              	.LASF284:
 20672 01e2 424C4B5F 		.ascii	"BLK_UNINIT\000"
 20672      554E494E 
 20672      495400
 20673              	.LASF489:
 20674 01ed 72785F62 		.ascii	"rx_buffer\000"
 20674      75666665 
 20674      7200
 20675              	.LASF473:
 20676 01f7 6572726F 		.ascii	"errors\000"
 20676      727300
 20677              	.LASF947:
 20678 01fe 67756D73 		.ascii	"gumstix_connected\000"
 20678      7469785F 
 20678      636F6E6E 
 20678      65637465 
 20678      6400
 20679              	.LASF208:
 20680 0210 776F7273 		.ascii	"worst\000"
 20680      7400
 20681              	.LASF84:
 20682 0216 76745F73 		.ascii	"vt_systime\000"
 20682      79737469 
 20682      6D6500
 20683              	.LASF150:
 20684 0221 444F5231 		.ascii	"DOR1\000"
 20684      00
 20685              	.LASF151:
 20686 0226 444F5232 		.ascii	"DOR2\000"
 20686      00
 20687              	.LASF488:
 20688 022b 74785F62 		.ascii	"tx_buffer\000"
 20688      75666665 
 20688      7200
 20689              	.LASF783:
 20690 0235 5F5F746D 		.ascii	"__tm_mon\000"
 20690      5F6D6F6E 
 20690      00
 20691              	.LASF791:
 20692 023e 5F666E74 		.ascii	"_fntypes\000"
 20692      79706573 
 20692      00
 20693              	.LASF230:
 20694 0247 6D5F6E65 		.ascii	"m_next\000"
 20694      787400
 20695              	.LASF317:
 20696 024e 50434461 		.ascii	"PCData\000"
 20696      746100
 20697              	.LASF821:
 20698 0255 5F696E63 		.ascii	"_inc\000"
 20698      00
 20699              	.LASF794:
 20700 025a 5F696E64 		.ascii	"_ind\000"
 20700      00
 20701              	.LASF180:
 20702 025f 4D41534B 		.ascii	"MASK\000"
ARM GAS  C:\Users\osour\AppData\Local\Temp\ccsBkKuy.s 			page 372


 20702      00
 20703              	.LASF342:
 20704 0264 73616D70 		.ascii	"samples\000"
 20704      6C657300 
 20705              	.LASF645:
 20706 026c 47434346 		.ascii	"GCCFG\000"
 20706      4700
 20707              	.LASF894:
 20708 0272 57455F41 		.ascii	"WE_ARE_THE_CHAMPIONS\000"
 20708      52455F54 
 20708      48455F43 
 20708      48414D50 
 20708      494F4E53 
 20709              	.LASF438:
 20710 0287 42445452 		.ascii	"BDTR\000"
 20710      00
 20711              	.LASF391:
 20712 028c 7265676D 		.ascii	"regmask\000"
 20712      61736B00 
 20713              	.LASF935:
 20714 0294 63616D5F 		.ascii	"cam_zoom\000"
 20714      7A6F6F6D 
 20714      00
 20715              	.LASF471:
 20716 029d 49324343 		.ascii	"I2CConfig\000"
 20716      6F6E6669 
 20716      6700
 20717              	.LASF19:
 20718 02a7 75696E74 		.ascii	"uint16_t\000"
 20718      31365F74 
 20718      00
 20719              	.LASF478:
 20720 02b0 646D6174 		.ascii	"dmatx\000"
 20720      7800
 20721              	.LASF715:
 20722 02b6 736F665F 		.ascii	"sof_cb\000"
 20722      636200
 20723              	.LASF414:
 20724 02bd 4558545F 		.ascii	"EXT_ACTIVE\000"
 20724      41435449 
 20724      564500
 20725              	.LASF800:
 20726 02c8 5F666C61 		.ascii	"_flags\000"
 20726      677300
 20727              	.LASF762:
 20728 02cf 6E657874 		.ascii	"next\000"
 20728      00
 20729              	.LASF310:
 20730 02d4 6F737065 		.ascii	"ospeedr\000"
 20730      65647200 
 20731              	.LASF1002:
 20732 02dc 655F6163 		.ascii	"e_acc_calibr\000"
 20732      635F6361 
 20732      6C696272 
 20732      00
 20733              	.LASF648:
 20734 02e9 44494550 		.ascii	"DIEPTXF\000"
ARM GAS  C:\Users\osour\AppData\Local\Temp\ccsBkKuy.s 			page 373


 20734      54584600 
 20735              	.LASF256:
 20736 02f1 656C5F6E 		.ascii	"el_next\000"
 20736      65787400 
 20737              	.LASF915:
 20738 02f9 696E636C 		.ascii	"inclination\000"
 20738      696E6174 
 20738      696F6E00 
 20739              	.LASF337:
 20740 0305 4144435F 		.ascii	"ADC_ERR_OVERFLOW\000"
 20740      4552525F 
 20740      4F564552 
 20740      464C4F57 
 20740      00
 20741              	.LASF831:
 20742 0316 5F637674 		.ascii	"_cvtlen\000"
 20742      6C656E00 
 20743              	.LASF914:
 20744 031e 6F726965 		.ascii	"orientation\000"
 20744      6E746174 
 20744      696F6E00 
 20745              	.LASF89:
 20746 032a 6C6F636B 		.ascii	"lock_cnt\000"
 20746      5F636E74 
 20746      00
 20747              	.LASF65:
 20748 0333 63685F74 		.ascii	"ch_threads_queue\000"
 20748      68726561 
 20748      64735F71 
 20748      75657565 
 20748      00
 20749              	.LASF835:
 20750 0344 5F736967 		.ascii	"_sig_func\000"
 20750      5F66756E 
 20750      6300
 20751              	.LASF43:
 20752 034e 705F6E65 		.ascii	"p_newer\000"
 20752      77657200 
 20753              	.LASF658:
 20754 0356 48505254 		.ascii	"HPRT\000"
 20754      00
 20755              	.LASF973:
 20756 035b 655F696E 		.ascii	"e_init_sound\000"
 20756      69745F73 
 20756      6F756E64 
 20756      00
 20757              	.LASF612:
 20758 0368 4843494E 		.ascii	"HCINT\000"
 20758      5400
 20759              	.LASF940:
 20760 036e 7267625F 		.ascii	"rgb_value\000"
 20760      76616C75 
 20760      6500
 20761              	.LASF100:
 20762 0378 534D5052 		.ascii	"SMPR1\000"
 20762      3100
 20763              	.LASF101:
ARM GAS  C:\Users\osour\AppData\Local\Temp\ccsBkKuy.s 			page 374


 20764 037e 534D5052 		.ascii	"SMPR2\000"
 20764      3200
 20765              	.LASF247:
 20766 0384 63665F6F 		.ascii	"cf_off_flags\000"
 20766      66665F66 
 20766      6C616773 
 20766      00
 20767              	.LASF813:
 20768 0391 5F6C6F63 		.ascii	"_lock\000"
 20768      6B00
 20769              	.LASF809:
 20770 0397 5F6E6275 		.ascii	"_nbuf\000"
 20770      6600
 20771              	.LASF551:
 20772 039d 5350495F 		.ascii	"SPI_STOP\000"
 20772      53544F50 
 20772      00
 20773              	.LASF505:
 20774 03a6 70776D63 		.ascii	"pwmchnmsk_t\000"
 20774      686E6D73 
 20774      6B5F7400 
 20775              	.LASF893:
 20776 03b2 494D504F 		.ascii	"IMPOSSIBLE_MISSION\000"
 20776      53534942 
 20776      4C455F4D 
 20776      49535349 
 20776      4F4E00
 20777              	.LASF316:
 20778 03c5 50424461 		.ascii	"PBData\000"
 20778      746100
 20779              	.LASF235:
 20780 03cc 63685F73 		.ascii	"ch_size\000"
 20780      697A6500 
 20781              	.LASF722:
 20782 03d4 44434D49 		.ascii	"DCMI_STOP\000"
 20782      5F53544F 
 20782      5000
 20783              	.LASF654:
 20784 03de 48505458 		.ascii	"HPTXSTS\000"
 20784      53545300 
 20785              	.LASF309:
 20786 03e6 6F747970 		.ascii	"otyper\000"
 20786      657200
 20787              	.LASF300:
 20788 03ed 4F545950 		.ascii	"OTYPER\000"
 20788      455200
 20789              	.LASF393:
 20790 03f4 64616370 		.ascii	"dacparams_t\000"
 20790      6172616D 
 20790      735F7400 
 20791              	.LASF529:
 20792 0400 5344435F 		.ascii	"SDC_MODE_1BIT\000"
 20792      4D4F4445 
 20792      5F314249 
 20792      5400
 20793              	.LASF610:
 20794 040e 48434348 		.ascii	"HCCHAR\000"
ARM GAS  C:\Users\osour\AppData\Local\Temp\ccsBkKuy.s 			page 375


 20794      415200
 20795              	.LASF967:
 20796 0415 655F6361 		.ascii	"e_calibrate_ir\000"
 20796      6C696272 
 20796      6174655F 
 20796      697200
 20797              	.LASF790:
 20798 0424 5F64736F 		.ascii	"_dso_handle\000"
 20798      5F68616E 
 20798      646C6500 
 20799              	.LASF455:
 20800 0430 4932435F 		.ascii	"I2C_ACTIVE_RX\000"
 20800      41435449 
 20800      56455F52 
 20800      5800
 20801              	.LASF38:
 20802 043e 74687265 		.ascii	"thread_t\000"
 20802      61645F74 
 20802      00
 20803              	.LASF258:
 20804 0447 656C5F65 		.ascii	"el_events\000"
 20804      76656E74 
 20804      7300
 20805              	.LASF498:
 20806 0451 70776D73 		.ascii	"pwmstate_t\000"
 20806      74617465 
 20806      5F7400
 20807              	.LASF378:
 20808 045c 736C6565 		.ascii	"sleep_event\000"
 20808      705F6576 
 20808      656E7400 
 20809              	.LASF83:
 20810 0468 63685F76 		.ascii	"ch_virtual_timers_list\000"
 20810      69727475 
 20810      616C5F74 
 20810      696D6572 
 20810      735F6C69 
 20811              	.LASF281:
 20812 047f 76656374 		.ascii	"vector\000"
 20812      6F7200
 20813              	.LASF20:
 20814 0486 696E7433 		.ascii	"int32_t\000"
 20814      325F7400 
 20815              	.LASF855:
 20816 048e 5F776374 		.ascii	"_wctomb_state\000"
 20816      6F6D625F 
 20816      73746174 
 20816      6500
 20817              	.LASF964:
 20818 049c 655F7365 		.ascii	"e_set_led\000"
 20818      745F6C65 
 20818      6400
 20819              	.LASF469:
 20820 04a6 636C6F63 		.ascii	"clock_speed\000"
 20820      6B5F7370 
 20820      65656400 
 20821              	.LASF37:
ARM GAS  C:\Users\osour\AppData\Local\Temp\ccsBkKuy.s 			page 376


 20822 04b2 73797374 		.ascii	"systime_t\000"
 20822      696D655F 
 20822      7400
 20823              	.LASF411:
 20824 04bc 44414344 		.ascii	"DACD2\000"
 20824      3200
 20825              	.LASF380:
 20826 04c2 43414E44 		.ascii	"CANDriver\000"
 20826      72697665 
 20826      7200
 20827              	.LASF245:
 20828 04cc 63665F6F 		.ascii	"cf_off_stklimit\000"
 20828      66665F73 
 20828      746B6C69 
 20828      6D697400 
 20829              	.LASF161:
 20830 04dc 4D304152 		.ascii	"M0AR\000"
 20830      00
 20831              	.LASF984:
 20832 04e1 655F6765 		.ascii	"e_get_data\000"
 20832      745F6461 
 20832      746100
 20833              	.LASF617:
 20834 04ec 72657376 		.ascii	"resvd1c\000"
 20834      64316300 
 20835              	.LASF1007:
 20836 04f4 69735344 		.ascii	"isSDCardMounted\000"
 20836      43617264 
 20836      4D6F756E 
 20836      74656400 
 20837              	.LASF459:
 20838 0504 69326366 		.ascii	"i2cflags_t\000"
 20838      6C616773 
 20838      5F7400
 20839              	.LASF655:
 20840 050f 4841494E 		.ascii	"HAINT\000"
 20840      5400
 20841              	.LASF136:
 20842 0515 46413152 		.ascii	"FA1R\000"
 20842      00
 20843              	.LASF1018:
 20844 051a 6D656D63 		.ascii	"memcpy\000"
 20844      707900
 20845              	.LASF159:
 20846 0521 44434D49 		.ascii	"DCMI_TypeDef\000"
 20846      5F547970 
 20846      65446566 
 20846      00
 20847              	.LASF652:
 20848 052e 48464E55 		.ascii	"HFNUM\000"
 20848      4D00
 20849              	.LASF876:
 20850 0534 70617265 		.ascii	"parent\000"
 20850      6E7400
 20851              	.LASF274:
 20852 053b 716E6F74 		.ascii	"qnotify_t\000"
 20852      6966795F 
ARM GAS  C:\Users\osour\AppData\Local\Temp\ccsBkKuy.s 			page 377


 20852      7400
 20853              	.LASF333:
 20854 0545 61646373 		.ascii	"adcstate_t\000"
 20854      74617465 
 20854      5F7400
 20855              	.LASF770:
 20856 0550 7075626C 		.ascii	"published_topic\000"
 20856      69736865 
 20856      645F746F 
 20856      70696300 
 20857              	.LASF737:
 20858 0560 44434D49 		.ascii	"DCMID\000"
 20858      4400
 20859              	.LASF279:
 20860 0566 69736869 		.ascii	"ishift\000"
 20860      667400
 20861              	.LASF977:
 20862 056d 655F6932 		.ascii	"e_i2cp_write\000"
 20862      63705F77 
 20862      72697465 
 20862      00
 20863              	.LASF428:
 20864 057a 4750545F 		.ascii	"GPT_ONESHOT\000"
 20864      4F4E4553 
 20864      484F5400 
 20865              	.LASF269:
 20866 0586 715F746F 		.ascii	"q_top\000"
 20866      7000
 20867              	.LASF802:
 20868 058c 5F6C6266 		.ascii	"_lbfsize\000"
 20868      73697A65 
 20868      00
 20869              	.LASF603:
 20870 0595 75645F73 		.ascii	"ud_string\000"
 20870      7472696E 
 20870      6700
 20871              	.LASF472:
 20872 059f 49324344 		.ascii	"I2CDriver\000"
 20872      72697665 
 20872      7200
 20873              	.LASF454:
 20874 05a9 4932435F 		.ascii	"I2C_ACTIVE_TX\000"
 20874      41435449 
 20874      56455F54 
 20874      5800
 20875              	.LASF524:
 20876 05b7 72656164 		.ascii	"read\000"
 20876      00
 20877              	.LASF460:
 20878 05bc 4F504D4F 		.ascii	"OPMODE_I2C\000"
 20878      44455F49 
 20878      324300
 20879              	.LASF664:
 20880 05c7 72657376 		.ascii	"resvd80C\000"
 20880      64383043 
 20880      00
 20881              	.LASF712:
ARM GAS  C:\Users\osour\AppData\Local\Temp\ccsBkKuy.s 			page 378


 20882 05d0 6576656E 		.ascii	"event_cb\000"
 20882      745F6362 
 20882      00
 20883              	.LASF833:
 20884 05d9 5F6E6577 		.ascii	"_new\000"
 20884      00
 20885              	.LASF631:
 20886 05de 474F5447 		.ascii	"GOTGCTL\000"
 20886      43544C00 
 20887              	.LASF606:
 20888 05e6 75736265 		.ascii	"usbepcallback_t\000"
 20888      7063616C 
 20888      6C626163 
 20888      6B5F7400 
 20889              	.LASF458:
 20890 05f6 69326361 		.ascii	"i2caddr_t\000"
 20890      6464725F 
 20890      7400
 20891              	.LASF94:
 20892 0600 76746C69 		.ascii	"vtlist\000"
 20892      737400
 20893              	.LASF166:
 20894 0607 54524953 		.ascii	"TRISE\000"
 20894      4500
 20895              	.LASF670:
 20896 060d 72657376 		.ascii	"resvd824\000"
 20896      64383234 
 20896      00
 20897              	.LASF52:
 20898 0616 705F7761 		.ascii	"p_waiting\000"
 20898      6974696E 
 20898      6700
 20899              	.LASF216:
 20900 0620 6B65726E 		.ascii	"kernel_stats_t\000"
 20900      656C5F73 
 20900      74617473 
 20900      5F7400
 20901              	.LASF942:
 20902 062f 69725F61 		.ascii	"ir_address\000"
 20902      64647265 
 20902      737300
 20903              	.LASF266:
 20904 063a 715F7761 		.ascii	"q_waiting\000"
 20904      6974696E 
 20904      6700
 20905              	.LASF118:
 20906 0644 43414E5F 		.ascii	"CAN_TxMailBox_TypeDef\000"
 20906      54784D61 
 20906      696C426F 
 20906      785F5479 
 20906      70654465 
 20907              	.LASF93:
 20908 065a 726C6973 		.ascii	"rlist\000"
 20908      7400
 20909              	.LASF61:
 20910 0660 74687265 		.ascii	"threads_list_t\000"
 20910      6164735F 
ARM GAS  C:\Users\osour\AppData\Local\Temp\ccsBkKuy.s 			page 379


 20910      6C697374 
 20910      5F7400
 20911              	.LASF241:
 20912 066f 63665F6F 		.ascii	"cf_off_ctx\000"
 20912      66665F63 
 20912      747800
 20913              	.LASF275:
 20914 067a 696E7075 		.ascii	"input_queue_t\000"
 20914      745F7175 
 20914      6575655F 
 20914      7400
 20915              	.LASF360:
 20916 0688 41444343 		.ascii	"ADCConversionGroup\000"
 20916      6F6E7665 
 20916      7273696F 
 20916      6E47726F 
 20916      757000
 20917              	.LASF941:
 20918 069b 69725F6D 		.ascii	"ir_move\000"
 20918      6F766500 
 20919              	.LASF663:
 20920 06a3 44535453 		.ascii	"DSTS\000"
 20920      00
 20921              	.LASF868:
 20922 06a8 5F5F6C6F 		.ascii	"__lock\000"
 20922      636B00
 20923              	.LASF464:
 20924 06af 5354445F 		.ascii	"STD_DUTY_CYCLE\000"
 20924      44555459 
 20924      5F435943 
 20924      4C4500
 20925              	.LASF369:
 20926 06be 43414E5F 		.ascii	"CAN_READY\000"
 20926      52454144 
 20926      5900
 20927              	.LASF243:
 20928 06c8 63665F6F 		.ascii	"cf_off_older\000"
 20928      66665F6F 
 20928      6C646572 
 20928      00
 20929              	.LASF26:
 20930 06d5 72747469 		.ascii	"rttime_t\000"
 20930      6D655F74 
 20930      00
 20931              	.LASF423:
 20932 06de 45585444 		.ascii	"EXTD1\000"
 20932      3100
 20933              	.LASF697:
 20934 06e4 72787175 		.ascii	"rxqueued\000"
 20934      65756564 
 20934      00
 20935              	.LASF371:
 20936 06ed 63616E73 		.ascii	"canstate_t\000"
 20936      74617465 
 20936      5F7400
 20937              	.LASF138:
 20938 06f8 7346696C 		.ascii	"sFilterRegister\000"
ARM GAS  C:\Users\osour\AppData\Local\Temp\ccsBkKuy.s 			page 380


 20938      74657252 
 20938      65676973 
 20938      74657200 
 20939              	.LASF837:
 20940 0708 5F5F7366 		.ascii	"__sf\000"
 20940      00
 20941              	.LASF918:
 20942 070d 77616974 		.ascii	"wait_cam\000"
 20942      5F63616D 
 20942      00
 20943              	.LASF669:
 20944 0716 72657376 		.ascii	"resvd820\000"
 20944      64383230 
 20944      00
 20945              	.LASF172:
 20946 071f 52455350 		.ascii	"RESP1\000"
 20946      3100
 20947              	.LASF173:
 20948 0725 52455350 		.ascii	"RESP2\000"
 20948      3200
 20949              	.LASF174:
 20950 072b 52455350 		.ascii	"RESP3\000"
 20950      3300
 20951              	.LASF175:
 20952 0731 52455350 		.ascii	"RESP4\000"
 20952      3400
 20953              	.LASF854:
 20954 0737 5F6D6274 		.ascii	"_mbtowc_state\000"
 20954      6F77635F 
 20954      73746174 
 20954      6500
 20955              	.LASF451:
 20956 0745 4932435F 		.ascii	"I2C_UNINIT\000"
 20956      554E494E 
 20956      495400
 20957              	.LASF608:
 20958 0750 75736272 		.ascii	"usbreqhandler_t\000"
 20958      65716861 
 20958      6E646C65 
 20958      725F7400 
 20959              	.LASF331:
 20960 0760 4144435F 		.ascii	"ADC_COMPLETE\000"
 20960      434F4D50 
 20960      4C455445 
 20960      00
 20961              	.LASF447:
 20962 076d 47505443 		.ascii	"GPTConfig\000"
 20962      6F6E6669 
 20962      6700
 20963              	.LASF513:
 20964 0777 53445F55 		.ascii	"SD_UNINIT\000"
 20964      4E494E49 
 20964      5400
 20965              	.LASF721:
 20966 0781 44434D49 		.ascii	"DCMI_UNINIT\000"
 20966      5F554E49 
 20966      4E495400 
ARM GAS  C:\Users\osour\AppData\Local\Temp\ccsBkKuy.s 			page 381


 20967              	.LASF31:
 20968 078d 74707269 		.ascii	"tprio_t\000"
 20968      6F5F7400 
 20969              	.LASF212:
 20970 0795 6E5F6972 		.ascii	"n_irq\000"
 20970      7100
 20971              	.LASF758:
 20972 079b 636F6E64 		.ascii	"condvar\000"
 20972      76617200 
 20973              	.LASF492:
 20974 07a3 69327370 		.ascii	"i2spr\000"
 20974      7200
 20975              	.LASF673:
 20976 07a9 72657376 		.ascii	"resvd830\000"
 20976      64383330 
 20976      00
 20977              	.LASF453:
 20978 07b2 4932435F 		.ascii	"I2C_READY\000"
 20978      52454144 
 20978      5900
 20979              	.LASF675:
 20980 07bc 72657376 		.ascii	"resvd838\000"
 20980      64383338 
 20980      00
 20981              	.LASF467:
 20982 07c5 69326364 		.ascii	"i2cdutycycle_t\000"
 20982      75747963 
 20982      79636C65 
 20982      5F7400
 20983              	.LASF749:
 20984 07d4 6F707461 		.ascii	"optarg\000"
 20984      726700
 20985              	.LASF676:
 20986 07db 72657376 		.ascii	"resvd83C\000"
 20986      64383343 
 20986      00
 20987              	.LASF970:
 20988 07e4 655F706F 		.ascii	"e_poxxxx_config_cam\000"
 20988      78787878 
 20988      5F636F6E 
 20988      6669675F 
 20988      63616D00 
 20989              	.LASF345:
 20990 07f8 74687265 		.ascii	"thread\000"
 20990      616400
 20991              	.LASF390:
 20992 07ff 72656773 		.ascii	"regshift\000"
 20992      68696674 
 20992      00
 20993              	.LASF571:
 20994 0808 73657475 		.ascii	"setup\000"
 20994      7000
 20995              	.LASF550:
 20996 080e 5350495F 		.ascii	"SPI_UNINIT\000"
 20996      554E494E 
 20996      495400
 20997              	.LASF998:
ARM GAS  C:\Users\osour\AppData\Local\Temp\ccsBkKuy.s 			page 382


 20998 0819 6D6F756E 		.ascii	"mountSDCard\000"
 20998      74534443 
 20998      61726400 
 20999              	.LASF624:
 21000 0825 44545846 		.ascii	"DTXFSTS\000"
 21000      53545300 
 21001              	.LASF294:
 21002 082d 626C6B5F 		.ascii	"blk_size\000"
 21002      73697A65 
 21002      00
 21003              	.LASF726:
 21004 0836 44434D49 		.ascii	"DCMI_COMPLETE\000"
 21004      5F434F4D 
 21004      504C4554 
 21004      4500
 21005              	.LASF565:
 21006 0844 696E5F70 		.ascii	"in_params\000"
 21006      6172616D 
 21006      7300
 21007              	.LASF437:
 21008 084e 43434552 		.ascii	"CCER\000"
 21008      00
 21009              	.LASF188:
 21010 0853 49325350 		.ascii	"I2SPR\000"
 21010      5200
 21011              	.LASF495:
 21012 0859 50574D5F 		.ascii	"PWM_UNINIT\000"
 21012      554E494E 
 21012      495400
 21013              	.LASF207:
 21014 0864 62657374 		.ascii	"best\000"
 21014      00
 21015              	.LASF883:
 21016 0869 74797065 		.ascii	"type\000"
 21016      00
 21017              	.LASF961:
 21018 086e 655F6932 		.ascii	"e_i2cp_disable\000"
 21018      63705F64 
 21018      69736162 
 21018      6C6500
 21019              	.LASF633:
 21020 087d 47414842 		.ascii	"GAHBCFG\000"
 21020      43464700 
 21021              	.LASF400:
 21022 0885 64616363 		.ascii	"daccallback_t\000"
 21022      616C6C62 
 21022      61636B5F 
 21022      7400
 21023              	.LASF738:
 21024 0893 5F4C4F43 		.ascii	"_LOCK_T\000"
 21024      4B5F5400 
 21025              	.LASF677:
 21026 089b 72657376 		.ascii	"resvd840\000"
 21026      64383430 
 21026      00
 21027              	.LASF898:
 21028 08a4 4D415249 		.ascii	"MARIO_START\000"
ARM GAS  C:\Users\osour\AppData\Local\Temp\ccsBkKuy.s 			page 383


 21028      4F5F5354 
 21028      41525400 
 21029              	.LASF184:
 21030 08b0 43524350 		.ascii	"CRCPR\000"
 21030      5200
 21031              	.LASF289:
 21032 08b6 424C4B5F 		.ascii	"BLK_READY\000"
 21032      52454144 
 21032      5900
 21033              	.LASF4:
 21034 08c0 5F5F696E 		.ascii	"__int16_t\000"
 21034      7431365F 
 21034      7400
 21035              	.LASF6:
 21036 08ca 5F5F7569 		.ascii	"__uint16_t\000"
 21036      6E743136 
 21036      5F7400
 21037              	.LASF427:
 21038 08d5 4750545F 		.ascii	"GPT_CONTINUOUS\000"
 21038      434F4E54 
 21038      494E554F 
 21038      555300
 21039              	.LASF691:
 21040 08e4 74787175 		.ascii	"txqueued\000"
 21040      65756564 
 21040      00
 21041              	.LASF54:
 21042 08ed 705F6D73 		.ascii	"p_msg\000"
 21042      6700
 21043              	.LASF846:
 21044 08f3 5F756E75 		.ascii	"_unused_rand\000"
 21044      7365645F 
 21044      72616E64 
 21044      00
 21045              	.LASF630:
 21046 0900 73746D33 		.ascii	"stm32_otg_out_ep_t\000"
 21046      325F6F74 
 21046      675F6F75 
 21046      745F6570 
 21046      5F7400
 21047              	.LASF639:
 21048 0913 47525853 		.ascii	"GRXSTSP\000"
 21048      54535000 
 21049              	.LASF638:
 21050 091b 47525853 		.ascii	"GRXSTSR\000"
 21050      54535200 
 21051              	.LASF954:
 21052 0923 73707269 		.ascii	"sprintf\000"
 21052      6E746600 
 21053              	.LASF218:
 21054 092b 65786974 		.ascii	"exitcode\000"
 21054      636F6465 
 21054      00
 21055              	.LASF162:
 21056 0934 4D314152 		.ascii	"M1AR\000"
 21056      00
 21057              	.LASF578:
ARM GAS  C:\Users\osour\AppData\Local\Temp\ccsBkKuy.s 			page 384


 21058 0939 77616974 		.ascii	"wait\000"
 21058      00
 21059              	.LASF163:
 21060 093e 444D415F 		.ascii	"DMA_Stream_TypeDef\000"
 21060      53747265 
 21060      616D5F54 
 21060      79706544 
 21060      656600
 21061              	.LASF585:
 21062 0951 5553425F 		.ascii	"USB_ACTIVE\000"
 21062      41435449 
 21062      564500
 21063              	.LASF753:
 21064 095c 6F707472 		.ascii	"optreset\000"
 21064      65736574 
 21064      00
 21065              	.LASF626:
 21066 0965 73746D33 		.ascii	"stm32_otg_in_ep_t\000"
 21066      325F6F74 
 21066      675F696E 
 21066      5F65705F 
 21066      7400
 21067              	.LASF699:
 21068 0977 7278636E 		.ascii	"rxcnt\000"
 21068      7400
 21069              	.LASF327:
 21070 097d 4144435F 		.ascii	"ADC_UNINIT\000"
 21070      554E494E 
 21070      495400
 21071              	.LASF475:
 21072 0988 7278646D 		.ascii	"rxdmamode\000"
 21072      616D6F64 
 21072      6500
 21073              	.LASF828:
 21074 0992 5F726573 		.ascii	"_result_k\000"
 21074      756C745F 
 21074      6B00
 21075              	.LASF419:
 21076 099c 6D6F6465 		.ascii	"mode\000"
 21076      00
 21077              	.LASF820:
 21078 09a1 5F737464 		.ascii	"_stderr\000"
 21078      65727200 
 21079              	.LASF827:
 21080 09a9 5F726573 		.ascii	"_result\000"
 21080      756C7400 
 21081              	.LASF231:
 21082 09b1 6D5F636E 		.ascii	"m_cnt\000"
 21082      7400
 21083              	.LASF416:
 21084 09b7 45585444 		.ascii	"EXTDriver\000"
 21084      72697665 
 21084      7200
 21085              	.LASF246:
 21086 09c1 63665F6F 		.ascii	"cf_off_state\000"
 21086      66665F73 
 21086      74617465 
ARM GAS  C:\Users\osour\AppData\Local\Temp\ccsBkKuy.s 			page 385


 21086      00
 21087              	.LASF487:
 21088 09ce 69327363 		.ascii	"i2scallback_t\000"
 21088      616C6C62 
 21088      61636B5F 
 21088      7400
 21089              	.LASF559:
 21090 09dc 73737061 		.ascii	"sspad\000"
 21090      6400
 21091              	.LASF476:
 21092 09e2 7478646D 		.ascii	"txdmamode\000"
 21092      616D6F64 
 21092      6500
 21093              	.LASF888:
 21094 09ec 6275665F 		.ascii	"buf_dim\000"
 21094      64696D00 
 21095              	.LASF443:
 21096 09f4 67707466 		.ascii	"gptfreq_t\000"
 21096      7265715F 
 21096      7400
 21097              	.LASF945:
 21098 09fe 7573655F 		.ascii	"use_bt\000"
 21098      627400
 21099              	.LASF785:
 21100 0a05 5F5F746D 		.ascii	"__tm_wday\000"
 21100      5F776461 
 21100      7900
 21101              	.LASF979:
 21102 0a0f 655F7365 		.ascii	"e_set_speed_left\000"
 21102      745F7370 
 21102      6565645F 
 21102      6C656674 
 21102      00
 21103              	.LASF782:
 21104 0a20 5F5F746D 		.ascii	"__tm_mday\000"
 21104      5F6D6461 
 21104      7900
 21105              	.LASF684:
 21106 0a2a 72785F66 		.ascii	"rx_fifo_size\000"
 21106      69666F5F 
 21106      73697A65 
 21106      00
 21107              	.LASF193:
 21108 0a37 73746B61 		.ascii	"stkalign_t\000"
 21108      6C69676E 
 21108      5F7400
 21109              	.LASF398:
 21110 0a42 4441435F 		.ascii	"DAC_ERR_UNDERFLOW\000"
 21110      4552525F 
 21110      554E4445 
 21110      52464C4F 
 21110      5700
 21111              	.LASF379:
 21112 0a54 77616B65 		.ascii	"wakeup_event\000"
 21112      75705F65 
 21112      76656E74 
 21112      00
ARM GAS  C:\Users\osour\AppData\Local\Temp\ccsBkKuy.s 			page 386


 21113              	.LASF78:
 21114 0a61 76745F70 		.ascii	"vt_prev\000"
 21114      72657600 
 21115              	.LASF786:
 21116 0a69 5F5F746D 		.ascii	"__tm_yday\000"
 21116      5F796461 
 21116      7900
 21117              	.LASF353:
 21118 0a73 656E645F 		.ascii	"end_cb\000"
 21118      636200
 21119              	.LASF702:
 21120 0a7a 73657475 		.ascii	"setup_cb\000"
 21120      705F6362 
 21120      00
 21121              	.LASF3:
 21122 0a83 756E7369 		.ascii	"unsigned char\000"
 21122      676E6564 
 21122      20636861 
 21122      7200
 21123              	.LASF819:
 21124 0a91 5F737464 		.ascii	"_stdout\000"
 21124      6F757400 
 21125              	.LASF182:
 21126 0a99 4649464F 		.ascii	"FIFO\000"
 21126      00
 21127              	.LASF203:
 21128 0a9e 74625F62 		.ascii	"tb_buffer\000"
 21128      75666665 
 21128      7200
 21129              	.LASF373:
 21130 0aa8 74787175 		.ascii	"txqueue\000"
 21130      65756500 
 21131              	.LASF153:
 21132 0ab0 52495352 		.ascii	"RISR\000"
 21132      00
 21133              	.LASF226:
 21134 0ab5 735F636E 		.ascii	"s_cnt\000"
 21134      7400
 21135              	.LASF66:
 21136 0abb 72656164 		.ascii	"ready_list_t\000"
 21136      795F6C69 
 21136      73745F74 
 21136      00
 21137              	.LASF62:
 21138 0ac8 63685F74 		.ascii	"ch_thread\000"
 21138      68726561 
 21138      6400
 21139              	.LASF462:
 21140 0ad2 4F504D4F 		.ascii	"OPMODE_SMBUS_HOST\000"
 21140      44455F53 
 21140      4D425553 
 21140      5F484F53 
 21140      5400
 21141              	.LASF968:
 21142 0ae4 73736361 		.ascii	"sscanf\000"
 21142      6E6600
 21143              	.LASF861:
ARM GAS  C:\Users\osour\AppData\Local\Temp\ccsBkKuy.s 			page 387


 21144 0aeb 5F6D6273 		.ascii	"_mbsrtowcs_state\000"
 21144      72746F77 
 21144      63735F73 
 21144      74617465 
 21144      00
 21145              	.LASF580:
 21146 0afc 75736265 		.ascii	"usbep_t\000"
 21146      705F7400 
 21147              	.LASF996:
 21148 0b04 655F696E 		.ascii	"e_init_motors\000"
 21148      69745F6D 
 21148      6F746F72 
 21148      7300
 21149              	.LASF777:
 21150 0b12 5F776473 		.ascii	"_wds\000"
 21150      00
 21151              	.LASF889:
 21152 0b17 666C6F61 		.ascii	"float\000"
 21152      7400
 21153              	.LASF904:
 21154 0b1d 53544152 		.ascii	"STARWARS\000"
 21154      57415253 
 21154      00
 21155              	.LASF412:
 21156 0b26 4558545F 		.ascii	"EXT_UNINIT\000"
 21156      554E494E 
 21156      495400
 21157              	.LASF370:
 21158 0b31 43414E5F 		.ascii	"CAN_SLEEP\000"
 21158      534C4545 
 21158      5000
 21159              	.LASF199:
 21160 0b3b 73655F73 		.ascii	"se_state\000"
 21160      74617465 
 21160      00
 21161              	.LASF366:
 21162 0b44 43414E5F 		.ascii	"CAN_UNINIT\000"
 21162      554E494E 
 21162      495400
 21163              	.LASF549:
 21164 0b4f 53444344 		.ascii	"SDCD1\000"
 21164      3100
 21165              	.LASF85:
 21166 0b55 73797374 		.ascii	"system_debug_t\000"
 21166      656D5F64 
 21166      65627567 
 21166      5F7400
 21167              	.LASF143:
 21168 0b64 44485238 		.ascii	"DHR8R1\000"
 21168      523100
 21169              	.LASF146:
 21170 0b6b 44485238 		.ascii	"DHR8R2\000"
 21170      523200
 21171              	.LASF434:
 21172 0b72 44494552 		.ascii	"DIER\000"
 21172      00
 21173              	.LASF766:
ARM GAS  C:\Users\osour\AppData\Local\Temp\ccsBkKuy.s 			page 388


 21174 0b77 68656164 		.ascii	"head\000"
 21174      00
 21175              	.LASF925:
 21176 0b7c 61636378 		.ascii	"accx\000"
 21176      00
 21177              	.LASF926:
 21178 0b81 61636379 		.ascii	"accy\000"
 21178      00
 21179              	.LASF42:
 21180 0b86 705F6374 		.ascii	"p_ctx\000"
 21180      7800
 21181              	.LASF81:
 21182 0b8c 76745F70 		.ascii	"vt_par\000"
 21182      617200
 21183              	.LASF102:
 21184 0b93 4A4F4652 		.ascii	"JOFR1\000"
 21184      3100
 21185              	.LASF103:
 21186 0b99 4A4F4652 		.ascii	"JOFR2\000"
 21186      3200
 21187              	.LASF104:
 21188 0b9f 4A4F4652 		.ascii	"JOFR3\000"
 21188      3300
 21189              	.LASF105:
 21190 0ba5 4A4F4652 		.ascii	"JOFR4\000"
 21190      3400
 21191              	.LASF895:
 21192 0bab 52555353 		.ascii	"RUSSIA\000"
 21192      494100
 21193              	.LASF73:
 21194 0bb2 725F6375 		.ascii	"r_current\000"
 21194      7272656E 
 21194      7400
 21195              	.LASF798:
 21196 0bbc 5F73697A 		.ascii	"_size\000"
 21196      6500
 21197              	.LASF805:
 21198 0bc2 5F777269 		.ascii	"_write\000"
 21198      746500
 21199              	.LASF186:
 21200 0bc9 54584352 		.ascii	"TXCRCR\000"
 21200      435200
 21201              	.LASF405:
 21202 0bd0 64616364 		.ascii	"dacdhrmode_t\000"
 21202      68726D6F 
 21202      64655F74 
 21202      00
 21203              	.LASF347:
 21204 0bdd 646D6173 		.ascii	"dmastp\000"
 21204      747000
 21205              	.LASF757:
 21206 0be4 6C6F636B 		.ascii	"lock\000"
 21206      00
 21207              	.LASF466:
 21208 0be9 46415354 		.ascii	"FAST_DUTY_CYCLE_16_9\000"
 21208      5F445554 
 21208      595F4359 
ARM GAS  C:\Users\osour\AppData\Local\Temp\ccsBkKuy.s 			page 389


 21208      434C455F 
 21208      31365F39 
 21209              	.LASF22:
 21210 0bfe 75696E74 		.ascii	"uint64_t\000"
 21210      36345F74 
 21210      00
 21211              	.LASF213:
 21212 0c07 6E5F6374 		.ascii	"n_ctxswc\000"
 21212      78737763 
 21212      00
 21213              	.LASF936:
 21214 0c10 63616D5F 		.ascii	"cam_size\000"
 21214      73697A65 
 21214      00
 21215              	.LASF252:
 21216 0c19 63685F64 		.ascii	"ch_debug\000"
 21216      65627567 
 21216      00
 21217              	.LASF408:
 21218 0c22 696E6974 		.ascii	"init\000"
 21218      00
 21219              	.LASF130:
 21220 0c27 464D3152 		.ascii	"FM1R\000"
 21220      00
 21221              	.LASF780:
 21222 0c2c 5F5F746D 		.ascii	"__tm_min\000"
 21222      5F6D696E 
 21222      00
 21223              	.LASF324:
 21224 0c35 50414C43 		.ascii	"PALConfig\000"
 21224      6F6E6669 
 21224      6700
 21225              	.LASF693:
 21226 0c3f 7478636E 		.ascii	"txcnt\000"
 21226      7400
 21227              	.LASF877:
 21228 0c45 73756273 		.ascii	"subspaces\000"
 21228      70616365 
 21228      7300
 21229              	.LASF607:
 21230 0c4f 75736265 		.ascii	"usbeventcb_t\000"
 21230      76656E74 
 21230      63625F74 
 21230      00
 21231              	.LASF286:
 21232 0c5c 424C4B5F 		.ascii	"BLK_ACTIVE\000"
 21232      41435449 
 21232      564500
 21233              	.LASF784:
 21234 0c67 5F5F746D 		.ascii	"__tm_year\000"
 21234      5F796561 
 21234      7200
 21235              	.LASF254:
 21236 0c71 6576656E 		.ascii	"event_listener_t\000"
 21236      745F6C69 
 21236      7374656E 
 21236      65725F74 
ARM GAS  C:\Users\osour\AppData\Local\Temp\ccsBkKuy.s 			page 390


 21236      00
 21237              	.LASF1017:
 21238 0c82 72756E5F 		.ascii	"run_asercom2\000"
 21238      61736572 
 21238      636F6D32 
 21238      00
 21239              	.LASF810:
 21240 0c8f 5F626C6B 		.ascii	"_blksize\000"
 21240      73697A65 
 21240      00
 21241              	.LASF685:
 21242 0c98 6F74675F 		.ascii	"otg_ram_size\000"
 21242      72616D5F 
 21242      73697A65 
 21242      00
 21243              	.LASF917:
 21244 0ca5 73656C65 		.ascii	"selector\000"
 21244      63746F72 
 21244      00
 21245              	.LASF990:
 21246 0cae 67657442 		.ascii	"getBatteryValueRaw\000"
 21246      61747465 
 21246      72795661 
 21246      6C756552 
 21246      617700
 21247              	.LASF687:
 21248 0cc1 73746D33 		.ascii	"stm32_otg_params_t\000"
 21248      325F6F74 
 21248      675F7061 
 21248      72616D73 
 21248      5F7400
 21249              	.LASF680:
 21250 0cd4 72657376 		.ascii	"resvdD00\000"
 21250      64443030 
 21250      00
 21251              	.LASF185:
 21252 0cdd 52584352 		.ascii	"RXCRCR\000"
 21252      435200
 21253              	.LASF696:
 21254 0ce4 72786275 		.ascii	"rxbuf\000"
 21254      6600
 21255              	.LASF951:
 21256 0cea 67657458 		.ascii	"getXAxisGyro\000"
 21256      41786973 
 21256      4779726F 
 21256      00
 21257              	.LASF636:
 21258 0cf7 47494E54 		.ascii	"GINTSTS\000"
 21258      53545300 
 21259              	.LASF899:
 21260 0cff 4D415249 		.ascii	"MARIO_DEATH\000"
 21260      4F5F4445 
 21260      41544800 
 21261              	.LASF227:
 21262 0d0b 63685F6D 		.ascii	"ch_mutex\000"
 21262      75746578 
 21262      00
ARM GAS  C:\Users\osour\AppData\Local\Temp\ccsBkKuy.s 			page 391


 21263              	.LASF376:
 21264 0d14 7478656D 		.ascii	"txempty_event\000"
 21264      7074795F 
 21264      6576656E 
 21264      7400
 21265              	.LASF499:
 21266 0d22 50574D44 		.ascii	"PWMDriver\000"
 21266      72697665 
 21266      7200
 21267              	.LASF321:
 21268 0d2c 50474461 		.ascii	"PGData\000"
 21268      746100
 21269              	.LASF508:
 21270 0d33 50574D43 		.ascii	"PWMConfig\000"
 21270      6F6E6669 
 21270      6700
 21271              	.LASF859:
 21272 0d3d 5F6D6272 		.ascii	"_mbrlen_state\000"
 21272      6C656E5F 
 21272      73746174 
 21272      6500
 21273              	.LASF983:
 21274 0d4b 655F6765 		.ascii	"e_get_address\000"
 21274      745F6164 
 21274      64726573 
 21274      7300
 21275              	.LASF884:
 21276 0d59 76616C75 		.ascii	"value\000"
 21276      6500
 21277              	.LASF242:
 21278 0d5f 63665F6F 		.ascii	"cf_off_newer\000"
 21278      66665F6E 
 21278      65776572 
 21278      00
 21279              	.LASF665:
 21280 0d6c 44494550 		.ascii	"DIEPMSK\000"
 21280      4D534B00 
 21281              	.LASF632:
 21282 0d74 474F5447 		.ascii	"GOTGINT\000"
 21282      494E5400 
 21283              	.LASF927:
 21284 0d7c 6163637A 		.ascii	"accz\000"
 21284      00
 21285              	.LASF704:
 21286 0d81 6F75745F 		.ascii	"out_cb\000"
 21286      636200
 21287              	.LASF656:
 21288 0d88 4841494E 		.ascii	"HAINTMSK\000"
 21288      544D534B 
 21288      00
 21289              	.LASF566:
 21290 0d91 6F75745F 		.ascii	"out_params\000"
 21290      70617261 
 21290      6D7300
 21291              	.LASF198:
 21292 0d9c 73655F77 		.ascii	"se_wtobjp\000"
 21292      746F626A 
ARM GAS  C:\Users\osour\AppData\Local\Temp\ccsBkKuy.s 			page 392


 21292      7000
 21293              	.LASF109:
 21294 0da6 4A535152 		.ascii	"JSQR\000"
 21294      00
 21295              	.LASF818:
 21296 0dab 5F737464 		.ascii	"_stdin\000"
 21296      696E00
 21297              	.LASF866:
 21298 0db2 5F6E6D61 		.ascii	"_nmalloc\000"
 21298      6C6C6F63 
 21298      00
 21299              	.LASF446:
 21300 0dbb 64696572 		.ascii	"dier\000"
 21300      00
 21301              	.LASF544:
 21302 0dc0 69735F70 		.ascii	"is_protected\000"
 21302      726F7465 
 21302      63746564 
 21302      00
 21303              	.LASF933:
 21304 0dcd 63616D5F 		.ascii	"cam_width\000"
 21304      77696474 
 21304      6800
 21305              	.LASF402:
 21306 0dd7 4441435F 		.ascii	"DAC_DHRM_12BIT_RIGHT\000"
 21306      4448524D 
 21306      5F313242 
 21306      49545F52 
 21306      49474854 
 21307              	.LASF75:
 21308 0dec 76697274 		.ascii	"virtual_timer_t\000"
 21308      75616C5F 
 21308      74696D65 
 21308      725F7400 
 21309              	.LASF706:
 21310 0dfc 6F75745F 		.ascii	"out_maxsize\000"
 21310      6D617873 
 21310      697A6500 
 21311              	.LASF999:
 21312 0e08 655F6932 		.ascii	"e_i2cp_init\000"
 21312      63705F69 
 21312      6E697400 
 21313              	.LASF70:
 21314 0e14 725F6374 		.ascii	"r_ctx\000"
 21314      7800
 21315              	.LASF77:
 21316 0e1a 76745F6E 		.ascii	"vt_next\000"
 21316      65787400 
 21317              	.LASF481:
 21318 0e22 4932535F 		.ascii	"I2S_STOP\000"
 21318      53544F50 
 21318      00
 21319              	.LASF496:
 21320 0e2b 50574D5F 		.ascii	"PWM_STOP\000"
 21320      53544F50 
 21320      00
 21321              	.LASF25:
ARM GAS  C:\Users\osour\AppData\Local\Temp\ccsBkKuy.s 			page 393


 21322 0e34 7274636E 		.ascii	"rtcnt_t\000"
 21322      745F7400 
 21323              	.LASF346:
 21324 0e3c 6D757465 		.ascii	"mutex\000"
 21324      7800
 21325              	.LASF490:
 21326 0e42 73697A65 		.ascii	"size\000"
 21326      00
 21327              	.LASF394:
 21328 0e47 44414344 		.ascii	"DACDriver\000"
 21328      72697665 
 21328      7200
 21329              	.LASF410:
 21330 0e51 44414343 		.ascii	"DACConfig\000"
 21330      6F6E6669 
 21330      6700
 21331              	.LASF577:
 21332 0e5b 74787065 		.ascii	"txpending\000"
 21332      6E64696E 
 21332      6700
 21333              	.LASF431:
 21334 0e65 636C6F63 		.ascii	"clock\000"
 21334      6B00
 21335              	.LASF298:
 21336 0e6b 636C6561 		.ascii	"clear\000"
 21336      7200
 21337              	.LASF441:
 21338 0e71 43435852 		.ascii	"CCXR\000"
 21338      00
 21339              	.LASF139:
 21340 0e76 43414E5F 		.ascii	"CAN_TypeDef\000"
 21340      54797065 
 21340      44656600 
 21341              	.LASF739:
 21342 0e82 5F6F6666 		.ascii	"_off_t\000"
 21342      5F7400
 21343              	.LASF200:
 21344 0e89 63685F73 		.ascii	"ch_swc_event_t\000"
 21344      77635F65 
 21344      76656E74 
 21344      5F7400
 21345              	.LASF514:
 21346 0e98 53445F53 		.ascii	"SD_STOP\000"
 21346      544F5000 
 21347              	.LASF611:
 21348 0ea0 72657376 		.ascii	"resvd8\000"
 21348      643800
 21349              	.LASF23:
 21350 0ea7 73697A65 		.ascii	"size_t\000"
 21350      5F7400
 21351              	.LASF96:
 21352 0eae 6B65726E 		.ascii	"kernel_stats\000"
 21352      656C5F73 
 21352      74617473 
 21352      00
 21353              	.LASF678:
 21354 0ebb 72657376 		.ascii	"resvd880\000"
ARM GAS  C:\Users\osour\AppData\Local\Temp\ccsBkKuy.s 			page 394


 21354      64383830 
 21354      00
 21355              	.LASF901:
 21356 0ec4 57414C4B 		.ascii	"WALKING\000"
 21356      494E4700 
 21357              	.LASF892:
 21358 0ecc 70617261 		.ascii	"parameter_root\000"
 21358      6D657465 
 21358      725F726F 
 21358      6F7400
 21359              	.LASF744:
 21360 0edb 5F5F636F 		.ascii	"__count\000"
 21360      756E7400 
 21361              	.LASF17:
 21362 0ee3 75696E74 		.ascii	"uint8_t\000"
 21362      385F7400 
 21363              	.LASF930:
 21364 0eeb 6779726F 		.ascii	"gyroy\000"
 21364      7900
 21365              	.LASF615:
 21366 0ef1 72657376 		.ascii	"resvd14\000"
 21366      64313400 
 21367              	.LASF616:
 21368 0ef9 72657376 		.ascii	"resvd18\000"
 21368      64313800 
 21369              	.LASF72:
 21370 0f01 725F6F6C 		.ascii	"r_older\000"
 21370      64657200 
 21371              	.LASF40:
 21372 0f09 705F7072 		.ascii	"p_prev\000"
 21372      657600
 21373              	.LASF244:
 21374 0f10 63665F6F 		.ascii	"cf_off_name\000"
 21374      66665F6E 
 21374      616D6500 
 21375              	.LASF507:
 21376 0f1c 50574D43 		.ascii	"PWMChannelConfig\000"
 21376      68616E6E 
 21376      656C436F 
 21376      6E666967 
 21376      00
 21377              	.LASF506:
 21378 0f2d 70776D63 		.ascii	"pwmcnt_t\000"
 21378      6E745F74 
 21378      00
 21379              	.LASF674:
 21380 0f36 44494550 		.ascii	"DIEPEMPMSK\000"
 21380      454D504D 
 21380      534B00
 21381              	.LASF732:
 21382 0f41 64636D69 		.ascii	"dcmicallback_t\000"
 21382      63616C6C 
 21382      6261636B 
 21382      5F7400
 21383              	.LASF619:
 21384 0f50 44494550 		.ascii	"DIEPCTL\000"
 21384      43544C00 
ARM GAS  C:\Users\osour\AppData\Local\Temp\ccsBkKuy.s 			page 395


 21385              	.LASF260:
 21386 0f58 656C5F77 		.ascii	"el_wflags\000"
 21386      666C6167 
 21386      7300
 21387              	.LASF575:
 21388 0f62 6F746770 		.ascii	"otgparams\000"
 21388      6172616D 
 21388      7300
 21389              	.LASF201:
 21390 0f6c 74625F73 		.ascii	"tb_size\000"
 21390      697A6500 
 21391              	.LASF318:
 21392 0f74 50444461 		.ascii	"PDData\000"
 21392      746100
 21393              	.LASF1012:
 21394 0f7b 655F706F 		.ascii	"e_poxxxx_wait_img_ready\000"
 21394      78787878 
 21394      5F776169 
 21394      745F696D 
 21394      675F7265 
 21395              	.LASF539:
 21396 0f93 73637261 		.ascii	"scratchpad\000"
 21396      74636870 
 21396      616400
 21397              	.LASF832:
 21398 0f9e 5F637674 		.ascii	"_cvtbuf\000"
 21398      62756600 
 21399              	.LASF708:
 21400 0fa6 6F75745F 		.ascii	"out_state\000"
 21400      73746174 
 21400      6500
 21401              	.LASF264:
 21402 0fb0 696F5F71 		.ascii	"io_queue_t\000"
 21402      75657565 
 21402      5F7400
 21403              	.LASF822:
 21404 0fbb 5F656D65 		.ascii	"_emergency\000"
 21404      7267656E 
 21404      637900
 21405              	.LASF555:
 21406 0fc6 73706973 		.ascii	"spistate_t\000"
 21406      74617465 
 21406      5F7400
 21407              	.LASF913:
 21408 0fd1 61636365 		.ascii	"acceleration\000"
 21408      6C657261 
 21408      74696F6E 
 21408      00
 21409              	.LASF452:
 21410 0fde 4932435F 		.ascii	"I2C_STOP\000"
 21410      53544F50 
 21410      00
 21411              	.LASF474:
 21412 0fe7 61646472 		.ascii	"addr\000"
 21412      00
 21413              	.LASF908:
 21414 0fec 45585445 		.ascii	"EXTERNAL_SONG\000"
ARM GAS  C:\Users\osour\AppData\Local\Temp\ccsBkKuy.s 			page 396


 21414      524E414C 
 21414      5F534F4E 
 21414      4700
 21415              	.LASF124:
 21416 0ffa 52463052 		.ascii	"RF0R\000"
 21416      00
 21417              	.LASF336:
 21418 0fff 4144435F 		.ascii	"ADC_ERR_DMAFAILURE\000"
 21418      4552525F 
 21418      444D4146 
 21418      41494C55 
 21418      524500
 21419              	.LASF553:
 21420 1012 5350495F 		.ascii	"SPI_ACTIVE\000"
 21420      41435449 
 21420      564500
 21421              	.LASF748:
 21422 101d 656E7669 		.ascii	"environ\000"
 21422      726F6E00 
 21423              	.LASF1015:
 21424 1025 2E2E2F2E 		.ascii	"../../lib/e-puck2_main-processor/src/epuck1x/Aserco"
 21424      2E2F6C69 
 21424      622F652D 
 21424      7075636B 
 21424      325F6D61 
 21425 1058 6D322E63 		.ascii	"m2.c\000"
 21425      00
 21426              	.LASF420:
 21427 105d 45585443 		.ascii	"EXTChannelConfig\000"
 21427      68616E6E 
 21427      656C436F 
 21427      6E666967 
 21427      00
 21428              	.LASF301:
 21429 106e 4F535045 		.ascii	"OSPEEDR\000"
 21429      45445200 
 21430              	.LASF384:
 21431 1076 4441435F 		.ascii	"DAC_READY\000"
 21431      52454144 
 21431      5900
 21432              	.LASF643:
 21433 1080 72657376 		.ascii	"resvd30\000"
 21433      64333000 
 21434              	.LASF743:
 21435 1088 5F5F7763 		.ascii	"__wchb\000"
 21435      686200
 21436              	.LASF644:
 21437 108f 72657376 		.ascii	"resvd34\000"
 21437      64333400 
 21438              	.LASF672:
 21439 1097 44564255 		.ascii	"DVBUSPULSE\000"
 21439      5350554C 
 21439      534500
 21440              	.LASF781:
 21441 10a2 5F5F746D 		.ascii	"__tm_hour\000"
 21441      5F686F75 
 21441      7200
ARM GAS  C:\Users\osour\AppData\Local\Temp\ccsBkKuy.s 			page 397


 21442              	.LASF939:
 21443 10ac 66697273 		.ascii	"first\000"
 21443      7400
 21444              	.LASF285:
 21445 10b2 424C4B5F 		.ascii	"BLK_STOP\000"
 21445      53544F50 
 21445      00
 21446              	.LASF522:
 21447 10bb 53657269 		.ascii	"SerialDriverVMT\000"
 21447      616C4472 
 21447      69766572 
 21447      564D5400 
 21448              	.LASF593:
 21449 10cb 5553425F 		.ascii	"USB_EP0_ERROR\000"
 21449      4550305F 
 21449      4552524F 
 21449      5200
 21450              	.LASF741:
 21451 10d9 77696E74 		.ascii	"wint_t\000"
 21451      5F7400
 21452              	.LASF545:
 21453 10e0 636F6E6E 		.ascii	"connect\000"
 21453      65637400 
 21454              	.LASF125:
 21455 10e8 52463152 		.ascii	"RF1R\000"
 21455      00
 21456              	.LASF339:
 21457 10ed 41444344 		.ascii	"ADCDriver\000"
 21457      72697665 
 21457      7200
 21458              	.LASF686:
 21459 10f7 6E756D5F 		.ascii	"num_endpoints\000"
 21459      656E6470 
 21459      6F696E74 
 21459      7300
 21460              	.LASF362:
 21461 1105 41444343 		.ascii	"ADCConfig\000"
 21461      6F6E6669 
 21461      6700
 21462              	.LASF694:
 21463 110f 746F7473 		.ascii	"totsize\000"
 21463      697A6500 
 21464              	.LASF890:
 21465 1117 5F706172 		.ascii	"_param_val_matrix_s\000"
 21465      616D5F76 
 21465      616C5F6D 
 21465      61747269 
 21465      785F7300 
 21466              	.LASF840:
 21467 112b 5F6E696F 		.ascii	"_niobs\000"
 21467      627300
 21468              	.LASF515:
 21469 1132 53445F52 		.ascii	"SD_READY\000"
 21469      45414459 
 21469      00
 21470              	.LASF609:
 21471 113b 75736267 		.ascii	"usbgetdescriptor_t\000"
ARM GAS  C:\Users\osour\AppData\Local\Temp\ccsBkKuy.s 			page 398


 21471      65746465 
 21471      73637269 
 21471      70746F72 
 21471      5F7400
 21472              	.LASF1014:
 21473 114e 474E5520 		.ascii	"GNU C11 7.2.1 20170904 (release) [ARM/embedded-7-br"
 21473      43313120 
 21473      372E322E 
 21473      31203230 
 21473      31373039 
 21474 1181 616E6368 		.ascii	"anch revision 255204] -mcpu=cortex-m4 -mfloat-abi=h"
 21474      20726576 
 21474      6973696F 
 21474      6E203235 
 21474      35323034 
 21475 11b4 61726420 		.ascii	"ard -mfpu=fpv4-sp-d16 -mno-thumb-interwork -mthumb "
 21475      2D6D6670 
 21475      753D6670 
 21475      76342D73 
 21475      702D6431 
 21476 11e7 2D676764 		.ascii	"-ggdb -O2 -fomit-frame-pointer -falign-functions=16"
 21476      62202D4F 
 21476      32202D66 
 21476      6F6D6974 
 21476      2D667261 
 21477 121a 202D666E 		.ascii	" -fno-strict-aliasing -fstack-protector-all -ffunct"
 21477      6F2D7374 
 21477      72696374 
 21477      2D616C69 
 21477      6173696E 
 21478 124d 696F6E2D 		.ascii	"ion-sections -fdata-sections -fno-common -fsingle-p"
 21478      73656374 
 21478      696F6E73 
 21478      202D6664 
 21478      6174612D 
 21479 1280 72656369 		.ascii	"recision-constant\000"
 21479      73696F6E 
 21479      2D636F6E 
 21479      7374616E 
 21479      7400
 21480              	.LASF387:
 21481 1292 4441435F 		.ascii	"DAC_ERROR\000"
 21481      4552524F 
 21481      5200
 21482              	.LASF817:
 21483 129c 5F657272 		.ascii	"_errno\000"
 21483      6E6F00
 21484              	.LASF768:
 21485 12a3 6D657373 		.ascii	"messagebus_t\000"
 21485      61676562 
 21485      75735F74 
 21485      00
 21486              	.LASF588:
 21487 12b0 5553425F 		.ascii	"USB_EP0_TX\000"
 21487      4550305F 
 21487      545800
 21488              	.LASF567:
ARM GAS  C:\Users\osour\AppData\Local\Temp\ccsBkKuy.s 			page 399


 21489 12bb 65703073 		.ascii	"ep0state\000"
 21489      74617465 
 21489      00
 21490              	.LASF880:
 21491 12c4 70617261 		.ascii	"parameter_s\000"
 21491      6D657465 
 21491      725F7300 
 21492              	.LASF754:
 21493 12d0 746F7069 		.ascii	"topic_s\000"
 21493      635F7300 
 21494              	.LASF278:
 21495 12d8 69666372 		.ascii	"ifcr\000"
 21495      00
 21496              	.LASF906:
 21497 12dd 53455645 		.ascii	"SEVEN_NATION_ARMY\000"
 21497      4E5F4E41 
 21497      54494F4E 
 21497      5F41524D 
 21497      5900
 21498              	.LASF480:
 21499 12ef 4932535F 		.ascii	"I2S_UNINIT\000"
 21499      554E494E 
 21499      495400
 21500              	.LASF989:
 21501 12fa 706C6179 		.ascii	"playMelody\000"
 21501      4D656C6F 
 21501      647900
 21502              	.LASF307:
 21503 1305 73746D33 		.ascii	"stm32_gpio_t\000"
 21503      325F6770 
 21503      696F5F74 
 21503      00
 21504              	.LASF217:
 21505 1312 7264796D 		.ascii	"rdymsg\000"
 21505      736700
 21506              	.LASF789:
 21507 1319 5F666E61 		.ascii	"_fnargs\000"
 21507      72677300 
 21508              	.LASF497:
 21509 1321 50574D5F 		.ascii	"PWM_READY\000"
 21509      52454144 
 21509      5900
 21510              	.LASF115:
 21511 132b 54445452 		.ascii	"TDTR\000"
 21511      00
 21512              	.LASF123:
 21513 1330 43414E5F 		.ascii	"CAN_FilterRegister_TypeDef\000"
 21513      46696C74 
 21513      65725265 
 21513      67697374 
 21513      65725F54 
 21514              	.LASF377:
 21515 134b 6572726F 		.ascii	"error_event\000"
 21515      725F6576 
 21515      656E7400 
 21516              	.LASF352:
 21517 1357 6E756D5F 		.ascii	"num_channels\000"
ARM GAS  C:\Users\osour\AppData\Local\Temp\ccsBkKuy.s 			page 400


 21517      6368616E 
 21517      6E656C73 
 21517      00
 21518              	.LASF646:
 21519 1364 72657376 		.ascii	"resvd58\000"
 21519      64353800 
 21520              	.LASF695:
 21521 136c 55534249 		.ascii	"USBInEndpointState\000"
 21521      6E456E64 
 21521      706F696E 
 21521      74537461 
 21521      746500
 21522              	.LASF41:
 21523 137f 705F7072 		.ascii	"p_prio\000"
 21523      696F00
 21524              	.LASF882:
 21525 1386 64656669 		.ascii	"defined\000"
 21525      6E656400 
 21526              	.LASF265:
 21527 138e 696F5F71 		.ascii	"io_queue\000"
 21527      75657565 
 21527      00
 21528              	.LASF315:
 21529 1397 50414461 		.ascii	"PAData\000"
 21529      746100
 21530              	.LASF13:
 21531 139e 5F5F7569 		.ascii	"__uint64_t\000"
 21531      6E743634 
 21531      5F7400
 21532              	.LASF995:
 21533 13a9 73746F70 		.ascii	"stopCurrentMelody\000"
 21533      43757272 
 21533      656E744D 
 21533      656C6F64 
 21533      7900
 21534              	.LASF774:
 21535 13bb 5F6E6578 		.ascii	"_next\000"
 21535      7400
 21536              	.LASF937:
 21537 13c1 63616D5F 		.ascii	"cam_x1\000"
 21537      783100
 21538              	.LASF502:
 21539 13c8 70776D63 		.ascii	"pwmcallback_t\000"
 21539      616C6C62 
 21539      61636B5F 
 21539      7400
 21540              	.LASF395:
 21541 13d6 70617261 		.ascii	"params\000"
 21541      6D7300
 21542              	.LASF592:
 21543 13dd 5553425F 		.ascii	"USB_EP0_SENDING_STS\000"
 21543      4550305F 
 21543      53454E44 
 21543      494E475F 
 21543      53545300 
 21544              	.LASF857:
 21545 13f1 5F736967 		.ascii	"_signal_buf\000"
ARM GAS  C:\Users\osour\AppData\Local\Temp\ccsBkKuy.s 			page 401


 21545      6E616C5F 
 21545      62756600 
 21546              	.LASF981:
 21547 13fd 655F6765 		.ascii	"e_get_acc_filtered\000"
 21547      745F6163 
 21547      635F6669 
 21547      6C746572 
 21547      656400
 21548              	.LASF457:
 21549 1410 69326373 		.ascii	"i2cstate_t\000"
 21549      74617465 
 21549      5F7400
 21550              	.LASF803:
 21551 141b 5F636F6F 		.ascii	"_cookie\000"
 21551      6B696500 
 21552              	.LASF873:
 21553 1423 70617261 		.ascii	"parameter_namespace_t\000"
 21553      6D657465 
 21553      725F6E61 
 21553      6D657370 
 21553      6163655F 
 21554              	.LASF994:
 21555 1439 655F636C 		.ascii	"e_close_sound\000"
 21555      6F73655F 
 21555      736F756E 
 21555      6400
 21556              	.LASF594:
 21557 1447 75736265 		.ascii	"usbep0state_t\000"
 21557      70307374 
 21557      6174655F 
 21557      7400
 21558              	.LASF399:
 21559 1455 64616365 		.ascii	"dacerror_t\000"
 21559      72726F72 
 21559      5F7400
 21560              	.LASF127:
 21561 1460 7354784D 		.ascii	"sTxMailBox\000"
 21561      61696C42 
 21561      6F7800
 21562              	.LASF334:
 21563 146b 61646373 		.ascii	"adcsample_t\000"
 21563      616D706C 
 21563      655F7400 
 21564              	.LASF432:
 21565 1477 67707463 		.ascii	"gptcallback_t\000"
 21565      616C6C62 
 21565      61636B5F 
 21565      7400
 21566              	.LASF268:
 21567 1485 715F6275 		.ascii	"q_buffer\000"
 21567      66666572 
 21567      00
 21568              	.LASF39:
 21569 148e 705F6E65 		.ascii	"p_next\000"
 21569      787400
 21570              	.LASF479:
 21571 1495 49324344 		.ascii	"I2CD1\000"
ARM GAS  C:\Users\osour\AppData\Local\Temp\ccsBkKuy.s 			page 402


 21571      3100
 21572              	.LASF620:
 21573 149b 72657376 		.ascii	"resvd4\000"
 21573      643400
 21574              	.LASF562:
 21575 14a2 55534244 		.ascii	"USBDriver\000"
 21575      72697665 
 21575      7200
 21576              	.LASF679:
 21577 14ac 72657376 		.ascii	"resvd8C0\000"
 21577      64384330 
 21577      00
 21578              	.LASF716:
 21579 14b5 55534243 		.ascii	"USBConfig\000"
 21579      6F6E6669 
 21579      6700
 21580              	.LASF622:
 21581 14bf 72657376 		.ascii	"resvdC\000"
 21581      644300
 21582              	.LASF509:
 21583 14c6 50574D44 		.ascii	"PWMD2\000"
 21583      3200
 21584              	.LASF510:
 21585 14cc 50574D44 		.ascii	"PWMD3\000"
 21585      3300
 21586              	.LASF511:
 21587 14d2 50574D44 		.ascii	"PWMD4\000"
 21587      3400
 21588              	.LASF512:
 21589 14d8 50574D44 		.ascii	"PWMD5\000"
 21589      3500
 21590              	.LASF943:
 21591 14de 69725F6C 		.ascii	"ir_last_move\000"
 21591      6173745F 
 21591      6D6F7665 
 21591      00
 21592              	.LASF520:
 21593 14eb 6F717565 		.ascii	"oqueue\000"
 21593      756500
 21594              	.LASF29:
 21595 14f2 74726566 		.ascii	"trefs_t\000"
 21595      735F7400 
 21596              	.LASF58:
 21597 14fa 705F6D70 		.ascii	"p_mpool\000"
 21597      6F6F6C00 
 21598              	.LASF957:
 21599 1502 655F7561 		.ascii	"e_uart1_sending\000"
 21599      7274315F 
 21599      73656E64 
 21599      696E6700 
 21600              	.LASF407:
 21601 1512 44414343 		.ascii	"DACConversionGroup\000"
 21601      6F6E7665 
 21601      7273696F 
 21601      6E47726F 
 21601      757000
 21602              	.LASF157:
ARM GAS  C:\Users\osour\AppData\Local\Temp\ccsBkKuy.s 			page 403


 21603 1525 43575354 		.ascii	"CWSTRTR\000"
 21603      52545200 
 21604              	.LASF779:
 21605 152d 5F5F746D 		.ascii	"__tm_sec\000"
 21605      5F736563 
 21605      00
 21606              	.LASF709:
 21607 1536 696E5F6D 		.ascii	"in_multiplier\000"
 21607      756C7469 
 21607      706C6965 
 21607      7200
 21608              	.LASF332:
 21609 1544 4144435F 		.ascii	"ADC_ERROR\000"
 21609      4552524F 
 21609      5200
 21610              	.LASF788:
 21611 154e 5F6F6E5F 		.ascii	"_on_exit_args\000"
 21611      65786974 
 21611      5F617267 
 21611      7300
 21612              	.LASF849:
 21613 155c 5F6C6F63 		.ascii	"_localtime_buf\000"
 21613      616C7469 
 21613      6D655F62 
 21613      756600
 21614              	.LASF27:
 21615 156b 746D6F64 		.ascii	"tmode_t\000"
 21615      655F7400 
 21616              	.LASF727:
 21617 1573 44434D49 		.ascii	"DCMI_ERROR\000"
 21617      5F455252 
 21617      4F5200
 21618              	.LASF330:
 21619 157e 4144435F 		.ascii	"ADC_ACTIVE\000"
 21619      41435449 
 21619      564500
 21620              	.LASF797:
 21621 1589 5F626173 		.ascii	"_base\000"
 21621      6500
 21622              	.LASF106:
 21623 158f 53515231 		.ascii	"SQR1\000"
 21623      00
 21624              	.LASF107:
 21625 1594 53515232 		.ascii	"SQR2\000"
 21625      00
 21626              	.LASF108:
 21627 1599 53515233 		.ascii	"SQR3\000"
 21627      00
 21628              	.LASF303:
 21629 159e 42535252 		.ascii	"BSRR\000"
 21629      00
 21630              	.LASF987:
 21631 15a3 655F7365 		.ascii	"e_set_front_led\000"
 21631      745F6672 
 21631      6F6E745F 
 21631      6C656400 
 21632              	.LASF282:
ARM GAS  C:\Users\osour\AppData\Local\Temp\ccsBkKuy.s 			page 404


 21633 15b3 73746D33 		.ascii	"stm32_dma_stream_t\000"
 21633      325F646D 
 21633      615F7374 
 21633      7265616D 
 21633      5F7400
 21634              	.LASF714:
 21635 15c6 72657175 		.ascii	"requests_hook_cb\000"
 21635      65737473 
 21635      5F686F6F 
 21635      6B5F6362 
 21635      00
 21636              	.LASF862:
 21637 15d7 5F776372 		.ascii	"_wcrtomb_state\000"
 21637      746F6D62 
 21637      5F737461 
 21637      746500
 21638              	.LASF531:
 21639 15e6 5344435F 		.ascii	"SDC_MODE_8BIT\000"
 21639      4D4F4445 
 21639      5F384249 
 21639      5400
 21640              	.LASF692:
 21641 15f4 74787369 		.ascii	"txsize\000"
 21641      7A6500
 21642              	.LASF403:
 21643 15fb 4441435F 		.ascii	"DAC_DHRM_12BIT_LEFT\000"
 21643      4448524D 
 21643      5F313242 
 21643      49545F4C 
 21643      45465400 
 21644              	.LASF985:
 21645 160f 69734570 		.ascii	"isEpuckVersion1_3\000"
 21645      75636B56 
 21645      65727369 
 21645      6F6E315F 
 21645      3300
 21646              	.LASF500:
 21647 1621 70657269 		.ascii	"period\000"
 21647      6F6400
 21648              	.LASF959:
 21649 1628 655F6932 		.ascii	"e_i2cp_enable\000"
 21649      63705F65 
 21649      6E61626C 
 21649      6500
 21650              	.LASF456:
 21651 1636 4932435F 		.ascii	"I2C_LOCKED\000"
 21651      4C4F434B 
 21651      454400
 21652              	.LASF920:
 21653 1641 73706565 		.ascii	"speedl\000"
 21653      646C00
 21654              	.LASF88:
 21655 1648 6973725F 		.ascii	"isr_cnt\000"
 21655      636E7400 
 21656              	.LASF988:
 21657 1650 655F706C 		.ascii	"e_play_sound\000"
 21657      61795F73 
ARM GAS  C:\Users\osour\AppData\Local\Temp\ccsBkKuy.s 			page 405


 21657      6F756E64 
 21657      00
 21658              	.LASF919:
 21659 165d 73706565 		.ascii	"speedr\000"
 21659      647200
 21660              	.LASF583:
 21661 1664 5553425F 		.ascii	"USB_READY\000"
 21661      52454144 
 21661      5900
 21662              	.LASF528:
 21663 166e 72656164 		.ascii	"readt\000"
 21663      7400
 21664              	.LASF814:
 21665 1674 5F6D6273 		.ascii	"_mbstate\000"
 21665      74617465 
 21665      00
 21666              	.LASF635:
 21667 167d 47525354 		.ascii	"GRSTCTL\000"
 21667      43544C00 
 21668              	.LASF429:
 21669 1685 67707473 		.ascii	"gptstate_t\000"
 21669      74617465 
 21669      5F7400
 21670              	.LASF1003:
 21671 1690 655F6765 		.ascii	"e_getchar_uart1\000"
 21671      74636861 
 21671      725F7561 
 21671      72743100 
 21672              	.LASF16:
 21673 16a0 696E7438 		.ascii	"int8_t\000"
 21673      5F7400
 21674              	.LASF772:
 21675 16a7 5F5F554C 		.ascii	"__ULong\000"
 21675      6F6E6700 
 21676              	.LASF87:
 21677 16af 70616E69 		.ascii	"panic_msg\000"
 21677      635F6D73 
 21677      6700
 21678              	.LASF554:
 21679 16b9 5350495F 		.ascii	"SPI_COMPLETE\000"
 21679      434F4D50 
 21679      4C455445 
 21679      00
 21680              	.LASF176:
 21681 16c6 4454494D 		.ascii	"DTIMER\000"
 21681      455200
 21682              	.LASF71:
 21683 16cd 725F6E65 		.ascii	"r_newer\000"
 21683      77657200 
 21684              	.LASF600:
 21685 16d5 5553425F 		.ascii	"USB_EVENT_STALLED\000"
 21685      4556454E 
 21685      545F5354 
 21685      414C4C45 
 21685      4400
 21686              	.LASF251:
 21687 16e7 63686465 		.ascii	"chdebug_t\000"
ARM GAS  C:\Users\osour\AppData\Local\Temp\ccsBkKuy.s 			page 406


 21687      6275675F 
 21687      7400
 21688              	.LASF698:
 21689 16f1 72787369 		.ascii	"rxsize\000"
 21689      7A6500
 21690              	.LASF963:
 21691 16f8 655F6765 		.ascii	"e_get_steps_right\000"
 21691      745F7374 
 21691      6570735F 
 21691      72696768 
 21691      7400
 21692              	.LASF614:
 21693 170a 48435453 		.ascii	"HCTSIZ\000"
 21693      495A00
 21694              	.LASF597:
 21695 1711 5553425F 		.ascii	"USB_EVENT_CONFIGURED\000"
 21695      4556454E 
 21695      545F434F 
 21695      4E464947 
 21695      55524544 
 21696              	.LASF546:
 21697 1726 64697363 		.ascii	"disconnect\000"
 21697      6F6E6E65 
 21697      637400
 21698              	.LASF752:
 21699 1731 6F70746F 		.ascii	"optopt\000"
 21699      707400
 21700              	.LASF525:
 21701 1738 70757474 		.ascii	"putt\000"
 21701      00
 21702              	.LASF30:
 21703 173d 74736C69 		.ascii	"tslices_t\000"
 21703      6365735F 
 21703      7400
 21704              	.LASF847:
 21705 1747 5F737472 		.ascii	"_strtok_last\000"
 21705      746F6B5F 
 21705      6C617374 
 21705      00
 21706              	.LASF238:
 21707 1754 63685F74 		.ascii	"ch_timesize\000"
 21707      696D6573 
 21707      697A6500 
 21708              	.LASF579:
 21709 1760 77615F70 		.ascii	"wa_pump\000"
 21709      756D7000 
 21710              	.LASF181:
 21711 1768 4649464F 		.ascii	"FIFOCNT\000"
 21711      434E5400 
 21712              	.LASF263:
 21713 1770 6576656E 		.ascii	"event_source_t\000"
 21713      745F736F 
 21713      75726365 
 21713      5F7400
 21714              	.LASF649:
 21715 177f 72657376 		.ascii	"resvd140\000"
 21715      64313430 
ARM GAS  C:\Users\osour\AppData\Local\Temp\ccsBkKuy.s 			page 407


 21715      00
 21716              	.LASF79:
 21717 1788 76745F64 		.ascii	"vt_delta\000"
 21717      656C7461 
 21717      00
 21718              	.LASF843:
 21719 1791 5F736565 		.ascii	"_seed\000"
 21719      6400
 21720              	.LASF202:
 21721 1797 74625F70 		.ascii	"tb_ptr\000"
 21721      747200
 21722              	.LASF406:
 21723 179e 74726967 		.ascii	"trigger\000"
 21723      67657200 
 21724              	.LASF806:
 21725 17a6 5F736565 		.ascii	"_seek\000"
 21725      6B00
 21726              	.LASF598:
 21727 17ac 5553425F 		.ascii	"USB_EVENT_SUSPEND\000"
 21727      4556454E 
 21727      545F5355 
 21727      5350454E 
 21727      4400
 21728              	.LASF18:
 21729 17be 696E7431 		.ascii	"int16_t\000"
 21729      365F7400 
 21730              	.LASF425:
 21731 17c6 4750545F 		.ascii	"GPT_STOP\000"
 21731      53544F50 
 21731      00
 21732              	.LASF114:
 21733 17cf 4144435F 		.ascii	"ADC_TypeDef\000"
 21733      54797065 
 21733      44656600 
 21734              	.LASF7:
 21735 17db 73686F72 		.ascii	"short unsigned int\000"
 21735      7420756E 
 21735      7369676E 
 21735      65642069 
 21735      6E7400
 21736              	.LASF468:
 21737 17ee 6F705F6D 		.ascii	"op_mode\000"
 21737      6F646500 
 21738              	.LASF2:
 21739 17f6 7369676E 		.ascii	"signed char\000"
 21739      65642063 
 21739      68617200 
 21740              	.LASF879:
 21741 1802 70617261 		.ascii	"parameter_t\000"
 21741      6D657465 
 21741      725F7400 
 21742              	.LASF537:
 21743 180e 63617264 		.ascii	"cardmode\000"
 21743      6D6F6465 
 21743      00
 21744              	.LASF50:
 21745 1817 705F7072 		.ascii	"p_preempt\000"
ARM GAS  C:\Users\osour\AppData\Local\Temp\ccsBkKuy.s 			page 408


 21745      65656D70 
 21745      7400
 21746              	.LASF36:
 21747 1821 75636E74 		.ascii	"ucnt_t\000"
 21747      5F7400
 21748              	.LASF117:
 21749 1828 54444852 		.ascii	"TDHR\000"
 21749      00
 21750              	.LASF328:
 21751 182d 4144435F 		.ascii	"ADC_STOP\000"
 21751      53544F50 
 21751      00
 21752              	.LASF591:
 21753 1836 5553425F 		.ascii	"USB_EP0_RX\000"
 21753      4550305F 
 21753      525800
 21754              	.LASF503:
 21755 1841 70776D6D 		.ascii	"pwmmode_t\000"
 21755      6F64655F 
 21755      7400
 21756              	.LASF572:
 21757 184b 73746174 		.ascii	"status\000"
 21757      757300
 21758              	.LASF177:
 21759 1852 444C454E 		.ascii	"DLEN\000"
 21759      00
 21760              	.LASF997:
 21761 1857 67657473 		.ascii	"getselector\000"
 21761      656C6563 
 21761      746F7200 
 21762              	.LASF530:
 21763 1863 5344435F 		.ascii	"SDC_MODE_4BIT\000"
 21763      4D4F4445 
 21763      5F344249 
 21763      5400
 21764              	.LASF604:
 21765 1871 55534244 		.ascii	"USBDescriptor\000"
 21765      65736372 
 21765      6970746F 
 21765      7200
 21766              	.LASF1013:
 21767 187f 64636D69 		.ascii	"dcmi_get_last_image_ptr\000"
 21767      5F676574 
 21767      5F6C6173 
 21767      745F696D 
 21767      6167655F 
 21768              	.LASF557:
 21769 1897 73706963 		.ascii	"spicallback_t\000"
 21769      616C6C62 
 21769      61636B5F 
 21769      7400
 21770              	.LASF830:
 21771 18a5 5F667265 		.ascii	"_freelist\000"
 21771      656C6973 
 21771      7400
 21772              	.LASF573:
 21773 18af 61646472 		.ascii	"address\000"
ARM GAS  C:\Users\osour\AppData\Local\Temp\ccsBkKuy.s 			page 409


 21773      65737300 
 21774              	.LASF53:
 21775 18b7 705F6D73 		.ascii	"p_msgqueue\000"
 21775      67717565 
 21775      756500
 21776              	.LASF248:
 21777 18c2 63665F6F 		.ascii	"cf_off_refs\000"
 21777      66665F72 
 21777      65667300 
 21778              	.LASF541:
 21779 18ce 53444343 		.ascii	"SDCConfig\000"
 21779      6F6E6669 
 21779      6700
 21780              	.LASF229:
 21781 18d8 6D5F6F77 		.ascii	"m_owner\000"
 21781      6E657200 
 21782              	.LASF811:
 21783 18e0 5F6F6666 		.ascii	"_offset\000"
 21783      73657400 
 21784              	.LASF887:
 21785 18e8 5F706172 		.ascii	"_param_val_vector_s\000"
 21785      616D5F76 
 21785      616C5F76 
 21785      6563746F 
 21785      725F7300 
 21786              	.LASF99:
 21787 18fc 53797374 		.ascii	"SystemCoreClock\000"
 21787      656D436F 
 21787      7265436C 
 21787      6F636B00 
 21788              	.LASF350:
 21789 190c 61646365 		.ascii	"adcerrorcallback_t\000"
 21789      72726F72 
 21789      63616C6C 
 21789      6261636B 
 21789      5F7400
 21790              	.LASF385:
 21791 191f 4441435F 		.ascii	"DAC_ACTIVE\000"
 21791      41435449 
 21791      564500
 21792              	.LASF938:
 21793 192a 63616D5F 		.ascii	"cam_y1\000"
 21793      793100
 21794              	.LASF340:
 21795 1931 73746174 		.ascii	"state\000"
 21795      6500
 21796              	.LASF982:
 21797 1937 655F6765 		.ascii	"e_get_check\000"
 21797      745F6368 
 21797      65636B00 
 21798              	.LASF236:
 21799 1943 63685F76 		.ascii	"ch_version\000"
 21799      65727369 
 21799      6F6E00
 21800              	.LASF796:
 21801 194e 5F5F7362 		.ascii	"__sbuf\000"
 21801      756600
ARM GAS  C:\Users\osour\AppData\Local\Temp\ccsBkKuy.s 			page 410


 21802              	.LASF538:
 21803 1955 7364696F 		.ascii	"sdio\000"
 21803      00
 21804              	.LASF976:
 21805 195a 655F6765 		.ascii	"e_get_calibrated_prox\000"
 21805      745F6361 
 21805      6C696272 
 21805      61746564 
 21805      5F70726F 
 21806              	.LASF140:
 21807 1970 53575452 		.ascii	"SWTRIGR\000"
 21807      49475200 
 21808              	.LASF590:
 21809 1978 5553425F 		.ascii	"USB_EP0_WAITING_STS\000"
 21809      4550305F 
 21809      57414954 
 21809      494E475F 
 21809      53545300 
 21810              	.LASF168:
 21811 198c 4932435F 		.ascii	"I2C_TypeDef\000"
 21811      54797065 
 21811      44656600 
 21812              	.LASF121:
 21813 1998 52444852 		.ascii	"RDHR\000"
 21813      00
 21814              	.LASF751:
 21815 199d 6F707465 		.ascii	"opterr\000"
 21815      727200
 21816              	.LASF845:
 21817 19a4 5F616464 		.ascii	"_add\000"
 21817      00
 21818              	.LASF439:
 21819 19a9 444D4152 		.ascii	"DMAR\000"
 21819      00
 21820              	.LASF445:
 21821 19ae 63616C6C 		.ascii	"callback\000"
 21821      6261636B 
 21821      00
 21822              	.LASF92:
 21823 19b7 63685F73 		.ascii	"ch_system\000"
 21823      79737465 
 21823      6D00
 21824              	.LASF169:
 21825 19c1 504F5745 		.ascii	"POWER\000"
 21825      5200
 21826              	.LASF816:
 21827 19c7 5F726565 		.ascii	"_reent\000"
 21827      6E7400
 21828              	.LASF90:
 21829 19ce 74726163 		.ascii	"trace_buffer\000"
 21829      655F6275 
 21829      66666572 
 21829      00
 21830              	.LASF856:
 21831 19db 5F6C3634 		.ascii	"_l64a_buf\000"
 21831      615F6275 
 21831      6600
ARM GAS  C:\Users\osour\AppData\Local\Temp\ccsBkKuy.s 			page 411


 21832              	.LASF848:
 21833 19e5 5F617363 		.ascii	"_asctime_buf\000"
 21833      74696D65 
 21833      5F627566 
 21833      00
 21834              	.LASF404:
 21835 19f2 4441435F 		.ascii	"DAC_DHRM_8BIT_RIGHT\000"
 21835      4448524D 
 21835      5F384249 
 21835      545F5249 
 21835      47485400 
 21836              	.LASF424:
 21837 1a06 4750545F 		.ascii	"GPT_UNINIT\000"
 21837      554E494E 
 21837      495400
 21838              	.LASF742:
 21839 1a11 5F5F7763 		.ascii	"__wch\000"
 21839      6800
 21840              	.LASF745:
 21841 1a17 5F5F7661 		.ascii	"__value\000"
 21841      6C756500 
 21842              	.LASF224:
 21843 1a1f 63685F73 		.ascii	"ch_semaphore\000"
 21843      656D6170 
 21843      686F7265 
 21843      00
 21844              	.LASF912:
 21845 1a2c 5F637479 		.ascii	"_ctype_\000"
 21845      70655F00 
 21846              	.LASF863:
 21847 1a34 5F776373 		.ascii	"_wcsrtombs_state\000"
 21847      72746F6D 
 21847      62735F73 
 21847      74617465 
 21847      00
 21848              	.LASF729:
 21849 1a45 64636D69 		.ascii	"dcmistate_t\000"
 21849      73746174 
 21849      655F7400 
 21850              	.LASF623:
 21851 1a51 44494550 		.ascii	"DIEPTSIZ\000"
 21851      5453495A 
 21851      00
 21852              	.LASF885:
 21853 1a5a 5F706172 		.ascii	"_param_val_str_s\000"
 21853      616D5F76 
 21853      616C5F73 
 21853      74725F73 
 21853      00
 21854              	.LASF355:
 21855 1a6b 736D7072 		.ascii	"smpr1\000"
 21855      3100
 21856              	.LASF356:
 21857 1a71 736D7072 		.ascii	"smpr2\000"
 21857      3200
 21858              	.LASF64:
 21859 1a77 74687265 		.ascii	"threads_queue_t\000"
ARM GAS  C:\Users\osour\AppData\Local\Temp\ccsBkKuy.s 			page 412


 21859      6164735F 
 21859      71756575 
 21859      655F7400 
 21860              	.LASF293:
 21861 1a87 626C6B73 		.ascii	"blkstate_t\000"
 21861      74617465 
 21861      5F7400
 21862              	.LASF51:
 21863 1a92 705F7469 		.ascii	"p_time\000"
 21863      6D6500
 21864              	.LASF49:
 21865 1a99 705F7265 		.ascii	"p_refs\000"
 21865      667300
 21866              	.LASF701:
 21867 1aa0 65705F6D 		.ascii	"ep_mode\000"
 21867      6F646500 
 21868              	.LASF504:
 21869 1aa8 70776D63 		.ascii	"pwmchannel_t\000"
 21869      68616E6E 
 21869      656C5F74 
 21869      00
 21870              	.LASF116:
 21871 1ab5 54444C52 		.ascii	"TDLR\000"
 21871      00
 21872              	.LASF9:
 21873 1aba 6C6F6E67 		.ascii	"long int\000"
 21873      20696E74 
 21873      00
 21874              	.LASF95:
 21875 1ac3 6D61696E 		.ascii	"mainthread\000"
 21875      74687265 
 21875      616400
 21876              	.LASF1001:
 21877 1ace 52656164 		.ascii	"ReadEE\000"
 21877      454500
 21878              	.LASF569:
 21879 1ad5 6570306E 		.ascii	"ep0n\000"
 21879      00
 21880              	.LASF682:
 21881 1ada 72657376 		.ascii	"resvdE04\000"
 21881      64453034 
 21881      00
 21882              	.LASF228:
 21883 1ae3 6D5F7175 		.ascii	"m_queue\000"
 21883      65756500 
 21884              	.LASF392:
 21885 1aeb 646D6169 		.ascii	"dmairqprio\000"
 21885      72717072 
 21885      696F00
 21886              	.LASF430:
 21887 1af6 47505444 		.ascii	"GPTDriver\000"
 21887      72697665 
 21887      7200
 21888              	.LASF534:
 21889 1b00 73646366 		.ascii	"sdcflags_t\000"
 21889      6C616773 
 21889      5F7400
ARM GAS  C:\Users\osour\AppData\Local\Temp\ccsBkKuy.s 			page 413


 21890              	.LASF322:
 21891 1b0b 50484461 		.ascii	"PHData\000"
 21891      746100
 21892              	.LASF325:
 21893 1b12 696F706F 		.ascii	"ioportid_t\000"
 21893      72746964 
 21893      5F7400
 21894              	.LASF765:
 21895 1b1d 6D657373 		.ascii	"messagebus_topic_t\000"
 21895      61676562 
 21895      75735F74 
 21895      6F706963 
 21895      5F7400
 21896              	.LASF363:
 21897 1b30 41444344 		.ascii	"ADCD1\000"
 21897      3100
 21898              	.LASF364:
 21899 1b36 41444344 		.ascii	"ADCD2\000"
 21899      3200
 21900              	.LASF365:
 21901 1b3c 41444344 		.ascii	"ADCD3\000"
 21901      3300
 21902              	.LASF650:
 21903 1b42 48434647 		.ascii	"HCFG\000"
 21903      00
 21904              	.LASF348:
 21905 1b47 646D616D 		.ascii	"dmamode\000"
 21905      6F646500 
 21906              	.LASF210:
 21907 1b4f 63756D75 		.ascii	"cumulative\000"
 21907      6C617469 
 21907      766500
 21908              	.LASF841:
 21909 1b5a 5F696F62 		.ascii	"_iobs\000"
 21909      7300
 21910              	.LASF561:
 21911 1b60 53504944 		.ascii	"SPID1\000"
 21911      3100
 21912              	.LASF526:
 21913 1b66 67657474 		.ascii	"gett\000"
 21913      00
 21914              	.LASF932:
 21915 1b6b 63616D5F 		.ascii	"cam_mode\000"
 21915      6D6F6465 
 21915      00
 21916              	.LASF220:
 21917 1b74 77747472 		.ascii	"wttrp\000"
 21917      7000
 21918              	.LASF271:
 21919 1b7a 715F7264 		.ascii	"q_rdptr\000"
 21919      70747200 
 21920              	.LASF194:
 21921 1b82 636F6E74 		.ascii	"context\000"
 21921      65787400 
 21922              	.LASF523:
 21923 1b8a 77726974 		.ascii	"write\000"
 21923      6500
ARM GAS  C:\Users\osour\AppData\Local\Temp\ccsBkKuy.s 			page 414


 21924              	.LASF851:
 21925 1b90 5F72616E 		.ascii	"_rand_next\000"
 21925      645F6E65 
 21925      787400
 21926              	.LASF519:
 21927 1b9b 69717565 		.ascii	"iqueue\000"
 21927      756500
 21928              	.LASF703:
 21929 1ba2 696E5F63 		.ascii	"in_cb\000"
 21929      6200
 21930              	.LASF628:
 21931 1ba8 444F4550 		.ascii	"DOEPINT\000"
 21931      494E5400 
 21932              	.LASF209:
 21933 1bb0 6C617374 		.ascii	"last\000"
 21933      00
 21934              	.LASF966:
 21935 1bb5 655F6C65 		.ascii	"e_led_clear\000"
 21935      645F636C 
 21935      65617200 
 21936              	.LASF304:
 21937 1bc1 4C434B52 		.ascii	"LCKR\000"
 21937      00
 21938              	.LASF516:
 21939 1bc6 73647374 		.ascii	"sdstate_t\000"
 21939      6174655F 
 21939      7400
 21940              	.LASF21:
 21941 1bd0 75696E74 		.ascii	"uint32_t\000"
 21941      33325F74 
 21941      00
 21942              	.LASF389:
 21943 1bd9 64617461 		.ascii	"dataoffset\000"
 21943      6F666673 
 21943      657400
 21944              	.LASF775:
 21945 1be4 5F6D6178 		.ascii	"_maxwds\000"
 21945      77647300 
 21946              	.LASF291:
 21947 1bec 424C4B5F 		.ascii	"BLK_WRITING\000"
 21947      57524954 
 21947      494E4700 
 21948              	.LASF120:
 21949 1bf8 52444C52 		.ascii	"RDLR\000"
 21949      00
 21950              	.LASF756:
 21951 1bfd 62756666 		.ascii	"buffer_len\000"
 21951      65725F6C 
 21951      656E00
 21952              	.LASF776:
 21953 1c08 5F736967 		.ascii	"_sign\000"
 21953      6E00
 21954              	.LASF896:
 21955 1c0e 4D415249 		.ascii	"MARIO\000"
 21955      4F00
 21956              	.LASF24:
 21957 1c14 6C6F6E67 		.ascii	"long double\000"
ARM GAS  C:\Users\osour\AppData\Local\Temp\ccsBkKuy.s 			page 415


 21957      20646F75 
 21957      626C6500 
 21958              	.LASF192:
 21959 1c20 72656761 		.ascii	"regarm_t\000"
 21959      726D5F74 
 21959      00
 21960              	.LASF33:
 21961 1c29 6576656E 		.ascii	"eventmask_t\000"
 21961      746D6173 
 21961      6B5F7400 
 21962              	.LASF343:
 21963 1c35 64657074 		.ascii	"depth\000"
 21963      6800
 21964              	.LASF134:
 21965 1c3b 46464131 		.ascii	"FFA1R\000"
 21965      5200
 21966              	.LASF584:
 21967 1c41 5553425F 		.ascii	"USB_SELECTED\000"
 21967      53454C45 
 21967      43544544 
 21967      00
 21968              	.LASF1008:
 21969 1c4e 62757474 		.ascii	"button_get_state\000"
 21969      6F6E5F67 
 21969      65745F73 
 21969      74617465 
 21969      00
 21970              	.LASF11:
 21971 1c5f 6C6F6E67 		.ascii	"long unsigned int\000"
 21971      20756E73 
 21971      69676E65 
 21971      6420696E 
 21971      7400
 21972              	.LASF576:
 21973 1c71 706D6E65 		.ascii	"pmnext\000"
 21973      787400
 21974              	.LASF960:
 21975 1c78 655F6932 		.ascii	"e_i2cp_read\000"
 21975      63705F72 
 21975      65616400 
 21976              	.LASF483:
 21977 1c84 4932535F 		.ascii	"I2S_ACTIVE\000"
 21977      41435449 
 21977      564500
 21978              	.LASF426:
 21979 1c8f 4750545F 		.ascii	"GPT_READY\000"
 21979      52454144 
 21979      5900
 21980              	.LASF388:
 21981 1c99 64616373 		.ascii	"dacstate_t\000"
 21981      74617465 
 21981      5F7400
 21982              	.LASF728:
 21983 1ca4 44434D49 		.ascii	"DCMI_TIMEOUT\000"
 21983      5F54494D 
 21983      454F5554 
 21983      00
ARM GAS  C:\Users\osour\AppData\Local\Temp\ccsBkKuy.s 			page 416


 21984              	.LASF197:
 21985 1cb1 73655F74 		.ascii	"se_tp\000"
 21985      7000
 21986              	.LASF270:
 21987 1cb7 715F7772 		.ascii	"q_wrptr\000"
 21987      70747200 
 21988              	.LASF396:
 21989 1cbf 64616373 		.ascii	"dacsample_t\000"
 21989      616D706C 
 21989      655F7400 
 21990              	.LASF596:
 21991 1ccb 5553425F 		.ascii	"USB_EVENT_ADDRESS\000"
 21991      4556454E 
 21991      545F4144 
 21991      44524553 
 21991      5300
 21992              	.LASF491:
 21993 1cdd 69327363 		.ascii	"i2scfgr\000"
 21993      66677200 
 21994              	.LASF171:
 21995 1ce5 52455350 		.ascii	"RESPCMD\000"
 21995      434D4400 
 21996              	.LASF375:
 21997 1ced 72786675 		.ascii	"rxfull_event\000"
 21997      6C6C5F65 
 21997      76656E74 
 21997      00
 21998              	.LASF601:
 21999 1cfa 75736265 		.ascii	"usbevent_t\000"
 21999      76656E74 
 21999      5F7400
 22000              	.LASF807:
 22001 1d05 5F636C6F 		.ascii	"_close\000"
 22001      736500
 22002              	.LASF232:
 22003 1d0c 63686172 		.ascii	"char\000"
 22003      00
 22004              	.LASF719:
 22005 1d11 44434D49 		.ascii	"DCMI_ERR_OVERFLOW\000"
 22005      5F455252 
 22005      5F4F5645 
 22005      52464C4F 
 22005      5700
 22006              	.LASF155:
 22007 1d23 45534352 		.ascii	"ESCR\000"
 22007      00
 22008              	.LASF372:
 22009 1d28 43414E43 		.ascii	"CANConfig\000"
 22009      6F6E6669 
 22009      6700
 22010              	.LASF319:
 22011 1d32 50454461 		.ascii	"PEData\000"
 22011      746100
 22012              	.LASF68:
 22013 1d39 725F7175 		.ascii	"r_queue\000"
 22013      65756500 
 22014              	.LASF839:
ARM GAS  C:\Users\osour\AppData\Local\Temp\ccsBkKuy.s 			page 417


 22015 1d41 5F676C75 		.ascii	"_glue\000"
 22015      6500
 22016              	.LASF950:
 22017 1d47 5F5F6C6F 		.ascii	"__locale_ctype_ptr\000"
 22017      63616C65 
 22017      5F637479 
 22017      70655F70 
 22017      747200
 22018              	.LASF769:
 22019 1d5a 6D657373 		.ascii	"messagebus_watchgroup_s\000"
 22019      61676562 
 22019      75735F77 
 22019      61746368 
 22019      67726F75 
 22020              	.LASF980:
 22021 1d72 655F7365 		.ascii	"e_set_speed_right\000"
 22021      745F7370 
 22021      6565645F 
 22021      72696768 
 22021      7400
 22022              	.LASF501:
 22023 1d84 656E6162 		.ascii	"enabled\000"
 22023      6C656400 
 22024              	.LASF971:
 22025 1d8c 655F706F 		.ascii	"e_poxxxx_write_cam_registers\000"
 22025      78787878 
 22025      5F777269 
 22025      74655F63 
 22025      616D5F72 
 22026              	.LASF397:
 22027 1da9 4441435F 		.ascii	"DAC_ERR_DMAFAILURE\000"
 22027      4552525F 
 22027      444D4146 
 22027      41494C55 
 22027      524500
 22028              	.LASF640:
 22029 1dbc 47525846 		.ascii	"GRXFSIZ\000"
 22029      53495A00 
 22030              	.LASF902:
 22031 1dc4 50495241 		.ascii	"PIRATES_OF_THE_CARIBBEAN\000"
 22031      5445535F 
 22031      4F465F54 
 22031      48455F43 
 22031      41524942 
 22032              	.LASF547:
 22033 1ddd 73796E63 		.ascii	"sync\000"
 22033      00
 22034              	.LASF521:
 22035 1de2 75736172 		.ascii	"usart\000"
 22035      7400
 22036              	.LASF158:
 22037 1de8 43575349 		.ascii	"CWSIZER\000"
 22037      5A455200 
 22038              	.LASF533:
 22039 1df0 7364636D 		.ascii	"sdcmode_t\000"
 22039      6F64655F 
 22039      7400
ARM GAS  C:\Users\osour\AppData\Local\Temp\ccsBkKuy.s 			page 418


 22040              	.LASF273:
 22041 1dfa 715F6C69 		.ascii	"q_link\000"
 22041      6E6B00
 22042              	.LASF1000:
 22043 1e01 655F696E 		.ascii	"e_init_remote_control\000"
 22043      69745F72 
 22043      656D6F74 
 22043      655F636F 
 22043      6E74726F 
 22044              	.LASF733:
 22045 1e17 64636D69 		.ascii	"dcmierrorcallback_t\000"
 22045      6572726F 
 22045      7263616C 
 22045      6C626163 
 22045      6B5F7400 
 22046              	.LASF661:
 22047 1e2b 44434647 		.ascii	"DCFG\000"
 22047      00
 22048              	.LASF773:
 22049 1e30 5F426967 		.ascii	"_Bigint\000"
 22049      696E7400 
 22050              	.LASF671:
 22051 1e38 44564255 		.ascii	"DVBUSDIS\000"
 22051      53444953 
 22051      00
 22052              	.LASF637:
 22053 1e41 47494E54 		.ascii	"GINTMSK\000"
 22053      4D534B00 
 22054              	.LASF642:
 22055 1e49 484E5054 		.ascii	"HNPTXSTS\000"
 22055      58535453 
 22055      00
 22056              	.LASF574:
 22057 1e52 636F6E66 		.ascii	"configuration\000"
 22057      69677572 
 22057      6174696F 
 22057      6E00
 22058              	.LASF834:
 22059 1e60 5F617465 		.ascii	"_atexit0\000"
 22059      78697430 
 22059      00
 22060              	.LASF314:
 22061 1e69 73746D33 		.ascii	"stm32_gpio_setup_t\000"
 22061      325F6770 
 22061      696F5F73 
 22061      65747570 
 22061      5F7400
 22062              	.LASF955:
 22063 1e7c 7374726C 		.ascii	"strlen\000"
 22063      656E00
 22064              	.LASF910:
 22065 1e83 4D4C5F57 		.ascii	"ML_WAIT_AND_CHANGE\000"
 22065      4149545F 
 22065      414E445F 
 22065      4348414E 
 22065      474500
 22066              	.LASF1006:
ARM GAS  C:\Users\osour\AppData\Local\Temp\ccsBkKuy.s 			page 419


 22067 1e96 655F706F 		.ascii	"e_poxxxx_launch_capture\000"
 22067      78787878 
 22067      5F6C6175 
 22067      6E63685F 
 22067      63617074 
 22068              	.LASF283:
 22069 1eae 5F73746D 		.ascii	"_stm32_dma_streams\000"
 22069      33325F64 
 22069      6D615F73 
 22069      74726561 
 22069      6D7300
 22070              	.LASF142:
 22071 1ec1 44485231 		.ascii	"DHR12L1\000"
 22071      324C3100 
 22072              	.LASF145:
 22073 1ec9 44485231 		.ascii	"DHR12L2\000"
 22073      324C3200 
 22074              	.LASF858:
 22075 1ed1 5F676574 		.ascii	"_getdate_err\000"
 22075      64617465 
 22075      5F657272 
 22075      00
 22076              	.LASF948:
 22077 1ede 63616D5F 		.ascii	"cam_start_index\000"
 22077      73746172 
 22077      745F696E 
 22077      64657800 
 22078              	.LASF532:
 22079 1eee 73646362 		.ascii	"sdcbusmode_t\000"
 22079      75736D6F 
 22079      64655F74 
 22079      00
 22080              	.LASF975:
 22081 1efb 655F7365 		.ascii	"e_set_steps_right\000"
 22081      745F7374 
 22081      6570735F 
 22081      72696768 
 22081      7400
 22082              	.LASF944:
 22083 1f0d 61636365 		.ascii	"accelero\000"
 22083      6C65726F 
 22083      00
 22084              	.LASF778:
 22085 1f16 5F5F746D 		.ascii	"__tm\000"
 22085      00
 22086              	.LASF148:
 22087 1f1b 44485231 		.ascii	"DHR12LD\000"
 22087      324C4400 
 22088              	.LASF349:
 22089 1f23 61646363 		.ascii	"adccallback_t\000"
 22089      616C6C62 
 22089      61636B5F 
 22089      7400
 22090              	.LASF771:
 22091 1f31 6D657373 		.ascii	"messagebus_watchgroup_t\000"
 22091      61676562 
 22091      75735F77 
ARM GAS  C:\Users\osour\AppData\Local\Temp\ccsBkKuy.s 			page 420


 22091      61746368 
 22091      67726F75 
 22092              	.LASF46:
 22093 1f49 705F7374 		.ascii	"p_stklimit\000"
 22093      6B6C696D 
 22093      697400
 22094              	.LASF35:
 22095 1f54 636E745F 		.ascii	"cnt_t\000"
 22095      7400
 22096              	.LASF415:
 22097 1f5a 65787473 		.ascii	"extstate_t\000"
 22097      74617465 
 22097      5F7400
 22098              	.LASF589:
 22099 1f65 5553425F 		.ascii	"USB_EP0_WAITING_TX0\000"
 22099      4550305F 
 22099      57414954 
 22099      494E475F 
 22099      54583000 
 22100              	.LASF568:
 22101 1f79 6570306E 		.ascii	"ep0next\000"
 22101      65787400 
 22102              	.LASF618:
 22103 1f81 73746D33 		.ascii	"stm32_otg_host_chn_t\000"
 22103      325F6F74 
 22103      675F686F 
 22103      73745F63 
 22103      686E5F74 
 22104              	.LASF306:
 22105 1f96 41465248 		.ascii	"AFRH\000"
 22105      00
 22106              	.LASF755:
 22107 1f9b 62756666 		.ascii	"buffer\000"
 22107      657200
 22108              	.LASF305:
 22109 1fa2 4146524C 		.ascii	"AFRL\000"
 22109      00
 22110              	.LASF870:
 22111 1fa7 5F696D70 		.ascii	"_impure_ptr\000"
 22111      7572655F 
 22111      70747200 
 22112              	.LASF249:
 22113 1fb3 63665F6F 		.ascii	"cf_off_preempt\000"
 22113      66665F70 
 22113      7265656D 
 22113      707400
 22114              	.LASF867:
 22115 1fc2 5F756E75 		.ascii	"_unused\000"
 22115      73656400 
 22116              	.LASF386:
 22117 1fca 4441435F 		.ascii	"DAC_COMPLETE\000"
 22117      434F4D50 
 22117      4C455445 
 22117      00
 22118              	.LASF627:
 22119 1fd7 444F4550 		.ascii	"DOEPCTL\000"
 22119      43544C00 
ARM GAS  C:\Users\osour\AppData\Local\Temp\ccsBkKuy.s 			page 421


 22120              	.LASF613:
 22121 1fdf 4843494E 		.ascii	"HCINTMSK\000"
 22121      544D534B 
 22121      00
 22122              	.LASF808:
 22123 1fe8 5F756275 		.ascii	"_ubuf\000"
 22123      6600
 22124              	.LASF952:
 22125 1fee 67657459 		.ascii	"getYAxisGyro\000"
 22125      41786973 
 22125      4779726F 
 22125      00
 22126              	.LASF341:
 22127 1ffb 636F6E66 		.ascii	"config\000"
 22127      696700
 22128              	.LASF449:
 22129 2002 47505444 		.ascii	"GPTD11\000"
 22129      313100
 22130              	.LASF450:
 22131 2009 47505444 		.ascii	"GPTD12\000"
 22131      313200
 22132              	.LASF853:
 22133 2010 5F6D626C 		.ascii	"_mblen_state\000"
 22133      656E5F73 
 22133      74617465 
 22133      00
 22134              	.LASF836:
 22135 201d 5F5F7367 		.ascii	"__sglue\000"
 22135      6C756500 
 22136              	.LASF869:
 22137 2025 5F5F6C6F 		.ascii	"__locale_t\000"
 22137      63616C65 
 22137      5F7400
 22138              	.LASF287:
 22139 2030 424C4B5F 		.ascii	"BLK_CONNECTING\000"
 22139      434F4E4E 
 22139      45435449 
 22139      4E4700
 22140              	.LASF826:
 22141 203f 5F5F636C 		.ascii	"__cleanup\000"
 22141      65616E75 
 22141      7000
 22142              	.LASF992:
 22143 2049 655F7365 		.ascii	"e_send_uart2_char\000"
 22143      6E645F75 
 22143      61727432 
 22143      5F636861 
 22143      7200
 22144              	.LASF382:
 22145 205b 4441435F 		.ascii	"DAC_UNINIT\000"
 22145      554E494E 
 22145      495400
 22146              	.LASF335:
 22147 2066 6164635F 		.ascii	"adc_channels_num_t\000"
 22147      6368616E 
 22147      6E656C73 
 22147      5F6E756D 
ARM GAS  C:\Users\osour\AppData\Local\Temp\ccsBkKuy.s 			page 422


 22147      5F7400
 22148              	.LASF74:
 22149 2079 76746675 		.ascii	"vtfunc_t\000"
 22149      6E635F74 
 22149      00
 22150              	.LASF122:
 22151 2082 43414E5F 		.ascii	"CAN_FIFOMailBox_TypeDef\000"
 22151      4649464F 
 22151      4D61696C 
 22151      426F785F 
 22151      54797065 
 22152              	.LASF152:
 22153 209a 4441435F 		.ascii	"DAC_TypeDef\000"
 22153      54797065 
 22153      44656600 
 22154              	.LASF219:
 22155 20a6 77746F62 		.ascii	"wtobjp\000"
 22155      6A7000
 22156              	.LASF740:
 22157 20ad 5F66706F 		.ascii	"_fpos_t\000"
 22157      735F7400 
 22158              	.LASF1016:
 22159 20b5 433A5C55 		.ascii	"C:\\Users\\osour\\Desktop\\Robotique\\2Puck\\2Puck\\"
 22159      73657273 
 22159      5C6F736F 
 22159      75725C44 
 22159      65736B74 
 22160 20e2 32507563 		.ascii	"2Puck\000"
 22160      6B00
 22161              	.LASF801:
 22162 20e8 5F66696C 		.ascii	"_file\000"
 22162      6500
 22163              	.LASF934:
 22164 20ee 63616D5F 		.ascii	"cam_heigth\000"
 22164      68656967 
 22164      746800
 22165              	.LASF916:
 22166 20f9 54797065 		.ascii	"TypeAccSpheric\000"
 22166      41636353 
 22166      70686572 
 22166      696300
 22167              	.LASF57:
 22168 2108 705F7265 		.ascii	"p_realprio\000"
 22168      616C7072 
 22168      696F00
 22169              	.LASF536:
 22170 2113 63617061 		.ascii	"capacity\000"
 22170      63697479 
 22170      00
 22171              	.LASF272:
 22172 211c 715F6E6F 		.ascii	"q_notify\000"
 22172      74696679 
 22172      00
 22173              	.LASF222:
 22174 2125 77746D74 		.ascii	"wtmtxp\000"
 22174      787000
 22175              	.LASF799:
ARM GAS  C:\Users\osour\AppData\Local\Temp\ccsBkKuy.s 			page 423


 22176 212c 5F5F7346 		.ascii	"__sFILE\000"
 22176      494C4500 
 22177              	.LASF956:
 22178 2134 655F7365 		.ascii	"e_send_uart1_char\000"
 22178      6E645F75 
 22178      61727431 
 22178      5F636861 
 22178      7200
 22179              	.LASF795:
 22180 2146 5F666E73 		.ascii	"_fns\000"
 22180      00
 22181              	.LASF734:
 22182 214b 6672616D 		.ascii	"frame_end_cb\000"
 22182      655F656E 
 22182      645F6362 
 22182      00
 22183              	.LASF700:
 22184 2158 5553424F 		.ascii	"USBOutEndpointState\000"
 22184      7574456E 
 22184      64706F69 
 22184      6E745374 
 22184      61746500 
 22185              	.LASF1019:
 22186 216c 5F5F6275 		.ascii	"__builtin_memcpy\000"
 22186      696C7469 
 22186      6E5F6D65 
 22186      6D637079 
 22186      00
 22187              	.LASF657:
 22188 217d 72657376 		.ascii	"resvd41C\000"
 22188      64343143 
 22188      00
 22189              	.LASF881:
 22190 2186 6368616E 		.ascii	"changed\000"
 22190      67656400 
 22191              	.LASF746:
 22192 218e 5F6D6273 		.ascii	"_mbstate_t\000"
 22192      74617465 
 22192      5F7400
 22193              	.LASF864:
 22194 2199 5F685F65 		.ascii	"_h_errno\000"
 22194      72726E6F 
 22194      00
 22195              	.LASF897:
 22196 21a2 554E4445 		.ascii	"UNDERWORLD\000"
 22196      52574F52 
 22196      4C4400
 22197              	.LASF119:
 22198 21ad 52445452 		.ascii	"RDTR\000"
 22198      00
 22199              	.LASF295:
 22200 21b2 626C6B5F 		.ascii	"blk_num\000"
 22200      6E756D00 
 22201              	.LASF595:
 22202 21ba 5553425F 		.ascii	"USB_EVENT_RESET\000"
 22202      4556454E 
 22202      545F5245 
ARM GAS  C:\Users\osour\AppData\Local\Temp\ccsBkKuy.s 			page 424


 22202      53455400 
 22203              	.LASF67:
 22204 21ca 63685F72 		.ascii	"ch_ready_list\000"
 22204      65616479 
 22204      5F6C6973 
 22204      7400
 22205              	.LASF764:
 22206 21d8 67726F75 		.ascii	"group\000"
 22206      7000
 22207              	.LASF302:
 22208 21de 50555044 		.ascii	"PUPDR\000"
 22208      5200
 22209              	.LASF8:
 22210 21e4 5F5F696E 		.ascii	"__int32_t\000"
 22210      7433325F 
 22210      7400
 22211              	.LASF911:
 22212 21ee 4D4C5F46 		.ascii	"ML_FORCE_CHANGE\000"
 22212      4F524345 
 22212      5F434841 
 22212      4E474500 
 22213              	.LASF10:
 22214 21fe 5F5F7569 		.ascii	"__uint32_t\000"
 22214      6E743332 
 22214      5F7400
 22215              	.LASF900:
 22216 2209 4D415249 		.ascii	"MARIO_FLAG\000"
 22216      4F5F464C 
 22216      414700
 22217              	.LASF86:
 22218 2214 63685F73 		.ascii	"ch_system_debug\000"
 22218      79737465 
 22218      6D5F6465 
 22218      62756700 
 22219              	.LASF668:
 22220 2224 4441494E 		.ascii	"DAINTMSK\000"
 22220      544D534B 
 22220      00
 22221              	.LASF724:
 22222 222d 44434D49 		.ascii	"DCMI_ACTIVE_STREAM\000"
 22222      5F414354 
 22222      4956455F 
 22222      53545245 
 22222      414D00
 22223              	.LASF422:
 22224 2240 45585443 		.ascii	"EXTConfig\000"
 22224      6F6E6669 
 22224      6700
 22225              	.LASF874:
 22226 224a 70617261 		.ascii	"parameter_namespace_s\000"
 22226      6D657465 
 22226      725F6E61 
 22226      6D657370 
 22226      6163655F 
 22227              	.LASF267:
 22228 2260 715F636F 		.ascii	"q_counter\000"
 22228      756E7465 
ARM GAS  C:\Users\osour\AppData\Local\Temp\ccsBkKuy.s 			page 425


 22228      7200
 22229              	.LASF587:
 22230 226a 5553425F 		.ascii	"USB_EP0_WAITING_SETUP\000"
 22230      4550305F 
 22230      57414954 
 22230      494E475F 
 22230      53455455 
 22231              	.LASF792:
 22232 2280 5F69735F 		.ascii	"_is_cxa\000"
 22232      63786100 
 22233              	.LASF290:
 22234 2288 424C4B5F 		.ascii	"BLK_READING\000"
 22234      52454144 
 22234      494E4700 
 22235              	.LASF312:
 22236 2294 6166726C 		.ascii	"afrl\000"
 22236      00
 22237              	.LASF690:
 22238 2299 71756575 		.ascii	"queue\000"
 22238      6500
 22239              	.LASF570:
 22240 229f 65703065 		.ascii	"ep0endcb\000"
 22240      6E646362 
 22240      00
 22241              	.LASF280:
 22242 22a8 73656C66 		.ascii	"selfindex\000"
 22242      696E6465 
 22242      7800
 22243              	.LASF253:
 22244 22b2 6D757465 		.ascii	"mutex_t\000"
 22244      785F7400 
 22245              	.LASF829:
 22246 22ba 5F703573 		.ascii	"_p5s\000"
 22246      00
 22247              	.LASF55:
 22248 22bf 705F6570 		.ascii	"p_epending\000"
 22248      656E6469 
 22248      6E6700
 22249              	.LASF1010:
 22250 22ca 67657441 		.ascii	"getAllAxesGyro\000"
 22250      6C6C4178 
 22250      65734779 
 22250      726F00
 22251              	.LASF299:
 22252 22d9 4D4F4445 		.ascii	"MODER\000"
 22252      5200
 22253              	.LASF484:
 22254 22df 4932535F 		.ascii	"I2S_COMPLETE\000"
 22254      434F4D50 
 22254      4C455445 
 22254      00
 22255              	.LASF969:
 22256 22ec 655F706F 		.ascii	"e_poxxxx_init_cam\000"
 22256      78787878 
 22256      5F696E69 
 22256      745F6361 
 22256      6D00
ARM GAS  C:\Users\osour\AppData\Local\Temp\ccsBkKuy.s 			page 426


 22257              	.LASF761:
 22258 22fe 77617463 		.ascii	"watchers\000"
 22258      68657273 
 22258      00
 22259              	.LASF126:
 22260 2307 52455345 		.ascii	"RESERVED0\000"
 22260      52564544 
 22260      3000
 22261              	.LASF129:
 22262 2311 52455345 		.ascii	"RESERVED1\000"
 22262      52564544 
 22262      3100
 22263              	.LASF131:
 22264 231b 52455345 		.ascii	"RESERVED2\000"
 22264      52564544 
 22264      3200
 22265              	.LASF133:
 22266 2325 52455345 		.ascii	"RESERVED3\000"
 22266      52564544 
 22266      3300
 22267              	.LASF135:
 22268 232f 52455345 		.ascii	"RESERVED4\000"
 22268      52564544 
 22268      3400
 22269              	.LASF137:
 22270 2339 52455345 		.ascii	"RESERVED5\000"
 22270      52564544 
 22270      3500
 22271              	.LASF711:
 22272 2343 55534245 		.ascii	"USBEndpointConfig\000"
 22272      6E64706F 
 22272      696E7443 
 22272      6F6E6669 
 22272      6700
 22273              	.LASF141:
 22274 2355 44485231 		.ascii	"DHR12R1\000"
 22274      32523100 
 22275              	.LASF144:
 22276 235d 44485231 		.ascii	"DHR12R2\000"
 22276      32523200 
 22277              	.LASF418:
 22278 2365 65787463 		.ascii	"extcallback_t\000"
 22278      616C6C62 
 22278      61636B5F 
 22278      7400
 22279              	.LASF374:
 22280 2373 72787175 		.ascii	"rxqueue\000"
 22280      65756500 
 22281              	.LASF196:
 22282 237b 73655F74 		.ascii	"se_time\000"
 22282      696D6500 
 22283              	.LASF659:
 22284 2383 72657376 		.ascii	"resvd444\000"
 22284      64343434 
 22284      00
 22285              	.LASF326:
 22286 238c 70616C5F 		.ascii	"pal_default_config\000"
ARM GAS  C:\Users\osour\AppData\Local\Temp\ccsBkKuy.s 			page 427


 22286      64656661 
 22286      756C745F 
 22286      636F6E66 
 22286      696700
 22287              	.LASF871:
 22288 239f 5F676C6F 		.ascii	"_global_impure_ptr\000"
 22288      62616C5F 
 22288      696D7075 
 22288      72655F70 
 22288      747200
 22289              	.LASF344:
 22290 23b2 67727070 		.ascii	"grpp\000"
 22290      00
 22291              	.LASF147:
 22292 23b7 44485231 		.ascii	"DHR12RD\000"
 22292      32524400 
 22293              	.LASF257:
 22294 23bf 656C5F6C 		.ascii	"el_listener\000"
 22294      69737465 
 22294      6E657200 
 22295              	.LASF689:
 22296 23cb 6C696E65 		.ascii	"linear\000"
 22296      617200
 22297              	.LASF723:
 22298 23d2 44434D49 		.ascii	"DCMI_READY\000"
 22298      5F524541 
 22298      445900
 22299              	.LASF965:
 22300 23dd 63685468 		.ascii	"chThdSleep\000"
 22300      64536C65 
 22300      657000
 22301              	.LASF442:
 22302 23e8 73746D33 		.ascii	"stm32_tim_t\000"
 22302      325F7469 
 22302      6D5F7400 
 22303              	.LASF69:
 22304 23f4 725F7072 		.ascii	"r_prio\000"
 22304      696F00
 22305              	.LASF154:
 22306 23fb 4D495352 		.ascii	"MISR\000"
 22306      00
 22307              	.LASF98:
 22308 2400 49544D5F 		.ascii	"ITM_RxBuffer\000"
 22308      52784275 
 22308      66666572 
 22308      00
 22309              	.LASF1004:
 22310 240d 655F6765 		.ascii	"e_getchar_uart2\000"
 22310      74636861 
 22310      725F7561 
 22310      72743200 
 22311              	.LASF296:
 22312 241d 426C6F63 		.ascii	"BlockDeviceInfo\000"
 22312      6B446576 
 22312      69636549 
 22312      6E666F00 
 22313              	.LASF14:
ARM GAS  C:\Users\osour\AppData\Local\Temp\ccsBkKuy.s 			page 428


 22314 242d 6C6F6E67 		.ascii	"long long unsigned int\000"
 22314      206C6F6E 
 22314      6720756E 
 22314      7369676E 
 22314      65642069 
 22315              	.LASF183:
 22316 2444 5344494F 		.ascii	"SDIO_TypeDef\000"
 22316      5F547970 
 22316      65446566 
 22316      00
 22317              	.LASF205:
 22318 2451 6F666673 		.ascii	"offset\000"
 22318      657400
 22319              	.LASF767:
 22320 2458 746F7069 		.ascii	"topics\000"
 22320      637300
 22321              	.LASF160:
 22322 245f 4E445452 		.ascii	"NDTR\000"
 22322      00
 22323              	.LASF262:
 22324 2464 65735F6E 		.ascii	"es_next\000"
 22324      65787400 
 22325              	.LASF850:
 22326 246c 5F67616D 		.ascii	"_gamma_signgam\000"
 22326      6D615F73 
 22326      69676E67 
 22326      616D00
 22327              	.LASF625:
 22328 247b 72657376 		.ascii	"resvd1C\000"
 22328      64314300 
 22329              	.LASF97:
 22330 2483 69646C65 		.ascii	"idle_thread_wa\000"
 22330      5F746872 
 22330      6561645F 
 22330      776100
 22331              	.LASF621:
 22332 2492 44494550 		.ascii	"DIEPINT\000"
 22332      494E5400 
 22333              	.LASF189:
 22334 249a 5350495F 		.ascii	"SPI_TypeDef\000"
 22334      54797065 
 22334      44656600 
 22335              	.LASF80:
 22336 24a6 76745F66 		.ascii	"vt_func\000"
 22336      756E6300 
 22337              	.LASF433:
 22338 24ae 534D4352 		.ascii	"SMCR\000"
 22338      00
 22339              	.LASF666:
 22340 24b3 444F4550 		.ascii	"DOEPMSK\000"
 22340      4D534B00 
 22341              	.LASF76:
 22342 24bb 63685F76 		.ascii	"ch_virtual_timer\000"
 22342      69727475 
 22342      616C5F74 
 22342      696D6572 
 22342      00
ARM GAS  C:\Users\osour\AppData\Local\Temp\ccsBkKuy.s 			page 429


 22343              	.LASF48:
 22344 24cc 705F666C 		.ascii	"p_flags\000"
 22344      61677300 
 22345              	.LASF991:
 22346 24d4 67657442 		.ascii	"getBatteryValuePercentage\000"
 22346      61747465 
 22346      72795661 
 22346      6C756550 
 22346      65726365 
 22347              	.LASF223:
 22348 24ee 65776D61 		.ascii	"ewmask\000"
 22348      736B00
 22349              	.LASF259:
 22350 24f5 656C5F66 		.ascii	"el_flags\000"
 22350      6C616773 
 22350      00
 22351              	.LASF812:
 22352 24fe 5F646174 		.ascii	"_data\000"
 22352      6100
 22353              	.LASF261:
 22354 2504 6576656E 		.ascii	"event_source\000"
 22354      745F736F 
 22354      75726365 
 22354      00
 22355              	.LASF56:
 22356 2511 705F6D74 		.ascii	"p_mtxlist\000"
 22356      786C6973 
 22356      7400
 22357              	.LASF381:
 22358 251b 43414E44 		.ascii	"CAND1\000"
 22358      3100
 22359              	.LASF132:
 22360 2521 46533152 		.ascii	"FS1R\000"
 22360      00
 22361              	.LASF28:
 22362 2526 74737461 		.ascii	"tstate_t\000"
 22362      74655F74 
 22362      00
 22363              	.LASF556:
 22364 252f 53504944 		.ascii	"SPIDriver\000"
 22364      72697665 
 22364      7200
 22365              	.LASF667:
 22366 2539 4441494E 		.ascii	"DAINT\000"
 22366      5400
 22367              	.LASF560:
 22368 253f 53504943 		.ascii	"SPIConfig\000"
 22368      6F6E6669 
 22368      6700
 22369              	.LASF823:
 22370 2549 5F756E73 		.ascii	"_unspecified_locale_info\000"
 22370      70656369 
 22370      66696564 
 22370      5F6C6F63 
 22370      616C655F 
 22371              	.LASF311:
 22372 2562 70757064 		.ascii	"pupdr\000"
ARM GAS  C:\Users\osour\AppData\Local\Temp\ccsBkKuy.s 			page 430


 22372      7200
 22373              	.LASF401:
 22374 2568 64616365 		.ascii	"dacerrorcallback_t\000"
 22374      72726F72 
 22374      63616C6C 
 22374      6261636B 
 22374      5F7400
 22375              	.LASF731:
 22376 257b 64636D69 		.ascii	"dcmi\000"
 22376      00
 22377              	.LASF563:
 22378 2580 7472616E 		.ascii	"transmitting\000"
 22378      736D6974 
 22378      74696E67 
 22378      00
 22379              	.LASF1005:
 22380 258d 7365745F 		.ascii	"set_rgb_led\000"
 22380      7267625F 
 22380      6C656400 
 22381              	.LASF421:
 22382 2599 6368616E 		.ascii	"channels\000"
 22382      6E656C73 
 22382      00
 22383              	.LASF170:
 22384 25a2 434C4B43 		.ascii	"CLKCR\000"
 22384      5200
 22385              	.LASF535:
 22386 25a8 53444344 		.ascii	"SDCDriver\000"
 22386      72697665 
 22386      7200
 22387              	.LASF45:
 22388 25b2 705F6E61 		.ascii	"p_name\000"
 22388      6D6500
 22389              	.LASF825:
 22390 25b9 5F5F7364 		.ascii	"__sdidinit\000"
 22390      6964696E 
 22390      697400
 22391              	.LASF517:
 22392 25c4 53657269 		.ascii	"SerialDriver\000"
 22392      616C4472 
 22392      69766572 
 22392      00
 22393              	.LASF110:
 22394 25d1 4A445231 		.ascii	"JDR1\000"
 22394      00
 22395              	.LASF111:
 22396 25d6 4A445232 		.ascii	"JDR2\000"
 22396      00
 22397              	.LASF112:
 22398 25db 4A445233 		.ascii	"JDR3\000"
 22398      00
 22399              	.LASF113:
 22400 25e0 4A445234 		.ascii	"JDR4\000"
 22400      00
 22401              	.LASF629:
 22402 25e5 444F4550 		.ascii	"DOEPTSIZ\000"
 22402      5453495A 
ARM GAS  C:\Users\osour\AppData\Local\Temp\ccsBkKuy.s 			page 431


 22402      00
 22403              	.LASF329:
 22404 25ee 4144435F 		.ascii	"ADC_READY\000"
 22404      52454144 
 22404      5900
 22405              	.LASF759:
 22406 25f8 6E616D65 		.ascii	"name\000"
 22406      00
 22407              	.LASF747:
 22408 25fd 5F666C6F 		.ascii	"_flock_t\000"
 22408      636B5F74 
 22408      00
 22409              	.LASF82:
 22410 2606 76697274 		.ascii	"virtual_timers_list_t\000"
 22410      75616C5F 
 22410      74696D65 
 22410      72735F6C 
 22410      6973745F 
 22411              	.LASF653:
 22412 261c 72657376 		.ascii	"resvd40C\000"
 22412      64343043 
 22412      00
 22413              	.LASF351:
 22414 2625 63697263 		.ascii	"circular\000"
 22414      756C6172 
 22414      00
 22415              	.LASF485:
 22416 262e 69327373 		.ascii	"i2sstate_t\000"
 22416      74617465 
 22416      5F7400
 22417              	.LASF308:
 22418 2639 6D6F6465 		.ascii	"moder\000"
 22418      7200
 22419              	.LASF225:
 22420 263f 735F7175 		.ascii	"s_queue\000"
 22420      65756500 
 22421              	.LASF214:
 22422 2647 6D5F6372 		.ascii	"m_crit_thd\000"
 22422      69745F74 
 22422      686400
 22423              	.LASF383:
 22424 2652 4441435F 		.ascii	"DAC_STOP\000"
 22424      53544F50 
 22424      00
 22425              	.LASF660:
 22426 265b 72657376 		.ascii	"resvd700\000"
 22426      64373030 
 22426      00
 22427              	.LASF187:
 22428 2664 49325343 		.ascii	"I2SCFGR\000"
 22428      46475200 
 22429              	.LASF750:
 22430 266c 6F707469 		.ascii	"optind\000"
 22430      6E6400
 22431              	.LASF233:
 22432 2673 63685F69 		.ascii	"ch_identifier\000"
 22432      64656E74 
ARM GAS  C:\Users\osour\AppData\Local\Temp\ccsBkKuy.s 			page 432


 22432      69666965 
 22432      7200
 22433              	.LASF527:
 22434 2681 77726974 		.ascii	"writet\000"
 22434      657400
 22435              	.LASF907:
 22436 2688 4E425F53 		.ascii	"NB_SONGS\000"
 22436      4F4E4753 
 22436      00
 22437              	.LASF12:
 22438 2691 6C6F6E67 		.ascii	"long long int\000"
 22438      206C6F6E 
 22438      6720696E 
 22438      7400
 22439              	.LASF958:
 22440 269f 67657454 		.ascii	"getTemperature\000"
 22440      656D7065 
 22440      72617475 
 22440      726500
 22441              	.LASF647:
 22442 26ae 48505458 		.ascii	"HPTXFSIZ\000"
 22442      4653495A 
 22442      00
 22443              	.LASF735:
 22444 26b7 7472616E 		.ascii	"transfer_complete_cb\000"
 22444      73666572 
 22444      5F636F6D 
 22444      706C6574 
 22444      655F6362 
 22445              	.LASF240:
 22446 26cc 63665F6F 		.ascii	"cf_off_prio\000"
 22446      66665F70 
 22446      72696F00 
 22447              	.LASF815:
 22448 26d8 5F666C61 		.ascii	"_flags2\000"
 22448      67733200 
 22449              	.LASF978:
 22450 26e0 655F6765 		.ascii	"e_get_micro_volume\000"
 22450      745F6D69 
 22450      63726F5F 
 22450      766F6C75 
 22450      6D6500
 22451              	.LASF865:
 22452 26f3 5F6E6578 		.ascii	"_nextf\000"
 22452      746600
 22453              	.LASF211:
 22454 26fa 74696D65 		.ascii	"time_measurement_t\000"
 22454      5F6D6561 
 22454      73757265 
 22454      6D656E74 
 22454      5F7400
 22455              	.LASF548:
 22456 270d 6765745F 		.ascii	"get_info\000"
 22456      696E666F 
 22456      00
 22457              	.LASF338:
 22458 2716 61646365 		.ascii	"adcerror_t\000"
ARM GAS  C:\Users\osour\AppData\Local\Temp\ccsBkKuy.s 			page 433


 22458      72726F72 
 22458      5F7400
 22459              	.LASF713:
 22460 2721 6765745F 		.ascii	"get_descriptor_cb\000"
 22460      64657363 
 22460      72697074 
 22460      6F725F63 
 22460      6200
 22461              	.LASF824:
 22462 2733 5F6C6F63 		.ascii	"_locale\000"
 22462      616C6500 
 22463              	.LASF34:
 22464 273b 6576656E 		.ascii	"eventflags_t\000"
 22464      74666C61 
 22464      67735F74 
 22464      00
 22465              	.LASF552:
 22466 2748 5350495F 		.ascii	"SPI_READY\000"
 22466      52454144 
 22466      5900
 22467              	.LASF128:
 22468 2752 73464946 		.ascii	"sFIFOMailBox\000"
 22468      4F4D6169 
 22468      6C426F78 
 22468      00
 22469              	.LASF540:
 22470 275f 6275735F 		.ascii	"bus_width\000"
 22470      77696474 
 22470      6800
 22471              	.LASF924:
 22472 2769 4C45445F 		.ascii	"LED_action\000"
 22472      61637469 
 22472      6F6E00
 22473              	.LASF149:
 22474 2774 44485238 		.ascii	"DHR8RD\000"
 22474      524400
 22475              	.LASF662:
 22476 277b 4443544C 		.ascii	"DCTL\000"
 22476      00
 22477              	.LASF542:
 22478 2780 53444344 		.ascii	"SDCDriverVMT\000"
 22478      72697665 
 22478      72564D54 
 22478      00
 22479              	.LASF688:
 22480 278d 74786275 		.ascii	"txbuf\000"
 22480      6600
 22481              	.LASF681:
 22482 2793 50434743 		.ascii	"PCGCCTL\000"
 22482      43544C00 
 22483              	.LASF599:
 22484 279b 5553425F 		.ascii	"USB_EVENT_WAKEUP\000"
 22484      4556454E 
 22484      545F5741 
 22484      4B455550 
 22484      00
 22485              	.LASF852:
ARM GAS  C:\Users\osour\AppData\Local\Temp\ccsBkKuy.s 			page 434


 22486 27ac 5F723438 		.ascii	"_r48\000"
 22486      00
 22487              	.LASF929:
 22488 27b1 6779726F 		.ascii	"gyrox\000"
 22488      7800
 22489              	.LASF931:
 22490 27b7 6779726F 		.ascii	"gyroz\000"
 22490      7A00
 22491              	.LASF44:
 22492 27bd 705F6F6C 		.ascii	"p_older\000"
 22492      64657200 
 22493              	.LASF292:
 22494 27c5 424C4B5F 		.ascii	"BLK_SYNCING\000"
 22494      53594E43 
 22494      494E4700 
 22495              	.LASF323:
 22496 27d1 50494461 		.ascii	"PIData\000"
 22496      746100
 22497              	.LASF710:
 22498 27d8 73657475 		.ascii	"setup_buf\000"
 22498      705F6275 
 22498      6600
 22499              	.LASF448:
 22500 27e2 47505444 		.ascii	"GPTD6\000"
 22500      3600
 22501              	.LASF718:
 22502 27e8 44434D49 		.ascii	"DCMI_ERR_DMAFAILURE\000"
 22502      5F455252 
 22502      5F444D41 
 22502      4641494C 
 22502      55524500 
 22503              	.LASF354:
 22504 27fc 6572726F 		.ascii	"error_cb\000"
 22504      725F6362 
 22504      00
 22505              	.LASF288:
 22506 2805 424C4B5F 		.ascii	"BLK_DISCONNECTING\000"
 22506      44495343 
 22506      4F4E4E45 
 22506      4354494E 
 22506      4700
 22507              	.LASF558:
 22508 2817 7373706F 		.ascii	"ssport\000"
 22508      727400
 22509              	.LASF886:
 22510 281e 6275665F 		.ascii	"buf_len\000"
 22510      6C656E00 
 22511              	.LASF60:
 22512 2826 74687265 		.ascii	"thread_reference_t\000"
 22512      61645F72 
 22512      65666572 
 22512      656E6365 
 22512      5F7400
 22513              	.LASF720:
 22514 2839 64636D69 		.ascii	"dcmierror_t\000"
 22514      6572726F 
 22514      725F7400 
ARM GAS  C:\Users\osour\AppData\Local\Temp\ccsBkKuy.s 			page 435


 22515              	.LASF417:
 22516 2845 65787063 		.ascii	"expchannel_t\000"
 22516      68616E6E 
 22516      656C5F74 
 22516      00
 22517              	.LASF564:
 22518 2852 72656365 		.ascii	"receiving\000"
 22518      6976696E 
 22518      6700
 22519              	.LASF878:
 22520 285c 70617261 		.ascii	"parameter_list\000"
 22520      6D657465 
 22520      725F6C69 
 22520      737400
 22521              	.LASF838:
 22522 286b 5F5F4649 		.ascii	"__FILE\000"
 22522      4C4500
 22523              	.LASF444:
 22524 2872 66726571 		.ascii	"frequency\000"
 22524      75656E63 
 22524      7900
 22525              	.LASF206:
 22526 287c 746D5F63 		.ascii	"tm_calibration_t\000"
 22526      616C6962 
 22526      72617469 
 22526      6F6E5F74 
 22526      00
 22527              	.LASF0:
 22528 288d 5F5F696E 		.ascii	"__int8_t\000"
 22528      74385F74 
 22528      00
 22529              	.LASF707:
 22530 2896 696E5F73 		.ascii	"in_state\000"
 22530      74617465 
 22530      00
 22531              	.LASF190:
 22532 289f 47545052 		.ascii	"GTPR\000"
 22532      00
 22533              	.LASF949:
 22534 28a4 48577665 		.ascii	"HWversion\000"
 22534      7273696F 
 22534      6E00
 22535              	.LASF234:
 22536 28ae 63685F7A 		.ascii	"ch_zero\000"
 22536      65726F00 
 22537              	.LASF465:
 22538 28b6 46415354 		.ascii	"FAST_DUTY_CYCLE_2\000"
 22538      5F445554 
 22538      595F4359 
 22538      434C455F 
 22538      3200
 22539              	.LASF178:
 22540 28c8 44435452 		.ascii	"DCTRL\000"
 22540      4C00
 22541              	.LASF239:
 22542 28ce 63685F74 		.ascii	"ch_threadsize\000"
 22542      68726561 
ARM GAS  C:\Users\osour\AppData\Local\Temp\ccsBkKuy.s 			page 436


 22542      6473697A 
 22542      6500
 22543              	.LASF167:
 22544 28dc 464C5452 		.ascii	"FLTR\000"
 22544      00
 22545              	.LASF435:
 22546 28e1 43434D52 		.ascii	"CCMR1\000"
 22546      3100
 22547              	.LASF436:
 22548 28e7 43434D52 		.ascii	"CCMR2\000"
 22548      3200
 22549              	.LASF440:
 22550 28ed 43434D52 		.ascii	"CCMR3\000"
 22550      3300
 22551              	.LASF15:
 22552 28f3 756E7369 		.ascii	"unsigned int\000"
 22552      676E6564 
 22552      20696E74 
 22552      00
 22553              	.LASF358:
 22554 2900 73717232 		.ascii	"sqr2\000"
 22554      00
 22555              	.LASF359:
 22556 2905 73717233 		.ascii	"sqr3\000"
 22556      00
 22557              	.LASF730:
 22558 290a 44434D49 		.ascii	"DCMIDriver\000"
 22558      44726976 
 22558      657200
 22559              	.LASF651:
 22560 2915 48464952 		.ascii	"HFIR\000"
 22560      00
 22561              	.LASF736:
 22562 291a 44434D49 		.ascii	"DCMIConfig\000"
 22562      436F6E66 
 22562      696700
 22563              	.LASF581:
 22564 2925 5553425F 		.ascii	"USB_UNINIT\000"
 22564      554E494E 
 22564      495400
 22565              	.LASF277:
 22566 2930 73747265 		.ascii	"stream\000"
 22566      616D00
 22567              	.LASF361:
 22568 2937 64756D6D 		.ascii	"dummy\000"
 22568      7900
 22569              	.LASF903:
 22570 293d 53494D50 		.ascii	"SIMPSON\000"
 22570      534F4E00 
 22571              	.LASF463:
 22572 2945 6932636F 		.ascii	"i2copmode_t\000"
 22572      706D6F64 
 22572      655F7400 
 22573              	.LASF156:
 22574 2951 45535552 		.ascii	"ESUR\000"
 22574      00
 22575              	.LASF255:
ARM GAS  C:\Users\osour\AppData\Local\Temp\ccsBkKuy.s 			page 437


 22576 2956 6576656E 		.ascii	"event_listener\000"
 22576      745F6C69 
 22576      7374656E 
 22576      657200
 22577              	.LASF844:
 22578 2965 5F6D756C 		.ascii	"_mult\000"
 22578      7400
 22579              	.LASF5:
 22580 296b 73686F72 		.ascii	"short int\000"
 22580      7420696E 
 22580      7400
 22581              	.LASF605:
 22582 2975 75736263 		.ascii	"usbcallback_t\000"
 22582      616C6C62 
 22582      61636B5F 
 22582      7400
 22583              	.LASF804:
 22584 2983 5F726561 		.ascii	"_read\000"
 22584      6400
 22585              	.LASF634:
 22586 2989 47555342 		.ascii	"GUSBCFG\000"
 22586      43464700 
 22587              	.LASF191:
 22588 2991 55534152 		.ascii	"USART_TypeDef\000"
 22588      545F5479 
 22588      70654465 
 22588      6600
 22589              	.LASF276:
 22590 299f 6F757470 		.ascii	"output_queue_t\000"
 22590      75745F71 
 22590      75657565 
 22590      5F7400
 22591              	.LASF842:
 22592 29ae 5F72616E 		.ascii	"_rand48\000"
 22592      64343800 
 22593              	.LASF683:
 22594 29b6 73746D33 		.ascii	"stm32_otg_t\000"
 22594      325F6F74 
 22594      675F7400 
 22595              	.LASF787:
 22596 29c2 5F5F746D 		.ascii	"__tm_isdst\000"
 22596      5F697364 
 22596      737400
 22597              	.LASF486:
 22598 29cd 49325344 		.ascii	"I2SDriver\000"
 22598      72697665 
 22598      7200
 22599              	.LASF470:
 22600 29d7 64757479 		.ascii	"duty_cycle\000"
 22600      5F637963 
 22600      6C6500
 22601              	.LASF493:
 22602 29e2 49325343 		.ascii	"I2SConfig\000"
 22602      6F6E6669 
 22602      6700
 22603              	.LASF602:
 22604 29ec 75645F73 		.ascii	"ud_size\000"
ARM GAS  C:\Users\osour\AppData\Local\Temp\ccsBkKuy.s 			page 438


 22604      697A6500 
 22605              	.LASF986:
 22606 29f4 655F7365 		.ascii	"e_set_body_led\000"
 22606      745F626F 
 22606      64795F6C 
 22606      656400
 22607              	.LASF705:
 22608 2a03 696E5F6D 		.ascii	"in_maxsize\000"
 22608      61787369 
 22608      7A6500
 22609              	.LASF320:
 22610 2a0e 50464461 		.ascii	"PFData\000"
 22610      746100
 22611              	.LASF413:
 22612 2a15 4558545F 		.ascii	"EXT_STOP\000"
 22612      53544F50 
 22612      00
 22613              	.LASF974:
 22614 2a1e 655F7365 		.ascii	"e_set_steps_left\000"
 22614      745F7374 
 22614      6570735F 
 22614      6C656674 
 22614      00
 22615              	.LASF47:
 22616 2a2f 705F7374 		.ascii	"p_state\000"
 22616      61746500 
 22617              	.LASF494:
 22618 2a37 49325344 		.ascii	"I2SD2\000"
 22618      3200
 22619              	.LASF543:
 22620 2a3d 69735F69 		.ascii	"is_inserted\000"
 22620      6E736572 
 22620      74656400 
 22621              	.LASF63:
 22622 2a49 63685F74 		.ascii	"ch_threads_list\000"
 22622      68726561 
 22622      64735F6C 
 22622      69737400 
 22623              	.LASF928:
 22624 2a59 736F756E 		.ascii	"sound\000"
 22624      6400
 22625              	.LASF179:
 22626 2a5f 44434F55 		.ascii	"DCOUNT\000"
 22626      4E5400
 22627              	.LASF164:
 22628 2a66 4F415231 		.ascii	"OAR1\000"
 22628      00
 22629              	.LASF165:
 22630 2a6b 4F415232 		.ascii	"OAR2\000"
 22630      00
 22631              	.LASF59:
 22632 2a70 705F7374 		.ascii	"p_stats\000"
 22632      61747300 
 22633              	.LASF586:
 22634 2a78 75736273 		.ascii	"usbstate_t\000"
 22634      74617465 
 22634      5F7400
ARM GAS  C:\Users\osour\AppData\Local\Temp\ccsBkKuy.s 			page 439


 22635              		.ident	"GCC: (GNU Tools for Arm Embedded Processors 7-2017-q4-major) 7.2.1 20170904 (release) [ARM
ARM GAS  C:\Users\osour\AppData\Local\Temp\ccsBkKuy.s 			page 440


DEFINED SYMBOLS
                            *ABS*:00000000 Asercom2.c
C:\Users\osour\AppData\Local\Temp\ccsBkKuy.s:18     .text.run_asercom2:00000000 $t
C:\Users\osour\AppData\Local\Temp\ccsBkKuy.s:26     .text.run_asercom2:00000000 run_asercom2
C:\Users\osour\AppData\Local\Temp\ccsBkKuy.s:227    .text.run_asercom2:00000112 $d
C:\Users\osour\AppData\Local\Temp\ccsBkKuy.s:238    .text.run_asercom2:00000126 $t
C:\Users\osour\AppData\Local\Temp\ccsBkKuy.s:407    .text.run_asercom2:00000232 $d
C:\Users\osour\AppData\Local\Temp\ccsBkKuy.s:418    .text.run_asercom2:00000246 $t
C:\Users\osour\AppData\Local\Temp\ccsBkKuy.s:526    .text.run_asercom2:000002d4 $d
C:\Users\osour\AppData\Local\Temp\ccsBkKuy.s:546    .text.run_asercom2:0000031c $t
C:\Users\osour\AppData\Local\Temp\ccsBkKuy.s:749    .text.run_asercom2:0000043a $d
C:\Users\osour\AppData\Local\Temp\ccsBkKuy.s:859    .text.run_asercom2:00000516 $t
C:\Users\osour\AppData\Local\Temp\ccsBkKuy.s:863    .text.run_asercom2:00000518 $d
C:\Users\osour\AppData\Local\Temp\ccsBkKuy.s:872    .text.run_asercom2:00000534 $t
C:\Users\osour\AppData\Local\Temp\ccsBkKuy.s:1356   .text.run_asercom2:00000828 $d
C:\Users\osour\AppData\Local\Temp\ccsBkKuy.s:1369   .text.run_asercom2:00000850 $t
C:\Users\osour\AppData\Local\Temp\ccsBkKuy.s:1870   .text.run_asercom2:00000b4c $d
C:\Users\osour\AppData\Local\Temp\ccsBkKuy.s:1881   .text.run_asercom2:00000b70 $t
C:\Users\osour\AppData\Local\Temp\ccsBkKuy.s:2116   .text.run_asercom2:00000d18 $d
C:\Users\osour\AppData\Local\Temp\ccsBkKuy.s:2168   .text.run_asercom2:00000de8 $t
C:\Users\osour\AppData\Local\Temp\ccsBkKuy.s:2520   .text.run_asercom2:00001040 $d
C:\Users\osour\AppData\Local\Temp\ccsBkKuy.s:2534   .text.run_asercom2:0000106c $t
C:\Users\osour\AppData\Local\Temp\ccsBkKuy.s:2856   .text.run_asercom2:0000128c $d
C:\Users\osour\AppData\Local\Temp\ccsBkKuy.s:2861   .text.run_asercom2:00001296 $t
C:\Users\osour\AppData\Local\Temp\ccsBkKuy.s:2940   .text.run_asercom2:00001310 $d
C:\Users\osour\AppData\Local\Temp\ccsBkKuy.s:2967   .text.run_asercom2:00001374 $t
C:\Users\osour\AppData\Local\Temp\ccsBkKuy.s:3416   .text.run_asercom2:0000167c $d
C:\Users\osour\AppData\Local\Temp\ccsBkKuy.s:3439   .text.run_asercom2:000016d0 $t
C:\Users\osour\AppData\Local\Temp\ccsBkKuy.s:3946   .text.run_asercom2:000019cc $d
C:\Users\osour\AppData\Local\Temp\ccsBkKuy.s:3986   .text.run_asercom2:00001a60 $t
C:\Users\osour\AppData\Local\Temp\ccsBkKuy.s:4418   .text.run_asercom2:00001d40 $d
C:\Users\osour\AppData\Local\Temp\ccsBkKuy.s:4442   .text.run_asercom2:00001d98 $t
C:\Users\osour\AppData\Local\Temp\ccsBkKuy.s:4988   .text.run_asercom2:000020b8 $d
C:\Users\osour\AppData\Local\Temp\ccsBkKuy.s:5016   .text.run_asercom2:00002120 $t
C:\Users\osour\AppData\Local\Temp\ccsBkKuy.s:5233   .text.run_asercom2:0000225c $d
C:\Users\osour\AppData\Local\Temp\ccsBkKuy.s:5251   .bss.LED_action.13539:00000000 $d
C:\Users\osour\AppData\Local\Temp\ccsBkKuy.s:5255   .bss.LED_action.13539:00000000 LED_action.13539
C:\Users\osour\AppData\Local\Temp\ccsBkKuy.s:5258   .bss.LED_nbr.13538:00000000 $d
C:\Users\osour\AppData\Local\Temp\ccsBkKuy.s:5262   .bss.LED_nbr.13538:00000000 LED_nbr.13538
C:\Users\osour\AppData\Local\Temp\ccsBkKuy.s:5265   .bss.accelero.13563:00000000 $d
C:\Users\osour\AppData\Local\Temp\ccsBkKuy.s:5269   .bss.accelero.13563:00000000 accelero.13563
C:\Users\osour\AppData\Local\Temp\ccsBkKuy.s:5272   .bss.accx.13540:00000000 $d
C:\Users\osour\AppData\Local\Temp\ccsBkKuy.s:5276   .bss.accx.13540:00000000 accx.13540
C:\Users\osour\AppData\Local\Temp\ccsBkKuy.s:5279   .bss.accy.13541:00000000 $d
C:\Users\osour\AppData\Local\Temp\ccsBkKuy.s:5283   .bss.accy.13541:00000000 accy.13541
C:\Users\osour\AppData\Local\Temp\ccsBkKuy.s:5286   .bss.accz.13542:00000000 $d
C:\Users\osour\AppData\Local\Temp\ccsBkKuy.s:5290   .bss.accz.13542:00000000 accz.13542
C:\Users\osour\AppData\Local\Temp\ccsBkKuy.s:5296   .bss.c1.13528:00000000 c1.13528
C:\Users\osour\AppData\Local\Temp\ccsBkKuy.s:5297   .bss.c1.13528:00000000 $d
C:\Users\osour\AppData\Local\Temp\ccsBkKuy.s:5302   .bss.c2.13529:00000000 c2.13529
C:\Users\osour\AppData\Local\Temp\ccsBkKuy.s:5303   .bss.c2.13529:00000000 $d
C:\Users\osour\AppData\Local\Temp\ccsBkKuy.s:5305   .bss.cam_heigth.13549:00000000 $d
C:\Users\osour\AppData\Local\Temp\ccsBkKuy.s:5309   .bss.cam_heigth.13549:00000000 cam_heigth.13549
C:\Users\osour\AppData\Local\Temp\ccsBkKuy.s:5312   .bss.cam_mode.13547:00000000 $d
C:\Users\osour\AppData\Local\Temp\ccsBkKuy.s:5316   .bss.cam_mode.13547:00000000 cam_mode.13547
C:\Users\osour\AppData\Local\Temp\ccsBkKuy.s:5319   .bss.cam_size.13551:00000000 $d
C:\Users\osour\AppData\Local\Temp\ccsBkKuy.s:5323   .bss.cam_size.13551:00000000 cam_size.13551
ARM GAS  C:\Users\osour\AppData\Local\Temp\ccsBkKuy.s 			page 441


C:\Users\osour\AppData\Local\Temp\ccsBkKuy.s:5326   .bss.cam_width.13548:00000000 $d
C:\Users\osour\AppData\Local\Temp\ccsBkKuy.s:5330   .bss.cam_width.13548:00000000 cam_width.13548
C:\Users\osour\AppData\Local\Temp\ccsBkKuy.s:5333   .bss.cam_x1.13552:00000000 $d
C:\Users\osour\AppData\Local\Temp\ccsBkKuy.s:5337   .bss.cam_x1.13552:00000000 cam_x1.13552
C:\Users\osour\AppData\Local\Temp\ccsBkKuy.s:5340   .bss.cam_y1.13553:00000000 $d
C:\Users\osour\AppData\Local\Temp\ccsBkKuy.s:5344   .bss.cam_y1.13553:00000000 cam_y1.13553
C:\Users\osour\AppData\Local\Temp\ccsBkKuy.s:5347   .bss.cam_zoom.13550:00000000 $d
C:\Users\osour\AppData\Local\Temp\ccsBkKuy.s:5351   .bss.cam_zoom.13550:00000000 cam_zoom.13550
C:\Users\osour\AppData\Local\Temp\ccsBkKuy.s:5357   .bss.first.13554:00000000 first.13554
C:\Users\osour\AppData\Local\Temp\ccsBkKuy.s:5358   .bss.first.13554:00000000 $d
C:\Users\osour\AppData\Local\Temp\ccsBkKuy.s:5360   .bss.gyrox.13544:00000000 $d
C:\Users\osour\AppData\Local\Temp\ccsBkKuy.s:5364   .bss.gyrox.13544:00000000 gyrox.13544
C:\Users\osour\AppData\Local\Temp\ccsBkKuy.s:5367   .bss.gyroy.13545:00000000 $d
C:\Users\osour\AppData\Local\Temp\ccsBkKuy.s:5371   .bss.gyroy.13545:00000000 gyroy.13545
C:\Users\osour\AppData\Local\Temp\ccsBkKuy.s:5374   .bss.gyroz.13546:00000000 $d
C:\Users\osour\AppData\Local\Temp\ccsBkKuy.s:5378   .bss.gyroz.13546:00000000 gyroz.13546
C:\Users\osour\AppData\Local\Temp\ccsBkKuy.s:5381   .bss.i.13531:00000000 $d
C:\Users\osour\AppData\Local\Temp\ccsBkKuy.s:5385   .bss.i.13531:00000000 i.13531
C:\Users\osour\AppData\Local\Temp\ccsBkKuy.s:5388   .bss.j.13532:00000000 $d
C:\Users\osour\AppData\Local\Temp\ccsBkKuy.s:5392   .bss.j.13532:00000000 j.13532
C:\Users\osour\AppData\Local\Temp\ccsBkKuy.s:5395   .bss.mod.13557:00000000 $d
C:\Users\osour\AppData\Local\Temp\ccsBkKuy.s:5399   .bss.mod.13557:00000000 mod.13557
C:\Users\osour\AppData\Local\Temp\ccsBkKuy.s:5402   .bss.positionl.13537:00000000 $d
C:\Users\osour\AppData\Local\Temp\ccsBkKuy.s:5406   .bss.positionl.13537:00000000 positionl.13537
C:\Users\osour\AppData\Local\Temp\ccsBkKuy.s:5409   .bss.positionr.13536:00000000 $d
C:\Users\osour\AppData\Local\Temp\ccsBkKuy.s:5413   .bss.positionr.13536:00000000 positionr.13536
C:\Users\osour\AppData\Local\Temp\ccsBkKuy.s:5416   .bss.reg.13558:00000000 $d
C:\Users\osour\AppData\Local\Temp\ccsBkKuy.s:5420   .bss.reg.13558:00000000 reg.13558
C:\Users\osour\AppData\Local\Temp\ccsBkKuy.s:5423   .bss.rgb_value.13555:00000000 $d
C:\Users\osour\AppData\Local\Temp\ccsBkKuy.s:5427   .bss.rgb_value.13555:00000000 rgb_value.13555
C:\Users\osour\AppData\Local\Temp\ccsBkKuy.s:5430   .bss.sound.13543:00000000 $d
C:\Users\osour\AppData\Local\Temp\ccsBkKuy.s:5434   .bss.sound.13543:00000000 sound.13543
C:\Users\osour\AppData\Local\Temp\ccsBkKuy.s:5437   .bss.speedl.13535:00000000 $d
C:\Users\osour\AppData\Local\Temp\ccsBkKuy.s:5441   .bss.speedl.13535:00000000 speedl.13535
C:\Users\osour\AppData\Local\Temp\ccsBkKuy.s:5444   .bss.speedr.13534:00000000 $d
C:\Users\osour\AppData\Local\Temp\ccsBkKuy.s:5448   .bss.speedr.13534:00000000 speedr.13534
C:\Users\osour\AppData\Local\Temp\ccsBkKuy.s:5451   .bss.val.13559:00000000 $d
C:\Users\osour\AppData\Local\Temp\ccsBkKuy.s:5455   .bss.val.13559:00000000 val.13559
C:\Users\osour\AppData\Local\Temp\ccsBkKuy.s:5461   .bss.wait_cam.13530:00000000 wait_cam.13530
C:\Users\osour\AppData\Local\Temp\ccsBkKuy.s:5462   .bss.wait_cam.13530:00000000 $d
C:\Users\osour\AppData\Local\Temp\ccsBkKuy.s:5464   .data.HWversion.13568:00000000 $d
C:\Users\osour\AppData\Local\Temp\ccsBkKuy.s:5468   .data.HWversion.13568:00000000 HWversion.13568
C:\Users\osour\AppData\Local\Temp\ccsBkKuy.s:5471   .rodata.run_asercom2.str1.4:00000000 $d

UNDEFINED SYMBOLS
e_init_motors
getselector
mountSDCard
e_i2cp_init
e_init_remote_control
ReadEE
e_poxxxx_init_cam
e_poxxxx_config_cam
e_poxxxx_write_cam_registers
e_acc_calibr
e_send_uart1_char
e_uart1_sending
ARM GAS  C:\Users\osour\AppData\Local\Temp\ccsBkKuy.s 			page 442


e_getchar_uart1
e_get_data
e_get_address
getXAxisGyro
getYAxisGyro
getZAxisGyro
sprintf
strlen
e_getchar_uart2
e_set_speed_left
e_set_speed_right
__stack_chk_guard
selector
c
buffer
e_play_sound
e_set_front_led
e_get_steps_left
e_get_steps_right
e_set_steps_left
e_set_steps_right
e_get_ambient_light
set_rgb_led
e_get_micro_volume
getBatteryValueRaw
e_i2cp_enable
e_i2cp_write
e_i2cp_disable
e_poxxxx_launch_capture
e_i2cp_read
isSDCardMounted
e_get_calibrated_prox
button_get_state
__locale_ctype_ptr
getTemperature
e_set_led
chThdSleep
e_led_clear
e_calibrate_ir
sscanf
e_init_sound
e_get_acc_filtered
e_get_check
isEpuckVersion1_3
e_set_body_led
playMelody
getBatteryValuePercentage
e_send_uart2_char
e_uart2_sending
VL53L0X_get_dist_mm
getAllAxesGyro
e_read_acc_spheric
e_poxxxx_wait_img_ready
dcmi_get_last_image_ptr
memcpy
e_close_sound
stopCurrentMelody
ARM GAS  C:\Users\osour\AppData\Local\Temp\ccsBkKuy.s 			page 443


