ARM GAS  C:\Users\osour\AppData\Local\Temp\ccn8NIqe.s 			page 1


   1              		.cpu cortex-m4
   2              		.eabi_attribute 27, 1
   3              		.eabi_attribute 28, 1
   4              		.eabi_attribute 20, 1
   5              		.eabi_attribute 21, 1
   6              		.eabi_attribute 23, 3
   7              		.eabi_attribute 24, 1
   8              		.eabi_attribute 25, 1
   9              		.eabi_attribute 26, 1
  10              		.eabi_attribute 30, 2
  11              		.eabi_attribute 34, 1
  12              		.eabi_attribute 18, 4
  13              		.file	"audio_thread.c"
  14              		.text
  15              	.Ltext0:
  16              		.cfi_sections	.debug_frame
  17              		.section	.text.error_cb,"ax",%progbits
  18              		.align	1
  19              		.p2align 4,,15
  20              		.syntax unified
  21              		.thumb
  22              		.thumb_func
  23              		.fpu fpv4-sp-d16
  24              		.type	error_cb, %function
  25              	error_cb:
  26              	.LFB256:
  27              		.file 1 "../../lib/e-puck2_main-processor/src/audio/audio_thread.c"
  28              		.loc 1 66 0
  29              		.cfi_startproc
  30              		@ args = 0, pretend = 0, frame = 8
  31              		@ frame_needed = 0, uses_anonymous_args = 0
  32              	.LVL0:
  33 0000 00B5     		push	{lr}
  34              		.cfi_def_cfa_offset 4
  35              		.cfi_offset 14, -4
  36 0002 084B     		ldr	r3, .L7
  37 0004 83B0     		sub	sp, sp, #12
  38              		.cfi_def_cfa_offset 16
  39              		.loc 1 66 0
  40 0006 1A68     		ldr	r2, [r3]
  41 0008 0192     		str	r2, [sp, #4]
  42              		.loc 1 71 0
  43 000a 019A     		ldr	r2, [sp, #4]
  44 000c 1B68     		ldr	r3, [r3]
  45 000e 9A42     		cmp	r2, r3
  46 0010 05D1     		bne	.L6
  47 0012 0548     		ldr	r0, .L7+4
  48              	.LVL1:
  49              		.loc 1 72 0
  50 0014 03B0     		add	sp, sp, #12
  51              		.cfi_remember_state
  52              		.cfi_def_cfa_offset 4
  53              		@ sp needed
  54 0016 5DF804EB 		ldr	lr, [sp], #4
  55              		.cfi_restore 14
  56              		.cfi_def_cfa_offset 0
  57              		.loc 1 71 0
ARM GAS  C:\Users\osour\AppData\Local\Temp\ccn8NIqe.s 			page 2


  58 001a FFF7FEBF 		b	chSysHalt
  59              	.LVL2:
  60              	.L6:
  61              		.cfi_restore_state
  62 001e FFF7FEFF 		bl	__stack_chk_fail
  63              	.LVL3:
  64              	.L8:
  65 0022 00BF     		.align	2
  66              	.L7:
  67 0024 00000000 		.word	__stack_chk_guard
  68 0028 00000000 		.word	.LC0
  69              		.cfi_endproc
  70              	.LFE256:
  71              		.size	error_cb, .-error_cb
  72              		.section	.text.dac_play,"ax",%progbits
  73              		.align	1
  74              		.p2align 4,,15
  75              		.global	dac_play
  76              		.syntax unified
  77              		.thumb
  78              		.thumb_func
  79              		.fpu fpv4-sp-d16
  80              		.type	dac_play, %function
  81              	dac_play:
  82              	.LFB258:
  83              		.loc 1 105 0
  84              		.cfi_startproc
  85              		@ args = 0, pretend = 0, frame = 8
  86              		@ frame_needed = 0, uses_anonymous_args = 0
  87              	.LVL4:
  88 0000 70B5     		push	{r4, r5, r6, lr}
  89              		.cfi_def_cfa_offset 16
  90              		.cfi_offset 4, -16
  91              		.cfi_offset 5, -12
  92              		.cfi_offset 6, -8
  93              		.cfi_offset 14, -4
  94              		.loc 1 106 0
  95 0002 1849     		ldr	r1, .L17
  96              		.loc 1 105 0
  97 0004 184C     		ldr	r4, .L17+4
  98              		.loc 1 106 0
  99 0006 0A78     		ldrb	r2, [r1]	@ zero_extendqisi2
 100              		.loc 1 105 0
 101 0008 2368     		ldr	r3, [r4]
 102 000a 82B0     		sub	sp, sp, #8
 103              		.cfi_def_cfa_offset 24
 104              		.loc 1 105 0
 105 000c 0193     		str	r3, [sp, #4]
 106 000e 4FF4B473 		mov	r3, #360
 107 0012 03FB00F5 		mul	r5, r3, r0
 108              		.loc 1 106 0
 109 0016 62B1     		cbz	r2, .L16
 110              		.loc 1 112 0
 111 0018 019A     		ldr	r2, [sp, #4]
 112 001a 2368     		ldr	r3, [r4]
 113 001c 9A42     		cmp	r2, r3
 114 001e 1FD1     		bne	.L15
ARM GAS  C:\Users\osour\AppData\Local\Temp\ccn8NIqe.s 			page 3


 115 0020 1248     		ldr	r0, .L17+8
 116              	.LVL5:
 117 0022 1349     		ldr	r1, .L17+12
 118 0024 B1FBF5F1 		udiv	r1, r1, r5
 119              		.loc 1 114 0
 120 0028 02B0     		add	sp, sp, #8
 121              		.cfi_remember_state
 122              		.cfi_def_cfa_offset 16
 123              		@ sp needed
 124 002a BDE87040 		pop	{r4, r5, r6, lr}
 125              		.cfi_restore 14
 126              		.cfi_restore 6
 127              		.cfi_restore 5
 128              		.cfi_restore 4
 129              		.cfi_def_cfa_offset 0
 130              		.loc 1 112 0
 131 002e FFF7FEBF 		b	gptChangeInterval
 132              	.LVL6:
 133              	.L16:
 134              		.cfi_restore_state
 135              	.LBB10:
 136              	.LBB11:
 137              		.loc 1 153 0
 138 0032 1048     		ldr	r0, .L17+16
 139              	.LVL7:
 140              	.LBE11:
 141              	.LBE10:
 142              		.loc 1 109 0
 143 0034 104A     		ldr	r2, .L17+20
 144              		.loc 1 107 0
 145 0036 0126     		movs	r6, #1
 146 0038 0E70     		strb	r6, [r1]
 147              	.LVL8:
 148              	.LBB13:
 149              	.LBB12:
 150              		.loc 1 153 0
 151 003a 8021     		movs	r1, #128
 152 003c 4183     		strh	r1, [r0, #26]	@ movhi
 153              	.LVL9:
 154              	.LBE12:
 155              	.LBE13:
 156              		.loc 1 109 0
 157 003e 0F49     		ldr	r1, .L17+24
 158 0040 0F48     		ldr	r0, .L17+28
 159 0042 FFF7FEFF 		bl	dacStartConversion
 160              	.LVL10:
 161              		.loc 1 110 0
 162 0046 019A     		ldr	r2, [sp, #4]
 163 0048 2368     		ldr	r3, [r4]
 164 004a 9A42     		cmp	r2, r3
 165 004c 08D1     		bne	.L15
 166 004e 0748     		ldr	r0, .L17+8
 167 0050 0749     		ldr	r1, .L17+12
 168 0052 B1FBF5F1 		udiv	r1, r1, r5
 169              		.loc 1 114 0
 170 0056 02B0     		add	sp, sp, #8
 171              		.cfi_remember_state
ARM GAS  C:\Users\osour\AppData\Local\Temp\ccn8NIqe.s 			page 4


 172              		.cfi_def_cfa_offset 16
 173              		@ sp needed
 174 0058 BDE87040 		pop	{r4, r5, r6, lr}
 175              		.cfi_restore 14
 176              		.cfi_restore 6
 177              		.cfi_restore 5
 178              		.cfi_restore 4
 179              		.cfi_def_cfa_offset 0
 180              		.loc 1 110 0
 181 005c FFF7FEBF 		b	gptStartContinuous
 182              	.LVL11:
 183              	.L15:
 184              		.cfi_restore_state
 185              		.loc 1 112 0
 186 0060 FFF7FEFF 		bl	__stack_chk_fail
 187              	.LVL12:
 188              	.L18:
 189              		.align	2
 190              	.L17:
 191 0064 00000000 		.word	.LANCHOR0
 192 0068 00000000 		.word	__stack_chk_guard
 193 006c 00000000 		.word	GPTD6
 194 0070 00BD0105 		.word	84000000
 195 0074 000C0240 		.word	1073875968
 196 0078 00000000 		.word	.LANCHOR1
 197 007c 00000000 		.word	.LANCHOR2
 198 0080 00000000 		.word	DACD2
 199              		.cfi_endproc
 200              	.LFE258:
 201              		.size	dac_play, .-dac_play
 202              		.section	.text.dac_play_buffer,"ax",%progbits
 203              		.align	1
 204              		.p2align 4,,15
 205              		.global	dac_play_buffer
 206              		.syntax unified
 207              		.thumb
 208              		.thumb_func
 209              		.fpu fpv4-sp-d16
 210              		.type	dac_play_buffer, %function
 211              	dac_play_buffer:
 212              	.LFB259:
 213              		.loc 1 116 0
 214              		.cfi_startproc
 215              		@ args = 0, pretend = 0, frame = 8
 216              		@ frame_needed = 0, uses_anonymous_args = 0
 217              	.LVL13:
 218 0000 F0B5     		push	{r4, r5, r6, r7, lr}
 219              		.cfi_def_cfa_offset 20
 220              		.cfi_offset 4, -20
 221              		.cfi_offset 5, -16
 222              		.cfi_offset 6, -12
 223              		.cfi_offset 7, -8
 224              		.cfi_offset 14, -4
 225              		.loc 1 117 0
 226 0002 1A4D     		ldr	r5, .L27
 227              		.loc 1 116 0
 228 0004 1A4C     		ldr	r4, .L27+4
ARM GAS  C:\Users\osour\AppData\Local\Temp\ccn8NIqe.s 			page 5


 229              		.loc 1 117 0
 230 0006 2E78     		ldrb	r6, [r5]	@ zero_extendqisi2
 231              		.loc 1 116 0
 232 0008 2768     		ldr	r7, [r4]
 233 000a 83B0     		sub	sp, sp, #12
 234              		.cfi_def_cfa_offset 32
 235              		.loc 1 116 0
 236 000c 0197     		str	r7, [sp, #4]
 237 000e 1746     		mov	r7, r2
 238              		.loc 1 117 0
 239 0010 66B1     		cbz	r6, .L26
 240              		.loc 1 124 0
 241 0012 019A     		ldr	r2, [sp, #4]
 242              	.LVL14:
 243 0014 2368     		ldr	r3, [r4]
 244              	.LVL15:
 245 0016 9A42     		cmp	r2, r3
 246 0018 26D1     		bne	.L25
 247 001a 1648     		ldr	r0, .L27+8
 248              	.LVL16:
 249 001c 1649     		ldr	r1, .L27+12
 250              	.LVL17:
 251 001e B1FBF7F1 		udiv	r1, r1, r7
 252              		.loc 1 126 0
 253 0022 03B0     		add	sp, sp, #12
 254              		.cfi_remember_state
 255              		.cfi_def_cfa_offset 20
 256              		@ sp needed
 257 0024 BDE8F040 		pop	{r4, r5, r6, r7, lr}
 258              		.cfi_restore 14
 259              		.cfi_restore 7
 260              		.cfi_restore 6
 261              		.cfi_restore 5
 262              		.cfi_restore 4
 263              		.cfi_def_cfa_offset 0
 264              	.LVL18:
 265              		.loc 1 124 0
 266 0028 FFF7FEBF 		b	gptChangeInterval
 267              	.LVL19:
 268              	.L26:
 269              		.cfi_restore_state
 270              		.loc 1 119 0
 271 002c 134E     		ldr	r6, .L27+16
 272              	.LBB14:
 273              	.LBB15:
 274              		.loc 1 153 0
 275 002e DFF854C0 		ldr	ip, .L27+24
 276              	.LBE15:
 277              	.LBE14:
 278              		.loc 1 119 0
 279 0032 7360     		str	r3, [r6, #4]
 280              	.LVL20:
 281              		.loc 1 121 0
 282 0034 0246     		mov	r2, r0
 283              	.LVL21:
 284              		.loc 1 118 0
 285 0036 4FF0010E 		mov	lr, #1
ARM GAS  C:\Users\osour\AppData\Local\Temp\ccn8NIqe.s 			page 6


 286              	.LBB18:
 287              	.LBB16:
 288              		.loc 1 153 0
 289 003a 8020     		movs	r0, #128
 290              	.LVL22:
 291              	.LBE16:
 292              	.LBE18:
 293              		.loc 1 121 0
 294 003c 0B46     		mov	r3, r1
 295              	.LVL23:
 296              		.loc 1 118 0
 297 003e 85F800E0 		strb	lr, [r5]
 298              		.loc 1 121 0
 299 0042 3146     		mov	r1, r6
 300              	.LVL24:
 301              	.LBB19:
 302              	.LBB17:
 303              		.loc 1 153 0
 304 0044 ACF81A00 		strh	r0, [ip, #26]	@ movhi
 305              	.LVL25:
 306              	.LBE17:
 307              	.LBE19:
 308              		.loc 1 121 0
 309 0048 0D48     		ldr	r0, .L27+20
 310 004a FFF7FEFF 		bl	dacStartConversion
 311              	.LVL26:
 312              		.loc 1 122 0
 313 004e 019A     		ldr	r2, [sp, #4]
 314 0050 2368     		ldr	r3, [r4]
 315 0052 9A42     		cmp	r2, r3
 316 0054 08D1     		bne	.L25
 317 0056 0748     		ldr	r0, .L27+8
 318 0058 0749     		ldr	r1, .L27+12
 319 005a B1FBF7F1 		udiv	r1, r1, r7
 320              		.loc 1 126 0
 321 005e 03B0     		add	sp, sp, #12
 322              		.cfi_remember_state
 323              		.cfi_def_cfa_offset 20
 324              		@ sp needed
 325 0060 BDE8F040 		pop	{r4, r5, r6, r7, lr}
 326              		.cfi_restore 14
 327              		.cfi_restore 7
 328              		.cfi_restore 6
 329              		.cfi_restore 5
 330              		.cfi_restore 4
 331              		.cfi_def_cfa_offset 0
 332              	.LVL27:
 333              		.loc 1 122 0
 334 0064 FFF7FEBF 		b	gptStartContinuous
 335              	.LVL28:
 336              	.L25:
 337              		.cfi_restore_state
 338              		.loc 1 124 0
 339 0068 FFF7FEFF 		bl	__stack_chk_fail
 340              	.LVL29:
 341              	.L28:
 342              		.align	2
ARM GAS  C:\Users\osour\AppData\Local\Temp\ccn8NIqe.s 			page 7


 343              	.L27:
 344 006c 00000000 		.word	.LANCHOR0
 345 0070 00000000 		.word	__stack_chk_guard
 346 0074 00000000 		.word	GPTD6
 347 0078 00BD0105 		.word	84000000
 348 007c 00000000 		.word	.LANCHOR2
 349 0080 00000000 		.word	DACD2
 350 0084 000C0240 		.word	1073875968
 351              		.cfi_endproc
 352              	.LFE259:
 353              		.size	dac_play_buffer, .-dac_play_buffer
 354              		.section	.text.dac_change_bufferI,"ax",%progbits
 355              		.align	1
 356              		.p2align 4,,15
 357              		.global	dac_change_bufferI
 358              		.syntax unified
 359              		.thumb
 360              		.thumb_func
 361              		.fpu fpv4-sp-d16
 362              		.type	dac_change_bufferI, %function
 363              	dac_change_bufferI:
 364              	.LFB260:
 365              		.loc 1 128 0
 366              		.cfi_startproc
 367              		@ args = 0, pretend = 0, frame = 8
 368              		@ frame_needed = 0, uses_anonymous_args = 0
 369              	.LVL30:
 370 0000 F0B5     		push	{r4, r5, r6, r7, lr}
 371              		.cfi_def_cfa_offset 20
 372              		.cfi_offset 4, -20
 373              		.cfi_offset 5, -16
 374              		.cfi_offset 6, -12
 375              		.cfi_offset 7, -8
 376              		.cfi_offset 14, -4
 377 0002 114C     		ldr	r4, .L34
 378 0004 83B0     		sub	sp, sp, #12
 379              		.cfi_def_cfa_offset 32
 380              		.loc 1 128 0
 381 0006 2368     		ldr	r3, [r4]
 382 0008 0193     		str	r3, [sp, #4]
 383 000a 0546     		mov	r5, r0
 384              		.loc 1 129 0
 385 000c 0F48     		ldr	r0, .L34+4
 386              	.LVL31:
 387              		.loc 1 128 0
 388 000e 0E46     		mov	r6, r1
 389 0010 1746     		mov	r7, r2
 390              		.loc 1 129 0
 391 0012 FFF7FEFF 		bl	gptStopTimerI
 392              	.LVL32:
 393              		.loc 1 130 0
 394 0016 0E48     		ldr	r0, .L34+8
 395 0018 FFF7FEFF 		bl	dacStopConversionI
 396              	.LVL33:
 397              		.loc 1 132 0
 398 001c 3346     		mov	r3, r6
 399 001e 2A46     		mov	r2, r5
ARM GAS  C:\Users\osour\AppData\Local\Temp\ccn8NIqe.s 			page 8


 400 0020 0C49     		ldr	r1, .L34+12
 401 0022 0B48     		ldr	r0, .L34+8
 402 0024 FFF7FEFF 		bl	dacStartConversionI
 403              	.LVL34:
 404              		.loc 1 133 0
 405 0028 019A     		ldr	r2, [sp, #4]
 406 002a 2368     		ldr	r3, [r4]
 407 002c 9A42     		cmp	r2, r3
 408 002e 08D1     		bne	.L33
 409 0030 0648     		ldr	r0, .L34+4
 410 0032 0949     		ldr	r1, .L34+16
 411 0034 B1FBF7F1 		udiv	r1, r1, r7
 412              		.loc 1 135 0
 413 0038 03B0     		add	sp, sp, #12
 414              		.cfi_remember_state
 415              		.cfi_def_cfa_offset 20
 416              		@ sp needed
 417 003a BDE8F040 		pop	{r4, r5, r6, r7, lr}
 418              		.cfi_restore 14
 419              		.cfi_restore 7
 420              		.cfi_restore 6
 421              		.cfi_restore 5
 422              		.cfi_restore 4
 423              		.cfi_def_cfa_offset 0
 424              	.LVL35:
 425              		.loc 1 133 0
 426 003e FFF7FEBF 		b	gptStartContinuousI
 427              	.LVL36:
 428              	.L33:
 429              		.cfi_restore_state
 430 0042 FFF7FEFF 		bl	__stack_chk_fail
 431              	.LVL37:
 432              	.L35:
 433 0046 00BF     		.align	2
 434              	.L34:
 435 0048 00000000 		.word	__stack_chk_guard
 436 004c 00000000 		.word	GPTD6
 437 0050 00000000 		.word	DACD2
 438 0054 00000000 		.word	.LANCHOR2
 439 0058 00BD0105 		.word	84000000
 440              		.cfi_endproc
 441              	.LFE260:
 442              		.size	dac_change_bufferI, .-dac_change_bufferI
 443              		.section	.text.dac_stopI,"ax",%progbits
 444              		.align	1
 445              		.p2align 4,,15
 446              		.global	dac_stopI
 447              		.syntax unified
 448              		.thumb
 449              		.thumb_func
 450              		.fpu fpv4-sp-d16
 451              		.type	dac_stopI, %function
 452              	dac_stopI:
 453              	.LFB261:
 454              		.loc 1 137 0
 455              		.cfi_startproc
 456              		@ args = 0, pretend = 0, frame = 8
ARM GAS  C:\Users\osour\AppData\Local\Temp\ccn8NIqe.s 			page 9


 457              		@ frame_needed = 0, uses_anonymous_args = 0
 458 0000 10B5     		push	{r4, lr}
 459              		.cfi_def_cfa_offset 8
 460              		.cfi_offset 4, -8
 461              		.cfi_offset 14, -4
 462 0002 0C4C     		ldr	r4, .L40
 463              	.LBB20:
 464              	.LBB21:
 465              		.loc 1 155 0
 466 0004 0C4B     		ldr	r3, .L40+4
 467              	.LBE21:
 468              	.LBE20:
 469              		.loc 1 137 0
 470 0006 2268     		ldr	r2, [r4]
 471              		.loc 1 139 0
 472 0008 0C48     		ldr	r0, .L40+8
 473              		.loc 1 137 0
 474 000a 82B0     		sub	sp, sp, #8
 475              		.cfi_def_cfa_offset 16
 476              		.loc 1 137 0
 477 000c 0192     		str	r2, [sp, #4]
 478              	.LVL38:
 479              	.LBB23:
 480              	.LBB22:
 481              		.loc 1 155 0
 482 000e 8022     		movs	r2, #128
 483 0010 1A83     		strh	r2, [r3, #24]	@ movhi
 484              	.LVL39:
 485              	.LBE22:
 486              	.LBE23:
 487              		.loc 1 139 0
 488 0012 FFF7FEFF 		bl	gptStopTimerI
 489              	.LVL40:
 490              		.loc 1 140 0
 491 0016 0A48     		ldr	r0, .L40+12
 492 0018 FFF7FEFF 		bl	dacStopConversionI
 493              	.LVL41:
 494              		.loc 1 142 0
 495 001c 019A     		ldr	r2, [sp, #4]
 496 001e 2368     		ldr	r3, [r4]
 497              		.loc 1 141 0
 498 0020 0849     		ldr	r1, .L40+16
 499 0022 0020     		movs	r0, #0
 500              		.loc 1 142 0
 501 0024 9A42     		cmp	r2, r3
 502              		.loc 1 141 0
 503 0026 0870     		strb	r0, [r1]
 504              		.loc 1 142 0
 505 0028 01D1     		bne	.L39
 506 002a 02B0     		add	sp, sp, #8
 507              		.cfi_remember_state
 508              		.cfi_def_cfa_offset 8
 509              		@ sp needed
 510 002c 10BD     		pop	{r4, pc}
 511              	.L39:
 512              		.cfi_restore_state
 513 002e FFF7FEFF 		bl	__stack_chk_fail
ARM GAS  C:\Users\osour\AppData\Local\Temp\ccn8NIqe.s 			page 10


 514              	.LVL42:
 515              	.L41:
 516 0032 00BF     		.align	2
 517              	.L40:
 518 0034 00000000 		.word	__stack_chk_guard
 519 0038 000C0240 		.word	1073875968
 520 003c 00000000 		.word	GPTD6
 521 0040 00000000 		.word	DACD2
 522 0044 00000000 		.word	.LANCHOR0
 523              		.cfi_endproc
 524              	.LFE261:
 525              		.size	dac_stopI, .-dac_stopI
 526              		.section	.text.dac_stop,"ax",%progbits
 527              		.align	1
 528              		.p2align 4,,15
 529              		.global	dac_stop
 530              		.syntax unified
 531              		.thumb
 532              		.thumb_func
 533              		.fpu fpv4-sp-d16
 534              		.type	dac_stop, %function
 535              	dac_stop:
 536              	.LFB262:
 537              		.loc 1 144 0
 538              		.cfi_startproc
 539              		@ args = 0, pretend = 0, frame = 8
 540              		@ frame_needed = 0, uses_anonymous_args = 0
 541 0000 10B5     		push	{r4, lr}
 542              		.cfi_def_cfa_offset 8
 543              		.cfi_offset 4, -8
 544              		.cfi_offset 14, -4
 545 0002 0C4C     		ldr	r4, .L46
 546              	.LBB24:
 547              	.LBB25:
 548              		.loc 1 155 0
 549 0004 0C4B     		ldr	r3, .L46+4
 550              	.LBE25:
 551              	.LBE24:
 552              		.loc 1 144 0
 553 0006 2268     		ldr	r2, [r4]
 554              		.loc 1 146 0
 555 0008 0C48     		ldr	r0, .L46+8
 556              		.loc 1 144 0
 557 000a 82B0     		sub	sp, sp, #8
 558              		.cfi_def_cfa_offset 16
 559              		.loc 1 144 0
 560 000c 0192     		str	r2, [sp, #4]
 561              	.LVL43:
 562              	.LBB27:
 563              	.LBB26:
 564              		.loc 1 155 0
 565 000e 8022     		movs	r2, #128
 566 0010 1A83     		strh	r2, [r3, #24]	@ movhi
 567              	.LVL44:
 568              	.LBE26:
 569              	.LBE27:
 570              		.loc 1 146 0
ARM GAS  C:\Users\osour\AppData\Local\Temp\ccn8NIqe.s 			page 11


 571 0012 FFF7FEFF 		bl	gptStopTimer
 572              	.LVL45:
 573              		.loc 1 147 0
 574 0016 0A48     		ldr	r0, .L46+12
 575 0018 FFF7FEFF 		bl	dacStopConversion
 576              	.LVL46:
 577              		.loc 1 149 0
 578 001c 019A     		ldr	r2, [sp, #4]
 579 001e 2368     		ldr	r3, [r4]
 580              		.loc 1 148 0
 581 0020 0849     		ldr	r1, .L46+16
 582 0022 0020     		movs	r0, #0
 583              		.loc 1 149 0
 584 0024 9A42     		cmp	r2, r3
 585              		.loc 1 148 0
 586 0026 0870     		strb	r0, [r1]
 587              		.loc 1 149 0
 588 0028 01D1     		bne	.L45
 589 002a 02B0     		add	sp, sp, #8
 590              		.cfi_remember_state
 591              		.cfi_def_cfa_offset 8
 592              		@ sp needed
 593 002c 10BD     		pop	{r4, pc}
 594              	.L45:
 595              		.cfi_restore_state
 596 002e FFF7FEFF 		bl	__stack_chk_fail
 597              	.LVL47:
 598              	.L47:
 599 0032 00BF     		.align	2
 600              	.L46:
 601 0034 00000000 		.word	__stack_chk_guard
 602 0038 000C0240 		.word	1073875968
 603 003c 00000000 		.word	GPTD6
 604 0040 00000000 		.word	DACD2
 605 0044 00000000 		.word	.LANCHOR0
 606              		.cfi_endproc
 607              	.LFE262:
 608              		.size	dac_stop, .-dac_stop
 609              		.section	.text.dac_start,"ax",%progbits
 610              		.align	1
 611              		.p2align 4,,15
 612              		.global	dac_start
 613              		.syntax unified
 614              		.thumb
 615              		.thumb_func
 616              		.fpu fpv4-sp-d16
 617              		.type	dac_start, %function
 618              	dac_start:
 619              	.LFB257:
 620              		.loc 1 79 0
 621              		.cfi_startproc
 622              		@ args = 0, pretend = 0, frame = 8
 623              		@ frame_needed = 0, uses_anonymous_args = 0
 624 0000 70B5     		push	{r4, r5, r6, lr}
 625              		.cfi_def_cfa_offset 16
 626              		.cfi_offset 4, -16
 627              		.cfi_offset 5, -12
ARM GAS  C:\Users\osour\AppData\Local\Temp\ccn8NIqe.s 			page 12


 628              		.cfi_offset 6, -8
 629              		.cfi_offset 14, -4
 630 0002 154D     		ldr	r5, .L53
 631              		.loc 1 86 0
 632 0004 154A     		ldr	r2, .L53+4
 633              		.loc 1 80 0
 634 0006 164B     		ldr	r3, .L53+8
 635              		.loc 1 79 0
 636 0008 2968     		ldr	r1, [r5]
 637              		.loc 1 82 0
 638 000a 164E     		ldr	r6, .L53+12
 639 000c 9E60     		str	r6, [r3, #8]
 640              		.loc 1 79 0
 641 000e 82B0     		sub	sp, sp, #8
 642              		.cfi_def_cfa_offset 24
 643              		.loc 1 81 0
 644 0010 0024     		movs	r4, #0
 645              		.loc 1 86 0
 646 0012 4FF40060 		mov	r0, #2048
 647 0016 1080     		strh	r0, [r2]	@ movhi
 648              		.loc 1 79 0
 649 0018 0191     		str	r1, [sp, #4]
 650              		.loc 1 87 0
 651 001a 9470     		strb	r4, [r2, #2]
 652              		.loc 1 89 0
 653 001c 1146     		mov	r1, r2
 654 001e 1248     		ldr	r0, .L53+16
 655              		.loc 1 81 0
 656 0020 5C60     		str	r4, [r3, #4]
 657              		.loc 1 80 0
 658 0022 0122     		movs	r2, #1
 659 0024 1A60     		str	r2, [r3]
 660              		.loc 1 83 0
 661 0026 DC60     		str	r4, [r3, #12]
 662              		.loc 1 89 0
 663 0028 FFF7FEFF 		bl	dacStart
 664              	.LVL48:
 665              		.loc 1 93 0
 666 002c 0F4B     		ldr	r3, .L53+20
 667 002e 104E     		ldr	r6, .L53+24
 668              		.loc 1 98 0
 669 0030 1048     		ldr	r0, .L53+28
 670              		.loc 1 94 0
 671 0032 5C60     		str	r4, [r3, #4]
 672              		.loc 1 95 0
 673 0034 2022     		movs	r2, #32
 674              		.loc 1 98 0
 675 0036 1946     		mov	r1, r3
 676              		.loc 1 95 0
 677 0038 9A60     		str	r2, [r3, #8]
 678              		.loc 1 96 0
 679 003a DC60     		str	r4, [r3, #12]
 680              		.loc 1 93 0
 681 003c 1E60     		str	r6, [r3]
 682              		.loc 1 98 0
 683 003e FFF7FEFF 		bl	gptStart
 684              	.LVL49:
ARM GAS  C:\Users\osour\AppData\Local\Temp\ccn8NIqe.s 			page 13


 685              		.loc 1 101 0
 686 0042 019A     		ldr	r2, [sp, #4]
 687 0044 2B68     		ldr	r3, [r5]
 688 0046 9A42     		cmp	r2, r3
 689 0048 04D1     		bne	.L52
 690              		.loc 1 103 0
 691 004a 02B0     		add	sp, sp, #8
 692              		.cfi_remember_state
 693              		.cfi_def_cfa_offset 16
 694              		@ sp needed
 695 004c BDE87040 		pop	{r4, r5, r6, lr}
 696              		.cfi_restore 14
 697              		.cfi_restore 6
 698              		.cfi_restore 5
 699              		.cfi_restore 4
 700              		.cfi_def_cfa_offset 0
 701              		.loc 1 101 0
 702 0050 FFF7FEBF 		b	dac_stop
 703              	.LVL50:
 704              	.L52:
 705              		.cfi_restore_state
 706 0054 FFF7FEFF 		bl	__stack_chk_fail
 707              	.LVL51:
 708              	.L54:
 709              		.align	2
 710              	.L53:
 711 0058 00000000 		.word	__stack_chk_guard
 712 005c 00000000 		.word	.LANCHOR3
 713 0060 00000000 		.word	.LANCHOR2
 714 0064 00000000 		.word	error_cb
 715 0068 00000000 		.word	DACD2
 716 006c 00000000 		.word	.LANCHOR4
 717 0070 00BD0105 		.word	84000000
 718 0074 00000000 		.word	GPTD6
 719              		.cfi_endproc
 720              	.LFE257:
 721              		.size	dac_start, .-dac_start
 722              		.section	.text.dac_power_speaker,"ax",%progbits
 723              		.align	1
 724              		.p2align 4,,15
 725              		.global	dac_power_speaker
 726              		.syntax unified
 727              		.thumb
 728              		.thumb_func
 729              		.fpu fpv4-sp-d16
 730              		.type	dac_power_speaker, %function
 731              	dac_power_speaker:
 732              	.LFB263:
 733              		.loc 1 151 0
 734              		.cfi_startproc
 735              		@ args = 0, pretend = 0, frame = 8
 736              		@ frame_needed = 0, uses_anonymous_args = 0
 737              	.LVL52:
 738 0000 00B5     		push	{lr}
 739              		.cfi_def_cfa_offset 4
 740              		.cfi_offset 14, -4
 741 0002 094B     		ldr	r3, .L62
ARM GAS  C:\Users\osour\AppData\Local\Temp\ccn8NIqe.s 			page 14


 742 0004 83B0     		sub	sp, sp, #12
 743              		.cfi_def_cfa_offset 16
 744              		.loc 1 151 0
 745 0006 1A68     		ldr	r2, [r3]
 746 0008 0192     		str	r2, [sp, #4]
 747              		.loc 1 153 0
 748 000a 8021     		movs	r1, #128
 749 000c 074A     		ldr	r2, .L62+4
 750              		.loc 1 152 0
 751 000e 38B9     		cbnz	r0, .L60
 752              		.loc 1 155 0
 753 0010 1183     		strh	r1, [r2, #24]	@ movhi
 754              	.L55:
 755              		.loc 1 157 0
 756 0012 019A     		ldr	r2, [sp, #4]
 757 0014 1B68     		ldr	r3, [r3]
 758 0016 9A42     		cmp	r2, r3
 759 0018 04D1     		bne	.L61
 760 001a 03B0     		add	sp, sp, #12
 761              		.cfi_remember_state
 762              		.cfi_def_cfa_offset 4
 763              		@ sp needed
 764 001c 5DF804FB 		ldr	pc, [sp], #4
 765              	.L60:
 766              		.cfi_restore_state
 767              		.loc 1 153 0
 768 0020 5183     		strh	r1, [r2, #26]	@ movhi
 769 0022 F6E7     		b	.L55
 770              	.L61:
 771              		.loc 1 157 0
 772 0024 FFF7FEFF 		bl	__stack_chk_fail
 773              	.LVL53:
 774              	.L63:
 775              		.align	2
 776              	.L62:
 777 0028 00000000 		.word	__stack_chk_guard
 778 002c 000C0240 		.word	1073875968
 779              		.cfi_endproc
 780              	.LFE263:
 781              		.size	dac_power_speaker, .-dac_power_speaker
 782              		.section	.bss.config.9869,"aw",%nobits
 783              		.align	2
 784              		.set	.LANCHOR4,. + 0
 785              		.type	config.9869, %object
 786              		.size	config.9869, 16
 787              	config.9869:
 788 0000 00000000 		.space	16
 788      00000000 
 788      00000000 
 788      00000000 
 789              		.section	.bss.dac_config.9868,"aw",%nobits
 790              		.align	2
 791              		.set	.LANCHOR3,. + 0
 792              		.type	dac_config.9868, %object
 793              		.size	dac_config.9868, 4
 794              	dac_config.9868:
 795 0000 00000000 		.space	4
ARM GAS  C:\Users\osour\AppData\Local\Temp\ccn8NIqe.s 			page 15


 796              		.section	.bss.dac_conversion,"aw",%nobits
 797              		.align	2
 798              		.set	.LANCHOR2,. + 0
 799              		.type	dac_conversion, %object
 800              		.size	dac_conversion, 16
 801              	dac_conversion:
 802 0000 00000000 		.space	16
 802      00000000 
 802      00000000 
 802      00000000 
 803              		.section	.bss.dac_state,"aw",%nobits
 804              		.set	.LANCHOR0,. + 0
 805              		.type	dac_state, %object
 806              		.size	dac_state, 1
 807              	dac_state:
 808 0000 00       		.space	1
 809              		.section	.rodata.error_cb.str1.4,"aMS",%progbits,1
 810              		.align	2
 811              	.LC0:
 812 0000 44414320 		.ascii	"DAC failure\000"
 812      6661696C 
 812      75726500 
 813              		.section	.rodata.sinus_buffer,"a",%progbits
 814              		.align	2
 815              		.set	.LANCHOR1,. + 0
 816              		.type	sinus_buffer, %object
 817              		.size	sinus_buffer, 720
 818              	sinus_buffer:
 819 0000 FF07     		.short	2047
 820 0002 2208     		.short	2082
 821 0004 4608     		.short	2118
 822 0006 6A08     		.short	2154
 823 0008 8D08     		.short	2189
 824 000a B108     		.short	2225
 825 000c D408     		.short	2260
 826 000e F808     		.short	2296
 827 0010 1B09     		.short	2331
 828 0012 3F09     		.short	2367
 829 0014 6209     		.short	2402
 830 0016 8509     		.short	2437
 831 0018 A809     		.short	2472
 832 001a CB09     		.short	2507
 833 001c EE09     		.short	2542
 834 001e 100A     		.short	2576
 835 0020 330A     		.short	2611
 836 0022 550A     		.short	2645
 837 0024 770A     		.short	2679
 838 0026 990A     		.short	2713
 839 0028 BB0A     		.short	2747
 840 002a DC0A     		.short	2780
 841 002c FD0A     		.short	2813
 842 002e 1E0B     		.short	2846
 843 0030 3F0B     		.short	2879
 844 0032 600B     		.short	2912
 845 0034 800B     		.short	2944
 846 0036 A00B     		.short	2976
 847 0038 C00B     		.short	3008
ARM GAS  C:\Users\osour\AppData\Local\Temp\ccn8NIqe.s 			page 16


 848 003a DF0B     		.short	3039
 849 003c FE0B     		.short	3070
 850 003e 1D0C     		.short	3101
 851 0040 3B0C     		.short	3131
 852 0042 590C     		.short	3161
 853 0044 770C     		.short	3191
 854 0046 950C     		.short	3221
 855 0048 B20C     		.short	3250
 856 004a CE0C     		.short	3278
 857 004c EB0C     		.short	3307
 858 004e 070D     		.short	3335
 859 0050 220D     		.short	3362
 860 0052 3D0D     		.short	3389
 861 0054 580D     		.short	3416
 862 0056 730D     		.short	3443
 863 0058 8C0D     		.short	3468
 864 005a A60D     		.short	3494
 865 005c BF0D     		.short	3519
 866 005e D80D     		.short	3544
 867 0060 F00D     		.short	3568
 868 0062 070E     		.short	3591
 869 0064 1F0E     		.short	3615
 870 0066 350E     		.short	3637
 871 0068 4C0E     		.short	3660
 872 006a 610E     		.short	3681
 873 006c 770E     		.short	3703
 874 006e 8B0E     		.short	3723
 875 0070 A00E     		.short	3744
 876 0072 B30E     		.short	3763
 877 0074 C60E     		.short	3782
 878 0076 D90E     		.short	3801
 879 0078 EB0E     		.short	3819
 880 007a FD0E     		.short	3837
 881 007c 0E0F     		.short	3854
 882 007e 1E0F     		.short	3870
 883 0080 2E0F     		.short	3886
 884 0082 3E0F     		.short	3902
 885 0084 4D0F     		.short	3917
 886 0086 5B0F     		.short	3931
 887 0088 680F     		.short	3944
 888 008a 760F     		.short	3958
 889 008c 820F     		.short	3970
 890 008e 8E0F     		.short	3982
 891 0090 990F     		.short	3993
 892 0092 A40F     		.short	4004
 893 0094 AE0F     		.short	4014
 894 0096 B80F     		.short	4024
 895 0098 C10F     		.short	4033
 896 009a C90F     		.short	4041
 897 009c D10F     		.short	4049
 898 009e D80F     		.short	4056
 899 00a0 DE0F     		.short	4062
 900 00a2 E40F     		.short	4068
 901 00a4 EA0F     		.short	4074
 902 00a6 EE0F     		.short	4078
 903 00a8 F20F     		.short	4082
 904 00aa F60F     		.short	4086
ARM GAS  C:\Users\osour\AppData\Local\Temp\ccn8NIqe.s 			page 17


 905 00ac F90F     		.short	4089
 906 00ae FB0F     		.short	4091
 907 00b0 FC0F     		.short	4092
 908 00b2 FD0F     		.short	4093
 909 00b4 FE0F     		.short	4094
 910 00b6 FD0F     		.short	4093
 911 00b8 FC0F     		.short	4092
 912 00ba FB0F     		.short	4091
 913 00bc F90F     		.short	4089
 914 00be F60F     		.short	4086
 915 00c0 F20F     		.short	4082
 916 00c2 EE0F     		.short	4078
 917 00c4 EA0F     		.short	4074
 918 00c6 E40F     		.short	4068
 919 00c8 DE0F     		.short	4062
 920 00ca D80F     		.short	4056
 921 00cc D10F     		.short	4049
 922 00ce C90F     		.short	4041
 923 00d0 C10F     		.short	4033
 924 00d2 B80F     		.short	4024
 925 00d4 AE0F     		.short	4014
 926 00d6 A40F     		.short	4004
 927 00d8 990F     		.short	3993
 928 00da 8E0F     		.short	3982
 929 00dc 820F     		.short	3970
 930 00de 760F     		.short	3958
 931 00e0 680F     		.short	3944
 932 00e2 5B0F     		.short	3931
 933 00e4 4D0F     		.short	3917
 934 00e6 3E0F     		.short	3902
 935 00e8 2E0F     		.short	3886
 936 00ea 1E0F     		.short	3870
 937 00ec 0E0F     		.short	3854
 938 00ee FD0E     		.short	3837
 939 00f0 EB0E     		.short	3819
 940 00f2 D90E     		.short	3801
 941 00f4 C60E     		.short	3782
 942 00f6 B30E     		.short	3763
 943 00f8 A00E     		.short	3744
 944 00fa 8B0E     		.short	3723
 945 00fc 770E     		.short	3703
 946 00fe 610E     		.short	3681
 947 0100 4C0E     		.short	3660
 948 0102 350E     		.short	3637
 949 0104 1F0E     		.short	3615
 950 0106 070E     		.short	3591
 951 0108 F00D     		.short	3568
 952 010a D80D     		.short	3544
 953 010c BF0D     		.short	3519
 954 010e A60D     		.short	3494
 955 0110 8C0D     		.short	3468
 956 0112 730D     		.short	3443
 957 0114 580D     		.short	3416
 958 0116 3D0D     		.short	3389
 959 0118 220D     		.short	3362
 960 011a 070D     		.short	3335
 961 011c EB0C     		.short	3307
ARM GAS  C:\Users\osour\AppData\Local\Temp\ccn8NIqe.s 			page 18


 962 011e CE0C     		.short	3278
 963 0120 B20C     		.short	3250
 964 0122 950C     		.short	3221
 965 0124 770C     		.short	3191
 966 0126 590C     		.short	3161
 967 0128 3B0C     		.short	3131
 968 012a 1D0C     		.short	3101
 969 012c FE0B     		.short	3070
 970 012e DF0B     		.short	3039
 971 0130 C00B     		.short	3008
 972 0132 A00B     		.short	2976
 973 0134 800B     		.short	2944
 974 0136 600B     		.short	2912
 975 0138 3F0B     		.short	2879
 976 013a 1E0B     		.short	2846
 977 013c FD0A     		.short	2813
 978 013e DC0A     		.short	2780
 979 0140 BB0A     		.short	2747
 980 0142 990A     		.short	2713
 981 0144 770A     		.short	2679
 982 0146 550A     		.short	2645
 983 0148 330A     		.short	2611
 984 014a 100A     		.short	2576
 985 014c EE09     		.short	2542
 986 014e CB09     		.short	2507
 987 0150 A809     		.short	2472
 988 0152 8509     		.short	2437
 989 0154 6209     		.short	2402
 990 0156 3F09     		.short	2367
 991 0158 1B09     		.short	2331
 992 015a F808     		.short	2296
 993 015c D408     		.short	2260
 994 015e B108     		.short	2225
 995 0160 8D08     		.short	2189
 996 0162 6A08     		.short	2154
 997 0164 4608     		.short	2118
 998 0166 2208     		.short	2082
 999 0168 FF07     		.short	2047
 1000 016a DC07     		.short	2012
 1001 016c B807     		.short	1976
 1002 016e 9407     		.short	1940
 1003 0170 7107     		.short	1905
 1004 0172 4D07     		.short	1869
 1005 0174 2A07     		.short	1834
 1006 0176 0607     		.short	1798
 1007 0178 E306     		.short	1763
 1008 017a BF06     		.short	1727
 1009 017c 9C06     		.short	1692
 1010 017e 7906     		.short	1657
 1011 0180 5606     		.short	1622
 1012 0182 3306     		.short	1587
 1013 0184 1006     		.short	1552
 1014 0186 EE05     		.short	1518
 1015 0188 CB05     		.short	1483
 1016 018a A905     		.short	1449
 1017 018c 8705     		.short	1415
 1018 018e 6505     		.short	1381
ARM GAS  C:\Users\osour\AppData\Local\Temp\ccn8NIqe.s 			page 19


 1019 0190 4305     		.short	1347
 1020 0192 2205     		.short	1314
 1021 0194 0105     		.short	1281
 1022 0196 E004     		.short	1248
 1023 0198 BF04     		.short	1215
 1024 019a 9E04     		.short	1182
 1025 019c 7E04     		.short	1150
 1026 019e 5E04     		.short	1118
 1027 01a0 3E04     		.short	1086
 1028 01a2 1F04     		.short	1055
 1029 01a4 0004     		.short	1024
 1030 01a6 E103     		.short	993
 1031 01a8 C303     		.short	963
 1032 01aa A503     		.short	933
 1033 01ac 8703     		.short	903
 1034 01ae 6903     		.short	873
 1035 01b0 4C03     		.short	844
 1036 01b2 3003     		.short	816
 1037 01b4 1303     		.short	787
 1038 01b6 F702     		.short	759
 1039 01b8 DC02     		.short	732
 1040 01ba C102     		.short	705
 1041 01bc A602     		.short	678
 1042 01be 8B02     		.short	651
 1043 01c0 7202     		.short	626
 1044 01c2 5802     		.short	600
 1045 01c4 3F02     		.short	575
 1046 01c6 2602     		.short	550
 1047 01c8 0E02     		.short	526
 1048 01ca F701     		.short	503
 1049 01cc DF01     		.short	479
 1050 01ce C901     		.short	457
 1051 01d0 B201     		.short	434
 1052 01d2 9D01     		.short	413
 1053 01d4 8701     		.short	391
 1054 01d6 7301     		.short	371
 1055 01d8 5E01     		.short	350
 1056 01da 4B01     		.short	331
 1057 01dc 3801     		.short	312
 1058 01de 2501     		.short	293
 1059 01e0 1301     		.short	275
 1060 01e2 0101     		.short	257
 1061 01e4 F000     		.short	240
 1062 01e6 E000     		.short	224
 1063 01e8 D000     		.short	208
 1064 01ea C000     		.short	192
 1065 01ec B100     		.short	177
 1066 01ee A300     		.short	163
 1067 01f0 9600     		.short	150
 1068 01f2 8800     		.short	136
 1069 01f4 7C00     		.short	124
 1070 01f6 7000     		.short	112
 1071 01f8 6500     		.short	101
 1072 01fa 5A00     		.short	90
 1073 01fc 5000     		.short	80
 1074 01fe 4600     		.short	70
 1075 0200 3D00     		.short	61
ARM GAS  C:\Users\osour\AppData\Local\Temp\ccn8NIqe.s 			page 20


 1076 0202 3500     		.short	53
 1077 0204 2D00     		.short	45
 1078 0206 2600     		.short	38
 1079 0208 2000     		.short	32
 1080 020a 1A00     		.short	26
 1081 020c 1400     		.short	20
 1082 020e 1000     		.short	16
 1083 0210 0C00     		.short	12
 1084 0212 0800     		.short	8
 1085 0214 0500     		.short	5
 1086 0216 0300     		.short	3
 1087 0218 0200     		.short	2
 1088 021a 0100     		.short	1
 1089 021c 0000     		.short	0
 1090 021e 0100     		.short	1
 1091 0220 0200     		.short	2
 1092 0222 0300     		.short	3
 1093 0224 0500     		.short	5
 1094 0226 0800     		.short	8
 1095 0228 0C00     		.short	12
 1096 022a 1000     		.short	16
 1097 022c 1400     		.short	20
 1098 022e 1A00     		.short	26
 1099 0230 2000     		.short	32
 1100 0232 2600     		.short	38
 1101 0234 2D00     		.short	45
 1102 0236 3500     		.short	53
 1103 0238 3D00     		.short	61
 1104 023a 4600     		.short	70
 1105 023c 5000     		.short	80
 1106 023e 5A00     		.short	90
 1107 0240 6500     		.short	101
 1108 0242 7000     		.short	112
 1109 0244 7C00     		.short	124
 1110 0246 8800     		.short	136
 1111 0248 9600     		.short	150
 1112 024a A300     		.short	163
 1113 024c B100     		.short	177
 1114 024e C000     		.short	192
 1115 0250 D000     		.short	208
 1116 0252 E000     		.short	224
 1117 0254 F000     		.short	240
 1118 0256 0101     		.short	257
 1119 0258 1301     		.short	275
 1120 025a 2501     		.short	293
 1121 025c 3801     		.short	312
 1122 025e 4B01     		.short	331
 1123 0260 5E01     		.short	350
 1124 0262 7301     		.short	371
 1125 0264 8701     		.short	391
 1126 0266 9D01     		.short	413
 1127 0268 B201     		.short	434
 1128 026a C901     		.short	457
 1129 026c DF01     		.short	479
 1130 026e F701     		.short	503
 1131 0270 0E02     		.short	526
 1132 0272 2602     		.short	550
ARM GAS  C:\Users\osour\AppData\Local\Temp\ccn8NIqe.s 			page 21


 1133 0274 3F02     		.short	575
 1134 0276 5802     		.short	600
 1135 0278 7202     		.short	626
 1136 027a 8B02     		.short	651
 1137 027c A602     		.short	678
 1138 027e C102     		.short	705
 1139 0280 DC02     		.short	732
 1140 0282 F702     		.short	759
 1141 0284 1303     		.short	787
 1142 0286 3003     		.short	816
 1143 0288 4C03     		.short	844
 1144 028a 6903     		.short	873
 1145 028c 8703     		.short	903
 1146 028e A503     		.short	933
 1147 0290 C303     		.short	963
 1148 0292 E103     		.short	993
 1149 0294 0004     		.short	1024
 1150 0296 1F04     		.short	1055
 1151 0298 3E04     		.short	1086
 1152 029a 5E04     		.short	1118
 1153 029c 7E04     		.short	1150
 1154 029e 9E04     		.short	1182
 1155 02a0 BF04     		.short	1215
 1156 02a2 E004     		.short	1248
 1157 02a4 0105     		.short	1281
 1158 02a6 2205     		.short	1314
 1159 02a8 4305     		.short	1347
 1160 02aa 6505     		.short	1381
 1161 02ac 8705     		.short	1415
 1162 02ae A905     		.short	1449
 1163 02b0 CB05     		.short	1483
 1164 02b2 EE05     		.short	1518
 1165 02b4 1006     		.short	1552
 1166 02b6 3306     		.short	1587
 1167 02b8 5606     		.short	1622
 1168 02ba 7906     		.short	1657
 1169 02bc 9C06     		.short	1692
 1170 02be BF06     		.short	1727
 1171 02c0 E306     		.short	1763
 1172 02c2 0607     		.short	1798
 1173 02c4 2A07     		.short	1834
 1174 02c6 4D07     		.short	1869
 1175 02c8 7107     		.short	1905
 1176 02ca 9407     		.short	1940
 1177 02cc B807     		.short	1976
 1178 02ce DC07     		.short	2012
 1179              		.text
 1180              	.Letext0:
 1181              		.file 2 "c:\\users\\osour\\desktop\\robotique\\eclipse_e-puck2\\tools\\gcc-arm-none-eabi-7-2017-q4
 1182              		.file 3 "c:\\users\\osour\\desktop\\robotique\\eclipse_e-puck2\\tools\\gcc-arm-none-eabi-7-2017-q4
 1183              		.file 4 "c:\\users\\osour\\desktop\\robotique\\eclipse_e-puck2\\tools\\gcc-arm-none-eabi-7-2017-q4
 1184              		.file 5 "../../lib/e-puck2_main-processor/ChibiOS//os/rt/ports/ARMCMx/compilers/GCC/chtypes.h"
 1185              		.file 6 "../../lib/e-puck2_main-processor/ChibiOS//os/rt/include/chsystypes.h"
 1186              		.file 7 "../../lib/e-puck2_main-processor/ChibiOS//os/rt/include/chschd.h"
 1187              		.file 8 "../../lib/e-puck2_main-processor/ChibiOS//os/ext/CMSIS/include/core_cm4.h"
 1188              		.file 9 "../../lib/e-puck2_main-processor/ChibiOS//os/ext/CMSIS/ST/system_stm32f4xx.h"
 1189              		.file 10 "../../lib/e-puck2_main-processor/ChibiOS//os/ext/CMSIS/ST/stm32f407xx.h"
ARM GAS  C:\Users\osour\AppData\Local\Temp\ccn8NIqe.s 			page 22


 1190              		.file 11 "../../lib/e-puck2_main-processor/ChibiOS//os/rt/ports/ARMCMx/chcore.h"
 1191              		.file 12 "../../lib/e-puck2_main-processor/ChibiOS//os/rt/ports/ARMCMx/chcore_v7m.h"
 1192              		.file 13 "../../lib/e-puck2_main-processor/ChibiOS//os/rt/include/chdebug.h"
 1193              		.file 14 "../../lib/e-puck2_main-processor/ChibiOS//os/rt/include/chtm.h"
 1194              		.file 15 "../../lib/e-puck2_main-processor/ChibiOS//os/rt/include/chstats.h"
 1195              		.file 16 "../../lib/e-puck2_main-processor/ChibiOS//os/rt/include/chsem.h"
 1196              		.file 17 "../../lib/e-puck2_main-processor/ChibiOS//os/rt/include/chmtx.h"
 1197              		.file 18 "../../lib/e-puck2_main-processor/ChibiOS//os/rt/include/chregistry.h"
 1198              		.file 19 "../../lib/e-puck2_main-processor/ChibiOS//os/rt/include/chevents.h"
 1199              		.file 20 "../../lib/e-puck2_main-processor/ChibiOS//os/rt/include/chqueues.h"
 1200              		.file 21 "../../lib/e-puck2_main-processor/ChibiOS//os/hal/ports/STM32/STM32F4xx/stm32_dma.h"
 1201              		.file 22 "../../lib/e-puck2_main-processor/ChibiOS//os/hal/include/hal_ioblock.h"
 1202              		.file 23 "../../lib/e-puck2_main-processor/ChibiOS//os/hal/ports/STM32/LLD/GPIOv2/pal_lld.h"
 1203              		.file 24 "../../lib/e-puck2_main-processor/ChibiOS//os/hal/include/adc.h"
 1204              		.file 25 "../../lib/e-puck2_main-processor/ChibiOS//os/hal/ports/STM32/STM32F4xx/adc_lld.h"
 1205              		.file 26 "../../lib/e-puck2_main-processor/ChibiOS//os/hal/include/can.h"
 1206              		.file 27 "../../lib/e-puck2_main-processor/ChibiOS//os/hal/ports/STM32/LLD/can_lld.h"
 1207              		.file 28 "../../lib/e-puck2_main-processor/ChibiOS//os/hal/include/dac.h"
 1208              		.file 29 "../../lib/e-puck2_main-processor/ChibiOS//os/hal/ports/STM32/LLD/DACv1/dac_lld.h"
 1209              		.file 30 "../../lib/e-puck2_main-processor/ChibiOS//os/hal/include/ext.h"
 1210              		.file 31 "../../lib/e-puck2_main-processor/ChibiOS//os/hal/ports/STM32/LLD/ext_lld.h"
 1211              		.file 32 "../../lib/e-puck2_main-processor/ChibiOS//os/hal/include/gpt.h"
 1212              		.file 33 "../../lib/e-puck2_main-processor/ChibiOS//os/hal/ports/STM32/LLD/TIMv1/gpt_lld.h"
 1213              		.file 34 "../../lib/e-puck2_main-processor/ChibiOS//os/hal/ports/STM32/LLD/TIMv1/stm32_tim.h"
 1214              		.file 35 "../../lib/e-puck2_main-processor/ChibiOS//os/hal/include/i2c.h"
 1215              		.file 36 "../../lib/e-puck2_main-processor/ChibiOS//os/hal/ports/STM32/LLD/I2Cv1/i2c_lld.h"
 1216              		.file 37 "../../lib/e-puck2_main-processor/ChibiOS//os/hal/include/i2s.h"
 1217              		.file 38 "../../lib/e-puck2_main-processor/ChibiOS//os/hal/ports/STM32/LLD/SPIv1/i2s_lld.h"
 1218              		.file 39 "../../lib/e-puck2_main-processor/ChibiOS//os/hal/include/pwm.h"
 1219              		.file 40 "../../lib/e-puck2_main-processor/ChibiOS//os/hal/ports/STM32/LLD/TIMv1/pwm_lld.h"
 1220              		.file 41 "../../lib/e-puck2_main-processor/ChibiOS//os/hal/include/serial.h"
 1221              		.file 42 "../../lib/e-puck2_main-processor/ChibiOS//os/hal/ports/STM32/LLD/USARTv1/serial_lld.h"
 1222              		.file 43 "../../lib/e-puck2_main-processor/ChibiOS//os/hal/include/sdc.h"
 1223              		.file 44 "../../lib/e-puck2_main-processor/ChibiOS//os/hal/ports/STM32/LLD/sdc_lld.h"
 1224              		.file 45 "../../lib/e-puck2_main-processor/ChibiOS//os/hal/include/spi.h"
 1225              		.file 46 "../../lib/e-puck2_main-processor/ChibiOS//os/hal/ports/STM32/LLD/SPIv1/spi_lld.h"
 1226              		.file 47 "../../lib/e-puck2_main-processor/ChibiOS//os/hal/include/usb.h"
 1227              		.file 48 "../../lib/e-puck2_main-processor/ChibiOS//os/hal/ports/STM32/LLD/OTGv1/usb_lld.h"
 1228              		.file 49 "../../lib/e-puck2_main-processor/ChibiOS//os/hal/ports/STM32/LLD/OTGv1/stm32_otg.h"
 1229              		.file 50 "../../lib/e-puck2_main-processor/ChibiOS//os/rt/include/chsys.h"