ARM GAS  C:\Users\osour\AppData\Local\Temp\ccVCx99b.s 			page 1


   1              		.cpu cortex-m4
   2              		.eabi_attribute 27, 1
   3              		.eabi_attribute 28, 1
   4              		.eabi_attribute 20, 1
   5              		.eabi_attribute 21, 1
   6              		.eabi_attribute 23, 3
   7              		.eabi_attribute 24, 1
   8              		.eabi_attribute 25, 1
   9              		.eabi_attribute 26, 1
  10              		.eabi_attribute 30, 2
  11              		.eabi_attribute 34, 1
  12              		.eabi_attribute 18, 4
  13              		.file	"audio_processing.c"
  14              		.text
  15              	.Ltext0:
  16              		.cfi_sections	.debug_frame
  17              		.section	.text.fundamental_frequency.part.1,"ax",%progbits
  18              		.align	1
  19              		.p2align 4,,15
  20              		.syntax unified
  21              		.thumb
  22              		.thumb_func
  23              		.fpu fpv4-sp-d16
  24              		.type	fundamental_frequency.part.1, %function
  25              	fundamental_frequency.part.1:
  26              	.LFB299:
  27              		.file 1 "audio_processing.c"
  28              		.loc 1 195 0
  29              		.cfi_startproc
  30              		@ args = 0, pretend = 0, frame = 8
  31              		@ frame_needed = 0, uses_anonymous_args = 0
  32              	.LVL0:
  33 0000 30B5     		push	{r4, r5, lr}
  34              		.cfi_def_cfa_offset 12
  35              		.cfi_offset 4, -12
  36              		.cfi_offset 5, -8
  37              		.cfi_offset 14, -4
  38 0002 114D     		ldr	r5, .L14
  39 0004 83B0     		sub	sp, sp, #12
  40              		.cfi_def_cfa_offset 24
  41              		.loc 1 195 0
  42 0006 2B68     		ldr	r3, [r5]
  43 0008 0193     		str	r3, [sp, #4]
  44              	.LVL1:
  45              	.LBB40:
  46              		.loc 1 197 0
  47 000a A9B1     		cbz	r1, .L1
  48 000c 0124     		movs	r4, #1
  49 000e 00F58042 		add	r2, r0, #16384
  50              	.LVL2:
  51              	.L4:
  52 0012 07EE904A 		vmov	s15, r4	@ int
  53 0016 F8EE676A 		vcvt.f32.u32	s13, s15
  54 001a 0346     		mov	r3, r0
  55              	.L3:
  56              	.LBB41:
  57              		.loc 1 199 0
ARM GAS  C:\Users\osour\AppData\Local\Temp\ccVCx99b.s 			page 2


  58 001c 93ED007A 		vldr.32	s14, [r3]
  59 0020 C7EE267A 		vdiv.f32	s15, s14, s13
  60 0024 77EE877A 		vadd.f32	s15, s15, s14
  61 0028 E3EC017A 		vstmia.32	r3!, {s15}
  62              	.LVL3:
  63              		.loc 1 198 0
  64 002c 9A42     		cmp	r2, r3
  65 002e F5D1     		bne	.L3
  66              	.LBE41:
  67              		.loc 1 197 0
  68 0030 0134     		adds	r4, r4, #1
  69              	.LVL4:
  70 0032 E4B2     		uxtb	r4, r4
  71              	.LVL5:
  72 0034 8C42     		cmp	r4, r1
  73 0036 ECD9     		bls	.L4
  74              	.LVL6:
  75              	.L1:
  76              	.LBE40:
  77              		.loc 1 203 0
  78 0038 019A     		ldr	r2, [sp, #4]
  79 003a 2B68     		ldr	r3, [r5]
  80 003c 9A42     		cmp	r2, r3
  81 003e 01D1     		bne	.L13
  82 0040 03B0     		add	sp, sp, #12
  83              		.cfi_remember_state
  84              		.cfi_def_cfa_offset 12
  85              		@ sp needed
  86 0042 30BD     		pop	{r4, r5, pc}
  87              	.L13:
  88              		.cfi_restore_state
  89 0044 FFF7FEFF 		bl	__stack_chk_fail
  90              	.LVL7:
  91              	.L15:
  92              		.align	2
  93              	.L14:
  94 0048 00000000 		.word	__stack_chk_guard
  95              		.cfi_endproc
  96              	.LFE299:
  97              		.size	fundamental_frequency.part.1, .-fundamental_frequency.part.1
  98              		.section	.text.chprintf.constprop.3,"ax",%progbits
  99              		.align	1
 100              		.p2align 4,,15
 101              		.syntax unified
 102              		.thumb
 103              		.thumb_func
 104              		.fpu fpv4-sp-d16
 105              		.type	chprintf.constprop.3, %function
 106              	chprintf.constprop.3:
 107              	.LFB300:
 108              		.file 2 "../../lib/e-puck2_main-processor/ChibiOS//os/hal/lib/streams/chprintf.h"
 109              		.loc 2 69 0
 110              		.cfi_startproc
 111              		@ args = 4, pretend = 12, frame = 8
 112              		@ frame_needed = 0, uses_anonymous_args = 1
 113              	.LVL8:
 114 0000 0EB4     		push	{r1, r2, r3}
ARM GAS  C:\Users\osour\AppData\Local\Temp\ccVCx99b.s 			page 3


 115              		.cfi_def_cfa_offset 12
 116              		.cfi_offset 1, -12
 117              		.cfi_offset 2, -8
 118              		.cfi_offset 3, -4
 119 0002 10B5     		push	{r4, lr}
 120              		.cfi_def_cfa_offset 20
 121              		.cfi_offset 4, -20
 122              		.cfi_offset 14, -16
 123 0004 83B0     		sub	sp, sp, #12
 124              		.cfi_def_cfa_offset 32
 125              		.loc 2 69 0
 126 0006 05AA     		add	r2, sp, #20
 127 0008 094C     		ldr	r4, .L20
 128 000a 52F8041B 		ldr	r1, [r2], #4
 129 000e 2368     		ldr	r3, [r4]
 130              		.loc 2 74 0
 131 0010 0848     		ldr	r0, .L20+4
 132              	.LVL9:
 133              		.loc 2 73 0
 134 0012 0092     		str	r2, [sp]
 135              		.loc 2 69 0
 136 0014 0193     		str	r3, [sp, #4]
 137              	.LVL10:
 138              		.loc 2 74 0
 139 0016 FFF7FEFF 		bl	chvprintf
 140              	.LVL11:
 141              		.loc 2 78 0
 142 001a 019A     		ldr	r2, [sp, #4]
 143 001c 2368     		ldr	r3, [r4]
 144 001e 9A42     		cmp	r2, r3
 145 0020 04D1     		bne	.L19
 146 0022 03B0     		add	sp, sp, #12
 147              		.cfi_remember_state
 148              		.cfi_def_cfa_offset 20
 149              		@ sp needed
 150 0024 BDE81040 		pop	{r4, lr}
 151              		.cfi_restore 14
 152              		.cfi_restore 4
 153              		.cfi_def_cfa_offset 12
 154 0028 03B0     		add	sp, sp, #12
 155              		.cfi_restore 3
 156              		.cfi_restore 2
 157              		.cfi_restore 1
 158              		.cfi_def_cfa_offset 0
 159 002a 7047     		bx	lr
 160              	.L19:
 161              		.cfi_restore_state
 162 002c FFF7FEFF 		bl	__stack_chk_fail
 163              	.LVL12:
 164              	.L21:
 165              		.align	2
 166              	.L20:
 167 0030 00000000 		.word	__stack_chk_guard
 168 0034 00000000 		.word	SD3
 169              		.cfi_endproc
 170              	.LFE300:
 171              		.size	chprintf.constprop.3, .-chprintf.constprop.3
ARM GAS  C:\Users\osour\AppData\Local\Temp\ccVCx99b.s 			page 4


 172              		.section	.text.check_smallest_error,"ax",%progbits
 173              		.align	1
 174              		.p2align 4,,15
 175              		.global	check_smallest_error
 176              		.syntax unified
 177              		.thumb
 178              		.thumb_func
 179              		.fpu fpv4-sp-d16
 180              		.type	check_smallest_error, %function
 181              	check_smallest_error:
 182              	.LFB292:
 183              		.loc 1 108 0
 184              		.cfi_startproc
 185              		@ args = 0, pretend = 0, frame = 8
 186              		@ frame_needed = 0, uses_anonymous_args = 0
 187              	.LVL13:
 188              		.loc 1 110 0
 189 0000 0268     		ldr	r2, [r0]
 190 0002 DFED257A 		vldr.32	s15, .L33
 191              		.loc 1 112 0
 192 0006 9FED257A 		vldr.32	s14, .L33+4
 193 000a 254B     		ldr	r3, .L33+8
 194              		.loc 1 110 0
 195 000c 023A     		subs	r2, r2, #2
 196 000e 06EE902A 		vmov	s13, r2	@ int
 197 0012 F8EE666A 		vcvt.f32.u32	s13, s13
 198              		.loc 1 108 0
 199 0016 30B5     		push	{r4, r5, lr}
 200              		.cfi_def_cfa_offset 12
 201              		.cfi_offset 4, -12
 202              		.cfi_offset 5, -8
 203              		.cfi_offset 14, -4
 204              		.loc 1 110 0
 205 0018 66EEA76A 		vmul.f32	s13, s13, s15
 206              		.loc 1 108 0
 207 001c 214C     		ldr	r4, .L33+12
 208              		.loc 1 112 0
 209 001e DFED227A 		vldr.32	s15, .L33+16	@ int
 210              		.loc 1 108 0
 211 0022 2168     		ldr	r1, [r4]
 212              		.loc 1 112 0
 213 0024 36EEC77A 		vsub.f32	s14, s13, s14
 214              		.loc 1 108 0
 215 0028 83B0     		sub	sp, sp, #12
 216              		.cfi_def_cfa_offset 24
 217              		.loc 1 112 0
 218 002a BDEEC77A 		vcvt.s32.f32	s14, s14
 219              		.loc 1 108 0
 220 002e 0191     		str	r1, [sp, #4]
 221              	.LVL14:
 222              		.loc 1 112 0
 223 0030 17EE105A 		vmov	r5, s14	@ int
 224 0034 002D     		cmp	r5, #0
 225 0036 B8BF     		it	lt
 226 0038 6D42     		rsblt	r5, r5, #0
 227 003a 07EE105A 		vmov	s14, r5	@ int
 228 003e 03F15C01 		add	r1, r3, #92
ARM GAS  C:\Users\osour\AppData\Local\Temp\ccVCx99b.s 			page 5


 229 0042 0122     		movs	r2, #1
 230 0044 B8EEC77A 		vcvt.f32.s32	s14, s14
 231              	.LVL15:
 232 0048 03E0     		b	.L26
 233              	.LVL16:
 234              	.L31:
 235 004a 33F8025F 		ldrh	r5, [r3, #2]!
 236 004e 07EE905A 		vmov	s15, r5	@ int
 237              	.LVL17:
 238              	.L26:
 239              	.LBB42:
 240              		.loc 1 114 0
 241 0052 F8EE677A 		vcvt.f32.u32	s15, s15
 242 0056 76EEE77A 		vsub.f32	s15, s13, s15
 243 005a FDEEE77A 		vcvt.s32.f32	s15, s15
 244 005e 17EE905A 		vmov	r5, s15	@ int
 245 0062 002D     		cmp	r5, #0
 246 0064 B8BF     		it	lt
 247 0066 6D42     		rsblt	r5, r5, #0
 248 0068 07EE905A 		vmov	s15, r5	@ int
 249 006c F8EEE77A 		vcvt.f32.s32	s15, s15
 250              	.LVL18:
 251              		.loc 1 115 0
 252 0070 F4EEC77A 		vcmpe.f32	s15, s14
 253 0074 F1EE10FA 		vmrs	APSR_nzcv, FPSCR
 254              	.LVL19:
 255              		.loc 1 118 0
 256 0078 44BF     		itt	mi
 257 007a 0260     		strmi	r2, [r0]
 258              	.LVL20:
 259              		.loc 1 116 0
 260 007c B0EE677A 		vmovmi.f32	s14, s15
 261              	.LVL21:
 262              		.loc 1 113 0
 263 0080 8B42     		cmp	r3, r1
 264 0082 02F10102 		add	r2, r2, #1
 265              	.LVL22:
 266 0086 E0D1     		bne	.L31
 267              	.LBE42:
 268              		.loc 1 122 0
 269 0088 019A     		ldr	r2, [sp, #4]
 270 008a 2368     		ldr	r3, [r4]
 271 008c 9A42     		cmp	r2, r3
 272 008e 01D1     		bne	.L32
 273 0090 03B0     		add	sp, sp, #12
 274              		.cfi_remember_state
 275              		.cfi_def_cfa_offset 12
 276              		@ sp needed
 277 0092 30BD     		pop	{r4, r5, pc}
 278              	.L32:
 279              		.cfi_restore_state
 280 0094 FFF7FEFF 		bl	__stack_chk_fail
 281              	.LVL23:
 282              	.L34:
 283              		.align	2
 284              	.L33:
 285 0098 00007A40 		.word	1081737216
ARM GAS  C:\Users\osour\AppData\Local\Temp\ccVCx99b.s 			page 6


 286 009c 00005C42 		.word	1113325568
 287 00a0 02000000 		.word	.LANCHOR0+2
 288 00a4 00000000 		.word	__stack_chk_guard
 289 00a8 3A000000 		.word	58
 290              		.cfi_endproc
 291              	.LFE292:
 292              		.size	check_smallest_error, .-check_smallest_error
 293              		.section	.text.find_note,"ax",%progbits
 294              		.align	1
 295              		.p2align 4,,15
 296              		.global	find_note
 297              		.syntax unified
 298              		.thumb
 299              		.thumb_func
 300              		.fpu fpv4-sp-d16
 301              		.type	find_note, %function
 302              	find_note:
 303              	.LFB293:
 304              		.loc 1 127 0
 305              		.cfi_startproc
 306              		@ args = 0, pretend = 0, frame = 8
 307              		@ frame_needed = 0, uses_anonymous_args = 0
 308              	.LVL24:
 309 0000 00B5     		push	{lr}
 310              		.cfi_def_cfa_offset 4
 311              		.cfi_offset 14, -4
 312 0002 354B     		ldr	r3, .L68
 313 0004 83B0     		sub	sp, sp, #12
 314              		.cfi_def_cfa_offset 16
 315              		.loc 1 127 0
 316 0006 1A68     		ldr	r2, [r3]
 317 0008 0192     		str	r2, [sp, #4]
 318              		.loc 1 128 0
 319 000a 0C28     		cmp	r0, #12
 320 000c 5BD8     		bhi	.L35
 321 000e DFE800F0 		tbb	[pc, r0]
 322              	.L38:
 323 0012 12       		.byte	(.L37-.L38)/2
 324 0013 18       		.byte	(.L39-.L38)/2
 325 0014 1E       		.byte	(.L40-.L38)/2
 326 0015 24       		.byte	(.L41-.L38)/2
 327 0016 2A       		.byte	(.L42-.L38)/2
 328 0017 30       		.byte	(.L43-.L38)/2
 329 0018 36       		.byte	(.L44-.L38)/2
 330 0019 3C       		.byte	(.L45-.L38)/2
 331 001a 42       		.byte	(.L46-.L38)/2
 332 001b 48       		.byte	(.L47-.L38)/2
 333 001c 4E       		.byte	(.L48-.L38)/2
 334 001d 54       		.byte	(.L49-.L38)/2
 335 001e 07       		.byte	(.L50-.L38)/2
 336 001f 00       		.p2align 1
 337              	.L50:
 338              		.loc 1 166 0
 339 0020 019A     		ldr	r2, [sp, #4]
 340 0022 1B68     		ldr	r3, [r3]
 341 0024 9A42     		cmp	r2, r3
 342 0026 55D1     		bne	.L67
ARM GAS  C:\Users\osour\AppData\Local\Temp\ccVCx99b.s 			page 7


 343 0028 2C49     		ldr	r1, .L68+4
 344              	.L66:
 345 002a 2D48     		ldr	r0, .L68+8
 346              	.LVL25:
 347              		.loc 1 169 0
 348 002c 03B0     		add	sp, sp, #12
 349              		.cfi_remember_state
 350              		.cfi_def_cfa_offset 4
 351              		@ sp needed
 352 002e 5DF804EB 		ldr	lr, [sp], #4
 353              		.cfi_restore 14
 354              		.cfi_def_cfa_offset 0
 355              		.loc 1 166 0
 356 0032 FFF7FEBF 		b	chprintf.constprop.3
 357              	.LVL26:
 358              	.L37:
 359              		.cfi_restore_state
 360              		.loc 1 130 0
 361 0036 019A     		ldr	r2, [sp, #4]
 362 0038 1B68     		ldr	r3, [r3]
 363 003a 9A42     		cmp	r2, r3
 364 003c 4AD1     		bne	.L67
 365 003e 2949     		ldr	r1, .L68+12
 366 0040 F3E7     		b	.L66
 367              	.L39:
 368              		.loc 1 133 0
 369 0042 019A     		ldr	r2, [sp, #4]
 370 0044 1B68     		ldr	r3, [r3]
 371 0046 9A42     		cmp	r2, r3
 372 0048 44D1     		bne	.L67
 373 004a 2749     		ldr	r1, .L68+16
 374 004c EDE7     		b	.L66
 375              	.L40:
 376              		.loc 1 136 0
 377 004e 019A     		ldr	r2, [sp, #4]
 378 0050 1B68     		ldr	r3, [r3]
 379 0052 9A42     		cmp	r2, r3
 380 0054 3ED1     		bne	.L67
 381 0056 2549     		ldr	r1, .L68+20
 382 0058 E7E7     		b	.L66
 383              	.L41:
 384              		.loc 1 139 0
 385 005a 019A     		ldr	r2, [sp, #4]
 386 005c 1B68     		ldr	r3, [r3]
 387 005e 9A42     		cmp	r2, r3
 388 0060 38D1     		bne	.L67
 389 0062 2349     		ldr	r1, .L68+24
 390 0064 E1E7     		b	.L66
 391              	.L42:
 392              		.loc 1 142 0
 393 0066 019A     		ldr	r2, [sp, #4]
 394 0068 1B68     		ldr	r3, [r3]
 395 006a 9A42     		cmp	r2, r3
 396 006c 32D1     		bne	.L67
 397 006e 2149     		ldr	r1, .L68+28
 398 0070 DBE7     		b	.L66
 399              	.L43:
ARM GAS  C:\Users\osour\AppData\Local\Temp\ccVCx99b.s 			page 8


 400              		.loc 1 145 0
 401 0072 019A     		ldr	r2, [sp, #4]
 402 0074 1B68     		ldr	r3, [r3]
 403 0076 9A42     		cmp	r2, r3
 404 0078 2CD1     		bne	.L67
 405 007a 1F49     		ldr	r1, .L68+32
 406 007c D5E7     		b	.L66
 407              	.L44:
 408              		.loc 1 148 0
 409 007e 019A     		ldr	r2, [sp, #4]
 410 0080 1B68     		ldr	r3, [r3]
 411 0082 9A42     		cmp	r2, r3
 412 0084 26D1     		bne	.L67
 413 0086 1D49     		ldr	r1, .L68+36
 414 0088 CFE7     		b	.L66
 415              	.L45:
 416              		.loc 1 151 0
 417 008a 019A     		ldr	r2, [sp, #4]
 418 008c 1B68     		ldr	r3, [r3]
 419 008e 9A42     		cmp	r2, r3
 420 0090 20D1     		bne	.L67
 421 0092 1B49     		ldr	r1, .L68+40
 422 0094 C9E7     		b	.L66
 423              	.L46:
 424              		.loc 1 154 0
 425 0096 019A     		ldr	r2, [sp, #4]
 426 0098 1B68     		ldr	r3, [r3]
 427 009a 9A42     		cmp	r2, r3
 428 009c 1AD1     		bne	.L67
 429 009e 1949     		ldr	r1, .L68+44
 430 00a0 C3E7     		b	.L66
 431              	.L47:
 432              		.loc 1 157 0
 433 00a2 019A     		ldr	r2, [sp, #4]
 434 00a4 1B68     		ldr	r3, [r3]
 435 00a6 9A42     		cmp	r2, r3
 436 00a8 14D1     		bne	.L67
 437 00aa 1749     		ldr	r1, .L68+48
 438 00ac BDE7     		b	.L66
 439              	.L48:
 440              		.loc 1 160 0
 441 00ae 019A     		ldr	r2, [sp, #4]
 442 00b0 1B68     		ldr	r3, [r3]
 443 00b2 9A42     		cmp	r2, r3
 444 00b4 0ED1     		bne	.L67
 445 00b6 1549     		ldr	r1, .L68+52
 446 00b8 B7E7     		b	.L66
 447              	.L49:
 448              		.loc 1 163 0
 449 00ba 019A     		ldr	r2, [sp, #4]
 450 00bc 1B68     		ldr	r3, [r3]
 451 00be 9A42     		cmp	r2, r3
 452 00c0 08D1     		bne	.L67
 453 00c2 1349     		ldr	r1, .L68+56
 454 00c4 B1E7     		b	.L66
 455              	.L35:
 456              		.loc 1 169 0
ARM GAS  C:\Users\osour\AppData\Local\Temp\ccVCx99b.s 			page 9


 457 00c6 019A     		ldr	r2, [sp, #4]
 458 00c8 1B68     		ldr	r3, [r3]
 459 00ca 9A42     		cmp	r2, r3
 460 00cc 02D1     		bne	.L67
 461 00ce 03B0     		add	sp, sp, #12
 462              		@ sp needed
 463 00d0 5DF804FB 		ldr	pc, [sp], #4
 464              	.L67:
 465 00d4 FFF7FEFF 		bl	__stack_chk_fail
 466              	.LVL27:
 467              	.L69:
 468              		.align	2
 469              	.L68:
 470 00d8 00000000 		.word	__stack_chk_guard
 471 00dc 30000000 		.word	.LC12
 472 00e0 00000000 		.word	SD3
 473 00e4 00000000 		.word	.LC0
 474 00e8 04000000 		.word	.LC1
 475 00ec 08000000 		.word	.LC2
 476 00f0 0C000000 		.word	.LC3
 477 00f4 10000000 		.word	.LC4
 478 00f8 14000000 		.word	.LC5
 479 00fc 18000000 		.word	.LC6
 480 0100 1C000000 		.word	.LC7
 481 0104 20000000 		.word	.LC8
 482 0108 24000000 		.word	.LC9
 483 010c 28000000 		.word	.LC10
 484 0110 2C000000 		.word	.LC11
 485              		.cfi_endproc
 486              	.LFE293:
 487              		.size	find_note, .-find_note
 488              		.section	.text.record_note.part.0,"ax",%progbits
 489              		.align	1
 490              		.p2align 4,,15
 491              		.syntax unified
 492              		.thumb
 493              		.thumb_func
 494              		.fpu fpv4-sp-d16
 495              		.type	record_note.part.0, %function
 496              	record_note.part.0:
 497              	.LFB298:
 498              		.loc 1 176 0
 499              		.cfi_startproc
 500              		@ args = 0, pretend = 0, frame = 8
 501              		@ frame_needed = 0, uses_anonymous_args = 0
 502 0000 2DE9F041 		push	{r4, r5, r6, r7, r8, lr}
 503              		.cfi_def_cfa_offset 24
 504              		.cfi_offset 4, -24
 505              		.cfi_offset 5, -20
 506              		.cfi_offset 6, -16
 507              		.cfi_offset 7, -12
 508              		.cfi_offset 8, -8
 509              		.cfi_offset 14, -4
 510 0004 DFF8A480 		ldr	r8, .L80+28
 511              		.loc 1 183 0
 512 0008 2149     		ldr	r1, .L80
 513              		.loc 1 176 0
ARM GAS  C:\Users\osour\AppData\Local\Temp\ccVCx99b.s 			page 10


 514 000a D8F80030 		ldr	r3, [r8]
 515              		.loc 1 183 0
 516 000e 2148     		ldr	r0, .L80+4
 517 0010 214C     		ldr	r4, .L80+8
 518 0012 224F     		ldr	r7, .L80+12
 519              		.loc 1 176 0
 520 0014 82B0     		sub	sp, sp, #8
 521              		.cfi_def_cfa_offset 32
 522 0016 04F11406 		add	r6, r4, #20
 523              		.loc 1 176 0
 524 001a 0193     		str	r3, [sp, #4]
 525              	.LVL28:
 526              		.loc 1 183 0
 527 001c FFF7FEFF 		bl	chprintf.constprop.3
 528              	.LVL29:
 529              	.LBB58:
 530              		.loc 1 186 0
 531 0020 0025     		movs	r5, #0
 532              	.LVL30:
 533              	.L71:
 534              		.loc 1 185 0
 535 0022 14F8010F 		ldrb	r0, [r4, #1]!	@ zero_extendqisi2
 536              	.LVL31:
 537 0026 FFF7FEFF 		bl	find_note
 538              	.LVL32:
 539              		.loc 1 184 0
 540 002a B442     		cmp	r4, r6
 541              		.loc 1 186 0
 542 002c 3D80     		strh	r5, [r7]	@ movhi
 543              	.LVL33:
 544              		.loc 1 184 0
 545 002e F8D1     		bne	.L71
 546              	.LVL34:
 547              	.LBE58:
 548              	.LBB59:
 549              	.LBB60:
 550              	.LBB61:
 551              	.LBB62:
 552              	.LBB63:
 553              	.LBB64:
 554              	.LBB65:
 555              		.file 3 "../../lib/e-puck2_main-processor/ChibiOS//os/ext/CMSIS/include/core_cmFunc.h"
 556              		.loc 3 546 0
 557 0030 2023     		movs	r3, #32
 558              		.syntax unified
 559              	@ 546 "../../lib/e-puck2_main-processor/ChibiOS//os/ext/CMSIS/include/core_cmFunc.h" 1
 560 0032 83F31188 		MSR basepri, r3
 561              	@ 0 "" 2
 562              	.LVL35:
 563              		.thumb
 564              		.syntax unified
 565              	.LBE65:
 566              	.LBE64:
 567              	.LBE63:
 568              		.file 4 "../../lib/e-puck2_main-processor/ChibiOS//os/rt/include/chsys.h"
 569              		.loc 4 349 0
 570 0036 FFF7FEFF 		bl	_stats_start_measure_crit_thd
ARM GAS  C:\Users\osour\AppData\Local\Temp\ccVCx99b.s 			page 11


 571              	.LVL36:
 572              		.loc 4 350 0
 573 003a FFF7FEFF 		bl	_dbg_check_lock
 574              	.LVL37:
 575              	.LBE62:
 576              	.LBE61:
 577              	.LBB66:
 578              	.LBB67:
 579              		.file 5 "../../lib/e-puck2_main-processor/ChibiOS//os/rt/include/chbsem.h"
 580              		.loc 5 268 0
 581 003e FFF7FEFF 		bl	chDbgCheckClassI
 582              	.LVL38:
 583              		.loc 5 270 0
 584 0042 1748     		ldr	r0, .L80+16
 585 0044 8368     		ldr	r3, [r0, #8]
 586 0046 002B     		cmp	r3, #0
 587 0048 1DDD     		ble	.L77
 588              	.L72:
 589              	.LVL39:
 590              	.LBE67:
 591              	.LBE66:
 592              		.loc 5 286 0
 593 004a FFF7FEFF 		bl	chSchRescheduleS
 594              	.LVL40:
 595              	.LBB69:
 596              	.LBB70:
 597              		.loc 4 360 0
 598 004e FFF7FEFF 		bl	_dbg_check_unlock
 599              	.LVL41:
 600              		.loc 4 361 0
 601 0052 FFF7FEFF 		bl	_stats_stop_measure_crit_thd
 602              	.LVL42:
 603              		.loc 4 367 0
 604 0056 134B     		ldr	r3, .L80+20
 605 0058 1A68     		ldr	r2, [r3]
 606 005a 9A42     		cmp	r2, r3
 607 005c 04D0     		beq	.L73
 608 005e 9969     		ldr	r1, [r3, #24]
 609 0060 9368     		ldr	r3, [r2, #8]
 610 0062 8A68     		ldr	r2, [r1, #8]
 611 0064 9A42     		cmp	r2, r3
 612 0066 0AD3     		bcc	.L78
 613              	.L73:
 614              	.LVL43:
 615              	.LBB71:
 616              	.LBB72:
 617              	.LBB73:
 618              		.loc 3 546 0
 619 0068 0023     		movs	r3, #0
 620              		.syntax unified
 621              	@ 546 "../../lib/e-puck2_main-processor/ChibiOS//os/ext/CMSIS/include/core_cmFunc.h" 1
 622 006a 83F31188 		MSR basepri, r3
 623              	@ 0 "" 2
 624              	.LVL44:
 625              		.thumb
 626              		.syntax unified
 627              	.LBE73:
ARM GAS  C:\Users\osour\AppData\Local\Temp\ccVCx99b.s 			page 12


 628              	.LBE72:
 629              	.LBE71:
 630              	.LBE70:
 631              	.LBE69:
 632              	.LBE60:
 633              	.LBE59:
 634              		.loc 1 190 0
 635 006e 019A     		ldr	r2, [sp, #4]
 636 0070 D8F80030 		ldr	r3, [r8]
 637 0074 9A42     		cmp	r2, r3
 638 0076 09D1     		bne	.L79
 639 0078 02B0     		add	sp, sp, #8
 640              		.cfi_remember_state
 641              		.cfi_def_cfa_offset 24
 642              		@ sp needed
 643 007a BDE8F081 		pop	{r4, r5, r6, r7, r8, pc}
 644              	.LVL45:
 645              	.L78:
 646              		.cfi_restore_state
 647              	.LBB78:
 648              	.LBB77:
 649              	.LBB75:
 650              	.LBB74:
 651              		.loc 4 367 0
 652 007e 0A48     		ldr	r0, .L80+24
 653 0080 FFF7FEFF 		bl	chSysHalt
 654              	.LVL46:
 655 0084 F0E7     		b	.L73
 656              	.LVL47:
 657              	.L77:
 658              	.LBE74:
 659              	.LBE75:
 660              	.LBB76:
 661              	.LBB68:
 662              		.loc 5 271 0
 663 0086 FFF7FEFF 		bl	chSemSignalI
 664              	.LVL48:
 665 008a DEE7     		b	.L72
 666              	.LVL49:
 667              	.L79:
 668              	.LBE68:
 669              	.LBE76:
 670              	.LBE77:
 671              	.LBE78:
 672              		.loc 1 190 0
 673 008c FFF7FEFF 		bl	__stack_chk_fail
 674              	.LVL50:
 675              	.L81:
 676              		.align	2
 677              	.L80:
 678 0090 00000000 		.word	.LC13
 679 0094 00000000 		.word	SD3
 680 0098 FFFFFFFF 		.word	.LANCHOR1-1
 681 009c 00000000 		.word	.LANCHOR2
 682 00a0 00000000 		.word	.LANCHOR3
 683 00a4 00000000 		.word	ch
 684 00a8 00000000 		.word	.LANCHOR4
ARM GAS  C:\Users\osour\AppData\Local\Temp\ccVCx99b.s 			page 13


 685 00ac 00000000 		.word	__stack_chk_guard
 686              		.cfi_endproc
 687              	.LFE298:
 688              		.size	record_note.part.0, .-record_note.part.0
 689              		.section	.text.frequency_to_note,"ax",%progbits
 690              		.align	1
 691              		.p2align 4,,15
 692              		.global	frequency_to_note
 693              		.syntax unified
 694              		.thumb
 695              		.thumb_func
 696              		.fpu fpv4-sp-d16
 697              		.type	frequency_to_note, %function
 698              	frequency_to_note:
 699              	.LFB291:
 700              		.loc 1 93 0
 701              		.cfi_startproc
 702              		@ args = 0, pretend = 0, frame = 16
 703              		@ frame_needed = 0, uses_anonymous_args = 0
 704              	.LVL51:
 705 0000 70B5     		push	{r4, r5, r6, lr}
 706              		.cfi_def_cfa_offset 16
 707              		.cfi_offset 4, -16
 708              		.cfi_offset 5, -12
 709              		.cfi_offset 6, -8
 710              		.cfi_offset 14, -4
 711 0002 84B0     		sub	sp, sp, #16
 712              		.cfi_def_cfa_offset 32
 713              		.loc 1 95 0
 714 0004 04AC     		add	r4, sp, #16
 715 0006 0023     		movs	r3, #0
 716              		.loc 1 93 0
 717 0008 184D     		ldr	r5, .L88
 718              		.loc 1 95 0
 719 000a 44F8083D 		str	r3, [r4, #-8]!
 720              		.loc 1 93 0
 721 000e 2B68     		ldr	r3, [r5]
 722 0010 0393     		str	r3, [sp, #12]
 723              		.loc 1 97 0
 724 0012 4FF40061 		mov	r1, #2048
 725 0016 2346     		mov	r3, r4
 726 0018 01AA     		add	r2, sp, #4
 727              		.loc 1 94 0
 728 001a 0026     		movs	r6, #0
 729 001c 0196     		str	r6, [sp, #4]	@ float
 730              		.loc 1 97 0
 731 001e FFF7FEFF 		bl	arm_max_f32
 732              	.LVL52:
 733              		.loc 1 98 0
 734 0022 2046     		mov	r0, r4
 735 0024 FFF7FEFF 		bl	check_smallest_error
 736              	.LVL53:
 737              		.loc 1 99 0
 738 0028 029A     		ldr	r2, [sp, #8]
 739 002a 114B     		ldr	r3, .L88+4
 740 002c A3FB0213 		umull	r1, r3, r3, r2
 741 0030 DB08     		lsrs	r3, r3, #3
ARM GAS  C:\Users\osour\AppData\Local\Temp\ccVCx99b.s 			page 14


 742 0032 03EB4303 		add	r3, r3, r3, lsl #1
 743 0036 A2EB8303 		sub	r3, r2, r3, lsl #2
 744              		.loc 1 100 0
 745 003a 1846     		mov	r0, r3
 746              		.loc 1 99 0
 747 003c 0293     		str	r3, [sp, #8]
 748              		.loc 1 100 0
 749 003e FFF7FEFF 		bl	find_note
 750              	.LVL54:
 751              	.LBB79:
 752              	.LBB80:
 753              		.loc 1 178 0
 754 0042 0C4A     		ldr	r2, .L88+8
 755 0044 0C49     		ldr	r1, .L88+12
 756 0046 1388     		ldrh	r3, [r2]
 757 0048 0298     		ldr	r0, [sp, #8]
 758 004a C854     		strb	r0, [r1, r3]
 759              		.loc 1 180 0
 760 004c 132B     		cmp	r3, #19
 761 004e 07D8     		bhi	.L83
 762              		.loc 1 181 0
 763 0050 0133     		adds	r3, r3, #1
 764 0052 1380     		strh	r3, [r2]	@ movhi
 765              	.LVL55:
 766              	.L82:
 767              	.LBE80:
 768              	.LBE79:
 769              		.loc 1 102 0
 770 0054 039A     		ldr	r2, [sp, #12]
 771 0056 2B68     		ldr	r3, [r5]
 772 0058 9A42     		cmp	r2, r3
 773 005a 04D1     		bne	.L87
 774 005c 04B0     		add	sp, sp, #16
 775              		.cfi_remember_state
 776              		.cfi_def_cfa_offset 16
 777              		@ sp needed
 778 005e 70BD     		pop	{r4, r5, r6, pc}
 779              	.LVL56:
 780              	.L83:
 781              		.cfi_restore_state
 782              	.LBB82:
 783              	.LBB81:
 784 0060 FFF7FEFF 		bl	record_note.part.0
 785              	.LVL57:
 786              	.LBE81:
 787              	.LBE82:
 788 0064 F6E7     		b	.L82
 789              	.L87:
 790 0066 FFF7FEFF 		bl	__stack_chk_fail
 791              	.LVL58:
 792              	.L89:
 793 006a 00BF     		.align	2
 794              	.L88:
 795 006c 00000000 		.word	__stack_chk_guard
 796 0070 ABAAAAAA 		.word	-1431655765
 797 0074 00000000 		.word	.LANCHOR2
 798 0078 00000000 		.word	.LANCHOR1
ARM GAS  C:\Users\osour\AppData\Local\Temp\ccVCx99b.s 			page 15


 799              		.cfi_endproc
 800              	.LFE291:
 801              		.size	frequency_to_note, .-frequency_to_note
 802              		.section	.text.processAudioDataCmplx,"ax",%progbits
 803              		.align	1
 804              		.p2align 4,,15
 805              		.global	processAudioDataCmplx
 806              		.syntax unified
 807              		.thumb
 808              		.thumb_func
 809              		.fpu fpv4-sp-d16
 810              		.type	processAudioDataCmplx, %function
 811              	processAudioDataCmplx:
 812              	.LFB290:
 813              		.loc 1 38 0
 814              		.cfi_startproc
 815              		@ args = 0, pretend = 0, frame = 8
 816              		@ frame_needed = 0, uses_anonymous_args = 0
 817              	.LVL59:
 818 0000 2DE9F043 		push	{r4, r5, r6, r7, r8, r9, lr}
 819              		.cfi_def_cfa_offset 28
 820              		.cfi_offset 4, -28
 821              		.cfi_offset 5, -24
 822              		.cfi_offset 6, -20
 823              		.cfi_offset 7, -16
 824              		.cfi_offset 8, -12
 825              		.cfi_offset 9, -8
 826              		.cfi_offset 14, -4
 827 0004 404F     		ldr	r7, .L116
 828              	.LBB83:
 829              		.loc 1 55 0
 830 0006 414E     		ldr	r6, .L116+4
 831              	.LBE83:
 832              		.loc 1 38 0
 833 0008 3B68     		ldr	r3, [r7]
 834 000a 83B0     		sub	sp, sp, #12
 835              		.cfi_def_cfa_offset 40
 836              		.loc 1 38 0
 837 000c 0193     		str	r3, [sp, #4]
 838              	.LVL60:
 839              	.LBB84:
 840              		.loc 1 54 0
 841 000e 0029     		cmp	r1, #0
 842 0010 43D0     		beq	.L92
 843              		.loc 1 55 0
 844 0012 B0F90230 		ldrsh	r3, [r0, #2]
 845 0016 3488     		ldrh	r4, [r6]
 846 0018 3D4D     		ldr	r5, .L116+8
 847 001a 07EE903A 		vmov	s15, r3	@ int
 848              		.loc 1 56 0
 849 001e 631C     		adds	r3, r4, #1
 850              		.loc 1 58 0
 851 0020 A21C     		adds	r2, r4, #2
 852              		.loc 1 57 0
 853 0022 9BB2     		uxth	r3, r3
 854              		.loc 1 58 0
 855 0024 92B2     		uxth	r2, r2
ARM GAS  C:\Users\osour\AppData\Local\Temp\ccVCx99b.s 			page 16


 856              		.loc 1 55 0
 857 0026 F8EEE77A 		vcvt.f32.s32	s15, s15
 858              		.loc 1 57 0
 859 002a 05EB8303 		add	r3, r5, r3, lsl #2
 860 002e 4FF00009 		mov	r9, #0
 861              		.loc 1 55 0
 862 0032 05EB8404 		add	r4, r5, r4, lsl #2
 863              		.loc 1 59 0
 864 0036 B2F5005F 		cmp	r2, #8192
 865              		.loc 1 55 0
 866 003a C4ED007A 		vstr.32	s15, [r4]
 867              		.loc 1 58 0
 868 003e 3280     		strh	r2, [r6]	@ movhi
 869              		.loc 1 57 0
 870 0040 C3F80090 		str	r9, [r3]	@ float
 871              		.loc 1 59 0
 872 0044 29D2     		bcs	.L92
 873 0046 01F1FF3C 		add	ip, r1, #-1
 874 004a CCF38D0C 		ubfx	ip, ip, #2, #14
 875 004e 00EBCC0C 		add	ip, r0, ip, lsl #3
 876 0052 0446     		mov	r4, r0
 877 0054 4FF0000E 		mov	lr, #0
 878 0058 1AE0     		b	.L95
 879              	.LVL61:
 880              	.L96:
 881              		.loc 1 55 0
 882 005a B4F90A30 		ldrsh	r3, [r4, #10]
 883 005e 07EE903A 		vmov	s15, r3	@ int
 884              		.loc 1 57 0
 885 0062 531C     		adds	r3, r2, #1
 886 0064 9BB2     		uxth	r3, r3
 887              		.loc 1 58 0
 888 0066 02F10208 		add	r8, r2, #2
 889              		.loc 1 55 0
 890 006a 05EB820E 		add	lr, r5, r2, lsl #2
 891 006e F8EEE77A 		vcvt.f32.s32	s15, s15
 892              		.loc 1 57 0
 893 0072 05EB8303 		add	r3, r5, r3, lsl #2
 894              		.loc 1 58 0
 895 0076 1FFA88F2 		uxth	r2, r8
 896              		.loc 1 59 0
 897 007a B2F5005F 		cmp	r2, #8192
 898              		.loc 1 55 0
 899 007e CEED007A 		vstr.32	s15, [lr]
 900 0082 04F10804 		add	r4, r4, #8
 901 0086 4FF0010E 		mov	lr, #1
 902              		.loc 1 57 0
 903 008a C3F80090 		str	r9, [r3]	@ float
 904              		.loc 1 59 0
 905 008e 39D2     		bcs	.L113
 906              	.L95:
 907              		.loc 1 54 0 discriminator 2
 908 0090 A445     		cmp	ip, r4
 909 0092 E2D1     		bne	.L96
 910 0094 BEF1000F 		cmp	lr, #0
 911 0098 34D1     		bne	.L113
 912              	.L92:
ARM GAS  C:\Users\osour\AppData\Local\Temp\ccVCx99b.s 			page 17


 913              	.LBE84:
 914              		.loc 1 68 0
 915 009a FFF7FEFF 		bl	note_volume
 916              	.LVL62:
 917              		.loc 1 69 0
 918 009e 0128     		cmp	r0, #1
 919 00a0 10D0     		beq	.L114
 920 00a2 3388     		ldrh	r3, [r6]
 921              	.L98:
 922              		.loc 1 76 0
 923 00a4 B3F5005F 		cmp	r3, #8192
 924 00a8 05D3     		bcc	.L90
 925              		.loc 1 77 0
 926 00aa 1A4C     		ldr	r4, .L116+12
 927 00ac 2378     		ldrb	r3, [r4]	@ zero_extendqisi2
 928 00ae 012B     		cmp	r3, #1
 929 00b0 11D0     		beq	.L99
 930              	.LVL63:
 931              	.L101:
 932              		.loc 1 84 0
 933 00b2 0023     		movs	r3, #0
 934 00b4 3380     		strh	r3, [r6]	@ movhi
 935              	.L90:
 936              		.loc 1 86 0
 937 00b6 019A     		ldr	r2, [sp, #4]
 938 00b8 3B68     		ldr	r3, [r7]
 939 00ba 9A42     		cmp	r2, r3
 940 00bc 20D1     		bne	.L115
 941 00be 03B0     		add	sp, sp, #12
 942              		.cfi_remember_state
 943              		.cfi_def_cfa_offset 28
 944              		@ sp needed
 945 00c0 BDE8F083 		pop	{r4, r5, r6, r7, r8, r9, pc}
 946              	.LVL64:
 947              	.L114:
 948              		.cfi_restore_state
 949              		.loc 1 69 0 discriminator 1
 950 00c4 134C     		ldr	r4, .L116+12
 951 00c6 3388     		ldrh	r3, [r6]
 952 00c8 2278     		ldrb	r2, [r4]	@ zero_extendqisi2
 953 00ca 002A     		cmp	r2, #0
 954 00cc EAD1     		bne	.L98
 955              		.loc 1 76 0
 956 00ce B3F5005F 		cmp	r3, #8192
 957              		.loc 1 70 0
 958 00d2 2070     		strb	r0, [r4]
 959              		.loc 1 76 0
 960 00d4 EFD3     		bcc	.L90
 961              	.L99:
 962              	.LBB85:
 963              		.loc 1 78 0
 964 00d6 0E49     		ldr	r1, .L116+8
 965 00d8 4FF48050 		mov	r0, #4096
 966              	.LVL65:
 967 00dc FFF7FEFF 		bl	doCmplxFFT_optimized
 968              	.LVL66:
 969              		.loc 1 79 0
ARM GAS  C:\Users\osour\AppData\Local\Temp\ccVCx99b.s 			page 18


 970 00e0 4FF48052 		mov	r2, #4096
 971 00e4 0C49     		ldr	r1, .L116+16
 972 00e6 0A48     		ldr	r0, .L116+8
 973 00e8 FFF7FEFF 		bl	arm_cmplx_mag_f32
 974              	.LVL67:
 975              	.LBB86:
 976              	.LBB87:
 977 00ec 0421     		movs	r1, #4
 978 00ee 0A48     		ldr	r0, .L116+16
 979 00f0 FFF7FEFF 		bl	fundamental_frequency.part.1
 980              	.LVL68:
 981              	.LBE87:
 982              	.LBE86:
 983              		.loc 1 81 0
 984 00f4 0848     		ldr	r0, .L116+16
 985 00f6 FFF7FEFF 		bl	frequency_to_note
 986              	.LVL69:
 987              		.loc 1 82 0
 988 00fa 0023     		movs	r3, #0
 989 00fc 2370     		strb	r3, [r4]
 990 00fe D8E7     		b	.L101
 991              	.L115:
 992              	.LBE85:
 993              		.loc 1 86 0
 994 0100 FFF7FEFF 		bl	__stack_chk_fail
 995              	.LVL70:
 996              	.L113:
 997 0104 3280     		strh	r2, [r6]	@ movhi
 998 0106 C8E7     		b	.L92
 999              	.L117:
 1000              		.align	2
 1001              	.L116:
 1002 0108 00000000 		.word	__stack_chk_guard
 1003 010c 00000000 		.word	.LANCHOR5
 1004 0110 00000000 		.word	micLeft_cmplx_input
 1005 0114 00000000 		.word	.LANCHOR6
 1006 0118 00000000 		.word	micLeft_output
 1007              		.cfi_endproc
 1008              	.LFE290:
 1009              		.size	processAudioDataCmplx, .-processAudioDataCmplx
 1010              		.section	.text.record_note,"ax",%progbits
 1011              		.align	1
 1012              		.p2align 4,,15
 1013              		.global	record_note
 1014              		.syntax unified
 1015              		.thumb
 1016              		.thumb_func
 1017              		.fpu fpv4-sp-d16
 1018              		.type	record_note, %function
 1019              	record_note:
 1020              	.LFB294:
 1021              		.loc 1 176 0
 1022              		.cfi_startproc
 1023              		@ args = 0, pretend = 0, frame = 8
 1024              		@ frame_needed = 0, uses_anonymous_args = 0
 1025              	.LVL71:
 1026 0000 30B5     		push	{r4, r5, lr}
ARM GAS  C:\Users\osour\AppData\Local\Temp\ccVCx99b.s 			page 19


 1027              		.cfi_def_cfa_offset 12
 1028              		.cfi_offset 4, -12
 1029              		.cfi_offset 5, -8
 1030              		.cfi_offset 14, -4
 1031              		.loc 1 178 0
 1032 0002 0E49     		ldr	r1, .L125
 1033              		.loc 1 176 0
 1034 0004 0E4A     		ldr	r2, .L125+4
 1035              		.loc 1 178 0
 1036 0006 0B88     		ldrh	r3, [r1]
 1037 0008 0E4D     		ldr	r5, .L125+8
 1038              		.loc 1 176 0
 1039 000a 1468     		ldr	r4, [r2]
 1040              		.loc 1 178 0
 1041 000c E854     		strb	r0, [r5, r3]
 1042              		.loc 1 176 0
 1043 000e 83B0     		sub	sp, sp, #12
 1044              		.cfi_def_cfa_offset 24
 1045              		.loc 1 180 0
 1046 0010 132B     		cmp	r3, #19
 1047              		.loc 1 176 0
 1048 0012 0194     		str	r4, [sp, #4]
 1049              		.loc 1 180 0
 1050 0014 07D8     		bhi	.L119
 1051              		.loc 1 190 0
 1052 0016 0198     		ldr	r0, [sp, #4]
 1053              	.LVL72:
 1054 0018 1268     		ldr	r2, [r2]
 1055              		.loc 1 181 0
 1056 001a 0133     		adds	r3, r3, #1
 1057              	.LVL73:
 1058              		.loc 1 190 0
 1059 001c 9042     		cmp	r0, r2
 1060              		.loc 1 181 0
 1061 001e 0B80     		strh	r3, [r1]	@ movhi
 1062              		.loc 1 190 0
 1063 0020 0AD1     		bne	.L123
 1064 0022 03B0     		add	sp, sp, #12
 1065              		.cfi_remember_state
 1066              		.cfi_def_cfa_offset 12
 1067              		@ sp needed
 1068 0024 30BD     		pop	{r4, r5, pc}
 1069              	.LVL74:
 1070              	.L119:
 1071              		.cfi_restore_state
 1072 0026 0199     		ldr	r1, [sp, #4]
 1073 0028 1368     		ldr	r3, [r2]
 1074 002a 9942     		cmp	r1, r3
 1075 002c 04D1     		bne	.L123
 1076 002e 03B0     		add	sp, sp, #12
 1077              		.cfi_remember_state
 1078              		.cfi_def_cfa_offset 12
 1079              		@ sp needed
 1080 0030 BDE83040 		pop	{r4, r5, lr}
 1081              		.cfi_restore 14
 1082              		.cfi_restore 5
 1083              		.cfi_restore 4
ARM GAS  C:\Users\osour\AppData\Local\Temp\ccVCx99b.s 			page 20


 1084              		.cfi_def_cfa_offset 0
 1085 0034 FFF7FEBF 		b	record_note.part.0
 1086              	.LVL75:
 1087              	.L123:
 1088              		.cfi_restore_state
 1089 0038 FFF7FEFF 		bl	__stack_chk_fail
 1090              	.LVL76:
 1091              	.L126:
 1092              		.align	2
 1093              	.L125:
 1094 003c 00000000 		.word	.LANCHOR2
 1095 0040 00000000 		.word	__stack_chk_guard
 1096 0044 00000000 		.word	.LANCHOR1
 1097              		.cfi_endproc
 1098              	.LFE294:
 1099              		.size	record_note, .-record_note
 1100              		.section	.text.fundamental_frequency,"ax",%progbits
 1101              		.align	1
 1102              		.p2align 4,,15
 1103              		.global	fundamental_frequency
 1104              		.syntax unified
 1105              		.thumb
 1106              		.thumb_func
 1107              		.fpu fpv4-sp-d16
 1108              		.type	fundamental_frequency, %function
 1109              	fundamental_frequency:
 1110              	.LFB295:
 1111              		.loc 1 195 0
 1112              		.cfi_startproc
 1113              		@ args = 0, pretend = 0, frame = 8
 1114              		@ frame_needed = 0, uses_anonymous_args = 0
 1115              	.LVL77:
 1116 0000 00B5     		push	{lr}
 1117              		.cfi_def_cfa_offset 4
 1118              		.cfi_offset 14, -4
 1119 0002 0B4B     		ldr	r3, .L133
 1120 0004 83B0     		sub	sp, sp, #12
 1121              		.cfi_def_cfa_offset 16
 1122              		.loc 1 195 0
 1123 0006 1A68     		ldr	r2, [r3]
 1124 0008 0192     		str	r2, [sp, #4]
 1125              		.loc 1 196 0
 1126 000a 0129     		cmp	r1, #1
 1127 000c 019A     		ldr	r2, [sp, #4]
 1128 000e 1B68     		ldr	r3, [r3]
 1129 0010 06D9     		bls	.L127
 1130 0012 9A42     		cmp	r2, r3
 1131 0014 09D1     		bne	.L132
 1132              		.loc 1 203 0 discriminator 1
 1133 0016 03B0     		add	sp, sp, #12
 1134              		.cfi_remember_state
 1135              		.cfi_def_cfa_offset 4
 1136              		@ sp needed
 1137 0018 5DF804EB 		ldr	lr, [sp], #4
 1138              		.cfi_restore 14
 1139              		.cfi_def_cfa_offset 0
 1140 001c FFF7FEBF 		b	fundamental_frequency.part.1
ARM GAS  C:\Users\osour\AppData\Local\Temp\ccVCx99b.s 			page 21


 1141              	.LVL78:
 1142              	.L127:
 1143              		.cfi_restore_state
 1144              		.loc 1 203 0 is_stmt 0
 1145 0020 9A42     		cmp	r2, r3
 1146 0022 02D1     		bne	.L132
 1147 0024 03B0     		add	sp, sp, #12
 1148              		.cfi_remember_state
 1149              		.cfi_def_cfa_offset 4
 1150              		@ sp needed
 1151 0026 5DF804FB 		ldr	pc, [sp], #4
 1152              	.L132:
 1153              		.cfi_restore_state
 1154 002a FFF7FEFF 		bl	__stack_chk_fail
 1155              	.LVL79:
 1156              	.L134:
 1157 002e 00BF     		.align	2
 1158              	.L133:
 1159 0030 00000000 		.word	__stack_chk_guard
 1160              		.cfi_endproc
 1161              	.LFE295:
 1162              		.size	fundamental_frequency, .-fundamental_frequency
 1163              		.section	.text.get_recording,"ax",%progbits
 1164              		.align	1
 1165              		.p2align 4,,15
 1166              		.global	get_recording
 1167              		.syntax unified
 1168              		.thumb
 1169              		.thumb_func
 1170              		.fpu fpv4-sp-d16
 1171              		.type	get_recording, %function
 1172              	get_recording:
 1173              	.LFB296:
 1174              		.loc 1 205 0 is_stmt 1
 1175              		.cfi_startproc
 1176              		@ args = 0, pretend = 0, frame = 8
 1177              		@ frame_needed = 0, uses_anonymous_args = 0
 1178 0000 00B5     		push	{lr}
 1179              		.cfi_def_cfa_offset 4
 1180              		.cfi_offset 14, -4
 1181 0002 074B     		ldr	r3, .L139
 1182 0004 83B0     		sub	sp, sp, #12
 1183              		.cfi_def_cfa_offset 16
 1184              		.loc 1 205 0
 1185 0006 1A68     		ldr	r2, [r3]
 1186 0008 0192     		str	r2, [sp, #4]
 1187              		.loc 1 207 0
 1188 000a 019A     		ldr	r2, [sp, #4]
 1189 000c 1B68     		ldr	r3, [r3]
 1190 000e 9A42     		cmp	r2, r3
 1191 0010 03D1     		bne	.L138
 1192 0012 0448     		ldr	r0, .L139+4
 1193 0014 03B0     		add	sp, sp, #12
 1194              		.cfi_remember_state
 1195              		.cfi_def_cfa_offset 4
 1196              		@ sp needed
 1197 0016 5DF804FB 		ldr	pc, [sp], #4
ARM GAS  C:\Users\osour\AppData\Local\Temp\ccVCx99b.s 			page 22


 1198              	.L138:
 1199              		.cfi_restore_state
 1200 001a FFF7FEFF 		bl	__stack_chk_fail
 1201              	.LVL80:
 1202              	.L140:
 1203 001e 00BF     		.align	2
 1204              	.L139:
 1205 0020 00000000 		.word	__stack_chk_guard
 1206 0024 00000000 		.word	.LANCHOR1
 1207              		.cfi_endproc
 1208              	.LFE296:
 1209              		.size	get_recording, .-get_recording
 1210              		.section	.text.wait_finish_playing,"ax",%progbits
 1211              		.align	1
 1212              		.p2align 4,,15
 1213              		.global	wait_finish_playing
 1214              		.syntax unified
 1215              		.thumb
 1216              		.thumb_func
 1217              		.fpu fpv4-sp-d16
 1218              		.type	wait_finish_playing, %function
 1219              	wait_finish_playing:
 1220              	.LFB297:
 1221              		.loc 1 210 0
 1222              		.cfi_startproc
 1223              		@ args = 0, pretend = 0, frame = 8
 1224              		@ frame_needed = 0, uses_anonymous_args = 0
 1225 0000 00B5     		push	{lr}
 1226              		.cfi_def_cfa_offset 4
 1227              		.cfi_offset 14, -4
 1228 0002 084B     		ldr	r3, .L146
 1229 0004 83B0     		sub	sp, sp, #12
 1230              		.cfi_def_cfa_offset 16
 1231              		.loc 1 210 0
 1232 0006 1A68     		ldr	r2, [r3]
 1233 0008 0192     		str	r2, [sp, #4]
 1234              	.LVL81:
 1235              	.LBB88:
 1236              	.LBB89:
 1237              		.loc 5 143 0
 1238 000a 019A     		ldr	r2, [sp, #4]
 1239 000c 1B68     		ldr	r3, [r3]
 1240 000e 9A42     		cmp	r2, r3
 1241 0010 05D1     		bne	.L145
 1242 0012 0548     		ldr	r0, .L146+4
 1243              	.LBE89:
 1244              	.LBE88:
 1245              		.loc 1 212 0
 1246 0014 03B0     		add	sp, sp, #12
 1247              		.cfi_remember_state
 1248              		.cfi_def_cfa_offset 4
 1249              		@ sp needed
 1250 0016 5DF804EB 		ldr	lr, [sp], #4
 1251              		.cfi_restore 14
 1252              		.cfi_def_cfa_offset 0
 1253              	.LBB91:
 1254              	.LBB90:
ARM GAS  C:\Users\osour\AppData\Local\Temp\ccVCx99b.s 			page 23


 1255              		.loc 5 143 0
 1256 001a FFF7FEBF 		b	chSemWait
 1257              	.LVL82:
 1258              	.L145:
 1259              		.cfi_restore_state
 1260 001e FFF7FEFF 		bl	__stack_chk_fail
 1261              	.LVL83:
 1262              	.L147:
 1263 0022 00BF     		.align	2
 1264              	.L146:
 1265 0024 00000000 		.word	__stack_chk_guard
 1266 0028 00000000 		.word	.LANCHOR3
 1267              	.LBE90:
 1268              	.LBE91:
 1269              		.cfi_endproc
 1270              	.LFE297:
 1271              		.size	wait_finish_playing, .-wait_finish_playing
 1272              		.section	.bss.current_index.14205,"aw",%nobits
 1273              		.align	1
 1274              		.set	.LANCHOR2,. + 0
 1275              		.type	current_index.14205, %object
 1276              		.size	current_index.14205, 2
 1277              	current_index.14205:
 1278 0000 0000     		.space	2
 1279              		.section	.bss.micLeft_cmplx_input,"aw",%nobits
 1280              		.align	2
 1281              		.type	micLeft_cmplx_input, %object
 1282              		.size	micLeft_cmplx_input, 32768
 1283              	micLeft_cmplx_input:
 1284 0000 00000000 		.space	32768
 1284      00000000 
 1284      00000000 
 1284      00000000 
 1284      00000000 
 1285              		.section	.bss.micLeft_output,"aw",%nobits
 1286              		.align	2
 1287              		.type	micLeft_output, %object
 1288              		.size	micLeft_output, 16384
 1289              	micLeft_output:
 1290 0000 00000000 		.space	16384
 1290      00000000 
 1290      00000000 
 1290      00000000 
 1290      00000000 
 1291              		.section	.bss.nb_samples.14154,"aw",%nobits
 1292              		.align	1
 1293              		.set	.LANCHOR5,. + 0
 1294              		.type	nb_samples.14154, %object
 1295              		.size	nb_samples.14154, 2
 1296              	nb_samples.14154:
 1297 0000 0000     		.space	2
 1298              		.section	.bss.played_note,"aw",%nobits
 1299              		.align	2
 1300              		.set	.LANCHOR1,. + 0
 1301              		.type	played_note, %object
 1302              		.size	played_note, 20
 1303              	played_note:
ARM GAS  C:\Users\osour\AppData\Local\Temp\ccVCx99b.s 			page 24


 1304 0000 00000000 		.space	20
 1304      00000000 
 1304      00000000 
 1304      00000000 
 1304      00000000 
 1305              		.section	.bss.register_note.14155,"aw",%nobits
 1306              		.set	.LANCHOR6,. + 0
 1307              		.type	register_note.14155, %object
 1308              		.size	register_note.14155, 1
 1309              	register_note.14155:
 1310 0000 00       		.space	1
 1311              		.section	.data.sem_finished_playing,"aw",%progbits
 1312              		.align	2
 1313              		.set	.LANCHOR3,. + 0
 1314              		.type	sem_finished_playing, %object
 1315              		.size	sem_finished_playing, 12
 1316              	sem_finished_playing:
 1317 0000 00000000 		.word	sem_finished_playing
 1318 0004 00000000 		.word	sem_finished_playing
 1319 0008 00000000 		.word	0
 1320              		.section	.rodata.__func__.7153,"a",%progbits
 1321              		.align	2
 1322              		.set	.LANCHOR4,. + 0
 1323              		.type	__func__.7153, %object
 1324              		.size	__func__.7153, 12
 1325              	__func__.7153:
 1326 0000 63685379 		.ascii	"chSysUnlock\000"
 1326      73556E6C 
 1326      6F636B00 
 1327              		.section	.rodata.find_note.str1.4,"aMS",%progbits,1
 1328              		.align	2
 1329              	.LC0:
 1330 0000 41202000 		.ascii	"A  \000"
 1331              	.LC1:
 1332 0004 41232000 		.ascii	"A# \000"
 1333              	.LC2:
 1334 0008 422000   		.ascii	"B \000"
 1335 000b 00       		.space	1
 1336              	.LC3:
 1337 000c 432000   		.ascii	"C \000"
 1338 000f 00       		.space	1
 1339              	.LC4:
 1340 0010 43232000 		.ascii	"C# \000"
 1341              	.LC5:
 1342 0014 442000   		.ascii	"D \000"
 1343 0017 00       		.space	1
 1344              	.LC6:
 1345 0018 44232000 		.ascii	"D# \000"
 1346              	.LC7:
 1347 001c 452000   		.ascii	"E \000"
 1348 001f 00       		.space	1
 1349              	.LC8:
 1350 0020 462000   		.ascii	"F \000"
 1351 0023 00       		.space	1
 1352              	.LC9:
 1353 0024 46232000 		.ascii	"F# \000"
 1354              	.LC10:
ARM GAS  C:\Users\osour\AppData\Local\Temp\ccVCx99b.s 			page 25


 1355 0028 472000   		.ascii	"G \000"
 1356 002b 00       		.space	1
 1357              	.LC11:
 1358 002c 47232000 		.ascii	"G# \000"
 1359              	.LC12:
 1360 0030 6E6F6E65 		.ascii	"none  \015 \000"
 1360      20200D20 
 1360      00
 1361              		.section	.rodata.note_frequency,"a",%progbits
 1362              		.align	2
 1363              		.set	.LANCHOR0,. + 0
 1364              		.type	note_frequency, %object
 1365              		.size	note_frequency, 96
 1366              	note_frequency:
 1367 0000 3700     		.short	55
 1368 0002 3A00     		.short	58
 1369 0004 3E00     		.short	62
 1370 0006 4100     		.short	65
 1371 0008 4500     		.short	69
 1372 000a 4900     		.short	73
 1373 000c 4D00     		.short	77
 1374 000e 5200     		.short	82
 1375 0010 5700     		.short	87
 1376 0012 5C00     		.short	92
 1377 0014 6200     		.short	98
 1378 0016 6800     		.short	104
 1379 0018 6E00     		.short	110
 1380 001a 7400     		.short	116
 1381 001c 7C00     		.short	124
 1382 001e 8300     		.short	131
 1383 0020 8A00     		.short	138
 1384 0022 9200     		.short	146
 1385 0024 9B00     		.short	155
 1386 0026 A500     		.short	165
 1387 0028 AF00     		.short	175
 1388 002a B900     		.short	185
 1389 002c C400     		.short	196
 1390 002e D000     		.short	208
 1391 0030 DC00     		.short	220
 1392 0032 E900     		.short	233
 1393 0034 F700     		.short	247
 1394 0036 0601     		.short	262
 1395 0038 1501     		.short	277
 1396 003a 2601     		.short	294
 1397 003c 3701     		.short	311
 1398 003e 4A01     		.short	330
 1399 0040 5D01     		.short	349
 1400 0042 7201     		.short	370
 1401 0044 8801     		.short	392
 1402 0046 9F01     		.short	415
 1403 0048 B801     		.short	440
 1404 004a D201     		.short	466
 1405 004c EE01     		.short	494
 1406 004e 0B02     		.short	523
 1407 0050 2A02     		.short	554
 1408 0052 4B02     		.short	587
 1409 0054 6E02     		.short	622
ARM GAS  C:\Users\osour\AppData\Local\Temp\ccVCx99b.s 			page 26


 1410 0056 9302     		.short	659
 1411 0058 BA02     		.short	698
 1412 005a E402     		.short	740
 1413 005c 1003     		.short	784
 1414 005e 3F03     		.short	831
 1415              		.section	.rodata.record_note.part.0.str1.4,"aMS",%progbits,1
 1416              		.align	2
 1417              	.LC13:
 1418 0000 5265636F 		.ascii	"Recording play back \015 \012\000"
 1418      7264696E 
 1418      6720706C 
 1418      61792062 
 1418      61636B20 
 1419              		.text
 1420              	.Letext0:
 1421              		.file 6 "c:\\users\\osour\\desktop\\robotique\\eclipse_e-puck2\\tools\\gcc-arm-none-eabi-7-2017-q4
 1422              		.file 7 "c:\\users\\osour\\desktop\\robotique\\eclipse_e-puck2\\tools\\gcc-arm-none-eabi-7-2017-q4
 1423              		.file 8 "c:\\users\\osour\\desktop\\robotique\\eclipse_e-puck2\\tools\\gcc-arm-none-eabi-7-2017-q4
 1424              		.file 9 "../../lib/e-puck2_main-processor/ChibiOS//os/rt/ports/ARMCMx/compilers/GCC/chtypes.h"
 1425              		.file 10 "../../lib/e-puck2_main-processor/ChibiOS//os/rt/include/chsystypes.h"
 1426              		.file 11 "../../lib/e-puck2_main-processor/ChibiOS//os/rt/include/chschd.h"
 1427              		.file 12 "../../lib/e-puck2_main-processor/ChibiOS//os/ext/CMSIS/include/core_cm4.h"
 1428              		.file 13 "../../lib/e-puck2_main-processor/ChibiOS//os/ext/CMSIS/ST/system_stm32f4xx.h"
 1429              		.file 14 "../../lib/e-puck2_main-processor/ChibiOS//os/ext/CMSIS/ST/stm32f407xx.h"
 1430              		.file 15 "../../lib/e-puck2_main-processor/ChibiOS//os/rt/ports/ARMCMx/chcore.h"
 1431              		.file 16 "../../lib/e-puck2_main-processor/ChibiOS//os/rt/ports/ARMCMx/chcore_v7m.h"
 1432              		.file 17 "../../lib/e-puck2_main-processor/ChibiOS//os/rt/include/chdebug.h"
 1433              		.file 18 "../../lib/e-puck2_main-processor/ChibiOS//os/rt/include/chtm.h"
 1434              		.file 19 "../../lib/e-puck2_main-processor/ChibiOS//os/rt/include/chstats.h"
 1435              		.file 20 "../../lib/e-puck2_main-processor/ChibiOS//os/rt/include/chsem.h"
 1436              		.file 21 "../../lib/e-puck2_main-processor/ChibiOS//os/rt/include/chmtx.h"
 1437              		.file 22 "../../lib/e-puck2_main-processor/ChibiOS//os/rt/include/chregistry.h"
 1438              		.file 23 "../../lib/e-puck2_main-processor/ChibiOS//os/rt/include/chevents.h"
 1439              		.file 24 "../../lib/e-puck2_main-processor/ChibiOS//os/rt/include/chqueues.h"
 1440              		.file 25 "../../lib/e-puck2_main-processor/ChibiOS//os/rt/include/chstreams.h"
 1441              		.file 26 "../../lib/e-puck2_main-processor/ChibiOS//os/hal/ports/STM32/STM32F4xx/stm32_dma.h"
 1442              		.file 27 "../../lib/e-puck2_main-processor/ChibiOS//os/hal/include/hal_ioblock.h"
 1443              		.file 28 "../../lib/e-puck2_main-processor/ChibiOS//os/hal/ports/STM32/LLD/GPIOv2/pal_lld.h"
 1444              		.file 29 "../../lib/e-puck2_main-processor/ChibiOS//os/hal/include/adc.h"
 1445              		.file 30 "../../lib/e-puck2_main-processor/ChibiOS//os/hal/ports/STM32/STM32F4xx/adc_lld.h"
 1446              		.file 31 "../../lib/e-puck2_main-processor/ChibiOS//os/hal/include/can.h"
 1447              		.file 32 "../../lib/e-puck2_main-processor/ChibiOS//os/hal/ports/STM32/LLD/can_lld.h"
 1448              		.file 33 "../../lib/e-puck2_main-processor/ChibiOS//os/hal/include/dac.h"
 1449              		.file 34 "../../lib/e-puck2_main-processor/ChibiOS//os/hal/ports/STM32/LLD/DACv1/dac_lld.h"
 1450              		.file 35 "../../lib/e-puck2_main-processor/ChibiOS//os/hal/include/ext.h"
 1451              		.file 36 "../../lib/e-puck2_main-processor/ChibiOS//os/hal/ports/STM32/LLD/ext_lld.h"
 1452              		.file 37 "../../lib/e-puck2_main-processor/ChibiOS//os/hal/include/gpt.h"
 1453              		.file 38 "../../lib/e-puck2_main-processor/ChibiOS//os/hal/ports/STM32/LLD/TIMv1/gpt_lld.h"
 1454              		.file 39 "../../lib/e-puck2_main-processor/ChibiOS//os/hal/ports/STM32/LLD/TIMv1/stm32_tim.h"
 1455              		.file 40 "../../lib/e-puck2_main-processor/ChibiOS//os/hal/include/i2c.h"
 1456              		.file 41 "../../lib/e-puck2_main-processor/ChibiOS//os/hal/ports/STM32/LLD/I2Cv1/i2c_lld.h"
 1457              		.file 42 "../../lib/e-puck2_main-processor/ChibiOS//os/hal/include/i2s.h"
 1458              		.file 43 "../../lib/e-puck2_main-processor/ChibiOS//os/hal/ports/STM32/LLD/SPIv1/i2s_lld.h"
 1459              		.file 44 "../../lib/e-puck2_main-processor/ChibiOS//os/hal/include/pwm.h"
 1460              		.file 45 "../../lib/e-puck2_main-processor/ChibiOS//os/hal/ports/STM32/LLD/TIMv1/pwm_lld.h"
 1461              		.file 46 "../../lib/e-puck2_main-processor/ChibiOS//os/hal/include/serial.h"
 1462              		.file 47 "../../lib/e-puck2_main-processor/ChibiOS//os/hal/ports/STM32/LLD/USARTv1/serial_lld.h"
ARM GAS  C:\Users\osour\AppData\Local\Temp\ccVCx99b.s 			page 27


 1463              		.file 48 "../../lib/e-puck2_main-processor/ChibiOS//os/hal/include/sdc.h"
 1464              		.file 49 "../../lib/e-puck2_main-processor/ChibiOS//os/hal/ports/STM32/LLD/sdc_lld.h"
 1465              		.file 50 "../../lib/e-puck2_main-processor/ChibiOS//os/hal/include/spi.h"
 1466              		.file 51 "../../lib/e-puck2_main-processor/ChibiOS//os/hal/ports/STM32/LLD/SPIv1/spi_lld.h"
 1467              		.file 52 "../../lib/e-puck2_main-processor/ChibiOS//os/hal/include/usb.h"
 1468              		.file 53 "../../lib/e-puck2_main-processor/ChibiOS//os/hal/ports/STM32/LLD/OTGv1/usb_lld.h"
 1469              		.file 54 "../../lib/e-puck2_main-processor/ChibiOS//os/hal/ports/STM32/LLD/OTGv1/stm32_otg.h"
 1470              		.file 55 "../../lib/e-puck2_main-processor/ChibiOS//os/hal/include/serial_usb.h"
 1471              		.file 56 "../../lib/e-puck2_main-processor/ChibiOS_ext/os/hal/include/../ports/STM32/STM32F4xx/dcm
 1472              		.file 57 "c:\\users\\osour\\desktop\\robotique\\eclipse_e-puck2\\tools\\gcc-arm-none-eabi-7-2017-q
 1473              		.file 58 "c:\\users\\osour\\desktop\\robotique\\eclipse_e-puck2\\tools\\gcc-arm-none-eabi-7-2017-q
 1474              		.file 59 "<built-in>"
 1475              		.file 60 "c:\\users\\osour\\desktop\\robotique\\eclipse_e-puck2\\tools\\gcc-arm-none-eabi-7-2017-q
 1476              		.file 61 "../../lib/e-puck2_main-processor/src/msgbus/messagebus.h"
 1477              		.file 62 "c:\\users\\osour\\desktop\\robotique\\eclipse_e-puck2\\tools\\gcc-arm-none-eabi-7-2017-q
 1478              		.file 63 "c:\\users\\osour\\desktop\\robotique\\eclipse_e-puck2\\tools\\gcc-arm-none-eabi-7-2017-q
 1479              		.file 64 "../../lib/e-puck2_main-processor/src/parameter/parameter.h"
 1480              		.file 65 "./main.h"
 1481              		.file 66 "../../lib/e-puck2_main-processor/src/usbcfg.h"
 1482              		.file 67 "c:\\users\\osour\\desktop\\robotique\\eclipse_e-puck2\\tools\\gcc-arm-none-eabi-7-2017-q
 1483              		.file 68 "c:\\users\\osour\\desktop\\robotique\\eclipse_e-puck2\\tools\\gcc-arm-none-eabi-7-2017-q
 1484              		.file 69 "./audio_processing.h"
 1485              		.file 70 "../../lib/e-puck2_main-processor/ChibiOS//os/ext/CMSIS/include/arm_math.h"
 1486              		.file 71 "./fft.h"
 1487              		.file 72 "../../lib/e-puck2_main-processor/src/audio/custom_microphone.h"