ARM GAS  C:\Users\osour\AppData\Local\Temp\ccYBgxBg.s 			page 1


   1              		.cpu cortex-m4
   2              		.eabi_attribute 27, 1
   3              		.eabi_attribute 28, 1
   4              		.eabi_attribute 20, 1
   5              		.eabi_attribute 21, 1
   6              		.eabi_attribute 23, 3
   7              		.eabi_attribute 24, 1
   8              		.eabi_attribute 25, 1
   9              		.eabi_attribute 26, 1
  10              		.eabi_attribute 30, 2
  11              		.eabi_attribute 34, 1
  12              		.eabi_attribute 18, 4
  13              		.file	"communications.c"
  14              		.text
  15              	.Ltext0:
  16              		.cfi_sections	.debug_frame
  17              		.section	.text.SendFloatToComputer,"ax",%progbits
  18              		.align	1
  19              		.p2align 4,,15
  20              		.global	SendFloatToComputer
  21              		.syntax unified
  22              		.thumb
  23              		.thumb_func
  24              		.fpu fpv4-sp-d16
  25              		.type	SendFloatToComputer, %function
  26              	SendFloatToComputer:
  27              	.LFB257:
  28              		.file 1 "communications.c"
  29              		.loc 1 78 0
  30              		.cfi_startproc
  31              		@ args = 0, pretend = 0, frame = 16
  32              		@ frame_needed = 0, uses_anonymous_args = 0
  33              	.LVL0:
  34 0000 70B5     		push	{r4, r5, r6, lr}
  35              		.cfi_def_cfa_offset 16
  36              		.cfi_offset 4, -16
  37              		.cfi_offset 5, -12
  38              		.cfi_offset 6, -8
  39              		.cfi_offset 14, -4
  40 0002 124D     		ldr	r5, .L6
  41              		.loc 1 79 0
  42 0004 0368     		ldr	r3, [r0]
  43              		.loc 1 78 0
  44 0006 84B0     		sub	sp, sp, #16
  45              		.cfi_def_cfa_offset 32
  46              		.loc 1 78 0
  47 0008 0446     		mov	r4, r0
  48 000a ADF80620 		strh	r2, [sp, #6]	@ movhi
  49 000e 2A68     		ldr	r2, [r5]
  50              	.LVL1:
  51              		.loc 1 79 0
  52 0010 1B68     		ldr	r3, [r3]
  53              		.loc 1 78 0
  54 0012 0392     		str	r2, [sp, #12]
  55 0014 0E46     		mov	r6, r1
  56              		.loc 1 79 0
  57 0016 0522     		movs	r2, #5
ARM GAS  C:\Users\osour\AppData\Local\Temp\ccYBgxBg.s 			page 2


  58 0018 0D49     		ldr	r1, .L6+4
  59              	.LVL2:
  60 001a 9847     		blx	r3
  61              	.LVL3:
  62              		.loc 1 80 0
  63 001c 2368     		ldr	r3, [r4]
  64 001e 0222     		movs	r2, #2
  65 0020 1B68     		ldr	r3, [r3]
  66 0022 0DF10601 		add	r1, sp, #6
  67 0026 2046     		mov	r0, r4
  68 0028 9847     		blx	r3
  69              	.LVL4:
  70              		.loc 1 81 0
  71 002a 2368     		ldr	r3, [r4]
  72 002c BDF80620 		ldrh	r2, [sp, #6]
  73 0030 1B68     		ldr	r3, [r3]
  74 0032 9200     		lsls	r2, r2, #2
  75 0034 3146     		mov	r1, r6
  76 0036 2046     		mov	r0, r4
  77 0038 9847     		blx	r3
  78              	.LVL5:
  79              		.loc 1 82 0
  80 003a 039A     		ldr	r2, [sp, #12]
  81 003c 2B68     		ldr	r3, [r5]
  82 003e 9A42     		cmp	r2, r3
  83 0040 01D1     		bne	.L5
  84 0042 04B0     		add	sp, sp, #16
  85              		.cfi_remember_state
  86              		.cfi_def_cfa_offset 16
  87              		@ sp needed
  88 0044 70BD     		pop	{r4, r5, r6, pc}
  89              	.LVL6:
  90              	.L5:
  91              		.cfi_restore_state
  92 0046 FFF7FEFF 		bl	__stack_chk_fail
  93              	.LVL7:
  94              	.L7:
  95 004a 00BF     		.align	2
  96              	.L6:
  97 004c 00000000 		.word	__stack_chk_guard
  98 0050 00000000 		.word	.LC0
  99              		.cfi_endproc
 100              	.LFE257:
 101              		.size	SendFloatToComputer, .-SendFloatToComputer
 102              		.section	.text.SendUint8ToComputer,"ax",%progbits
 103              		.align	1
 104              		.p2align 4,,15
 105              		.global	SendUint8ToComputer
 106              		.syntax unified
 107              		.thumb
 108              		.thumb_func
 109              		.fpu fpv4-sp-d16
 110              		.type	SendUint8ToComputer, %function
 111              	SendUint8ToComputer:
 112              	.LFB258:
 113              		.loc 1 87 0
 114              		.cfi_startproc
ARM GAS  C:\Users\osour\AppData\Local\Temp\ccYBgxBg.s 			page 3


 115              		@ args = 0, pretend = 0, frame = 16
 116              		@ frame_needed = 0, uses_anonymous_args = 0
 117              	.LVL8:
 118 0000 70B5     		push	{r4, r5, r6, lr}
 119              		.cfi_def_cfa_offset 16
 120              		.cfi_offset 4, -16
 121              		.cfi_offset 5, -12
 122              		.cfi_offset 6, -8
 123              		.cfi_offset 14, -4
 124              		.loc 1 88 0
 125 0002 124C     		ldr	r4, .L12
 126              		.loc 1 87 0
 127 0004 124D     		ldr	r5, .L12+4
 128              		.loc 1 88 0
 129 0006 2368     		ldr	r3, [r4]
 130              		.loc 1 87 0
 131 0008 2A68     		ldr	r2, [r5]
 132 000a 84B0     		sub	sp, sp, #16
 133              		.cfi_def_cfa_offset 32
 134              		.loc 1 87 0
 135 000c 0646     		mov	r6, r0
 136 000e ADF80610 		strh	r1, [sp, #6]	@ movhi
 137              		.loc 1 88 0
 138 0012 1B68     		ldr	r3, [r3]
 139 0014 0F49     		ldr	r1, .L12+8
 140              	.LVL9:
 141              		.loc 1 87 0
 142 0016 0392     		str	r2, [sp, #12]
 143              		.loc 1 88 0
 144 0018 2046     		mov	r0, r4
 145              	.LVL10:
 146 001a 0522     		movs	r2, #5
 147 001c 9847     		blx	r3
 148              	.LVL11:
 149              		.loc 1 89 0
 150 001e 2368     		ldr	r3, [r4]
 151 0020 0222     		movs	r2, #2
 152 0022 1B68     		ldr	r3, [r3]
 153 0024 0DF10601 		add	r1, sp, #6
 154 0028 2046     		mov	r0, r4
 155 002a 9847     		blx	r3
 156              	.LVL12:
 157              		.loc 1 90 0
 158 002c 2368     		ldr	r3, [r4]
 159 002e BDF80620 		ldrh	r2, [sp, #6]
 160 0032 1B68     		ldr	r3, [r3]
 161 0034 3146     		mov	r1, r6
 162 0036 2046     		mov	r0, r4
 163 0038 9847     		blx	r3
 164              	.LVL13:
 165              		.loc 1 91 0
 166 003a 039A     		ldr	r2, [sp, #12]
 167 003c 2B68     		ldr	r3, [r5]
 168 003e 9A42     		cmp	r2, r3
 169 0040 01D1     		bne	.L11
 170 0042 04B0     		add	sp, sp, #16
 171              		.cfi_remember_state
ARM GAS  C:\Users\osour\AppData\Local\Temp\ccYBgxBg.s 			page 4


 172              		.cfi_def_cfa_offset 16
 173              		@ sp needed
 174 0044 70BD     		pop	{r4, r5, r6, pc}
 175              	.LVL14:
 176              	.L11:
 177              		.cfi_restore_state
 178 0046 FFF7FEFF 		bl	__stack_chk_fail
 179              	.LVL15:
 180              	.L13:
 181 004a 00BF     		.align	2
 182              	.L12:
 183 004c 00000000 		.word	SD3
 184 0050 00000000 		.word	__stack_chk_guard
 185 0054 00000000 		.word	.LC0
 186              		.cfi_endproc
 187              	.LFE258:
 188              		.size	SendUint8ToComputer, .-SendUint8ToComputer
 189              		.section	.text.ReceiveInt16FromComputer,"ax",%progbits
 190              		.align	1
 191              		.p2align 4,,15
 192              		.global	ReceiveInt16FromComputer
 193              		.syntax unified
 194              		.thumb
 195              		.thumb_func
 196              		.fpu fpv4-sp-d16
 197              		.type	ReceiveInt16FromComputer, %function
 198              	ReceiveInt16FromComputer:
 199              	.LFB259:
 200              		.loc 1 97 0
 201              		.cfi_startproc
 202              		@ args = 0, pretend = 0, frame = 8
 203              		@ frame_needed = 0, uses_anonymous_args = 0
 204              	.LVL16:
 205 0000 2DE9F041 		push	{r4, r5, r6, r7, r8, lr}
 206              		.cfi_def_cfa_offset 24
 207              		.cfi_offset 4, -24
 208              		.cfi_offset 5, -20
 209              		.cfi_offset 6, -16
 210              		.cfi_offset 7, -12
 211              		.cfi_offset 8, -8
 212              		.cfi_offset 14, -4
 213 0004 474D     		ldr	r5, .L43
 214              		.loc 1 106 0
 215 0006 0368     		ldr	r3, [r0]
 216              		.loc 1 97 0
 217 0008 2E68     		ldr	r6, [r5]
 218              		.loc 1 106 0
 219 000a DB68     		ldr	r3, [r3, #12]
 220              		.loc 1 97 0
 221 000c 82B0     		sub	sp, sp, #8
 222              		.cfi_def_cfa_offset 32
 223              		.loc 1 100 0
 224 000e 4FF0000C 		mov	ip, #0
 225              		.loc 1 97 0
 226 0012 0196     		str	r6, [sp, #4]
 227              		.loc 1 100 0
 228 0014 ADF802C0 		strh	ip, [sp, #2]	@ movhi
ARM GAS  C:\Users\osour\AppData\Local\Temp\ccYBgxBg.s 			page 5


 229              	.LVL17:
 230              		.loc 1 97 0
 231 0018 0446     		mov	r4, r0
 232 001a 0E46     		mov	r6, r1
 233 001c 1746     		mov	r7, r2
 234              		.loc 1 106 0
 235 001e 9847     		blx	r3
 236              	.LVL18:
 237 0020 C0B2     		uxtb	r0, r0
 238 0022 8DF80000 		strb	r0, [sp]
 239 0026 04E0     		b	.L15
 240              	.L39:
 241 0028 2046     		mov	r0, r4
 242 002a 9847     		blx	r3
 243              	.LVL19:
 244 002c C0B2     		uxtb	r0, r0
 245 002e 8DF80000 		strb	r0, [sp]
 246              	.L15:
 247              		.loc 1 112 0
 248 0032 9DF80030 		ldrb	r3, [sp]	@ zero_extendqisi2
 249              	.L16:
 250              		.loc 1 117 0
 251 0036 9DF80030 		ldrb	r3, [sp]	@ zero_extendqisi2
 252 003a 542B     		cmp	r3, #84
 253              		.loc 1 119 0
 254 003c 18BF     		it	ne
 255 003e 9DF80030 		ldrbne	r3, [sp]	@ zero_extendqisi2
 256              		.loc 1 124 0
 257 0042 9DF80030 		ldrb	r3, [sp]	@ zero_extendqisi2
 258 0046 412B     		cmp	r3, #65
 259              		.loc 1 126 0
 260 0048 18BF     		it	ne
 261 004a 9DF80030 		ldrbne	r3, [sp]	@ zero_extendqisi2
 262              		.loc 1 131 0
 263 004e 9DF80030 		ldrb	r3, [sp]	@ zero_extendqisi2
 264 0052 522B     		cmp	r3, #82
 265              		.loc 1 133 0
 266 0054 18BF     		it	ne
 267 0056 9DF80030 		ldrbne	r3, [sp]	@ zero_extendqisi2
 268              		.loc 1 138 0
 269 005a 9DF80020 		ldrb	r2, [sp]	@ zero_extendqisi2
 270 005e 2368     		ldr	r3, [r4]
 271 0060 542A     		cmp	r2, #84
 272 0062 DB68     		ldr	r3, [r3, #12]
 273 0064 09D0     		beq	.L20
 274              		.loc 1 140 0
 275 0066 9DF80020 		ldrb	r2, [sp]	@ zero_extendqisi2
 276 006a 532A     		cmp	r2, #83
 277 006c DCD1     		bne	.L39
 278              		.loc 1 106 0
 279 006e 2046     		mov	r0, r4
 280 0070 9847     		blx	r3
 281              	.LVL20:
 282 0072 C0B2     		uxtb	r0, r0
 283 0074 8DF80000 		strb	r0, [sp]
 284 0078 DDE7     		b	.L16
 285              	.L20:
ARM GAS  C:\Users\osour\AppData\Local\Temp\ccYBgxBg.s 			page 6


 286              		.loc 1 148 0
 287 007a 2046     		mov	r0, r4
 288 007c 9847     		blx	r3
 289              	.LVL21:
 290              		.loc 1 149 0
 291 007e 2368     		ldr	r3, [r4]
 292              		.loc 1 148 0
 293 0080 C0B2     		uxtb	r0, r0
 294              		.loc 1 149 0
 295 0082 DB68     		ldr	r3, [r3, #12]
 296              		.loc 1 148 0
 297 0084 8DF80000 		strb	r0, [sp]
 298              		.loc 1 149 0
 299 0088 2046     		mov	r0, r4
 300 008a 9847     		blx	r3
 301              	.LVL22:
 302 008c C0B2     		uxtb	r0, r0
 303 008e 8DF80100 		strb	r0, [sp, #1]
 304              		.loc 1 153 0
 305 0092 9DF80030 		ldrb	r3, [sp]	@ zero_extendqisi2
 306 0096 9DF80120 		ldrb	r2, [sp, #1]	@ zero_extendqisi2
 307 009a 43EA0223 		orr	r3, r3, r2, lsl #8
 308 009e ADF80230 		strh	r3, [sp, #2]	@ movhi
 309              		.loc 1 155 0
 310 00a2 BDF80230 		ldrh	r3, [sp, #2]
 311 00a6 B7EB530F 		cmp	r7, r3, lsr #1
 312 00aa 0AD0     		beq	.L41
 313              	.LVL23:
 314              	.L23:
 315              		.loc 1 166 0
 316 00ac BDF80200 		ldrh	r0, [sp, #2]
 317              		.loc 1 168 0
 318 00b0 019A     		ldr	r2, [sp, #4]
 319 00b2 2B68     		ldr	r3, [r5]
 320 00b4 9A42     		cmp	r2, r3
 321 00b6 4FEA5000 		lsr	r0, r0, #1
 322 00ba 30D1     		bne	.L42
 323 00bc 02B0     		add	sp, sp, #8
 324              		.cfi_remember_state
 325              		.cfi_def_cfa_offset 24
 326              		@ sp needed
 327 00be BDE8F081 		pop	{r4, r5, r6, r7, r8, pc}
 328              	.LVL24:
 329              	.L41:
 330              		.cfi_restore_state
 331              		.loc 1 156 0
 332 00c2 BDF80230 		ldrh	r3, [sp, #2]
 333 00c6 5B08     		lsrs	r3, r3, #1
 334 00c8 F0D0     		beq	.L23
 335              		.loc 1 162 0
 336 00ca 4FF00008 		mov	r8, #0
 337              		.loc 1 156 0
 338 00ce 0027     		movs	r7, #0
 339              	.LVL25:
 340              	.L24:
 341              		.loc 1 158 0 discriminator 3
 342 00d0 2368     		ldr	r3, [r4]
ARM GAS  C:\Users\osour\AppData\Local\Temp\ccYBgxBg.s 			page 7


 343 00d2 2046     		mov	r0, r4
 344 00d4 DB68     		ldr	r3, [r3, #12]
 345 00d6 9847     		blx	r3
 346              	.LVL26:
 347              		.loc 1 159 0 discriminator 3
 348 00d8 2368     		ldr	r3, [r4]
 349              		.loc 1 158 0 discriminator 3
 350 00da C0B2     		uxtb	r0, r0
 351              		.loc 1 159 0 discriminator 3
 352 00dc DB68     		ldr	r3, [r3, #12]
 353              		.loc 1 158 0 discriminator 3
 354 00de 8DF80000 		strb	r0, [sp]
 355              		.loc 1 159 0 discriminator 3
 356 00e2 2046     		mov	r0, r4
 357 00e4 9847     		blx	r3
 358              	.LVL27:
 359 00e6 C0B2     		uxtb	r0, r0
 360 00e8 8DF80100 		strb	r0, [sp, #1]
 361              		.loc 1 161 0 discriminator 3
 362 00ec 9DF80030 		ldrb	r3, [sp]	@ zero_extendqisi2
 363 00f0 9DF80110 		ldrb	r1, [sp, #1]	@ zero_extendqisi2
 364              		.loc 1 156 0 discriminator 3
 365 00f4 BDF80220 		ldrh	r2, [sp, #2]
 366              		.loc 1 162 0 discriminator 3
 367 00f8 C6F80480 		str	r8, [r6, #4]	@ float
 368              		.loc 1 161 0 discriminator 3
 369 00fc 43EA0123 		orr	r3, r3, r1, lsl #8
 370 0100 1BB2     		sxth	r3, r3
 371 0102 07EE903A 		vmov	s15, r3	@ int
 372              		.loc 1 156 0 discriminator 3
 373 0106 0137     		adds	r7, r7, #1
 374              	.LVL28:
 375              		.loc 1 161 0 discriminator 3
 376 0108 F8EEE77A 		vcvt.f32.s32	s15, s15
 377              		.loc 1 156 0 discriminator 3
 378 010c BFB2     		uxth	r7, r7
 379              	.LVL29:
 380 010e B7EB520F 		cmp	r7, r2, lsr #1
 381              		.loc 1 161 0 discriminator 3
 382 0112 C6ED007A 		vstr.32	s15, [r6]
 383 0116 06F10806 		add	r6, r6, #8
 384              		.loc 1 156 0 discriminator 3
 385 011a D9D3     		bcc	.L24
 386 011c C6E7     		b	.L23
 387              	.LVL30:
 388              	.L42:
 389              		.loc 1 168 0
 390 011e FFF7FEFF 		bl	__stack_chk_fail
 391              	.LVL31:
 392              	.L44:
 393 0122 00BF     		.align	2
 394              	.L43:
 395 0124 00000000 		.word	__stack_chk_guard
 396              		.cfi_endproc
 397              	.LFE259:
 398              		.size	ReceiveInt16FromComputer, .-ReceiveInt16FromComputer
 399              		.section	.text.ReceiveModeFromComputer,"ax",%progbits
ARM GAS  C:\Users\osour\AppData\Local\Temp\ccYBgxBg.s 			page 8


 400              		.align	1
 401              		.p2align 4,,15
 402              		.global	ReceiveModeFromComputer
 403              		.syntax unified
 404              		.thumb
 405              		.thumb_func
 406              		.fpu fpv4-sp-d16
 407              		.type	ReceiveModeFromComputer, %function
 408              	ReceiveModeFromComputer:
 409              	.LFB260:
 410              		.loc 1 171 0
 411              		.cfi_startproc
 412              		@ args = 0, pretend = 0, frame = 8
 413              		@ frame_needed = 0, uses_anonymous_args = 0
 414              	.LVL32:
 415 0000 70B5     		push	{r4, r5, r6, lr}
 416              		.cfi_def_cfa_offset 16
 417              		.cfi_offset 4, -16
 418              		.cfi_offset 5, -12
 419              		.cfi_offset 6, -8
 420              		.cfi_offset 14, -4
 421 0002 384D     		ldr	r5, .L100
 422              		.loc 1 180 0
 423 0004 0368     		ldr	r3, [r0]
 424              		.loc 1 171 0
 425 0006 2A68     		ldr	r2, [r5]
 426              		.loc 1 180 0
 427 0008 DB68     		ldr	r3, [r3, #12]
 428              		.loc 1 171 0
 429 000a 82B0     		sub	sp, sp, #8
 430              		.cfi_def_cfa_offset 24
 431              		.loc 1 171 0
 432 000c 0446     		mov	r4, r0
 433 000e 0192     		str	r2, [sp, #4]
 434              		.loc 1 174 0
 435 0010 0022     		movs	r2, #0
 436 0012 ADF80220 		strh	r2, [sp, #2]	@ movhi
 437              	.LVL33:
 438              		.loc 1 171 0
 439 0016 0E46     		mov	r6, r1
 440              		.loc 1 180 0
 441 0018 9847     		blx	r3
 442              	.LVL34:
 443 001a C0B2     		uxtb	r0, r0
 444 001c 8DF80100 		strb	r0, [sp, #1]
 445              	.L85:
 446              		.loc 1 215 0
 447 0020 9DF80130 		ldrb	r3, [sp, #1]	@ zero_extendqisi2
 448 0024 532B     		cmp	r3, #83
 449 0026 0AD0     		beq	.L96
 450              	.L88:
 451              		.loc 1 180 0
 452 0028 2368     		ldr	r3, [r4]
 453 002a 2046     		mov	r0, r4
 454 002c DB68     		ldr	r3, [r3, #12]
 455 002e 9847     		blx	r3
 456              	.LVL35:
ARM GAS  C:\Users\osour\AppData\Local\Temp\ccYBgxBg.s 			page 9


 457 0030 C0B2     		uxtb	r0, r0
 458 0032 8DF80100 		strb	r0, [sp, #1]
 459              		.loc 1 215 0
 460 0036 9DF80130 		ldrb	r3, [sp, #1]	@ zero_extendqisi2
 461 003a 532B     		cmp	r3, #83
 462 003c F4D1     		bne	.L88
 463              	.L96:
 464              		.loc 1 180 0
 465 003e 2368     		ldr	r3, [r4]
 466 0040 2046     		mov	r0, r4
 467 0042 DB68     		ldr	r3, [r3, #12]
 468 0044 9847     		blx	r3
 469              	.LVL36:
 470 0046 C0B2     		uxtb	r0, r0
 471 0048 8DF80100 		strb	r0, [sp, #1]
 472              	.L49:
 473              		.loc 1 189 0
 474 004c 9DF80130 		ldrb	r3, [sp, #1]	@ zero_extendqisi2
 475 0050 542B     		cmp	r3, #84
 476 0052 E5D1     		bne	.L85
 477              		.loc 1 180 0
 478 0054 2368     		ldr	r3, [r4]
 479 0056 2046     		mov	r0, r4
 480 0058 DB68     		ldr	r3, [r3, #12]
 481 005a 9847     		blx	r3
 482              	.LVL37:
 483 005c C0B2     		uxtb	r0, r0
 484 005e 8DF80100 		strb	r0, [sp, #1]
 485              		.loc 1 197 0
 486 0062 9DF80130 		ldrb	r3, [sp, #1]	@ zero_extendqisi2
 487 0066 412B     		cmp	r3, #65
 488 0068 0BD0     		beq	.L97
 489              		.loc 1 199 0
 490 006a 9DF80130 		ldrb	r3, [sp, #1]	@ zero_extendqisi2
 491 006e 2268     		ldr	r2, [r4]
 492 0070 532B     		cmp	r3, #83
 493 0072 D268     		ldr	r2, [r2, #12]
 494 0074 2DD0     		beq	.L98
 495              		.loc 1 180 0
 496 0076 2046     		mov	r0, r4
 497 0078 9047     		blx	r2
 498              	.LVL38:
 499 007a C0B2     		uxtb	r0, r0
 500 007c 8DF80100 		strb	r0, [sp, #1]
 501 0080 CEE7     		b	.L85
 502              	.L97:
 503 0082 2368     		ldr	r3, [r4]
 504 0084 2046     		mov	r0, r4
 505 0086 DB68     		ldr	r3, [r3, #12]
 506 0088 9847     		blx	r3
 507              	.LVL39:
 508 008a C0B2     		uxtb	r0, r0
 509 008c 8DF80100 		strb	r0, [sp, #1]
 510              		.loc 1 205 0
 511 0090 9DF80130 		ldrb	r3, [sp, #1]	@ zero_extendqisi2
 512 0094 522B     		cmp	r3, #82
 513 0096 C3D1     		bne	.L85
ARM GAS  C:\Users\osour\AppData\Local\Temp\ccYBgxBg.s 			page 10


 514              		.loc 1 180 0
 515 0098 2368     		ldr	r3, [r4]
 516 009a 2046     		mov	r0, r4
 517 009c DB68     		ldr	r3, [r3, #12]
 518 009e 9847     		blx	r3
 519              	.LVL40:
 520 00a0 C0B2     		uxtb	r0, r0
 521 00a2 8DF80100 		strb	r0, [sp, #1]
 522              		.loc 1 213 0
 523 00a6 9DF80130 		ldrb	r3, [sp, #1]	@ zero_extendqisi2
 524 00aa 542B     		cmp	r3, #84
 525 00ac B8D1     		bne	.L85
 526              		.loc 1 223 0
 527 00ae 2368     		ldr	r3, [r4]
 528 00b0 2046     		mov	r0, r4
 529 00b2 DB68     		ldr	r3, [r3, #12]
 530 00b4 9847     		blx	r3
 531              	.LVL41:
 532 00b6 C0B2     		uxtb	r0, r0
 533 00b8 8DF80100 		strb	r0, [sp, #1]
 534              		.loc 1 224 0
 535 00bc 9DF80130 		ldrb	r3, [sp, #1]	@ zero_extendqisi2
 536 00c0 3370     		strb	r3, [r6]
 537              		.loc 1 225 0
 538 00c2 BDF80200 		ldrh	r0, [sp, #2]
 539              		.loc 1 226 0
 540 00c6 019A     		ldr	r2, [sp, #4]
 541 00c8 2B68     		ldr	r3, [r5]
 542 00ca 9A42     		cmp	r2, r3
 543 00cc 07D1     		bne	.L99
 544 00ce 02B0     		add	sp, sp, #8
 545              		.cfi_remember_state
 546              		.cfi_def_cfa_offset 16
 547              		@ sp needed
 548 00d0 70BD     		pop	{r4, r5, r6, pc}
 549              	.LVL42:
 550              	.L98:
 551              		.cfi_restore_state
 552              		.loc 1 180 0
 553 00d2 2046     		mov	r0, r4
 554 00d4 9047     		blx	r2
 555              	.LVL43:
 556 00d6 C0B2     		uxtb	r0, r0
 557 00d8 8DF80100 		strb	r0, [sp, #1]
 558 00dc B6E7     		b	.L49
 559              	.L99:
 560              		.loc 1 226 0
 561 00de FFF7FEFF 		bl	__stack_chk_fail
 562              	.LVL44:
 563              	.L101:
 564 00e2 00BF     		.align	2
 565              	.L100:
 566 00e4 00000000 		.word	__stack_chk_guard
 567              		.cfi_endproc
 568              	.LFE260:
 569              		.size	ReceiveModeFromComputer, .-ReceiveModeFromComputer
 570              		.section	.text.communication,"ax",%progbits
ARM GAS  C:\Users\osour\AppData\Local\Temp\ccYBgxBg.s 			page 11


 571              		.align	1
 572              		.p2align 4,,15
 573              		.syntax unified
 574              		.thumb
 575              		.thumb_func
 576              		.fpu fpv4-sp-d16
 577              		.type	communication, %function
 578              	communication:
 579              	.LFB256:
 580              		.loc 1 34 0
 581              		.cfi_startproc
 582              		@ args = 0, pretend = 0, frame = 8
 583              		@ frame_needed = 0, uses_anonymous_args = 0
 584              	.LVL45:
 585 0000 70B5     		push	{r4, r5, r6, lr}
 586              		.cfi_def_cfa_offset 16
 587              		.cfi_offset 4, -16
 588              		.cfi_offset 5, -12
 589              		.cfi_offset 6, -8
 590              		.cfi_offset 14, -4
 591 0002 2E4E     		ldr	r6, .L119
 592              		.loc 1 43 0
 593 0004 2E4D     		ldr	r5, .L119+4
 594              		.loc 1 34 0
 595 0006 3368     		ldr	r3, [r6]
 596 0008 82B0     		sub	sp, sp, #8
 597              		.cfi_def_cfa_offset 24
 598              		.loc 1 37 0
 599 000a 0024     		movs	r4, #0
 600              		.loc 1 34 0
 601 000c 0193     		str	r3, [sp, #4]
 602              		.loc 1 38 0
 603 000e 0B22     		movs	r2, #11
 604              		.loc 1 39 0
 605 0010 0C23     		movs	r3, #12
 606              		.loc 1 37 0
 607 0012 8DF80040 		strb	r4, [sp]
 608              		.loc 1 38 0
 609 0016 8DF80120 		strb	r2, [sp, #1]
 610              		.loc 1 39 0
 611 001a 8DF80230 		strb	r3, [sp, #2]
 612              	.LVL46:
 613              	.L108:
 614              		.loc 1 42 0
 615 001e C4B1     		cbz	r4, .L103
 616              		.loc 1 42 0 is_stmt 0 discriminator 1
 617 0020 231F     		subs	r3, r4, #4
 618 0022 012B     		cmp	r3, #1
 619 0024 15D9     		bls	.L103
 620              		.loc 1 45 0 is_stmt 1
 621 0026 012C     		cmp	r4, #1
 622 0028 1CD0     		beq	.L115
 623              		.loc 1 50 0
 624 002a 022C     		cmp	r4, #2
 625 002c 2AD0     		beq	.L116
 626              		.loc 1 57 0
 627 002e 032C     		cmp	r4, #3
ARM GAS  C:\Users\osour\AppData\Local\Temp\ccYBgxBg.s 			page 12


 628 0030 35D0     		beq	.L117
 629              	.L105:
 630              		.loc 1 65 0
 631 0032 C820     		movs	r0, #200
 632 0034 FFF7FEFF 		bl	chThdSleep
 633              	.LVL47:
 634              		.loc 1 41 0
 635 0038 9DF80040 		ldrb	r4, [sp]	@ zero_extendqisi2
 636 003c 062C     		cmp	r4, #6
 637 003e EED1     		bne	.L108
 638              		.loc 1 67 0
 639 0040 0120     		movs	r0, #1
 640 0042 FFF7FEFF 		bl	set_body_led
 641              	.LVL48:
 642              		.loc 1 68 0
 643 0046 019A     		ldr	r2, [sp, #4]
 644 0048 3368     		ldr	r3, [r6]
 645 004a 9A42     		cmp	r2, r3
 646 004c 34D1     		bne	.L118
 647 004e 02B0     		add	sp, sp, #8
 648              		.cfi_remember_state
 649              		.cfi_def_cfa_offset 16
 650              		@ sp needed
 651 0050 70BD     		pop	{r4, r5, r6, pc}
 652              	.L103:
 653              		.cfi_restore_state
 654              		.loc 1 43 0
 655 0052 6946     		mov	r1, sp
 656 0054 2846     		mov	r0, r5
 657 0056 FFF7FEFF 		bl	ReceiveModeFromComputer
 658              	.LVL49:
 659              		.loc 1 44 0
 660 005a 0121     		movs	r1, #1
 661 005c 0020     		movs	r0, #0
 662 005e FFF7FEFF 		bl	set_led
 663              	.LVL50:
 664 0062 E6E7     		b	.L105
 665              	.L115:
 666              	.LBB2:
 667              		.loc 1 46 0
 668 0064 02A8     		add	r0, sp, #8
 669 0066 0223     		movs	r3, #2
 670              		.loc 1 47 0
 671 0068 2146     		mov	r1, r4
 672              		.loc 1 46 0
 673 006a 00F8053D 		strb	r3, [r0, #-5]!
 674              		.loc 1 47 0
 675 006e FFF7FEFF 		bl	SendUint8ToComputer
 676              	.LVL51:
 677              		.loc 1 48 0
 678 0072 9DF80330 		ldrb	r3, [sp, #3]	@ zero_extendqisi2
 679 0076 8DF80030 		strb	r3, [sp]
 680              		.loc 1 49 0
 681 007a 2146     		mov	r1, r4
 682 007c 2046     		mov	r0, r4
 683 007e FFF7FEFF 		bl	set_led
 684              	.LVL52:
ARM GAS  C:\Users\osour\AppData\Local\Temp\ccYBgxBg.s 			page 13


 685              	.LBE2:
 686 0082 D6E7     		b	.L105
 687              	.L116:
 688              	.LBB3:
 689              		.loc 1 54 0
 690 0084 0121     		movs	r1, #1
 691 0086 0DEB0100 		add	r0, sp, r1
 692 008a FFF7FEFF 		bl	SendUint8ToComputer
 693              	.LVL53:
 694              		.loc 1 55 0
 695 008e 0523     		movs	r3, #5
 696              		.loc 1 56 0
 697 0090 2046     		mov	r0, r4
 698 0092 0121     		movs	r1, #1
 699              		.loc 1 55 0
 700 0094 8DF80030 		strb	r3, [sp]
 701              		.loc 1 56 0
 702 0098 FFF7FEFF 		bl	set_led
 703              	.LVL54:
 704              	.LBE3:
 705 009c C9E7     		b	.L105
 706              	.L117:
 707              	.LBB4:
 708              		.loc 1 61 0
 709 009e 0121     		movs	r1, #1
 710 00a0 0DF10200 		add	r0, sp, #2
 711 00a4 FFF7FEFF 		bl	SendUint8ToComputer
 712              	.LVL55:
 713              		.loc 1 62 0
 714 00a8 0623     		movs	r3, #6
 715              		.loc 1 63 0
 716 00aa 2046     		mov	r0, r4
 717 00ac 0121     		movs	r1, #1
 718              		.loc 1 62 0
 719 00ae 8DF80030 		strb	r3, [sp]
 720              		.loc 1 63 0
 721 00b2 FFF7FEFF 		bl	set_led
 722              	.LVL56:
 723 00b6 BCE7     		b	.L105
 724              	.L118:
 725              	.LBE4:
 726              		.loc 1 68 0
 727 00b8 FFF7FEFF 		bl	__stack_chk_fail
 728              	.LVL57:
 729              	.L120:
 730              		.align	2
 731              	.L119:
 732 00bc 00000000 		.word	__stack_chk_guard
 733 00c0 00000000 		.word	SD3
 734              		.cfi_endproc
 735              	.LFE256:
 736              		.size	communication, .-communication
 737              		.section	.text.init_communication,"ax",%progbits
 738              		.align	1
 739              		.p2align 4,,15
 740              		.global	init_communication
 741              		.syntax unified
ARM GAS  C:\Users\osour\AppData\Local\Temp\ccYBgxBg.s 			page 14


 742              		.thumb
 743              		.thumb_func
 744              		.fpu fpv4-sp-d16
 745              		.type	init_communication, %function
 746              	init_communication:
 747              	.LFB261:
 748              		.loc 1 229 0
 749              		.cfi_startproc
 750              		@ args = 0, pretend = 0, frame = 8
 751              		@ frame_needed = 0, uses_anonymous_args = 0
 752 0000 10B5     		push	{r4, lr}
 753              		.cfi_def_cfa_offset 8
 754              		.cfi_offset 4, -8
 755              		.cfi_offset 14, -4
 756 0002 0A4C     		ldr	r4, .L125
 757              		.loc 1 230 0
 758 0004 0A4B     		ldr	r3, .L125+4
 759              		.loc 1 229 0
 760 0006 2268     		ldr	r2, [r4]
 761              		.loc 1 230 0
 762 0008 0A48     		ldr	r0, .L125+8
 763              		.loc 1 229 0
 764 000a 84B0     		sub	sp, sp, #16
 765              		.cfi_def_cfa_offset 24
 766              		.loc 1 230 0
 767 000c 4FF4FC71 		mov	r1, #504
 768              		.loc 1 229 0
 769 0010 0392     		str	r2, [sp, #12]
 770              		.loc 1 230 0
 771 0012 0022     		movs	r2, #0
 772 0014 0092     		str	r2, [sp]
 773 0016 4022     		movs	r2, #64
 774 0018 FFF7FEFF 		bl	chThdCreateStatic
 775              	.LVL58:
 776              		.loc 1 231 0
 777 001c 039A     		ldr	r2, [sp, #12]
 778 001e 2368     		ldr	r3, [r4]
 779 0020 9A42     		cmp	r2, r3
 780 0022 01D1     		bne	.L124
 781 0024 04B0     		add	sp, sp, #16
 782              		.cfi_remember_state
 783              		.cfi_def_cfa_offset 8
 784              		@ sp needed
 785 0026 10BD     		pop	{r4, pc}
 786              	.L124:
 787              		.cfi_restore_state
 788 0028 FFF7FEFF 		bl	__stack_chk_fail
 789              	.LVL59:
 790              	.L126:
 791              		.align	2
 792              	.L125:
 793 002c 00000000 		.word	__stack_chk_guard
 794 0030 00000000 		.word	communication
 795 0034 00000000 		.word	.LANCHOR0
 796              		.cfi_endproc
 797              	.LFE261:
 798              		.size	init_communication, .-init_communication
ARM GAS  C:\Users\osour\AppData\Local\Temp\ccYBgxBg.s 			page 15


 799              		.global	message
 800              		.section	.bss.communicationWorkingArea,"aw",%nobits
 801              		.align	3
 802              		.set	.LANCHOR0,. + 0
 803              		.type	communicationWorkingArea, %object
 804              		.size	communicationWorkingArea, 504
 805              	communicationWorkingArea:
 806 0000 00000000 		.space	504
 806      00000000 
 806      00000000 
 806      00000000 
 806      00000000 
 807              		.section	.bss.message,"aw",%nobits
 808              		.type	message, %object
 809              		.size	message, 1
 810              	message:
 811 0000 00       		.space	1
 812              		.section	.rodata.SendFloatToComputer.str1.4,"aMS",%progbits,1
 813              		.align	2
 814              	.LC0:
 815 0000 53544152 		.ascii	"START\000"
 815      5400
 816              		.text
 817              	.Letext0:
 818              		.file 2 "c:\\users\\osour\\desktop\\robotique\\eclipse_e-puck2\\tools\\gcc-arm-none-eabi-7-2017-q4
 819              		.file 3 "c:\\users\\osour\\desktop\\robotique\\eclipse_e-puck2\\tools\\gcc-arm-none-eabi-7-2017-q4
 820              		.file 4 "c:\\users\\osour\\desktop\\robotique\\eclipse_e-puck2\\tools\\gcc-arm-none-eabi-7-2017-q4
 821              		.file 5 "../lib/e-puck2_main-processor/ChibiOS//os/rt/ports/ARMCMx/compilers/GCC/chtypes.h"
 822              		.file 6 "../lib/e-puck2_main-processor/ChibiOS//os/rt/include/chsystypes.h"
 823              		.file 7 "../lib/e-puck2_main-processor/ChibiOS//os/rt/include/chschd.h"
 824              		.file 8 "../lib/e-puck2_main-processor/ChibiOS//os/ext/CMSIS/include/core_cm4.h"
 825              		.file 9 "../lib/e-puck2_main-processor/ChibiOS//os/ext/CMSIS/ST/system_stm32f4xx.h"
 826              		.file 10 "../lib/e-puck2_main-processor/ChibiOS//os/ext/CMSIS/ST/stm32f407xx.h"
 827              		.file 11 "../lib/e-puck2_main-processor/ChibiOS//os/rt/ports/ARMCMx/chcore.h"
 828              		.file 12 "../lib/e-puck2_main-processor/ChibiOS//os/rt/ports/ARMCMx/chcore_v7m.h"
 829              		.file 13 "../lib/e-puck2_main-processor/ChibiOS//os/rt/include/chdebug.h"
 830              		.file 14 "../lib/e-puck2_main-processor/ChibiOS//os/rt/include/chtm.h"
 831              		.file 15 "../lib/e-puck2_main-processor/ChibiOS//os/rt/include/chstats.h"
 832              		.file 16 "../lib/e-puck2_main-processor/ChibiOS//os/rt/include/chsem.h"
 833              		.file 17 "../lib/e-puck2_main-processor/ChibiOS//os/rt/include/chmtx.h"
 834              		.file 18 "../lib/e-puck2_main-processor/ChibiOS//os/rt/include/chregistry.h"
 835              		.file 19 "../lib/e-puck2_main-processor/ChibiOS//os/rt/include/chevents.h"
 836              		.file 20 "../lib/e-puck2_main-processor/ChibiOS//os/rt/include/chqueues.h"
 837              		.file 21 "../lib/e-puck2_main-processor/ChibiOS//os/rt/include/chstreams.h"
 838              		.file 22 "../lib/e-puck2_main-processor/ChibiOS//os/hal/ports/STM32/STM32F4xx/stm32_dma.h"
 839              		.file 23 "../lib/e-puck2_main-processor/ChibiOS//os/hal/include/hal_ioblock.h"
 840              		.file 24 "../lib/e-puck2_main-processor/ChibiOS//os/hal/ports/STM32/LLD/GPIOv2/pal_lld.h"
 841              		.file 25 "../lib/e-puck2_main-processor/ChibiOS//os/hal/include/adc.h"
 842              		.file 26 "../lib/e-puck2_main-processor/ChibiOS//os/hal/ports/STM32/STM32F4xx/adc_lld.h"
 843              		.file 27 "../lib/e-puck2_main-processor/ChibiOS//os/hal/include/can.h"
 844              		.file 28 "../lib/e-puck2_main-processor/ChibiOS//os/hal/ports/STM32/LLD/can_lld.h"
 845              		.file 29 "../lib/e-puck2_main-processor/ChibiOS//os/hal/include/dac.h"
 846              		.file 30 "../lib/e-puck2_main-processor/ChibiOS//os/hal/ports/STM32/LLD/DACv1/dac_lld.h"
 847              		.file 31 "../lib/e-puck2_main-processor/ChibiOS//os/hal/include/ext.h"
 848              		.file 32 "../lib/e-puck2_main-processor/ChibiOS//os/hal/ports/STM32/LLD/ext_lld.h"
 849              		.file 33 "../lib/e-puck2_main-processor/ChibiOS//os/hal/include/gpt.h"
 850              		.file 34 "../lib/e-puck2_main-processor/ChibiOS//os/hal/ports/STM32/LLD/TIMv1/gpt_lld.h"
ARM GAS  C:\Users\osour\AppData\Local\Temp\ccYBgxBg.s 			page 16


 851              		.file 35 "../lib/e-puck2_main-processor/ChibiOS//os/hal/ports/STM32/LLD/TIMv1/stm32_tim.h"
 852              		.file 36 "../lib/e-puck2_main-processor/ChibiOS//os/hal/include/i2c.h"
 853              		.file 37 "../lib/e-puck2_main-processor/ChibiOS//os/hal/ports/STM32/LLD/I2Cv1/i2c_lld.h"
 854              		.file 38 "../lib/e-puck2_main-processor/ChibiOS//os/hal/include/i2s.h"
 855              		.file 39 "../lib/e-puck2_main-processor/ChibiOS//os/hal/ports/STM32/LLD/SPIv1/i2s_lld.h"
 856              		.file 40 "../lib/e-puck2_main-processor/ChibiOS//os/hal/include/pwm.h"
 857              		.file 41 "../lib/e-puck2_main-processor/ChibiOS//os/hal/ports/STM32/LLD/TIMv1/pwm_lld.h"
 858              		.file 42 "../lib/e-puck2_main-processor/ChibiOS//os/hal/include/serial.h"
 859              		.file 43 "../lib/e-puck2_main-processor/ChibiOS//os/hal/ports/STM32/LLD/USARTv1/serial_lld.h"
 860              		.file 44 "../lib/e-puck2_main-processor/ChibiOS//os/hal/include/sdc.h"
 861              		.file 45 "../lib/e-puck2_main-processor/ChibiOS//os/hal/ports/STM32/LLD/sdc_lld.h"
 862              		.file 46 "../lib/e-puck2_main-processor/ChibiOS//os/hal/include/spi.h"
 863              		.file 47 "../lib/e-puck2_main-processor/ChibiOS//os/hal/ports/STM32/LLD/SPIv1/spi_lld.h"
 864              		.file 48 "../lib/e-puck2_main-processor/ChibiOS//os/hal/include/usb.h"
 865              		.file 49 "../lib/e-puck2_main-processor/ChibiOS//os/hal/ports/STM32/LLD/OTGv1/usb_lld.h"
 866              		.file 50 "../lib/e-puck2_main-processor/ChibiOS//os/hal/ports/STM32/LLD/OTGv1/stm32_otg.h"
 867              		.file 51 "../lib/e-puck2_main-processor/ChibiOS_ext/os/hal/include/../ports/STM32/STM32F4xx/dcmi_l
 868              		.file 52 "c:\\users\\osour\\desktop\\robotique\\eclipse_e-puck2\\tools\\gcc-arm-none-eabi-7-2017-q
 869              		.file 53 "c:\\users\\osour\\desktop\\robotique\\eclipse_e-puck2\\tools\\gcc-arm-none-eabi-7-2017-q
 870              		.file 54 "c:\\users\\osour\\desktop\\robotique\\eclipse_e-puck2\\tools\\gcc-arm-none-eabi-7-2017-q
 871              		.file 55 "../lib/e-puck2_main-processor/src/msgbus/messagebus.h"
 872              		.file 56 "c:\\users\\osour\\desktop\\robotique\\eclipse_e-puck2\\tools\\gcc-arm-none-eabi-7-2017-q
 873              		.file 57 "c:\\users\\osour\\desktop\\robotique\\eclipse_e-puck2\\tools\\gcc-arm-none-eabi-7-2017-q
 874              		.file 58 "../lib/e-puck2_main-processor/src/parameter/parameter.h"
 875              		.file 59 "./main.h"
 876              		.file 60 "../lib/e-puck2_main-processor/src/leds.h"
 877              		.file 61 "../lib/e-puck2_main-processor/ChibiOS//os/rt/include/chthreads.h"