ARM GAS  C:\Users\osour\AppData\Local\Temp\ccZWeBax.s 			page 1


   1              		.cpu cortex-m4
   2              		.eabi_attribute 27, 1
   3              		.eabi_attribute 28, 1
   4              		.eabi_attribute 20, 1
   5              		.eabi_attribute 21, 1
   6              		.eabi_attribute 23, 3
   7              		.eabi_attribute 24, 1
   8              		.eabi_attribute 25, 1
   9              		.eabi_attribute 26, 1
  10              		.eabi_attribute 30, 2
  11              		.eabi_attribute 34, 1
  12              		.eabi_attribute 18, 4
  13              		.file	"custom_audio_processing.c"
  14              		.text
  15              	.Ltext0:
  16              		.cfi_sections	.debug_frame
  17              		.section	.text.chprintf.constprop.0,"ax",%progbits
  18              		.align	1
  19              		.p2align 4,,15
  20              		.syntax unified
  21              		.thumb
  22              		.thumb_func
  23              		.fpu fpv4-sp-d16
  24              		.type	chprintf.constprop.0, %function
  25              	chprintf.constprop.0:
  26              	.LFB297:
  27              		.file 1 "../../lib/e-puck2_main-processor/ChibiOS//os/hal/lib/streams/chprintf.h"
  28              		.loc 1 69 0
  29              		.cfi_startproc
  30              		@ args = 4, pretend = 12, frame = 8
  31              		@ frame_needed = 0, uses_anonymous_args = 1
  32              	.LVL0:
  33 0000 0EB4     		push	{r1, r2, r3}
  34              		.cfi_def_cfa_offset 12
  35              		.cfi_offset 1, -12
  36              		.cfi_offset 2, -8
  37              		.cfi_offset 3, -4
  38 0002 10B5     		push	{r4, lr}
  39              		.cfi_def_cfa_offset 20
  40              		.cfi_offset 4, -20
  41              		.cfi_offset 14, -16
  42 0004 83B0     		sub	sp, sp, #12
  43              		.cfi_def_cfa_offset 32
  44              		.loc 1 69 0
  45 0006 05AA     		add	r2, sp, #20
  46 0008 094C     		ldr	r4, .L6
  47 000a 52F8041B 		ldr	r1, [r2], #4
  48 000e 2368     		ldr	r3, [r4]
  49              		.loc 1 74 0
  50 0010 0848     		ldr	r0, .L6+4
  51              	.LVL1:
  52              		.loc 1 73 0
  53 0012 0092     		str	r2, [sp]
  54              		.loc 1 69 0
  55 0014 0193     		str	r3, [sp, #4]
  56              	.LVL2:
  57              		.loc 1 74 0
ARM GAS  C:\Users\osour\AppData\Local\Temp\ccZWeBax.s 			page 2


  58 0016 FFF7FEFF 		bl	chvprintf
  59              	.LVL3:
  60              		.loc 1 78 0
  61 001a 019A     		ldr	r2, [sp, #4]
  62 001c 2368     		ldr	r3, [r4]
  63 001e 9A42     		cmp	r2, r3
  64 0020 04D1     		bne	.L5
  65 0022 03B0     		add	sp, sp, #12
  66              		.cfi_remember_state
  67              		.cfi_def_cfa_offset 20
  68              		@ sp needed
  69 0024 BDE81040 		pop	{r4, lr}
  70              		.cfi_restore 14
  71              		.cfi_restore 4
  72              		.cfi_def_cfa_offset 12
  73 0028 03B0     		add	sp, sp, #12
  74              		.cfi_restore 3
  75              		.cfi_restore 2
  76              		.cfi_restore 1
  77              		.cfi_def_cfa_offset 0
  78 002a 7047     		bx	lr
  79              	.L5:
  80              		.cfi_restore_state
  81 002c FFF7FEFF 		bl	__stack_chk_fail
  82              	.LVL4:
  83              	.L7:
  84              		.align	2
  85              	.L6:
  86 0030 00000000 		.word	__stack_chk_guard
  87 0034 00000000 		.word	SD3
  88              		.cfi_endproc
  89              	.LFE297:
  90              		.size	chprintf.constprop.0, .-chprintf.constprop.0
  91              		.section	.text.fundamental_frequency,"ax",%progbits
  92              		.align	1
  93              		.p2align 4,,15
  94              		.global	fundamental_frequency
  95              		.syntax unified
  96              		.thumb
  97              		.thumb_func
  98              		.fpu fpv4-sp-d16
  99              		.type	fundamental_frequency, %function
 100              	fundamental_frequency:
 101              	.LFB290:
 102              		.file 2 "custom_audio_processing.c"
 103              		.loc 2 49 0
 104              		.cfi_startproc
 105              		@ args = 0, pretend = 0, frame = 8
 106              		@ frame_needed = 0, uses_anonymous_args = 0
 107              	.LVL5:
 108 0000 30B5     		push	{r4, r5, lr}
 109              		.cfi_def_cfa_offset 12
 110              		.cfi_offset 4, -12
 111              		.cfi_offset 5, -8
 112              		.cfi_offset 14, -4
 113 0002 114D     		ldr	r5, .L20
 114 0004 83B0     		sub	sp, sp, #12
ARM GAS  C:\Users\osour\AppData\Local\Temp\ccZWeBax.s 			page 3


 115              		.cfi_def_cfa_offset 24
 116              		.loc 2 49 0
 117 0006 2B68     		ldr	r3, [r5]
 118 0008 0193     		str	r3, [sp, #4]
 119              	.LVL6:
 120              	.LBB35:
 121              		.loc 2 50 0
 122 000a A9B1     		cbz	r1, .L8
 123 000c 0124     		movs	r4, #1
 124 000e 00F58042 		add	r2, r0, #16384
 125              	.LVL7:
 126              	.L11:
 127 0012 07EE904A 		vmov	s15, r4	@ int
 128 0016 F8EE676A 		vcvt.f32.u32	s13, s15
 129 001a 0346     		mov	r3, r0
 130              	.L10:
 131              	.LBB36:
 132              		.loc 2 52 0 discriminator 3
 133 001c 93ED007A 		vldr.32	s14, [r3]
 134 0020 C7EE267A 		vdiv.f32	s15, s14, s13
 135 0024 77EE877A 		vadd.f32	s15, s15, s14
 136 0028 E3EC017A 		vstmia.32	r3!, {s15}
 137              	.LVL8:
 138              		.loc 2 51 0 discriminator 3
 139 002c 9A42     		cmp	r2, r3
 140 002e F5D1     		bne	.L10
 141              	.LBE36:
 142              		.loc 2 50 0 discriminator 2
 143 0030 0134     		adds	r4, r4, #1
 144              	.LVL9:
 145 0032 E4B2     		uxtb	r4, r4
 146              	.LVL10:
 147 0034 A142     		cmp	r1, r4
 148 0036 ECD2     		bcs	.L11
 149              	.LVL11:
 150              	.L8:
 151              	.LBE35:
 152              		.loc 2 55 0
 153 0038 019A     		ldr	r2, [sp, #4]
 154 003a 2B68     		ldr	r3, [r5]
 155 003c 9A42     		cmp	r2, r3
 156 003e 01D1     		bne	.L19
 157 0040 03B0     		add	sp, sp, #12
 158              		.cfi_remember_state
 159              		.cfi_def_cfa_offset 12
 160              		@ sp needed
 161 0042 30BD     		pop	{r4, r5, pc}
 162              	.L19:
 163              		.cfi_restore_state
 164 0044 FFF7FEFF 		bl	__stack_chk_fail
 165              	.LVL12:
 166              	.L21:
 167              		.align	2
 168              	.L20:
 169 0048 00000000 		.word	__stack_chk_guard
 170              		.cfi_endproc
 171              	.LFE290:
ARM GAS  C:\Users\osour\AppData\Local\Temp\ccZWeBax.s 			page 4


 172              		.size	fundamental_frequency, .-fundamental_frequency
 173              		.section	.text.send_to_computer,"ax",%progbits
 174              		.align	1
 175              		.p2align 4,,15
 176              		.global	send_to_computer
 177              		.syntax unified
 178              		.thumb
 179              		.thumb_func
 180              		.fpu fpv4-sp-d16
 181              		.type	send_to_computer, %function
 182              	send_to_computer:
 183              	.LFB293:
 184              		.loc 2 129 0
 185              		.cfi_startproc
 186              		@ args = 0, pretend = 0, frame = 8
 187              		@ frame_needed = 0, uses_anonymous_args = 0
 188 0000 00B5     		push	{lr}
 189              		.cfi_def_cfa_offset 4
 190              		.cfi_offset 14, -4
 191 0002 064B     		ldr	r3, .L26
 192 0004 83B0     		sub	sp, sp, #12
 193              		.cfi_def_cfa_offset 16
 194              		.loc 2 129 0
 195 0006 1A68     		ldr	r2, [r3]
 196 0008 0192     		str	r2, [sp, #4]
 197              		.loc 2 131 0
 198 000a 019A     		ldr	r2, [sp, #4]
 199 000c 1B68     		ldr	r3, [r3]
 200 000e 9A42     		cmp	r2, r3
 201 0010 02D1     		bne	.L25
 202 0012 03B0     		add	sp, sp, #12
 203              		.cfi_remember_state
 204              		.cfi_def_cfa_offset 4
 205              		@ sp needed
 206 0014 5DF804FB 		ldr	pc, [sp], #4
 207              	.L25:
 208              		.cfi_restore_state
 209 0018 FFF7FEFF 		bl	__stack_chk_fail
 210              	.LVL13:
 211              	.L27:
 212              		.align	2
 213              	.L26:
 214 001c 00000000 		.word	__stack_chk_guard
 215              		.cfi_endproc
 216              	.LFE293:
 217              		.size	send_to_computer, .-send_to_computer
 218              		.section	.text.wait_send_to_computer,"ax",%progbits
 219              		.align	1
 220              		.p2align 4,,15
 221              		.global	wait_send_to_computer
 222              		.syntax unified
 223              		.thumb
 224              		.thumb_func
 225              		.fpu fpv4-sp-d16
 226              		.type	wait_send_to_computer, %function
 227              	wait_send_to_computer:
 228              	.LFB294:
ARM GAS  C:\Users\osour\AppData\Local\Temp\ccZWeBax.s 			page 5


 229              		.loc 2 132 0
 230              		.cfi_startproc
 231              		@ args = 0, pretend = 0, frame = 8
 232              		@ frame_needed = 0, uses_anonymous_args = 0
 233 0000 00B5     		push	{lr}
 234              		.cfi_def_cfa_offset 4
 235              		.cfi_offset 14, -4
 236 0002 084B     		ldr	r3, .L33
 237 0004 83B0     		sub	sp, sp, #12
 238              		.cfi_def_cfa_offset 16
 239              		.loc 2 132 0
 240 0006 1A68     		ldr	r2, [r3]
 241 0008 0192     		str	r2, [sp, #4]
 242              	.LVL14:
 243              	.LBB37:
 244              	.LBB38:
 245              		.file 3 "../../lib/e-puck2_main-processor/ChibiOS//os/rt/include/chbsem.h"
 246              		.loc 3 143 0
 247 000a 019A     		ldr	r2, [sp, #4]
 248 000c 1B68     		ldr	r3, [r3]
 249 000e 9A42     		cmp	r2, r3
 250 0010 05D1     		bne	.L32
 251 0012 0548     		ldr	r0, .L33+4
 252              	.LBE38:
 253              	.LBE37:
 254              		.loc 2 134 0
 255 0014 03B0     		add	sp, sp, #12
 256              		.cfi_remember_state
 257              		.cfi_def_cfa_offset 4
 258              		@ sp needed
 259 0016 5DF804EB 		ldr	lr, [sp], #4
 260              		.cfi_restore 14
 261              		.cfi_def_cfa_offset 0
 262              	.LBB40:
 263              	.LBB39:
 264              		.loc 3 143 0
 265 001a FFF7FEBF 		b	chSemWait
 266              	.LVL15:
 267              	.L32:
 268              		.cfi_restore_state
 269 001e FFF7FEFF 		bl	__stack_chk_fail
 270              	.LVL16:
 271              	.L34:
 272 0022 00BF     		.align	2
 273              	.L33:
 274 0024 00000000 		.word	__stack_chk_guard
 275 0028 00000000 		.word	.LANCHOR0
 276              	.LBE39:
 277              	.LBE40:
 278              		.cfi_endproc
 279              	.LFE294:
 280              		.size	wait_send_to_computer, .-wait_send_to_computer
 281              		.section	.text.find_note,"ax",%progbits
 282              		.align	1
 283              		.p2align 4,,15
 284              		.global	find_note
 285              		.syntax unified
ARM GAS  C:\Users\osour\AppData\Local\Temp\ccZWeBax.s 			page 6


 286              		.thumb
 287              		.thumb_func
 288              		.fpu fpv4-sp-d16
 289              		.type	find_note, %function
 290              	find_note:
 291              	.LFB295:
 292              		.loc 2 137 0
 293              		.cfi_startproc
 294              		@ args = 0, pretend = 0, frame = 8
 295              		@ frame_needed = 0, uses_anonymous_args = 0
 296              	.LVL17:
 297 0000 10B5     		push	{r4, lr}
 298              		.cfi_def_cfa_offset 8
 299              		.cfi_offset 4, -8
 300              		.cfi_offset 14, -4
 301 0002 5A4C     		ldr	r4, .L72
 302 0004 82B0     		sub	sp, sp, #8
 303              		.cfi_def_cfa_offset 16
 304              		.loc 2 137 0
 305 0006 2368     		ldr	r3, [r4]
 306 0008 0193     		str	r3, [sp, #4]
 307              		.loc 2 138 0
 308 000a 0C28     		cmp	r0, #12
 309 000c 00F2A780 		bhi	.L35
 310 0010 DFE800F0 		tbb	[pc, r0]
 311              	.L38:
 312 0014 19       		.byte	(.L37-.L38)/2
 313 0015 2A       		.byte	(.L39-.L38)/2
 314 0016 31       		.byte	(.L40-.L38)/2
 315 0017 3C       		.byte	(.L41-.L38)/2
 316 0018 4C       		.byte	(.L42-.L38)/2
 317 0019 52       		.byte	(.L43-.L38)/2
 318 001a 60       		.byte	(.L44-.L38)/2
 319 001b 66       		.byte	(.L45-.L38)/2
 320 001c 77       		.byte	(.L46-.L38)/2
 321 001d 7E       		.byte	(.L47-.L38)/2
 322 001e 84       		.byte	(.L48-.L38)/2
 323 001f 94       		.byte	(.L49-.L38)/2
 324 0020 07       		.byte	(.L50-.L38)/2
 325 0021 00       		.p2align 1
 326              	.L50:
 327              		.loc 2 194 0
 328 0022 5349     		ldr	r1, .L72+4
 329 0024 5348     		ldr	r0, .L72+8
 330              	.LVL18:
 331 0026 FFF7FEFF 		bl	chprintf.constprop.0
 332              	.LVL19:
 333              		.loc 2 195 0
 334 002a 0020     		movs	r0, #0
 335              	.L69:
 336 002c FFF7FEFF 		bl	left_motor_set_speed
 337              	.LVL20:
 338              		.loc 2 196 0
 339 0030 019A     		ldr	r2, [sp, #4]
 340 0032 2368     		ldr	r3, [r4]
 341 0034 9A42     		cmp	r2, r3
 342 0036 08BF     		it	eq
ARM GAS  C:\Users\osour\AppData\Local\Temp\ccZWeBax.s 			page 7


 343 0038 0020     		moveq	r0, #0
 344 003a 13D1     		bne	.L67
 345              	.L66:
 346              		.loc 2 200 0
 347 003c 02B0     		add	sp, sp, #8
 348              		.cfi_remember_state
 349              		.cfi_def_cfa_offset 8
 350              		@ sp needed
 351 003e BDE81040 		pop	{r4, lr}
 352              		.cfi_restore 14
 353              		.cfi_restore 4
 354              		.cfi_def_cfa_offset 0
 355              		.loc 2 196 0
 356 0042 FFF7FEBF 		b	right_motor_set_speed
 357              	.LVL21:
 358              	.L37:
 359              		.cfi_restore_state
 360              		.loc 2 140 0
 361 0046 4C49     		ldr	r1, .L72+12
 362 0048 4A48     		ldr	r0, .L72+8
 363              	.LVL22:
 364 004a FFF7FEFF 		bl	chprintf.constprop.0
 365              	.LVL23:
 366              		.loc 2 141 0
 367 004e 4FF47A70 		mov	r0, #1000
 368              	.L70:
 369              		.loc 2 146 0
 370 0052 FFF7FEFF 		bl	left_motor_set_speed
 371              	.LVL24:
 372              		.loc 2 147 0
 373 0056 019A     		ldr	r2, [sp, #4]
 374 0058 2368     		ldr	r3, [r4]
 375 005a 9A42     		cmp	r2, r3
 376 005c 08BF     		it	eq
 377 005e 4FF47A70 		moveq	r0, #1000
 378 0062 EBD0     		beq	.L66
 379              	.L67:
 380              		.loc 2 200 0
 381 0064 FFF7FEFF 		bl	__stack_chk_fail
 382              	.LVL25:
 383              	.L39:
 384              		.loc 2 145 0
 385 0068 4449     		ldr	r1, .L72+16
 386 006a 4248     		ldr	r0, .L72+8
 387              	.LVL26:
 388 006c FFF7FEFF 		bl	chprintf.constprop.0
 389              	.LVL27:
 390              		.loc 2 146 0
 391 0070 4FF4C870 		mov	r0, #400
 392 0074 EDE7     		b	.L70
 393              	.LVL28:
 394              	.L40:
 395              		.loc 2 150 0
 396 0076 019A     		ldr	r2, [sp, #4]
 397 0078 2368     		ldr	r3, [r4]
 398 007a 9A42     		cmp	r2, r3
 399 007c F2D1     		bne	.L67
ARM GAS  C:\Users\osour\AppData\Local\Temp\ccZWeBax.s 			page 8


 400 007e 4049     		ldr	r1, .L72+20
 401              	.L68:
 402              		.loc 2 158 0
 403 0080 3C48     		ldr	r0, .L72+8
 404              	.LVL29:
 405              		.loc 2 200 0
 406 0082 02B0     		add	sp, sp, #8
 407              		.cfi_remember_state
 408              		.cfi_def_cfa_offset 8
 409              		@ sp needed
 410 0084 BDE81040 		pop	{r4, lr}
 411              		.cfi_restore 14
 412              		.cfi_restore 4
 413              		.cfi_def_cfa_offset 0
 414              		.loc 2 158 0
 415 0088 FFF7FEBF 		b	chprintf.constprop.0
 416              	.LVL30:
 417              	.L41:
 418              		.cfi_restore_state
 419              		.loc 2 153 0
 420 008c 3D49     		ldr	r1, .L72+24
 421 008e 3948     		ldr	r0, .L72+8
 422              	.LVL31:
 423 0090 FFF7FEFF 		bl	chprintf.constprop.0
 424              	.LVL32:
 425              		.loc 2 154 0
 426 0094 4FF47A70 		mov	r0, #1000
 427 0098 FFF7FEFF 		bl	left_motor_set_speed
 428              	.LVL33:
 429              		.loc 2 155 0
 430 009c 019A     		ldr	r2, [sp, #4]
 431 009e 2368     		ldr	r3, [r4]
 432 00a0 9A42     		cmp	r2, r3
 433 00a2 08BF     		it	eq
 434 00a4 4FF4C870 		moveq	r0, #400
 435 00a8 C8D0     		beq	.L66
 436 00aa DBE7     		b	.L67
 437              	.LVL34:
 438              	.L42:
 439              		.loc 2 158 0
 440 00ac 019A     		ldr	r2, [sp, #4]
 441 00ae 2368     		ldr	r3, [r4]
 442 00b0 9A42     		cmp	r2, r3
 443 00b2 D7D1     		bne	.L67
 444 00b4 3449     		ldr	r1, .L72+28
 445 00b6 E3E7     		b	.L68
 446              	.L43:
 447              		.loc 2 161 0
 448 00b8 3449     		ldr	r1, .L72+32
 449 00ba 2E48     		ldr	r0, .L72+8
 450              	.LVL35:
 451 00bc FFF7FEFF 		bl	chprintf.constprop.0
 452              	.LVL36:
 453              		.loc 2 162 0
 454 00c0 4FF41670 		mov	r0, #600
 455 00c4 FFF7FEFF 		bl	left_motor_set_speed
 456              	.LVL37:
ARM GAS  C:\Users\osour\AppData\Local\Temp\ccZWeBax.s 			page 9


 457              		.loc 2 163 0
 458 00c8 019A     		ldr	r2, [sp, #4]
 459 00ca 2368     		ldr	r3, [r4]
 460 00cc 9A42     		cmp	r2, r3
 461 00ce C9D1     		bne	.L67
 462 00d0 2F48     		ldr	r0, .L72+36
 463 00d2 B3E7     		b	.L66
 464              	.LVL38:
 465              	.L44:
 466              		.loc 2 166 0
 467 00d4 019A     		ldr	r2, [sp, #4]
 468 00d6 2368     		ldr	r3, [r4]
 469 00d8 9A42     		cmp	r2, r3
 470 00da C3D1     		bne	.L67
 471 00dc 2D49     		ldr	r1, .L72+40
 472 00de CFE7     		b	.L68
 473              	.L45:
 474              		.loc 2 169 0
 475 00e0 2D49     		ldr	r1, .L72+44
 476 00e2 2448     		ldr	r0, .L72+8
 477              	.LVL39:
 478 00e4 FFF7FEFF 		bl	chprintf.constprop.0
 479              	.LVL40:
 480              		.loc 2 170 0
 481 00e8 2C48     		ldr	r0, .L72+48
 482              	.L71:
 483              		.loc 2 180 0
 484 00ea FFF7FEFF 		bl	left_motor_set_speed
 485              	.LVL41:
 486              		.loc 2 181 0
 487 00ee 019A     		ldr	r2, [sp, #4]
 488 00f0 2368     		ldr	r3, [r4]
 489 00f2 9A42     		cmp	r2, r3
 490 00f4 B6D1     		bne	.L67
 491 00f6 2948     		ldr	r0, .L72+48
 492              		.loc 2 200 0
 493 00f8 02B0     		add	sp, sp, #8
 494              		.cfi_remember_state
 495              		.cfi_def_cfa_offset 8
 496              		@ sp needed
 497 00fa BDE81040 		pop	{r4, lr}
 498              		.cfi_restore 14
 499              		.cfi_restore 4
 500              		.cfi_def_cfa_offset 0
 501              		.loc 2 196 0
 502 00fe FFF7FEBF 		b	right_motor_set_speed
 503              	.LVL42:
 504              	.L46:
 505              		.cfi_restore_state
 506              		.loc 2 174 0
 507 0102 2749     		ldr	r1, .L72+52
 508 0104 1B48     		ldr	r0, .L72+8
 509              	.LVL43:
 510 0106 FFF7FEFF 		bl	chprintf.constprop.0
 511              	.LVL44:
 512              		.loc 2 175 0
 513 010a 4FF47A70 		mov	r0, #1000
ARM GAS  C:\Users\osour\AppData\Local\Temp\ccZWeBax.s 			page 10


 514 010e 8DE7     		b	.L69
 515              	.LVL45:
 516              	.L47:
 517              		.loc 2 179 0
 518 0110 2449     		ldr	r1, .L72+56
 519 0112 1848     		ldr	r0, .L72+8
 520              	.LVL46:
 521 0114 FFF7FEFF 		bl	chprintf.constprop.0
 522              	.LVL47:
 523              		.loc 2 180 0
 524 0118 0020     		movs	r0, #0
 525 011a E6E7     		b	.L71
 526              	.LVL48:
 527              	.L48:
 528              		.loc 2 184 0
 529 011c 2249     		ldr	r1, .L72+60
 530 011e 1548     		ldr	r0, .L72+8
 531              	.LVL49:
 532 0120 FFF7FEFF 		bl	chprintf.constprop.0
 533              	.LVL50:
 534              		.loc 2 185 0
 535 0124 4FF42F70 		mov	r0, #700
 536 0128 FFF7FEFF 		bl	left_motor_set_speed
 537              	.LVL51:
 538              		.loc 2 186 0
 539 012c 019A     		ldr	r2, [sp, #4]
 540 012e 2368     		ldr	r3, [r4]
 541 0130 9A42     		cmp	r2, r3
 542 0132 08BF     		it	eq
 543 0134 6FF0C700 		mvneq	r0, #199
 544 0138 80D0     		beq	.L66
 545 013a 93E7     		b	.L67
 546              	.LVL52:
 547              	.L49:
 548              		.loc 2 189 0
 549 013c 1B49     		ldr	r1, .L72+64
 550 013e 0D48     		ldr	r0, .L72+8
 551              	.LVL53:
 552 0140 FFF7FEFF 		bl	chprintf.constprop.0
 553              	.LVL54:
 554              		.loc 2 190 0
 555 0144 6FF0C700 		mvn	r0, #199
 556 0148 FFF7FEFF 		bl	left_motor_set_speed
 557              	.LVL55:
 558              		.loc 2 191 0
 559 014c 019A     		ldr	r2, [sp, #4]
 560 014e 2368     		ldr	r3, [r4]
 561 0150 9A42     		cmp	r2, r3
 562 0152 08BF     		it	eq
 563 0154 4FF41670 		moveq	r0, #600
 564 0158 3FF470AF 		beq	.L66
 565 015c 82E7     		b	.L67
 566              	.LVL56:
 567              	.L35:
 568              		.loc 2 200 0
 569 015e 019A     		ldr	r2, [sp, #4]
 570 0160 2368     		ldr	r3, [r4]
ARM GAS  C:\Users\osour\AppData\Local\Temp\ccZWeBax.s 			page 11


 571 0162 9A42     		cmp	r2, r3
 572 0164 7FF47EAF 		bne	.L67
 573 0168 02B0     		add	sp, sp, #8
 574              		@ sp needed
 575 016a 10BD     		pop	{r4, pc}
 576              	.L73:
 577              		.align	2
 578              	.L72:
 579 016c 00000000 		.word	__stack_chk_guard
 580 0170 60000000 		.word	.LC12
 581 0174 00000000 		.word	SD3
 582 0178 00000000 		.word	.LC0
 583 017c 08000000 		.word	.LC1
 584 0180 10000000 		.word	.LC2
 585 0184 18000000 		.word	.LC3
 586 0188 20000000 		.word	.LC4
 587 018c 28000000 		.word	.LC5
 588 0190 A8FDFFFF 		.word	-600
 589 0194 30000000 		.word	.LC6
 590 0198 38000000 		.word	.LC7
 591 019c 18FCFFFF 		.word	-1000
 592 01a0 40000000 		.word	.LC8
 593 01a4 48000000 		.word	.LC9
 594 01a8 50000000 		.word	.LC10
 595 01ac 58000000 		.word	.LC11
 596              		.cfi_endproc
 597              	.LFE295:
 598              		.size	find_note, .-find_note
 599              		.section	.text.frequency_to_note,"ax",%progbits
 600              		.align	1
 601              		.p2align 4,,15
 602              		.global	frequency_to_note
 603              		.syntax unified
 604              		.thumb
 605              		.thumb_func
 606              		.fpu fpv4-sp-d16
 607              		.type	frequency_to_note, %function
 608              	frequency_to_note:
 609              	.LFB291:
 610              		.loc 2 57 0
 611              		.cfi_startproc
 612              		@ args = 0, pretend = 0, frame = 24
 613              		@ frame_needed = 0, uses_anonymous_args = 0
 614              	.LVL57:
 615 0000 30B5     		push	{r4, r5, lr}
 616              		.cfi_def_cfa_offset 12
 617              		.cfi_offset 4, -12
 618              		.cfi_offset 5, -8
 619              		.cfi_offset 14, -4
 620 0002 4C4C     		ldr	r4, .L94
 621              		.loc 2 58 0
 622 0004 4C4D     		ldr	r5, .L94+4
 623              		.loc 2 57 0
 624 0006 2268     		ldr	r2, [r4]
 625 0008 87B0     		sub	sp, sp, #28
 626              		.cfi_def_cfa_offset 40
 627              		.loc 2 59 0
ARM GAS  C:\Users\osour\AppData\Local\Temp\ccZWeBax.s 			page 12


 628 000a 0023     		movs	r3, #0
 629              		.loc 2 57 0
 630 000c 0592     		str	r2, [sp, #20]
 631              		.loc 2 60 0
 632 000e 4FF6FF71 		movw	r1, #65535
 633 0012 0022     		movs	r2, #0
 634              		.loc 2 58 0
 635 0014 0295     		str	r5, [sp, #8]	@ float
 636              		.loc 2 59 0
 637 0016 0393     		str	r3, [sp, #12]	@ float
 638 0018 0493     		str	r3, [sp, #16]	@ float
 639              		.loc 2 60 0
 640 001a ADF80410 		strh	r1, [sp, #4]	@ movhi
 641              	.LBB41:
 642              		.loc 2 62 0
 643 001e 1346     		mov	r3, r2
 644 0020 40F60101 		movw	r1, #2049
 645              	.LBE41:
 646              		.loc 2 60 0
 647 0024 ADF80620 		strh	r2, [sp, #6]	@ movhi
 648              	.LVL58:
 649              	.L77:
 650              	.LBB42:
 651              		.loc 2 63 0
 652 0028 F0EC017A 		vldmia.32	r0!, {s15}
 653 002c 9DED027A 		vldr.32	s14, [sp, #8]
 654 0030 F4EEC77A 		vcmpe.f32	s15, s14
 655 0034 F1EE10FA 		vmrs	APSR_nzcv, FPSCR
 656 0038 04DD     		ble	.L75
 657              		.loc 2 65 0
 658 003a 1AB2     		sxth	r2, r3
 659              		.loc 2 64 0
 660 003c CDED027A 		vstr.32	s15, [sp, #8]
 661              		.loc 2 65 0
 662 0040 ADF80420 		strh	r2, [sp, #4]	@ movhi
 663              	.L75:
 664              		.loc 2 62 0 discriminator 2
 665 0044 0133     		adds	r3, r3, #1
 666              	.LVL59:
 667 0046 9BB2     		uxth	r3, r3
 668              	.LVL60:
 669 0048 8B42     		cmp	r3, r1
 670 004a EDD1     		bne	.L77
 671              	.LBE42:
 672              		.loc 2 68 0
 673 004c BDF80430 		ldrh	r3, [sp, #4]
 674              	.LVL61:
 675 0050 1B04     		lsls	r3, r3, #16
 676 0052 66D4     		bmi	.L78
 677              	.LBB43:
 678              		.loc 2 69 0
 679 0054 BDF80420 		ldrh	r2, [sp, #4]
 680              		.loc 2 71 0
 681 0058 DFED387A 		vldr.32	s15, .L94+8
 682 005c 384B     		ldr	r3, .L94+12
 683              		.loc 2 69 0
 684 005e 12B2     		sxth	r2, r2
ARM GAS  C:\Users\osour\AppData\Local\Temp\ccZWeBax.s 			page 13


 685 0060 023A     		subs	r2, r2, #2
 686 0062 06EE902A 		vmov	s13, r2	@ int
 687 0066 F8EEE66A 		vcvt.f32.s32	s13, s13
 688 006a B1EE007A 		vmov.f32	s14, #4.0e+0
 689 006e 66EE876A 		vmul.f32	s13, s13, s14
 690 0072 03F14401 		add	r1, r3, #68
 691              		.loc 2 71 0
 692 0076 76EEE77A 		vsub.f32	s15, s13, s15
 693 007a 0122     		movs	r2, #1
 694 007c BDEEE77A 		vcvt.s32.f32	s14, s15
 695 0080 DFED307A 		vldr.32	s15, .L94+16	@ int
 696 0084 17EE100A 		vmov	r0, s14	@ int
 697 0088 0028     		cmp	r0, #0
 698 008a B8BF     		it	lt
 699 008c 4042     		rsblt	r0, r0, #0
 700 008e 07EE100A 		vmov	s14, r0	@ int
 701 0092 B8EEC77A 		vcvt.f32.s32	s14, s14
 702 0096 8DED037A 		vstr.32	s14, [sp, #12]
 703              	.LVL62:
 704 009a 03E0     		b	.L82
 705              	.LVL63:
 706              	.L93:
 707 009c 33F8020F 		ldrh	r0, [r3, #2]!
 708 00a0 07EE900A 		vmov	s15, r0	@ int
 709              	.L82:
 710              	.LVL64:
 711              	.LBB44:
 712              		.loc 2 74 0
 713 00a4 F8EE677A 		vcvt.f32.u32	s15, s15
 714 00a8 76EEE77A 		vsub.f32	s15, s13, s15
 715 00ac FDEEE77A 		vcvt.s32.f32	s15, s15
 716 00b0 17EE900A 		vmov	r0, s15	@ int
 717 00b4 0028     		cmp	r0, #0
 718 00b6 B8BF     		it	lt
 719 00b8 4042     		rsblt	r0, r0, #0
 720 00ba 07EE900A 		vmov	s15, r0	@ int
 721 00be F8EEE77A 		vcvt.f32.s32	s15, s15
 722 00c2 CDED047A 		vstr.32	s15, [sp, #16]
 723              		.loc 2 75 0
 724 00c6 9DED047A 		vldr.32	s14, [sp, #16]
 725 00ca DDED037A 		vldr.32	s15, [sp, #12]
 726 00ce B4EEE77A 		vcmpe.f32	s14, s15
 727 00d2 F1EE10FA 		vmrs	APSR_nzcv, FPSCR
 728 00d6 04D5     		bpl	.L79
 729              		.loc 2 76 0
 730 00d8 0498     		ldr	r0, [sp, #16]	@ float
 731 00da 0390     		str	r0, [sp, #12]	@ float
 732              		.loc 2 78 0
 733 00dc 10B2     		sxth	r0, r2
 734 00de ADF80600 		strh	r0, [sp, #6]	@ movhi
 735              	.L79:
 736              	.LVL65:
 737              		.loc 2 73 0 discriminator 2
 738 00e2 8B42     		cmp	r3, r1
 739 00e4 02F10102 		add	r2, r2, #1
 740              	.LVL66:
 741 00e8 D8D1     		bne	.L93
ARM GAS  C:\Users\osour\AppData\Local\Temp\ccZWeBax.s 			page 14


 742              	.LBE44:
 743              		.loc 2 81 0
 744 00ea BDF80630 		ldrh	r3, [sp, #6]
 745 00ee 1649     		ldr	r1, .L94+20
 746 00f0 1BB2     		sxth	r3, r3
 747 00f2 81FB0321 		smull	r2, r1, r1, r3
 748 00f6 DA17     		asrs	r2, r3, #31
 749 00f8 C2EB6102 		rsb	r2, r2, r1, asr #1
 750 00fc 02EB4202 		add	r2, r2, r2, lsl #1
 751 0100 A3EB8203 		sub	r3, r3, r2, lsl #2
 752 0104 1BB2     		sxth	r3, r3
 753 0106 ADF80630 		strh	r3, [sp, #6]	@ movhi
 754              		.loc 2 82 0
 755 010a BDF80600 		ldrh	r0, [sp, #6]
 756 010e 059A     		ldr	r2, [sp, #20]
 757 0110 2368     		ldr	r3, [r4]
 758 0112 9A42     		cmp	r2, r3
 759 0114 00B2     		sxth	r0, r0
 760 0116 0AD1     		bne	.L92
 761              	.L91:
 762              	.LBE43:
 763              		.loc 2 87 0
 764 0118 07B0     		add	sp, sp, #28
 765              		.cfi_remember_state
 766              		.cfi_def_cfa_offset 12
 767              		@ sp needed
 768 011a BDE83040 		pop	{r4, r5, lr}
 769              		.cfi_restore 14
 770              		.cfi_restore 5
 771              		.cfi_restore 4
 772              		.cfi_def_cfa_offset 0
 773              	.LBB45:
 774              		.loc 2 85 0
 775 011e FFF7FEBF 		b	find_note
 776              	.LVL67:
 777              	.L78:
 778              		.cfi_restore_state
 779 0122 059A     		ldr	r2, [sp, #20]
 780 0124 2368     		ldr	r3, [r4]
 781 0126 9A42     		cmp	r2, r3
 782 0128 08BF     		it	eq
 783 012a 0C20     		moveq	r0, #12
 784 012c F4D0     		beq	.L91
 785              	.L92:
 786 012e FFF7FEFF 		bl	__stack_chk_fail
 787              	.LVL68:
 788              	.L95:
 789 0132 00BF     		.align	2
 790              	.L94:
 791 0134 00000000 		.word	__stack_chk_guard
 792 0138 0050C348 		.word	1220759552
 793 013c 0000A442 		.word	1118044160
 794 0140 02000000 		.word	.LANCHOR1+2
 795 0144 57000000 		.word	87
 796 0148 ABAAAA2A 		.word	715827883
 797              	.LBE45:
 798              		.cfi_endproc
ARM GAS  C:\Users\osour\AppData\Local\Temp\ccZWeBax.s 			page 15


 799              	.LFE291:
 800              		.size	frequency_to_note, .-frequency_to_note
 801              		.section	.text.processAudioData,"ax",%progbits
 802              		.align	1
 803              		.p2align 4,,15
 804              		.global	processAudioData
 805              		.syntax unified
 806              		.thumb
 807              		.thumb_func
 808              		.fpu fpv4-sp-d16
 809              		.type	processAudioData, %function
 810              	processAudioData:
 811              	.LFB292:
 812              		.loc 2 98 0
 813              		.cfi_startproc
 814              		@ args = 0, pretend = 0, frame = 8
 815              		@ frame_needed = 0, uses_anonymous_args = 0
 816              	.LVL69:
 817 0000 F0B5     		push	{r4, r5, r6, r7, lr}
 818              		.cfi_def_cfa_offset 20
 819              		.cfi_offset 4, -20
 820              		.cfi_offset 5, -16
 821              		.cfi_offset 6, -12
 822              		.cfi_offset 7, -8
 823              		.cfi_offset 14, -4
 824 0002 594D     		ldr	r5, .L119
 825 0004 594C     		ldr	r4, .L119+4
 826 0006 2B68     		ldr	r3, [r5]
 827 0008 83B0     		sub	sp, sp, #12
 828              		.cfi_def_cfa_offset 32
 829              	.LBB64:
 830              		.loc 2 108 0
 831 000a 0026     		movs	r6, #0
 832              	.LBE64:
 833              		.loc 2 98 0
 834 000c 0193     		str	r3, [sp, #4]
 835              	.LBB65:
 836              		.loc 2 108 0
 837 000e ADF80260 		strh	r6, [sp, #2]	@ movhi
 838 0012 BDF80220 		ldrh	r2, [sp, #2]
 839 0016 2388     		ldrh	r3, [r4]
 840 0018 9142     		cmp	r1, r2
 841 001a 40F29C80 		bls	.L97
 842              		.loc 2 109 0
 843 001e BDF802C0 		ldrh	ip, [sp, #2]
 844 0022 534F     		ldr	r7, .L119+8
 845 0024 0CF1010C 		add	ip, ip, #1
 846              		.loc 2 110 0
 847 0028 5A1C     		adds	r2, r3, #1
 848              		.loc 2 109 0
 849 002a 30F91CC0 		ldrsh	ip, [r0, ip, lsl #1]
 850 002e 07EE90CA 		vmov	s15, ip	@ int
 851              		.loc 2 111 0
 852 0032 92B2     		uxth	r2, r2
 853              		.loc 2 109 0
 854 0034 07EB830C 		add	ip, r7, r3, lsl #2
 855              		.loc 2 112 0
ARM GAS  C:\Users\osour\AppData\Local\Temp\ccZWeBax.s 			page 16


 856 0038 0233     		adds	r3, r3, #2
 857 003a 9BB2     		uxth	r3, r3
 858              		.loc 2 109 0
 859 003c F8EEE77A 		vcvt.f32.s32	s15, s15
 860              		.loc 2 111 0
 861 0040 07EB8202 		add	r2, r7, r2, lsl #2
 862 0044 4FF0000E 		mov	lr, #0
 863              		.loc 2 113 0
 864 0048 B3F5005F 		cmp	r3, #8192
 865              		.loc 2 109 0
 866 004c CCED007A 		vstr.32	s15, [ip]
 867              		.loc 2 112 0
 868 0050 2380     		strh	r3, [r4]	@ movhi
 869              		.loc 2 111 0
 870 0052 C2F800E0 		str	lr, [r2]	@ float
 871              		.loc 2 113 0
 872 0056 1CD3     		bcc	.L99
 873 0058 2EE0     		b	.L98
 874              	.L101:
 875              		.loc 2 109 0
 876 005a BDF80260 		ldrh	r6, [sp, #2]
 877 005e 0136     		adds	r6, r6, #1
 878              		.loc 2 111 0
 879 0060 5A1C     		adds	r2, r3, #1
 880              		.loc 2 109 0
 881 0062 30F91660 		ldrsh	r6, [r0, r6, lsl #1]
 882 0066 07EE906A 		vmov	s15, r6	@ int
 883              		.loc 2 111 0
 884 006a 92B2     		uxth	r2, r2
 885              		.loc 2 112 0
 886 006c 03F1020C 		add	ip, r3, #2
 887              		.loc 2 109 0
 888 0070 07EB8306 		add	r6, r7, r3, lsl #2
 889 0074 F8EEE77A 		vcvt.f32.s32	s15, s15
 890              		.loc 2 111 0
 891 0078 07EB8202 		add	r2, r7, r2, lsl #2
 892              		.loc 2 112 0
 893 007c 1FFA8CF3 		uxth	r3, ip
 894              		.loc 2 113 0
 895 0080 B3F5005F 		cmp	r3, #8192
 896              		.loc 2 109 0
 897 0084 C6ED007A 		vstr.32	s15, [r6]
 898 0088 4FF00106 		mov	r6, #1
 899              		.loc 2 111 0
 900 008c C2F800E0 		str	lr, [r2]	@ float
 901              		.loc 2 113 0
 902 0090 11D2     		bcs	.L100
 903              	.L99:
 904              		.loc 2 108 0 discriminator 2
 905 0092 BDF80220 		ldrh	r2, [sp, #2]
 906 0096 0432     		adds	r2, r2, #4
 907 0098 92B2     		uxth	r2, r2
 908 009a ADF80220 		strh	r2, [sp, #2]	@ movhi
 909 009e BDF80220 		ldrh	r2, [sp, #2]
 910 00a2 9142     		cmp	r1, r2
 911 00a4 D9D8     		bhi	.L101
 912 00a6 002E     		cmp	r6, #0
ARM GAS  C:\Users\osour\AppData\Local\Temp\ccZWeBax.s 			page 17


 913 00a8 59D1     		bne	.L115
 914              	.LVL70:
 915              	.L96:
 916              	.LBE65:
 917              		.loc 2 127 0
 918 00aa 019A     		ldr	r2, [sp, #4]
 919 00ac 2B68     		ldr	r3, [r5]
 920 00ae 9A42     		cmp	r2, r3
 921 00b0 57D1     		bne	.L116
 922 00b2 03B0     		add	sp, sp, #12
 923              		.cfi_remember_state
 924              		.cfi_def_cfa_offset 20
 925              		@ sp needed
 926 00b4 F0BD     		pop	{r4, r5, r6, r7, pc}
 927              	.LVL71:
 928              	.L100:
 929              		.cfi_restore_state
 930 00b6 2380     		strh	r3, [r4]	@ movhi
 931              	.L98:
 932              		.loc 2 119 0
 933 00b8 2D49     		ldr	r1, .L119+8
 934              	.LVL72:
 935 00ba 4FF48050 		mov	r0, #4096
 936              	.LVL73:
 937 00be FFF7FEFF 		bl	doFFT_optimized
 938              	.LVL74:
 939              		.loc 2 120 0
 940 00c2 4FF48052 		mov	r2, #4096
 941 00c6 2B49     		ldr	r1, .L119+12
 942 00c8 2948     		ldr	r0, .L119+8
 943 00ca FFF7FEFF 		bl	arm_cmplx_mag_f32
 944              	.LVL75:
 945 00ce 2A4A     		ldr	r2, .L119+16
 946              	.LBB66:
 947              	.LBB67:
 948              		.loc 2 50 0
 949 00d0 0121     		movs	r1, #1
 950              	.LVL76:
 951              	.L107:
 952 00d2 07EE901A 		vmov	s15, r1	@ int
 953 00d6 274B     		ldr	r3, .L119+12
 954 00d8 F8EE676A 		vcvt.f32.u32	s13, s15
 955              	.LVL77:
 956              	.L103:
 957              	.LBB68:
 958              		.loc 2 52 0
 959 00dc 93ED007A 		vldr.32	s14, [r3]
 960 00e0 C7EE267A 		vdiv.f32	s15, s14, s13
 961 00e4 77EE877A 		vadd.f32	s15, s15, s14
 962 00e8 E3EC017A 		vstmia.32	r3!, {s15}
 963              		.loc 2 51 0
 964 00ec 9342     		cmp	r3, r2
 965 00ee F5D1     		bne	.L103
 966              	.LBE68:
 967              		.loc 2 50 0
 968 00f0 0131     		adds	r1, r1, #1
 969              	.LVL78:
ARM GAS  C:\Users\osour\AppData\Local\Temp\ccZWeBax.s 			page 18


 970 00f2 C9B2     		uxtb	r1, r1
 971              	.LVL79:
 972 00f4 0529     		cmp	r1, #5
 973 00f6 ECD1     		bne	.L107
 974              	.LVL80:
 975              	.LBE67:
 976              	.LBE66:
 977              		.loc 2 123 0
 978 00f8 1E48     		ldr	r0, .L119+12
 979 00fa FFF7FEFF 		bl	frequency_to_note
 980              	.LVL81:
 981              		.loc 2 124 0
 982 00fe 0023     		movs	r3, #0
 983 0100 2380     		strh	r3, [r4]	@ movhi
 984              	.LVL82:
 985              	.LBB69:
 986              	.LBB70:
 987              	.LBB71:
 988              	.LBB72:
 989              	.LBB73:
 990              	.LBB74:
 991              	.LBB75:
 992              		.file 4 "../../lib/e-puck2_main-processor/ChibiOS//os/ext/CMSIS/include/core_cmFunc.h"
 993              		.loc 4 546 0
 994 0102 2023     		movs	r3, #32
 995              		.syntax unified
 996              	@ 546 "../../lib/e-puck2_main-processor/ChibiOS//os/ext/CMSIS/include/core_cmFunc.h" 1
 997 0104 83F31188 		MSR basepri, r3
 998              	@ 0 "" 2
 999              	.LVL83:
 1000              		.thumb
 1001              		.syntax unified
 1002              	.LBE75:
 1003              	.LBE74:
 1004              	.LBE73:
 1005              		.file 5 "../../lib/e-puck2_main-processor/ChibiOS//os/rt/include/chsys.h"
 1006              		.loc 5 349 0
 1007 0108 FFF7FEFF 		bl	_stats_start_measure_crit_thd
 1008              	.LVL84:
 1009              		.loc 5 350 0
 1010 010c FFF7FEFF 		bl	_dbg_check_lock
 1011              	.LVL85:
 1012              	.LBE72:
 1013              	.LBE71:
 1014              	.LBB76:
 1015              	.LBB77:
 1016              		.loc 3 268 0
 1017 0110 FFF7FEFF 		bl	chDbgCheckClassI
 1018              	.LVL86:
 1019              		.loc 3 270 0
 1020 0114 1948     		ldr	r0, .L119+20
 1021 0116 8368     		ldr	r3, [r0, #8]
 1022 0118 002B     		cmp	r3, #0
 1023 011a 19DD     		ble	.L117
 1024              	.L105:
 1025              	.LVL87:
 1026              	.LBE77:
ARM GAS  C:\Users\osour\AppData\Local\Temp\ccZWeBax.s 			page 19


 1027              	.LBE76:
 1028              		.loc 3 286 0
 1029 011c FFF7FEFF 		bl	chSchRescheduleS
 1030              	.LVL88:
 1031              	.LBB79:
 1032              	.LBB80:
 1033              		.loc 5 360 0
 1034 0120 FFF7FEFF 		bl	_dbg_check_unlock
 1035              	.LVL89:
 1036              		.loc 5 361 0
 1037 0124 FFF7FEFF 		bl	_stats_stop_measure_crit_thd
 1038              	.LVL90:
 1039              		.loc 5 367 0
 1040 0128 154B     		ldr	r3, .L119+24
 1041 012a 1A68     		ldr	r2, [r3]
 1042 012c 9A42     		cmp	r2, r3
 1043 012e 04D0     		beq	.L106
 1044 0130 9969     		ldr	r1, [r3, #24]
 1045 0132 9368     		ldr	r3, [r2, #8]
 1046 0134 8A68     		ldr	r2, [r1, #8]
 1047 0136 9A42     		cmp	r2, r3
 1048 0138 03D3     		bcc	.L118
 1049              	.L106:
 1050              	.LVL91:
 1051              	.LBB81:
 1052              	.LBB82:
 1053              	.LBB83:
 1054              		.loc 4 546 0
 1055 013a 0023     		movs	r3, #0
 1056              		.syntax unified
 1057              	@ 546 "../../lib/e-puck2_main-processor/ChibiOS//os/ext/CMSIS/include/core_cmFunc.h" 1
 1058 013c 83F31188 		MSR basepri, r3
 1059              	@ 0 "" 2
 1060              	.LVL92:
 1061              		.thumb
 1062              		.syntax unified
 1063              	.LBE83:
 1064              	.LBE82:
 1065              	.LBE81:
 1066              	.LBE80:
 1067              	.LBE79:
 1068              	.LBE70:
 1069              	.LBE69:
 1070              		.loc 2 127 0
 1071 0140 B3E7     		b	.L96
 1072              	.L118:
 1073              	.LBB91:
 1074              	.LBB90:
 1075              	.LBB88:
 1076              	.LBB87:
 1077              		.loc 5 367 0
 1078 0142 1048     		ldr	r0, .L119+28
 1079 0144 FFF7FEFF 		bl	chSysHalt
 1080              	.LVL93:
 1081              	.LBB86:
 1082              	.LBB85:
 1083              	.LBB84:
ARM GAS  C:\Users\osour\AppData\Local\Temp\ccZWeBax.s 			page 20


 1084              		.loc 4 546 0
 1085 0148 0023     		movs	r3, #0
 1086              		.syntax unified
 1087              	@ 546 "../../lib/e-puck2_main-processor/ChibiOS//os/ext/CMSIS/include/core_cmFunc.h" 1
 1088 014a 83F31188 		MSR basepri, r3
 1089              	@ 0 "" 2
 1090              	.LVL94:
 1091              		.thumb
 1092              		.syntax unified
 1093 014e ACE7     		b	.L96
 1094              	.LVL95:
 1095              	.L117:
 1096              	.LBE84:
 1097              	.LBE85:
 1098              	.LBE86:
 1099              	.LBE87:
 1100              	.LBE88:
 1101              	.LBB89:
 1102              	.LBB78:
 1103              		.loc 3 271 0
 1104 0150 FFF7FEFF 		bl	chSemSignalI
 1105              	.LVL96:
 1106 0154 E2E7     		b	.L105
 1107              	.LVL97:
 1108              	.L97:
 1109              	.LBE78:
 1110              	.LBE89:
 1111              	.LBE90:
 1112              	.LBE91:
 1113              		.loc 2 118 0
 1114 0156 B3F5005F 		cmp	r3, #8192
 1115 015a A6D3     		bcc	.L96
 1116 015c ACE7     		b	.L98
 1117              	.L115:
 1118 015e 2380     		strh	r3, [r4]	@ movhi
 1119 0160 A3E7     		b	.L96
 1120              	.LVL98:
 1121              	.L116:
 1122              		.loc 2 127 0
 1123 0162 FFF7FEFF 		bl	__stack_chk_fail
 1124              	.LVL99:
 1125              	.L120:
 1126 0166 00BF     		.align	2
 1127              	.L119:
 1128 0168 00000000 		.word	__stack_chk_guard
 1129 016c 00000000 		.word	.LANCHOR2
 1130 0170 00000000 		.word	micLeft_cmplx_input
 1131 0174 00000000 		.word	micLeft_output
 1132 0178 00400000 		.word	micLeft_output+16384
 1133 017c 00000000 		.word	.LANCHOR0
 1134 0180 00000000 		.word	ch
 1135 0184 00000000 		.word	.LANCHOR3
 1136              		.cfi_endproc
 1137              	.LFE292:
 1138              		.size	processAudioData, .-processAudioData
 1139              		.section	.bss.micLeft_cmplx_input,"aw",%nobits
 1140              		.align	2
ARM GAS  C:\Users\osour\AppData\Local\Temp\ccZWeBax.s 			page 21


 1141              		.type	micLeft_cmplx_input, %object
 1142              		.size	micLeft_cmplx_input, 32768
 1143              	micLeft_cmplx_input:
 1144 0000 00000000 		.space	32768
 1144      00000000 
 1144      00000000 
 1144      00000000 
 1144      00000000 
 1145              		.section	.bss.micLeft_output,"aw",%nobits
 1146              		.align	2
 1147              		.type	micLeft_output, %object
 1148              		.size	micLeft_output, 16384
 1149              	micLeft_output:
 1150 0000 00000000 		.space	16384
 1150      00000000 
 1150      00000000 
 1150      00000000 
 1150      00000000 
 1151              		.section	.bss.nb_samples.14202,"aw",%nobits
 1152              		.align	1
 1153              		.set	.LANCHOR2,. + 0
 1154              		.type	nb_samples.14202, %object
 1155              		.size	nb_samples.14202, 2
 1156              	nb_samples.14202:
 1157 0000 0000     		.space	2
 1158              		.section	.data.sendToComputer_sem,"aw",%progbits
 1159              		.align	2
 1160              		.set	.LANCHOR0,. + 0
 1161              		.type	sendToComputer_sem, %object
 1162              		.size	sendToComputer_sem, 12
 1163              	sendToComputer_sem:
 1164 0000 00000000 		.word	sendToComputer_sem
 1165 0004 00000000 		.word	sendToComputer_sem
 1166 0008 00000000 		.word	0
 1167              		.section	.rodata.__func__.7153,"a",%progbits
 1168              		.align	2
 1169              		.set	.LANCHOR3,. + 0
 1170              		.type	__func__.7153, %object
 1171              		.size	__func__.7153, 12
 1172              	__func__.7153:
 1173 0000 63685379 		.ascii	"chSysUnlock\000"
 1173      73556E6C 
 1173      6F636B00 
 1174              		.section	.rodata.find_note.str1.4,"aMS",%progbits,1
 1175              		.align	2
 1176              	.LC0:
 1177 0000 45200D20 		.ascii	"E \015 \012\000"
 1177      0A00
 1178 0006 0000     		.space	2
 1179              	.LC1:
 1180 0008 46200D20 		.ascii	"F \015 \012\000"
 1180      0A00
 1181 000e 0000     		.space	2
 1182              	.LC2:
 1183 0010 4623200D 		.ascii	"F# \015 \012\000"
 1183      200A00
 1184 0017 00       		.space	1
ARM GAS  C:\Users\osour\AppData\Local\Temp\ccZWeBax.s 			page 22


 1185              	.LC3:
 1186 0018 47200D20 		.ascii	"G \015 \012\000"
 1186      0A00
 1187 001e 0000     		.space	2
 1188              	.LC4:
 1189 0020 4723200D 		.ascii	"G# \015 \012\000"
 1189      200A00
 1190 0027 00       		.space	1
 1191              	.LC5:
 1192 0028 41200D20 		.ascii	"A \015 \012\000"
 1192      0A00
 1193 002e 0000     		.space	2
 1194              	.LC6:
 1195 0030 4123200D 		.ascii	"A# \015 \012\000"
 1195      200A00
 1196 0037 00       		.space	1
 1197              	.LC7:
 1198 0038 42200D20 		.ascii	"B \015 \012\000"
 1198      0A00
 1199 003e 0000     		.space	2
 1200              	.LC8:
 1201 0040 43200D20 		.ascii	"C \015 \012\000"
 1201      0A00
 1202 0046 0000     		.space	2
 1203              	.LC9:
 1204 0048 4323200D 		.ascii	"C# \015 \012\000"
 1204      200A00
 1205 004f 00       		.space	1
 1206              	.LC10:
 1207 0050 44200D20 		.ascii	"D \015 \012\000"
 1207      0A00
 1208 0056 0000     		.space	2
 1209              	.LC11:
 1210 0058 4423200D 		.ascii	"D# \015 \012\000"
 1210      200A00
 1211 005f 00       		.space	1
 1212              	.LC12:
 1213 0060 6E6F6E65 		.ascii	"none \015 \012\000"
 1213      200D200A 
 1213      00
 1214              		.section	.rodata.note_frequency,"a",%progbits
 1215              		.align	2
 1216              		.set	.LANCHOR1,. + 0
 1217              		.type	note_frequency, %object
 1218              		.size	note_frequency, 72
 1219              	note_frequency:
 1220 0000 5200     		.short	82
 1221 0002 5700     		.short	87
 1222 0004 5C00     		.short	92
 1223 0006 6200     		.short	98
 1224 0008 6800     		.short	104
 1225 000a 6E00     		.short	110
 1226 000c 7500     		.short	117
 1227 000e 7B00     		.short	123
 1228 0010 8300     		.short	131
 1229 0012 8B00     		.short	139
 1230 0014 9300     		.short	147
ARM GAS  C:\Users\osour\AppData\Local\Temp\ccZWeBax.s 			page 23


 1231 0016 9C00     		.short	156
 1232 0018 A500     		.short	165
 1233 001a AF00     		.short	175
 1234 001c B900     		.short	185
 1235 001e C400     		.short	196
 1236 0020 D000     		.short	208
 1237 0022 DC00     		.short	220
 1238 0024 E900     		.short	233
 1239 0026 F700     		.short	247
 1240 0028 0601     		.short	262
 1241 002a 1501     		.short	277
 1242 002c 2601     		.short	294
 1243 002e 3701     		.short	311
 1244 0030 4A01     		.short	330
 1245 0032 5D01     		.short	349
 1246 0034 7201     		.short	370
 1247 0036 8801     		.short	392
 1248 0038 9F01     		.short	415
 1249 003a B801     		.short	440
 1250 003c D201     		.short	466
 1251 003e EE01     		.short	494
 1252 0040 2A02     		.short	554
 1253 0042 4B02     		.short	587
 1254 0044 6E02     		.short	622
 1255 0046 9302     		.short	659
 1256              		.text
 1257              	.Letext0:
 1258              		.file 6 "c:\\users\\osour\\desktop\\robotique\\eclipse_e-puck2\\tools\\gcc-arm-none-eabi-7-2017-q4
 1259              		.file 7 "c:\\users\\osour\\desktop\\robotique\\eclipse_e-puck2\\tools\\gcc-arm-none-eabi-7-2017-q4
 1260              		.file 8 "c:\\users\\osour\\desktop\\robotique\\eclipse_e-puck2\\tools\\gcc-arm-none-eabi-7-2017-q4
 1261              		.file 9 "../../lib/e-puck2_main-processor/ChibiOS//os/rt/ports/ARMCMx/compilers/GCC/chtypes.h"
 1262              		.file 10 "../../lib/e-puck2_main-processor/ChibiOS//os/rt/include/chsystypes.h"
 1263              		.file 11 "../../lib/e-puck2_main-processor/ChibiOS//os/rt/include/chschd.h"
 1264              		.file 12 "../../lib/e-puck2_main-processor/ChibiOS//os/ext/CMSIS/include/core_cm4.h"
 1265              		.file 13 "../../lib/e-puck2_main-processor/ChibiOS//os/ext/CMSIS/ST/system_stm32f4xx.h"
 1266              		.file 14 "../../lib/e-puck2_main-processor/ChibiOS//os/ext/CMSIS/ST/stm32f407xx.h"
 1267              		.file 15 "../../lib/e-puck2_main-processor/ChibiOS//os/rt/ports/ARMCMx/chcore.h"
 1268              		.file 16 "../../lib/e-puck2_main-processor/ChibiOS//os/rt/ports/ARMCMx/chcore_v7m.h"
 1269              		.file 17 "../../lib/e-puck2_main-processor/ChibiOS//os/rt/include/chdebug.h"
 1270              		.file 18 "../../lib/e-puck2_main-processor/ChibiOS//os/rt/include/chtm.h"
 1271              		.file 19 "../../lib/e-puck2_main-processor/ChibiOS//os/rt/include/chstats.h"
 1272              		.file 20 "../../lib/e-puck2_main-processor/ChibiOS//os/rt/include/chsem.h"
 1273              		.file 21 "../../lib/e-puck2_main-processor/ChibiOS//os/rt/include/chmtx.h"
 1274              		.file 22 "../../lib/e-puck2_main-processor/ChibiOS//os/rt/include/chregistry.h"
 1275              		.file 23 "../../lib/e-puck2_main-processor/ChibiOS//os/rt/include/chevents.h"
 1276              		.file 24 "../../lib/e-puck2_main-processor/ChibiOS//os/rt/include/chqueues.h"
 1277              		.file 25 "../../lib/e-puck2_main-processor/ChibiOS//os/rt/include/chstreams.h"
 1278              		.file 26 "../../lib/e-puck2_main-processor/ChibiOS//os/hal/ports/STM32/STM32F4xx/stm32_dma.h"
 1279              		.file 27 "../../lib/e-puck2_main-processor/ChibiOS//os/hal/include/hal_ioblock.h"
 1280              		.file 28 "../../lib/e-puck2_main-processor/ChibiOS//os/hal/ports/STM32/LLD/GPIOv2/pal_lld.h"
 1281              		.file 29 "../../lib/e-puck2_main-processor/ChibiOS//os/hal/include/adc.h"
 1282              		.file 30 "../../lib/e-puck2_main-processor/ChibiOS//os/hal/ports/STM32/STM32F4xx/adc_lld.h"
 1283              		.file 31 "../../lib/e-puck2_main-processor/ChibiOS//os/hal/include/can.h"
 1284              		.file 32 "../../lib/e-puck2_main-processor/ChibiOS//os/hal/ports/STM32/LLD/can_lld.h"
 1285              		.file 33 "../../lib/e-puck2_main-processor/ChibiOS//os/hal/include/dac.h"
 1286              		.file 34 "../../lib/e-puck2_main-processor/ChibiOS//os/hal/ports/STM32/LLD/DACv1/dac_lld.h"
 1287              		.file 35 "../../lib/e-puck2_main-processor/ChibiOS//os/hal/include/ext.h"
ARM GAS  C:\Users\osour\AppData\Local\Temp\ccZWeBax.s 			page 24


 1288              		.file 36 "../../lib/e-puck2_main-processor/ChibiOS//os/hal/ports/STM32/LLD/ext_lld.h"
 1289              		.file 37 "../../lib/e-puck2_main-processor/ChibiOS//os/hal/include/gpt.h"
 1290              		.file 38 "../../lib/e-puck2_main-processor/ChibiOS//os/hal/ports/STM32/LLD/TIMv1/gpt_lld.h"
 1291              		.file 39 "../../lib/e-puck2_main-processor/ChibiOS//os/hal/ports/STM32/LLD/TIMv1/stm32_tim.h"
 1292              		.file 40 "../../lib/e-puck2_main-processor/ChibiOS//os/hal/include/i2c.h"
 1293              		.file 41 "../../lib/e-puck2_main-processor/ChibiOS//os/hal/ports/STM32/LLD/I2Cv1/i2c_lld.h"
 1294              		.file 42 "../../lib/e-puck2_main-processor/ChibiOS//os/hal/include/i2s.h"
 1295              		.file 43 "../../lib/e-puck2_main-processor/ChibiOS//os/hal/ports/STM32/LLD/SPIv1/i2s_lld.h"
 1296              		.file 44 "../../lib/e-puck2_main-processor/ChibiOS//os/hal/include/pwm.h"
 1297              		.file 45 "../../lib/e-puck2_main-processor/ChibiOS//os/hal/ports/STM32/LLD/TIMv1/pwm_lld.h"
 1298              		.file 46 "../../lib/e-puck2_main-processor/ChibiOS//os/hal/include/serial.h"
 1299              		.file 47 "../../lib/e-puck2_main-processor/ChibiOS//os/hal/ports/STM32/LLD/USARTv1/serial_lld.h"
 1300              		.file 48 "../../lib/e-puck2_main-processor/ChibiOS//os/hal/include/sdc.h"
 1301              		.file 49 "../../lib/e-puck2_main-processor/ChibiOS//os/hal/ports/STM32/LLD/sdc_lld.h"
 1302              		.file 50 "../../lib/e-puck2_main-processor/ChibiOS//os/hal/include/spi.h"
 1303              		.file 51 "../../lib/e-puck2_main-processor/ChibiOS//os/hal/ports/STM32/LLD/SPIv1/spi_lld.h"
 1304              		.file 52 "../../lib/e-puck2_main-processor/ChibiOS//os/hal/include/usb.h"
 1305              		.file 53 "../../lib/e-puck2_main-processor/ChibiOS//os/hal/ports/STM32/LLD/OTGv1/usb_lld.h"
 1306              		.file 54 "../../lib/e-puck2_main-processor/ChibiOS//os/hal/ports/STM32/LLD/OTGv1/stm32_otg.h"
 1307              		.file 55 "../../lib/e-puck2_main-processor/ChibiOS//os/hal/include/serial_usb.h"
 1308              		.file 56 "../../lib/e-puck2_main-processor/ChibiOS_ext/os/hal/include/../ports/STM32/STM32F4xx/dcm
 1309              		.file 57 "c:\\users\\osour\\desktop\\robotique\\eclipse_e-puck2\\tools\\gcc-arm-none-eabi-7-2017-q
 1310              		.file 58 "c:\\users\\osour\\desktop\\robotique\\eclipse_e-puck2\\tools\\gcc-arm-none-eabi-7-2017-q
 1311              		.file 59 "<built-in>"
 1312              		.file 60 "c:\\users\\osour\\desktop\\robotique\\eclipse_e-puck2\\tools\\gcc-arm-none-eabi-7-2017-q
 1313              		.file 61 "../../lib/e-puck2_main-processor/src/msgbus/messagebus.h"
 1314              		.file 62 "c:\\users\\osour\\desktop\\robotique\\eclipse_e-puck2\\tools\\gcc-arm-none-eabi-7-2017-q
 1315              		.file 63 "c:\\users\\osour\\desktop\\robotique\\eclipse_e-puck2\\tools\\gcc-arm-none-eabi-7-2017-q
 1316              		.file 64 "../../lib/e-puck2_main-processor/src/parameter/parameter.h"
 1317              		.file 65 "./main.h"
 1318              		.file 66 "../../lib/e-puck2_main-processor/src/usbcfg.h"
 1319              		.file 67 "c:\\users\\osour\\desktop\\robotique\\eclipse_e-puck2\\tools\\gcc-arm-none-eabi-7-2017-q
 1320              		.file 68 "c:\\users\\osour\\desktop\\robotique\\eclipse_e-puck2\\tools\\gcc-arm-none-eabi-7-2017-q
 1321              		.file 69 "../../lib/e-puck2_main-processor/src/motors.h"
 1322              		.file 70 "./fft.h"
 1323              		.file 71 "../../lib/e-puck2_main-processor/ChibiOS//os/ext/CMSIS/include/arm_math.h"