ARM GAS  C:\Users\osour\AppData\Local\Temp\cc7lFlhc.s 			page 1


   1              		.cpu cortex-m4
   2              		.eabi_attribute 27, 1
   3              		.eabi_attribute 28, 1
   4              		.eabi_attribute 20, 1
   5              		.eabi_attribute 21, 1
   6              		.eabi_attribute 23, 3
   7              		.eabi_attribute 24, 1
   8              		.eabi_attribute 25, 1
   9              		.eabi_attribute 26, 1
  10              		.eabi_attribute 30, 2
  11              		.eabi_attribute 34, 1
  12              		.eabi_attribute 18, 4
  13              		.file	"custom_microphone.c"
  14              		.text
  15              	.Ltext0:
  16              		.cfi_sections	.debug_frame
  17              		.section	.text.get_mic_volume,"ax",%progbits
  18              		.align	1
  19              		.p2align 4,,15
  20              		.global	get_mic_volume
  21              		.syntax unified
  22              		.thumb
  23              		.thumb_func
  24              		.fpu fpv4-sp-d16
  25              		.type	get_mic_volume, %function
  26              	get_mic_volume:
  27              	.LFB256:
  28              		.file 1 "../../lib/e-puck2_main-processor/src/audio/custom_microphone.c"
  29              		.loc 1 18 0
  30              		.cfi_startproc
  31              		@ args = 0, pretend = 0, frame = 8
  32              		@ frame_needed = 0, uses_anonymous_args = 0
  33 0000 00B5     		push	{lr}
  34              		.cfi_def_cfa_offset 4
  35              		.cfi_offset 14, -4
  36 0002 074B     		ldr	r3, .L6
  37              		.loc 1 19 0
  38 0004 0749     		ldr	r1, .L6+4
  39              		.loc 1 18 0
  40 0006 1A68     		ldr	r2, [r3]
  41              		.loc 1 20 0
  42 0008 0888     		ldrh	r0, [r1]
  43              		.loc 1 18 0
  44 000a 83B0     		sub	sp, sp, #12
  45              		.cfi_def_cfa_offset 16
  46              		.loc 1 18 0
  47 000c 0192     		str	r2, [sp, #4]
  48              		.loc 1 20 0
  49 000e 019A     		ldr	r2, [sp, #4]
  50 0010 1B68     		ldr	r3, [r3]
  51 0012 9A42     		cmp	r2, r3
  52 0014 02D1     		bne	.L5
  53 0016 03B0     		add	sp, sp, #12
  54              		.cfi_remember_state
  55              		.cfi_def_cfa_offset 4
  56              		@ sp needed
  57 0018 5DF804FB 		ldr	pc, [sp], #4
ARM GAS  C:\Users\osour\AppData\Local\Temp\cc7lFlhc.s 			page 2


  58              	.L5:
  59              		.cfi_restore_state
  60 001c FFF7FEFF 		bl	__stack_chk_fail
  61              	.LVL0:
  62              	.L7:
  63              		.align	2
  64              	.L6:
  65 0020 00000000 		.word	__stack_chk_guard
  66 0024 00000000 		.word	.LANCHOR0
  67              		.cfi_endproc
  68              	.LFE256:
  69              		.size	get_mic_volume, .-get_mic_volume
  70              		.section	.text.note_volume,"ax",%progbits
  71              		.align	1
  72              		.p2align 4,,15
  73              		.global	note_volume
  74              		.syntax unified
  75              		.thumb
  76              		.thumb_func
  77              		.fpu fpv4-sp-d16
  78              		.type	note_volume, %function
  79              	note_volume:
  80              	.LFB257:
  81              		.loc 1 22 0
  82              		.cfi_startproc
  83              		@ args = 0, pretend = 0, frame = 8
  84              		@ frame_needed = 0, uses_anonymous_args = 0
  85              	.LVL1:
  86 0000 70B5     		push	{r4, r5, r6, lr}
  87              		.cfi_def_cfa_offset 16
  88              		.cfi_offset 4, -16
  89              		.cfi_offset 5, -12
  90              		.cfi_offset 6, -8
  91              		.cfi_offset 14, -4
  92 0002 1C4E     		ldr	r6, .L20
  93 0004 82B0     		sub	sp, sp, #8
  94              		.cfi_def_cfa_offset 24
  95              		.loc 1 22 0
  96 0006 3368     		ldr	r3, [r6]
  97 0008 0193     		str	r3, [sp, #4]
  98              	.LVL2:
  99              	.LBB2:
 100              		.loc 1 27 0
 101 000a 49B3     		cbz	r1, .L9
 102              	.LBE2:
 103              		.loc 1 25 0
 104 000c 1A4A     		ldr	r2, .L20+4
 105              	.LBB3:
 106              		.loc 1 27 0
 107 000e 0023     		movs	r3, #0
 108              	.LBE3:
 109              		.loc 1 25 0
 110 0010 47F6FF75 		movw	r5, #32767
 111              	.LVL3:
 112              	.L10:
 113              	.LBB4:
 114              		.loc 1 28 0
ARM GAS  C:\Users\osour\AppData\Local\Temp\cc7lFlhc.s 			page 3


 115 0014 5C1C     		adds	r4, r3, #1
 116              		.loc 1 27 0
 117 0016 0233     		adds	r3, r3, #2
 118              	.LVL4:
 119              		.loc 1 28 0
 120 0018 30F91440 		ldrsh	r4, [r0, r4, lsl #1]
 121 001c A242     		cmp	r2, r4
 122              		.loc 1 27 0
 123 001e 9BB2     		uxth	r3, r3
 124 0020 B8BF     		it	lt
 125 0022 2246     		movlt	r2, r4
 126              	.LVL5:
 127 0024 A542     		cmp	r5, r4
 128 0026 A8BF     		it	ge
 129 0028 2546     		movge	r5, r4
 130              	.LVL6:
 131 002a 9942     		cmp	r1, r3
 132 002c F2D8     		bhi	.L10
 133              	.LBE4:
 134              		.loc 1 36 0
 135 002e 521B     		subs	r2, r2, r5
 136              	.LVL7:
 137 0030 92B2     		uxth	r2, r2
 138 0032 124B     		ldr	r3, .L20+8
 139              	.LVL8:
 140              		.loc 1 39 0
 141 0034 B2F57A7F 		cmp	r2, #1000
 142              		.loc 1 36 0
 143 0038 1A80     		strh	r2, [r3]	@ movhi
 144              		.loc 1 39 0
 145 003a 0BD9     		bls	.L11
 146              		.loc 1 40 0
 147 003c 104B     		ldr	r3, .L20+12
 148 003e 1878     		ldrb	r0, [r3]	@ zero_extendqisi2
 149              	.LVL9:
 150 0040 28B1     		cbz	r0, .L18
 151              	.LVL10:
 152              	.L12:
 153              		.loc 1 48 0
 154 0042 019A     		ldr	r2, [sp, #4]
 155 0044 3368     		ldr	r3, [r6]
 156 0046 9A42     		cmp	r2, r3
 157 0048 11D1     		bne	.L19
 158 004a 02B0     		add	sp, sp, #8
 159              		.cfi_remember_state
 160              		.cfi_def_cfa_offset 16
 161              		@ sp needed
 162 004c 70BD     		pop	{r4, r5, r6, pc}
 163              	.LVL11:
 164              	.L18:
 165              		.cfi_restore_state
 166              		.loc 1 41 0
 167 004e 0120     		movs	r0, #1
 168 0050 1870     		strb	r0, [r3]
 169 0052 F6E7     		b	.L12
 170              	.LVL12:
 171              	.L11:
ARM GAS  C:\Users\osour\AppData\Local\Temp\cc7lFlhc.s 			page 4


 172              		.loc 1 43 0
 173 0054 B2F52F7F 		cmp	r2, #700
 174 0058 05D3     		bcc	.L13
 175 005a 094B     		ldr	r3, .L20+12
 176 005c 1878     		ldrb	r0, [r3]	@ zero_extendqisi2
 177              	.LVL13:
 178 005e F0E7     		b	.L12
 179              	.LVL14:
 180              	.L9:
 181              		.loc 1 36 0
 182 0060 064B     		ldr	r3, .L20+8
 183 0062 0122     		movs	r2, #1
 184 0064 1A80     		strh	r2, [r3]	@ movhi
 185              	.LVL15:
 186              	.L13:
 187              		.loc 1 44 0
 188 0066 064B     		ldr	r3, .L20+12
 189 0068 0020     		movs	r0, #0
 190              	.LVL16:
 191 006a 1870     		strb	r0, [r3]
 192 006c E9E7     		b	.L12
 193              	.L19:
 194              		.loc 1 48 0
 195 006e FFF7FEFF 		bl	__stack_chk_fail
 196              	.LVL17:
 197              	.L21:
 198 0072 00BF     		.align	2
 199              	.L20:
 200 0074 00000000 		.word	__stack_chk_guard
 201 0078 0080FFFF 		.word	-32768
 202 007c 00000000 		.word	.LANCHOR0
 203 0080 00000000 		.word	.LANCHOR1
 204              		.cfi_endproc
 205              	.LFE257:
 206              		.size	note_volume, .-note_volume
 207              		.section	.text.mic_start,"ax",%progbits
 208              		.align	1
 209              		.p2align 4,,15
 210              		.global	mic_start
 211              		.syntax unified
 212              		.thumb
 213              		.thumb_func
 214              		.fpu fpv4-sp-d16
 215              		.type	mic_start, %function
 216              	mic_start:
 217              	.LFB258:
 218              		.loc 1 49 0
 219              		.cfi_startproc
 220              		@ args = 0, pretend = 0, frame = 8
 221              		@ frame_needed = 0, uses_anonymous_args = 0
 222              	.LVL18:
 223 0000 70B5     		push	{r4, r5, r6, lr}
 224              		.cfi_def_cfa_offset 16
 225              		.cfi_offset 4, -16
 226              		.cfi_offset 5, -12
 227              		.cfi_offset 6, -8
 228              		.cfi_offset 14, -4
ARM GAS  C:\Users\osour\AppData\Local\Temp\cc7lFlhc.s 			page 5


 229              		.loc 1 51 0
 230 0002 3E4B     		ldr	r3, .L33
 231              		.loc 1 49 0
 232 0004 3E4C     		ldr	r4, .L33+4
 233              		.loc 1 51 0
 234 0006 1A78     		ldrb	r2, [r3]	@ zero_extendqisi2
 235              		.loc 1 49 0
 236 0008 2368     		ldr	r3, [r4]
 237 000a 82B0     		sub	sp, sp, #8
 238              		.cfi_def_cfa_offset 24
 239              		.loc 1 51 0
 240 000c 012A     		cmp	r2, #1
 241              		.loc 1 49 0
 242 000e 0193     		str	r3, [sp, #4]
 243              		.loc 1 51 0
 244 0010 05D0     		beq	.L31
 245              	.LVL19:
 246              	.L22:
 247              		.loc 1 108 0
 248 0012 019A     		ldr	r2, [sp, #4]
 249 0014 2368     		ldr	r3, [r4]
 250 0016 9A42     		cmp	r2, r3
 251 0018 6ED1     		bne	.L32
 252 001a 02B0     		add	sp, sp, #8
 253              		.cfi_remember_state
 254              		.cfi_def_cfa_offset 16
 255              		@ sp needed
 256 001c 70BD     		pop	{r4, r5, r6, pc}
 257              	.LVL20:
 258              	.L31:
 259              		.cfi_restore_state
 260              		.loc 1 61 0
 261 001e 394D     		ldr	r5, .L33+8
 262              		.loc 1 64 0
 263 0020 394B     		ldr	r3, .L33+12
 264              		.loc 1 61 0
 265 0022 696C     		ldr	r1, [r5, #68]
 266 0024 41F48031 		orr	r1, r1, #65536
 267 0028 6964     		str	r1, [r5, #68]
 268              		.loc 1 62 0
 269 002a 6E6A     		ldr	r6, [r5, #36]
 270 002c 0021     		movs	r1, #0
 271 002e 46F48036 		orr	r6, r6, #65536
 272 0032 6E62     		str	r6, [r5, #36]
 273 0034 6962     		str	r1, [r5, #36]
 274              		.loc 1 64 0
 275 0036 1961     		str	r1, [r3, #16]
 276              		.loc 1 65 0
 277 0038 D960     		str	r1, [r3, #12]
 278              		.loc 1 68 0
 279 003a 1D6A     		ldr	r5, [r3, #32]
 280 003c 25F00105 		bic	r5, r5, #1
 281 0040 1D62     		str	r5, [r3, #32]
 282              		.loc 1 69 0
 283 0042 9D69     		ldr	r5, [r3, #24]
 284 0044 25F00305 		bic	r5, r5, #3
 285 0048 9D61     		str	r5, [r3, #24]
ARM GAS  C:\Users\osour\AppData\Local\Temp\cc7lFlhc.s 			page 6


 286              		.loc 1 70 0
 287 004a 9D69     		ldr	r5, [r3, #24]
 288 004c 45F00105 		orr	r5, r5, #1
 289 0050 9D61     		str	r5, [r3, #24]
 290              		.loc 1 71 0
 291 0052 9D69     		ldr	r5, [r3, #24]
 292 0054 25F0F005 		bic	r5, r5, #240
 293 0058 9D61     		str	r5, [r3, #24]
 294              		.loc 1 72 0
 295 005a 1D6A     		ldr	r5, [r3, #32]
 296 005c 25F00A05 		bic	r5, r5, #10
 297 0060 1D62     		str	r5, [r3, #32]
 298              		.loc 1 73 0
 299 0062 9D69     		ldr	r5, [r3, #24]
 300 0064 25F00C05 		bic	r5, r5, #12
 301 0068 9D61     		str	r5, [r3, #24]
 302              		.loc 1 76 0
 303 006a 9D68     		ldr	r5, [r3, #8]
 304 006c 25F07005 		bic	r5, r5, #112
 305 0070 9D60     		str	r5, [r3, #8]
 306              		.loc 1 77 0
 307 0072 9D68     		ldr	r5, [r3, #8]
 308 0074 45F05005 		orr	r5, r5, #80
 309 0078 9D60     		str	r5, [r3, #8]
 310              		.loc 1 78 0
 311 007a 9D68     		ldr	r5, [r3, #8]
 312 007c 25F48035 		bic	r5, r5, #65536
 313 0080 25F00705 		bic	r5, r5, #7
 314 0084 9D60     		str	r5, [r3, #8]
 315              		.loc 1 79 0
 316 0086 9D68     		ldr	r5, [r3, #8]
 317 0088 45F00705 		orr	r5, r5, #7
 318 008c 9D60     		str	r5, [r3, #8]
 319              		.loc 1 82 0
 320 008e 1D68     		ldr	r5, [r3]
 321 0090 25F44075 		bic	r5, r5, #768
 322 0094 1D60     		str	r5, [r3]
 323              		.loc 1 83 0
 324 0096 DA62     		str	r2, [r3, #44]
 325              		.loc 1 84 0
 326 0098 9962     		str	r1, [r3, #40]
 327              		.loc 1 85 0
 328 009a 5A61     		str	r2, [r3, #20]
 329              		.loc 1 86 0
 330 009c 1D6A     		ldr	r5, [r3, #32]
 331 009e 25F01005 		bic	r5, r5, #16
 332 00a2 1D62     		str	r5, [r3, #32]
 333              		.loc 1 87 0
 334 00a4 9D69     		ldr	r5, [r3, #24]
 335 00a6 25F44075 		bic	r5, r5, #768
 336 00aa 9D61     		str	r5, [r3, #24]
 337              		.loc 1 88 0
 338 00ac 9D69     		ldr	r5, [r3, #24]
 339 00ae 25F08075 		bic	r5, r5, #16777216
 340 00b2 25F4E045 		bic	r5, r5, #28672
 341 00b6 9D61     		str	r5, [r3, #24]
 342              		.loc 1 89 0
ARM GAS  C:\Users\osour\AppData\Local\Temp\cc7lFlhc.s 			page 7


 343 00b8 9D69     		ldr	r5, [r3, #24]
 344 00ba 45F4C045 		orr	r5, r5, #24576
 345 00be 9D61     		str	r5, [r3, #24]
 346              		.loc 1 90 0
 347 00c0 1D6A     		ldr	r5, [r3, #32]
 348 00c2 25F0A005 		bic	r5, r5, #160
 349 00c6 1D62     		str	r5, [r3, #32]
 350              		.loc 1 91 0
 351 00c8 9A63     		str	r2, [r3, #56]
 352              		.loc 1 92 0
 353 00ca 9A69     		ldr	r2, [r3, #24]
 354 00cc 42F40062 		orr	r2, r2, #2048
 355 00d0 9A61     		str	r2, [r3, #24]
 356              		.loc 1 93 0
 357 00d2 1A6A     		ldr	r2, [r3, #32]
 358 00d4 22F48062 		bic	r2, r2, #1024
 359 00d8 1A62     		str	r2, [r3, #32]
 360              		.loc 1 96 0
 361 00da 1A6A     		ldr	r2, [r3, #32]
 362 00dc 42F01102 		orr	r2, r2, #17
 363 00e0 1A62     		str	r2, [r3, #32]
 364              		.loc 1 97 0
 365 00e2 1A68     		ldr	r2, [r3]
 366 00e4 42F00102 		orr	r2, r2, #1
 367 00e8 1A60     		str	r2, [r3]
 368              		.loc 1 103 0
 369 00ea 0091     		str	r1, [sp]
 370              		.loc 1 104 0
 371 00ec 00B1     		cbz	r0, .L24
 372              		.loc 1 105 0
 373 00ee 0090     		str	r0, [sp]
 374              	.L24:
 375              		.loc 1 106 0
 376 00f0 6846     		mov	r0, sp
 377              	.LVL21:
 378 00f2 FFF7FEFF 		bl	mp45dt02Init
 379              	.LVL22:
 380 00f6 8CE7     		b	.L22
 381              	.L32:
 382              		.loc 1 108 0
 383 00f8 FFF7FEFF 		bl	__stack_chk_fail
 384              	.LVL23:
 385              	.L34:
 386              		.align	2
 387              	.L33:
 388 00fc 00000000 		.word	I2SD2
 389 0100 00000000 		.word	__stack_chk_guard
 390 0104 00380240 		.word	1073887232
 391 0108 00400140 		.word	1073823744
 392              		.cfi_endproc
 393              	.LFE258:
 394              		.size	mic_start, .-mic_start
 395              		.section	.bss.mic_volume,"aw",%nobits
 396              		.align	1
 397              		.set	.LANCHOR0,. + 0
 398              		.type	mic_volume, %object
 399              		.size	mic_volume, 2
ARM GAS  C:\Users\osour\AppData\Local\Temp\cc7lFlhc.s 			page 8


 400              	mic_volume:
 401 0000 0000     		.space	2
 402              		.section	.bss.state.10267,"aw",%nobits
 403              		.set	.LANCHOR1,. + 0
 404              		.type	state.10267, %object
 405              		.size	state.10267, 1
 406              	state.10267:
 407 0000 00       		.space	1
 408              		.text
 409              	.Letext0:
 410              		.file 2 "c:\\users\\osour\\desktop\\robotique\\eclipse_e-puck2\\tools\\gcc-arm-none-eabi-7-2017-q4
 411              		.file 3 "c:\\users\\osour\\desktop\\robotique\\eclipse_e-puck2\\tools\\gcc-arm-none-eabi-7-2017-q4
 412              		.file 4 "c:\\users\\osour\\desktop\\robotique\\eclipse_e-puck2\\tools\\gcc-arm-none-eabi-7-2017-q4
 413              		.file 5 "c:\\users\\osour\\desktop\\robotique\\eclipse_e-puck2\\tools\\gcc-arm-none-eabi-7-2017-q4
 414              		.file 6 "c:\\users\\osour\\desktop\\robotique\\eclipse_e-puck2\\tools\\gcc-arm-none-eabi-7-2017-q4
 415              		.file 7 "c:\\users\\osour\\desktop\\robotique\\eclipse_e-puck2\\tools\\gcc-arm-none-eabi-7-2017-q4
 416              		.file 8 "../../lib/e-puck2_main-processor/ChibiOS//os/rt/ports/ARMCMx/compilers/GCC/chtypes.h"
 417              		.file 9 "../../lib/e-puck2_main-processor/ChibiOS//os/rt/include/chsystypes.h"
 418              		.file 10 "../../lib/e-puck2_main-processor/ChibiOS//os/rt/include/chschd.h"
 419              		.file 11 "../../lib/e-puck2_main-processor/ChibiOS//os/ext/CMSIS/include/core_cm4.h"
 420              		.file 12 "../../lib/e-puck2_main-processor/ChibiOS//os/ext/CMSIS/ST/system_stm32f4xx.h"
 421              		.file 13 "../../lib/e-puck2_main-processor/ChibiOS//os/ext/CMSIS/ST/stm32f407xx.h"
 422              		.file 14 "../../lib/e-puck2_main-processor/ChibiOS//os/rt/ports/ARMCMx/chcore.h"
 423              		.file 15 "../../lib/e-puck2_main-processor/ChibiOS//os/rt/ports/ARMCMx/chcore_v7m.h"
 424              		.file 16 "../../lib/e-puck2_main-processor/ChibiOS//os/rt/include/chdebug.h"
 425              		.file 17 "../../lib/e-puck2_main-processor/ChibiOS//os/rt/include/chtm.h"
 426              		.file 18 "../../lib/e-puck2_main-processor/ChibiOS//os/rt/include/chstats.h"
 427              		.file 19 "../../lib/e-puck2_main-processor/ChibiOS//os/rt/include/chsem.h"
 428              		.file 20 "../../lib/e-puck2_main-processor/ChibiOS//os/rt/include/chmtx.h"
 429              		.file 21 "../../lib/e-puck2_main-processor/ChibiOS//os/rt/include/chregistry.h"
 430              		.file 22 "../../lib/e-puck2_main-processor/ChibiOS//os/rt/include/chevents.h"
 431              		.file 23 "../../lib/e-puck2_main-processor/ChibiOS//os/rt/include/chqueues.h"
 432              		.file 24 "../../lib/e-puck2_main-processor/ChibiOS//os/hal/ports/STM32/STM32F4xx/stm32_dma.h"
 433              		.file 25 "../../lib/e-puck2_main-processor/ChibiOS//os/hal/include/hal_ioblock.h"
 434              		.file 26 "../../lib/e-puck2_main-processor/ChibiOS//os/hal/ports/STM32/LLD/GPIOv2/pal_lld.h"
 435              		.file 27 "../../lib/e-puck2_main-processor/ChibiOS//os/hal/include/adc.h"
 436              		.file 28 "../../lib/e-puck2_main-processor/ChibiOS//os/hal/ports/STM32/STM32F4xx/adc_lld.h"
 437              		.file 29 "../../lib/e-puck2_main-processor/ChibiOS//os/hal/include/can.h"
 438              		.file 30 "../../lib/e-puck2_main-processor/ChibiOS//os/hal/ports/STM32/LLD/can_lld.h"
 439              		.file 31 "../../lib/e-puck2_main-processor/ChibiOS//os/hal/include/dac.h"
 440              		.file 32 "../../lib/e-puck2_main-processor/ChibiOS//os/hal/ports/STM32/LLD/DACv1/dac_lld.h"
 441              		.file 33 "../../lib/e-puck2_main-processor/ChibiOS//os/hal/include/ext.h"
 442              		.file 34 "../../lib/e-puck2_main-processor/ChibiOS//os/hal/ports/STM32/LLD/ext_lld.h"
 443              		.file 35 "../../lib/e-puck2_main-processor/ChibiOS//os/hal/include/gpt.h"
 444              		.file 36 "../../lib/e-puck2_main-processor/ChibiOS//os/hal/ports/STM32/LLD/TIMv1/gpt_lld.h"
 445              		.file 37 "../../lib/e-puck2_main-processor/ChibiOS//os/hal/ports/STM32/LLD/TIMv1/stm32_tim.h"
 446              		.file 38 "../../lib/e-puck2_main-processor/ChibiOS//os/hal/include/i2c.h"
 447              		.file 39 "../../lib/e-puck2_main-processor/ChibiOS//os/hal/ports/STM32/LLD/I2Cv1/i2c_lld.h"
 448              		.file 40 "../../lib/e-puck2_main-processor/ChibiOS//os/hal/include/i2s.h"
 449              		.file 41 "../../lib/e-puck2_main-processor/ChibiOS//os/hal/ports/STM32/LLD/SPIv1/i2s_lld.h"
 450              		.file 42 "../../lib/e-puck2_main-processor/ChibiOS//os/hal/include/pwm.h"
 451              		.file 43 "../../lib/e-puck2_main-processor/ChibiOS//os/hal/ports/STM32/LLD/TIMv1/pwm_lld.h"
 452              		.file 44 "../../lib/e-puck2_main-processor/ChibiOS//os/hal/include/serial.h"
 453              		.file 45 "../../lib/e-puck2_main-processor/ChibiOS//os/hal/ports/STM32/LLD/USARTv1/serial_lld.h"
 454              		.file 46 "../../lib/e-puck2_main-processor/ChibiOS//os/hal/include/sdc.h"
 455              		.file 47 "../../lib/e-puck2_main-processor/ChibiOS//os/hal/ports/STM32/LLD/sdc_lld.h"
 456              		.file 48 "../../lib/e-puck2_main-processor/ChibiOS//os/hal/include/spi.h"
ARM GAS  C:\Users\osour\AppData\Local\Temp\cc7lFlhc.s 			page 9


 457              		.file 49 "../../lib/e-puck2_main-processor/ChibiOS//os/hal/ports/STM32/LLD/SPIv1/spi_lld.h"
 458              		.file 50 "../../lib/e-puck2_main-processor/ChibiOS//os/hal/include/usb.h"
 459              		.file 51 "../../lib/e-puck2_main-processor/ChibiOS//os/hal/ports/STM32/LLD/OTGv1/usb_lld.h"
 460              		.file 52 "../../lib/e-puck2_main-processor/ChibiOS//os/hal/ports/STM32/LLD/OTGv1/stm32_otg.h"
 461              		.file 53 "../../lib/e-puck2_main-processor/src/audio/custom_mp45dt02_processing.h"