ARM GAS  C:\Users\osour\AppData\Local\Temp\cc57WNOX.s 			page 1


   1              		.cpu cortex-m4
   2              		.eabi_attribute 27, 1
   3              		.eabi_attribute 28, 1
   4              		.eabi_attribute 20, 1
   5              		.eabi_attribute 21, 1
   6              		.eabi_attribute 23, 3
   7              		.eabi_attribute 24, 1
   8              		.eabi_attribute 25, 1
   9              		.eabi_attribute 26, 1
  10              		.eabi_attribute 30, 2
  11              		.eabi_attribute 34, 1
  12              		.eabi_attribute 18, 4
  13              		.file	"custom_mp45dt02_processing.c"
  14              		.text
  15              	.Ltext0:
  16              		.cfi_sections	.debug_frame
  17              		.section	.text.mp45dt02I2SCb,"ax",%progbits
  18              		.align	1
  19              		.p2align 4,,15
  20              		.syntax unified
  21              		.thumb
  22              		.thumb_func
  23              		.fpu fpv4-sp-d16
  24              		.type	mp45dt02I2SCb, %function
  25              	mp45dt02I2SCb:
  26              	.LFB258:
  27              		.file 1 "../../lib/e-puck2_main-processor/src/audio/custom_mp45dt02_processing.c"
  28              		.loc 1 215 0
  29              		.cfi_startproc
  30              		@ args = 0, pretend = 0, frame = 8
  31              		@ frame_needed = 0, uses_anonymous_args = 0
  32              	.LVL0:
  33 0000 70B5     		push	{r4, r5, r6, lr}
  34              		.cfi_def_cfa_offset 16
  35              		.cfi_offset 4, -16
  36              		.cfi_offset 5, -12
  37              		.cfi_offset 6, -8
  38              		.cfi_offset 14, -4
  39 0002 114C     		ldr	r4, .L6
  40 0004 82B0     		sub	sp, sp, #8
  41              		.cfi_def_cfa_offset 24
  42              		.loc 1 215 0
  43 0006 2368     		ldr	r3, [r4]
  44 0008 0193     		str	r3, [sp, #4]
  45              	.LVL1:
  46 000a 0E46     		mov	r6, r1
  47 000c 1546     		mov	r5, r2
  48              	.LBB48:
  49              	.LBB49:
  50              	.LBB50:
  51              	.LBB51:
  52              	.LBB52:
  53              	.LBB53:
  54              		.file 2 "../../lib/e-puck2_main-processor/ChibiOS//os/ext/CMSIS/include/core_cmFunc.h"
  55              		.loc 2 546 0
  56 000e 2023     		movs	r3, #32
  57              		.syntax unified
ARM GAS  C:\Users\osour\AppData\Local\Temp\cc57WNOX.s 			page 2


  58              	@ 546 "../../lib/e-puck2_main-processor/ChibiOS//os/ext/CMSIS/include/core_cmFunc.h" 1
  59 0010 83F31188 		MSR basepri, r3
  60              	@ 0 "" 2
  61              	.LVL2:
  62              		.thumb
  63              		.syntax unified
  64              	.LBE53:
  65              	.LBE52:
  66              	.LBE51:
  67              	.LBE50:
  68              		.file 3 "../../lib/e-puck2_main-processor/ChibiOS//os/rt/include/chsys.h"
  69              		.loc 3 389 0
  70 0014 FFF7FEFF 		bl	_stats_start_measure_crit_isr
  71              	.LVL3:
  72              		.loc 3 390 0
  73 0018 FFF7FEFF 		bl	_dbg_check_lock_from_isr
  74              	.LVL4:
  75              	.LBE49:
  76              	.LBE48:
  77              		.loc 1 218 0
  78 001c 0B4B     		ldr	r3, .L6+4
  79              		.loc 1 220 0
  80 001e 0C48     		ldr	r0, .L6+8
  81              		.loc 1 219 0
  82 0020 C3E90065 		strd	r6, r5, [r3]
  83              		.loc 1 220 0
  84 0024 FFF7FEFF 		bl	chSemSignalI
  85              	.LVL5:
  86              	.LBB54:
  87              	.LBB55:
  88              		.loc 3 408 0
  89 0028 FFF7FEFF 		bl	_dbg_check_unlock_from_isr
  90              	.LVL6:
  91              		.loc 3 409 0
  92 002c FFF7FEFF 		bl	_stats_stop_measure_crit_isr
  93              	.LVL7:
  94              	.LBB56:
  95              	.LBB57:
  96              	.LBB58:
  97              	.LBB59:
  98              		.loc 2 546 0
  99 0030 0023     		movs	r3, #0
 100              		.syntax unified
 101              	@ 546 "../../lib/e-puck2_main-processor/ChibiOS//os/ext/CMSIS/include/core_cmFunc.h" 1
 102 0032 83F31188 		MSR basepri, r3
 103              	@ 0 "" 2
 104              	.LVL8:
 105              		.thumb
 106              		.syntax unified
 107              	.LBE59:
 108              	.LBE58:
 109              	.LBE57:
 110              	.LBE56:
 111              	.LBE55:
 112              	.LBE54:
 113              		.loc 1 222 0
 114 0036 019A     		ldr	r2, [sp, #4]
ARM GAS  C:\Users\osour\AppData\Local\Temp\cc57WNOX.s 			page 3


 115 0038 2368     		ldr	r3, [r4]
 116 003a 9A42     		cmp	r2, r3
 117 003c 01D1     		bne	.L5
 118 003e 02B0     		add	sp, sp, #8
 119              		.cfi_remember_state
 120              		.cfi_def_cfa_offset 16
 121              		@ sp needed
 122 0040 70BD     		pop	{r4, r5, r6, pc}
 123              	.LVL9:
 124              	.L5:
 125              		.cfi_restore_state
 126 0042 FFF7FEFF 		bl	__stack_chk_fail
 127              	.LVL10:
 128              	.L7:
 129 0046 00BF     		.align	2
 130              	.L6:
 131 0048 00000000 		.word	__stack_chk_guard
 132 004c 00000000 		.word	.LANCHOR0
 133 0050 00000000 		.word	.LANCHOR1
 134              		.cfi_endproc
 135              	.LFE258:
 136              		.size	mp45dt02I2SCb, .-mp45dt02I2SCb
 137              		.section	.text.DataProcessing,"ax",%progbits
 138              		.align	1
 139              		.p2align 4,,15
 140              		.syntax unified
 141              		.thumb
 142              		.thumb_func
 143              		.fpu fpv4-sp-d16
 144              		.type	DataProcessing, %function
 145              	DataProcessing:
 146              	.LFB257:
 147              		.loc 1 149 0
 148              		.cfi_startproc
 149              		@ args = 0, pretend = 0, frame = 8
 150              		@ frame_needed = 0, uses_anonymous_args = 0
 151              	.LVL11:
 152 0000 2DE9F047 		push	{r4, r5, r6, r7, r8, r9, r10, lr}
 153              		.cfi_def_cfa_offset 32
 154              		.cfi_offset 4, -32
 155              		.cfi_offset 5, -28
 156              		.cfi_offset 6, -24
 157              		.cfi_offset 7, -20
 158              		.cfi_offset 8, -16
 159              		.cfi_offset 9, -12
 160              		.cfi_offset 10, -8
 161              		.cfi_offset 14, -4
 162              	.LBB60:
 163              	.LBB61:
 164              		.file 4 "../../lib/e-puck2_main-processor/ChibiOS//os/rt/include/chregistry.h"
 165              		.loc 4 135 0
 166 0004 474F     		ldr	r7, .L27
 167              	.LBE61:
 168              	.LBE60:
 169              		.loc 1 149 0
 170 0006 DFF85891 		ldr	r9, .L27+60
 171              	.LBB64:
ARM GAS  C:\Users\osour\AppData\Local\Temp\cc57WNOX.s 			page 4


 172              	.LBB62:
 173              		.loc 4 135 0
 174 000a BA69     		ldr	r2, [r7, #24]
 175 000c 4649     		ldr	r1, .L27+4
 176              	.LBE62:
 177              	.LBE64:
 178              		.loc 1 149 0
 179 000e D9F80030 		ldr	r3, [r9]
 180              		.loc 1 162 0
 181 0012 DFF85081 		ldr	r8, .L27+64
 182              		.loc 1 170 0
 183 0016 454E     		ldr	r6, .L27+8
 184 0018 454C     		ldr	r4, .L27+12
 185              	.LBB65:
 186              	.LBB63:
 187              		.loc 4 135 0
 188 001a 9161     		str	r1, [r2, #24]
 189              	.LBE63:
 190              	.LBE65:
 191              		.loc 1 149 0
 192 001c 82B0     		sub	sp, sp, #8
 193              		.cfi_def_cfa_offset 40
 194              		.loc 1 149 0
 195 001e 0193     		str	r3, [sp, #4]
 196              	.LVL12:
 197              	.L9:
 198              	.LBB66:
 199              	.LBB67:
 200              		.file 5 "../../lib/e-puck2_main-processor/ChibiOS//os/rt/include/chthreads.h"
 201              		.loc 5 233 0
 202 0020 BB69     		ldr	r3, [r7, #24]
 203              	.LBE67:
 204              	.LBE66:
 205              		.loc 1 158 0
 206 0022 93F82130 		ldrb	r3, [r3, #33]	@ zero_extendqisi2
 207 0026 5B07     		lsls	r3, r3, #29
 208 0028 6DD4     		bmi	.L8
 209              	.L17:
 210              		.loc 1 162 0
 211 002a 4046     		mov	r0, r8
 212 002c FFF7FEFF 		bl	chSemWait
 213              	.LVL13:
 214              	.LBB69:
 215              	.LBB70:
 216              		.loc 5 233 0
 217 0030 BB69     		ldr	r3, [r7, #24]
 218              	.LBE70:
 219              	.LBE69:
 220              		.loc 1 163 0
 221 0032 93F82130 		ldrb	r3, [r3, #33]	@ zero_extendqisi2
 222 0036 5A07     		lsls	r2, r3, #29
 223 0038 65D4     		bmi	.L8
 224              		.loc 1 177 0
 225 003a D6E90035 		ldrd	r3, r5, [r6]
 226              		.loc 1 170 0
 227 003e 06EB8303 		add	r3, r6, r3, lsl #2
 228              		.loc 1 177 0
ARM GAS  C:\Users\osour\AppData\Local\Temp\cc57WNOX.s 			page 5


 229 0042 6A00     		lsls	r2, r5, #1
 230              		.loc 1 170 0
 231 0044 03F10803 		add	r3, r3, #8
 232              	.LVL14:
 233              		.loc 1 177 0
 234 0048 22D0     		beq	.L11
 235 004a 3A48     		ldr	r0, .L27+16
 236 004c 03EB8505 		add	r5, r3, r5, lsl #2
 237              	.LVL15:
 238              	.L12:
 239              		.loc 1 178 0 discriminator 3
 240 0050 1978     		ldrb	r1, [r3]	@ zero_extendqisi2
 241              	.LVL16:
 242              		.loc 1 179 0 discriminator 3
 243 0052 5A78     		ldrb	r2, [r3, #1]	@ zero_extendqisi2
 244              	.LVL17:
 245              		.loc 1 181 0 discriminator 3
 246 0054 4FEA510C 		lsr	ip, r1, #1
 247 0058 4FEA520A 		lsr	r10, r2, #1
 248 005c 0CF0550C 		and	ip, ip, #85
 249              		.loc 1 180 0 discriminator 3
 250 0060 01F05501 		and	r1, r1, #85
 251              	.LVL18:
 252              		.loc 1 181 0 discriminator 3
 253 0064 0AF0550A 		and	r10, r10, #85
 254              		.loc 1 180 0 discriminator 3
 255 0068 02F05502 		and	r2, r2, #85
 256              	.LVL19:
 257              		.loc 1 181 0 discriminator 3
 258 006c 14F80CE0 		ldrb	lr, [r4, ip]	@ zero_extendqisi2
 259              		.loc 1 180 0 discriminator 3
 260 0070 A25C     		ldrb	r2, [r4, r2]	@ zero_extendqisi2
 261 0072 14F801C0 		ldrb	ip, [r4, r1]	@ zero_extendqisi2
 262              		.loc 1 181 0 discriminator 3
 263 0076 14F80A10 		ldrb	r1, [r4, r10]	@ zero_extendqisi2
 264 007a 0233     		adds	r3, r3, #2
 265              	.LVL20:
 266 007c 4EEA0111 		orr	r1, lr, r1, lsl #4
 267              		.loc 1 180 0 discriminator 3
 268 0080 4CEA0212 		orr	r2, ip, r2, lsl #4
 269              		.loc 1 177 0 discriminator 3
 270 0084 9D42     		cmp	r5, r3
 271              		.loc 1 181 0 discriminator 3
 272 0086 4170     		strb	r1, [r0, #1]
 273              		.loc 1 180 0 discriminator 3
 274 0088 0270     		strb	r2, [r0]
 275 008a 00F10200 		add	r0, r0, #2
 276              		.loc 1 177 0 discriminator 3
 277 008e DFD1     		bne	.L12
 278              	.LVL21:
 279              	.L11:
 280              		.loc 1 187 0
 281 0090 294B     		ldr	r3, .L27+20
 282 0092 2A49     		ldr	r1, .L27+24
 283 0094 2748     		ldr	r0, .L27+16
 284              		.loc 1 192 0
 285 0096 2A4D     		ldr	r5, .L27+28
ARM GAS  C:\Users\osour\AppData\Local\Temp\cc57WNOX.s 			page 6


 286              		.loc 1 187 0
 287 0098 0422     		movs	r2, #4
 288 009a FFF7FEFF 		bl	PDM_Filter_64_LSB
 289              	.LVL22:
 290 009e 294B     		ldr	r3, .L27+32
 291 00a0 2949     		ldr	r1, .L27+36
 292 00a2 2A48     		ldr	r0, .L27+40
 293 00a4 0422     		movs	r2, #4
 294 00a6 FFF7FEFF 		bl	PDM_Filter_64_LSB
 295              	.LVL23:
 296              		.loc 1 192 0
 297 00aa DFF8BCC0 		ldr	ip, .L27+68
 298 00ae 2868     		ldr	r0, [r5]
 299 00b0 9CF800E0 		ldrb	lr, [ip]	@ zero_extendqisi2
 300 00b4 214B     		ldr	r3, .L27+24
 301 00b6 00EBCE12 		add	r2, r0, lr, lsl #7
 302 00ba 0232     		adds	r2, r2, #2
 303 00bc 03F1400A 		add	r10, r3, #64
 304              	.LVL24:
 305              	.L13:
 306              		.loc 1 192 0 is_stmt 0 discriminator 3
 307 00c0 1988     		ldrh	r1, [r3]
 308 00c2 22F8021C 		strh	r1, [r2, #-2]	@ movhi
 309              		.loc 1 193 0 is_stmt 1 discriminator 3
 310 00c6 5988     		ldrh	r1, [r3, #2]
 311 00c8 22F8081B 		strh	r1, [r2], #8	@ movhi
 312 00cc 0433     		adds	r3, r3, #4
 313              		.loc 1 191 0 discriminator 3
 314 00ce 9A45     		cmp	r10, r3
 315 00d0 F6D1     		bne	.L13
 316              		.loc 1 196 0
 317 00d2 BEF1090F 		cmp	lr, #9
 318 00d6 1ED1     		bne	.L14
 319              		.loc 1 199 0
 320 00d8 1D4B     		ldr	r3, .L27+44
 321              		.loc 1 197 0
 322 00da 0022     		movs	r2, #0
 323              		.loc 1 199 0
 324 00dc 1B68     		ldr	r3, [r3]
 325              		.loc 1 197 0
 326 00de 8CF80020 		strb	r2, [ip]
 327              		.loc 1 199 0
 328 00e2 4FF42071 		mov	r1, #640
 329 00e6 9847     		blx	r3
 330              	.LVL25:
 331              		.loc 1 201 0
 332 00e8 2B68     		ldr	r3, [r5]
 333              		.loc 1 202 0
 334 00ea 1A4A     		ldr	r2, .L27+48
 335              		.loc 1 201 0
 336 00ec 1A49     		ldr	r1, .L27+52
 337              		.loc 1 202 0
 338 00ee 9342     		cmp	r3, r2
 339              		.loc 1 201 0
 340 00f0 0B60     		str	r3, [r1]
 341              		.loc 1 203 0
 342 00f2 04BF     		itt	eq
ARM GAS  C:\Users\osour\AppData\Local\Temp\cc57WNOX.s 			page 7


 343 00f4 194B     		ldreq	r3, .L27+56
 344 00f6 2B60     		streq	r3, [r5]
 345              	.LBB71:
 346              	.LBB68:
 347              		.loc 5 233 0
 348 00f8 BB69     		ldr	r3, [r7, #24]
 349              	.LBE68:
 350              	.LBE71:
 351              		.loc 1 205 0
 352 00fa 18BF     		it	ne
 353 00fc 2A60     		strne	r2, [r5]
 354              		.loc 1 158 0
 355 00fe 93F82130 		ldrb	r3, [r3, #33]	@ zero_extendqisi2
 356 0102 5B07     		lsls	r3, r3, #29
 357 0104 91D5     		bpl	.L17
 358              	.L8:
 359              		.loc 1 211 0
 360 0106 019A     		ldr	r2, [sp, #4]
 361 0108 D9F80030 		ldr	r3, [r9]
 362 010c 9A42     		cmp	r2, r3
 363 010e 07D1     		bne	.L26
 364 0110 02B0     		add	sp, sp, #8
 365              		.cfi_remember_state
 366              		.cfi_def_cfa_offset 32
 367              		@ sp needed
 368 0112 BDE8F087 		pop	{r4, r5, r6, r7, r8, r9, r10, pc}
 369              	.L14:
 370              		.cfi_restore_state
 371              		.loc 1 208 0
 372 0116 0EF1010E 		add	lr, lr, #1
 373 011a 8CF800E0 		strb	lr, [ip]
 374 011e 7FE7     		b	.L9
 375              	.L26:
 376              		.loc 1 211 0
 377 0120 FFF7FEFF 		bl	__stack_chk_fail
 378              	.LVL26:
 379              	.L28:
 380              		.align	2
 381              	.L27:
 382 0124 00000000 		.word	ch
 383 0128 00000000 		.word	.LANCHOR2
 384 012c 00000000 		.word	.LANCHOR0
 385 0130 00000000 		.word	.LANCHOR4
 386 0134 00000000 		.word	.LANCHOR3
 387 0138 00000000 		.word	.LANCHOR5
 388 013c 00000000 		.word	.LANCHOR6
 389 0140 00000000 		.word	.LANCHOR7
 390 0144 34000000 		.word	.LANCHOR5+52
 391 0148 02000000 		.word	.LANCHOR6+2
 392 014c 01000000 		.word	.LANCHOR3+1
 393 0150 00000000 		.word	.LANCHOR9
 394 0154 00000000 		.word	.LANCHOR11
 395 0158 00000000 		.word	.LANCHOR10
 396 015c 00000000 		.word	.LANCHOR12
 397 0160 00000000 		.word	__stack_chk_guard
 398 0164 00000000 		.word	.LANCHOR1
 399 0168 00000000 		.word	.LANCHOR8
ARM GAS  C:\Users\osour\AppData\Local\Temp\cc57WNOX.s 			page 8


 400              		.cfi_endproc
 401              	.LFE257:
 402              		.size	DataProcessing, .-DataProcessing
 403              		.section	.text.mp45dt02Init,"ax",%progbits
 404              		.align	1
 405              		.p2align 4,,15
 406              		.global	mp45dt02Init
 407              		.syntax unified
 408              		.thumb
 409              		.thumb_func
 410              		.fpu fpv4-sp-d16
 411              		.type	mp45dt02Init, %function
 412              	mp45dt02Init:
 413              	.LFB259:
 414              		.loc 1 227 0
 415              		.cfi_startproc
 416              		@ args = 0, pretend = 0, frame = 8
 417              		@ frame_needed = 0, uses_anonymous_args = 0
 418              	.LVL27:
 419 0000 2DE9F04F 		push	{r4, r5, r6, r7, r8, r9, r10, fp, lr}
 420              		.cfi_def_cfa_offset 36
 421              		.cfi_offset 4, -36
 422              		.cfi_offset 5, -32
 423              		.cfi_offset 6, -28
 424              		.cfi_offset 7, -24
 425              		.cfi_offset 8, -20
 426              		.cfi_offset 9, -16
 427              		.cfi_offset 10, -12
 428              		.cfi_offset 11, -8
 429              		.cfi_offset 14, -4
 430              		.loc 1 229 0
 431 0004 2D4A     		ldr	r2, .L34
 432 0006 0168     		ldr	r1, [r0]
 433              		.loc 1 227 0
 434 0008 2D4F     		ldr	r7, .L34+4
 435              		.loc 1 229 0
 436 000a 1160     		str	r1, [r2]
 437              		.loc 1 227 0
 438 000c 85B0     		sub	sp, sp, #20
 439              		.cfi_def_cfa_offset 56
 440              		.loc 1 231 0
 441 000e 0021     		movs	r1, #0
 442              		.loc 1 233 0
 443 0010 0E46     		mov	r6, r1
 444              		.loc 1 227 0
 445 0012 3B68     		ldr	r3, [r7]
 446              		.loc 1 231 0
 447 0014 2B48     		ldr	r0, .L34+8
 448              	.LVL28:
 449              		.loc 1 227 0
 450 0016 0393     		str	r3, [sp, #12]
 451              		.loc 1 231 0
 452 0018 FFF7FEFF 		bl	chSemObjectInit
 453              	.LVL29:
 454              		.loc 1 233 0
 455 001c 4FF4AF61 		mov	r1, #1400
 456 0020 294B     		ldr	r3, .L34+12
ARM GAS  C:\Users\osour\AppData\Local\Temp\cc57WNOX.s 			page 9


 457 0022 0096     		str	r6, [sp]
 458 0024 4122     		movs	r2, #65
 459 0026 2948     		ldr	r0, .L34+16
 460              	.LBB74:
 461              	.LBB75:
 462              		.loc 1 139 0
 463 0028 294C     		ldr	r4, .L34+20
 464              		.loc 1 137 0
 465 002a DFF8C880 		ldr	r8, .L34+56
 466 002e DFF8C890 		ldr	r9, .L34+60
 467              	.LBE75:
 468              	.LBE74:
 469              		.loc 1 243 0
 470 0032 284D     		ldr	r5, .L34+24
 471              		.loc 1 233 0
 472 0034 FFF7FEFF 		bl	chThdCreateStatic
 473              	.LVL30:
 474 0038 274B     		ldr	r3, .L34+28
 475              	.LBB78:
 476              	.LBB76:
 477              		.loc 1 133 0
 478 003a 284A     		ldr	r2, .L34+32
 479              	.LBE76:
 480              	.LBE78:
 481              		.loc 1 233 0
 482 003c 1860     		str	r0, [r3]
 483              	.LVL31:
 484              	.LBB79:
 485              	.LBB77:
 486              		.loc 1 133 0
 487 003e 136B     		ldr	r3, [r2, #48]
 488              		.loc 1 137 0
 489 0040 C4F80490 		str	r9, [r4, #4]
 490              		.loc 1 133 0
 491 0044 43F48053 		orr	r3, r3, #4096
 492              		.loc 1 139 0
 493 0048 4FF4804B 		mov	fp, #16384
 494              		.loc 1 138 0
 495 004c 4FF0021A 		mov	r10, #131074
 496              		.loc 1 133 0
 497 0050 1363     		str	r3, [r2, #48]
 498              		.loc 1 142 0
 499 0052 2046     		mov	r0, r4
 500              		.loc 1 139 0
 501 0054 A4F800B0 		strh	fp, [r4]	@ movhi
 502              		.loc 1 138 0
 503 0058 C4E9028A 		strd	r8, r10, [r4, #8]
 504              		.loc 1 142 0
 505 005c FFF7FEFF 		bl	PDM_Filter_Init
 506              	.LVL32:
 507 0060 04F13400 		add	r0, r4, #52
 508              		.loc 1 139 0
 509 0064 A4F834B0 		strh	fp, [r4, #52]	@ movhi
 510              		.loc 1 137 0
 511 0068 C4E90E98 		strd	r9, r8, [r4, #56]
 512              		.loc 1 138 0
 513 006c C4F840A0 		str	r10, [r4, #64]
ARM GAS  C:\Users\osour\AppData\Local\Temp\cc57WNOX.s 			page 10


 514              		.loc 1 142 0
 515 0070 FFF7FEFF 		bl	PDM_Filter_Init
 516              	.LVL33:
 517              	.LBE77:
 518              	.LBE79:
 519              		.loc 1 243 0
 520 0074 3146     		mov	r1, r6
 521 0076 2846     		mov	r0, r5
 522 0078 4FF40372 		mov	r2, #524
 523 007c FFF7FEFF 		bl	memset
 524              	.LVL34:
 525              		.loc 1 246 0
 526 0080 174B     		ldr	r3, .L34+36
 527              		.loc 1 244 0
 528 0082 1849     		ldr	r1, .L34+40
 529 0084 C5F80812 		str	r1, [r5, #520]
 530              		.loc 1 252 0
 531 0088 174A     		ldr	r2, .L34+44
 532              		.loc 1 250 0
 533 008a 184C     		ldr	r4, .L34+48
 534              		.loc 1 252 0
 535 008c 1A61     		str	r2, [r3, #16]
 536              		.loc 1 248 0
 537 008e 0835     		adds	r5, r5, #8
 538              		.loc 1 249 0
 539 0090 4FF0800C 		mov	ip, #128
 540              		.loc 1 260 0
 541 0094 1946     		mov	r1, r3
 542              		.loc 1 246 0
 543 0096 C3E90065 		strd	r6, r5, [r3]
 544              		.loc 1 260 0
 545 009a 1548     		ldr	r0, .L34+52
 546              		.loc 1 250 0
 547 009c C3E902C4 		strd	ip, r4, [r3, #8]
 548              		.loc 1 260 0
 549 00a0 FFF7FEFF 		bl	i2sStart
 550              	.LVL35:
 551              		.loc 1 261 0
 552 00a4 039A     		ldr	r2, [sp, #12]
 553 00a6 3B68     		ldr	r3, [r7]
 554 00a8 9A42     		cmp	r2, r3
 555 00aa 05D1     		bne	.L33
 556 00ac 1048     		ldr	r0, .L34+52
 557              		.loc 1 262 0
 558 00ae 05B0     		add	sp, sp, #20
 559              		.cfi_remember_state
 560              		.cfi_def_cfa_offset 36
 561              		@ sp needed
 562 00b0 BDE8F04F 		pop	{r4, r5, r6, r7, r8, r9, r10, fp, lr}
 563              		.cfi_restore 14
 564              		.cfi_restore 11
 565              		.cfi_restore 10
 566              		.cfi_restore 9
 567              		.cfi_restore 8
 568              		.cfi_restore 7
 569              		.cfi_restore 6
 570              		.cfi_restore 5
ARM GAS  C:\Users\osour\AppData\Local\Temp\cc57WNOX.s 			page 11


 571              		.cfi_restore 4
 572              		.cfi_def_cfa_offset 0
 573              		.loc 1 261 0
 574 00b4 FFF7FEBF 		b	i2sStartExchange
 575              	.LVL36:
 576              	.L33:
 577              		.cfi_restore_state
 578 00b8 FFF7FEFF 		bl	__stack_chk_fail
 579              	.LVL37:
 580              	.L35:
 581              		.align	2
 582              	.L34:
 583 00bc 00000000 		.word	.LANCHOR9
 584 00c0 00000000 		.word	__stack_chk_guard
 585 00c4 00000000 		.word	.LANCHOR1
 586 00c8 00000000 		.word	DataProcessing
 587 00cc 00000000 		.word	.LANCHOR13
 588 00d0 00000000 		.word	.LANCHOR5
 589 00d4 00000000 		.word	.LANCHOR0
 590 00d8 00000000 		.word	.LANCHOR14
 591 00dc 00380240 		.word	1073887232
 592 00e0 00000000 		.word	.LANCHOR15
 593 00e4 EFBEADDE 		.word	-559038737
 594 00e8 2C030800 		.word	525100
 595 00ec 00000000 		.word	mp45dt02I2SCb
 596 00f0 00000000 		.word	I2SD2
 597 00f4 00004842 		.word	1112014848
 598 00f8 00007A44 		.word	1148846080
 599              		.cfi_endproc
 600              	.LFE259:
 601              		.size	mp45dt02Init, .-mp45dt02Init
 602              		.section	.text.mp45dt02Shutdown,"ax",%progbits
 603              		.align	1
 604              		.p2align 4,,15
 605              		.global	mp45dt02Shutdown
 606              		.syntax unified
 607              		.thumb
 608              		.thumb_func
 609              		.fpu fpv4-sp-d16
 610              		.type	mp45dt02Shutdown, %function
 611              	mp45dt02Shutdown:
 612              	.LFB260:
 613              		.loc 1 265 0
 614              		.cfi_startproc
 615              		@ args = 0, pretend = 0, frame = 8
 616              		@ frame_needed = 0, uses_anonymous_args = 0
 617 0000 30B5     		push	{r4, r5, lr}
 618              		.cfi_def_cfa_offset 12
 619              		.cfi_offset 4, -12
 620              		.cfi_offset 5, -8
 621              		.cfi_offset 14, -4
 622 0002 124D     		ldr	r5, .L40
 623              		.loc 1 266 0
 624 0004 1248     		ldr	r0, .L40+4
 625              		.loc 1 265 0
 626 0006 2B68     		ldr	r3, [r5]
 627              		.loc 1 272 0
ARM GAS  C:\Users\osour\AppData\Local\Temp\cc57WNOX.s 			page 12


 628 0008 124C     		ldr	r4, .L40+8
 629              		.loc 1 265 0
 630 000a 83B0     		sub	sp, sp, #12
 631              		.cfi_def_cfa_offset 24
 632              		.loc 1 265 0
 633 000c 0193     		str	r3, [sp, #4]
 634              		.loc 1 266 0
 635 000e FFF7FEFF 		bl	i2sStopExchange
 636              	.LVL38:
 637              		.loc 1 267 0
 638 0012 0F48     		ldr	r0, .L40+4
 639 0014 FFF7FEFF 		bl	i2sStop
 640              	.LVL39:
 641              		.loc 1 269 0
 642 0018 0F48     		ldr	r0, .L40+12
 643 001a FFF7FEFF 		bl	spi3SlaveStopExchange
 644              	.LVL40:
 645              		.loc 1 270 0
 646 001e 0E48     		ldr	r0, .L40+12
 647 0020 FFF7FEFF 		bl	spi3SlaveStop
 648              	.LVL41:
 649              		.loc 1 272 0
 650 0024 2068     		ldr	r0, [r4]
 651 0026 FFF7FEFF 		bl	chThdTerminate
 652              	.LVL42:
 653              		.loc 1 273 0
 654 002a 0021     		movs	r1, #0
 655 002c 0B48     		ldr	r0, .L40+16
 656 002e FFF7FEFF 		bl	chSemReset
 657              	.LVL43:
 658              		.loc 1 274 0
 659 0032 2068     		ldr	r0, [r4]
 660 0034 FFF7FEFF 		bl	chThdWait
 661              	.LVL44:
 662              		.loc 1 276 0
 663 0038 019A     		ldr	r2, [sp, #4]
 664 003a 2B68     		ldr	r3, [r5]
 665              		.loc 1 275 0
 666 003c 0021     		movs	r1, #0
 667              		.loc 1 276 0
 668 003e 9A42     		cmp	r2, r3
 669              		.loc 1 275 0
 670 0040 2160     		str	r1, [r4]
 671              		.loc 1 276 0
 672 0042 01D1     		bne	.L39
 673 0044 03B0     		add	sp, sp, #12
 674              		.cfi_remember_state
 675              		.cfi_def_cfa_offset 12
 676              		@ sp needed
 677 0046 30BD     		pop	{r4, r5, pc}
 678              	.L39:
 679              		.cfi_restore_state
 680 0048 FFF7FEFF 		bl	__stack_chk_fail
 681              	.LVL45:
 682              	.L41:
 683              		.align	2
 684              	.L40:
ARM GAS  C:\Users\osour\AppData\Local\Temp\cc57WNOX.s 			page 13


 685 004c 00000000 		.word	__stack_chk_guard
 686 0050 00000000 		.word	I2SD2
 687 0054 00000000 		.word	.LANCHOR14
 688 0058 00000000 		.word	SPISLAVED3
 689 005c 00000000 		.word	.LANCHOR1
 690              		.cfi_endproc
 691              	.LFE260:
 692              		.size	mp45dt02Shutdown, .-mp45dt02Shutdown
 693              		.section	.text.mp45dt02BufferPtr,"ax",%progbits
 694              		.align	1
 695              		.p2align 4,,15
 696              		.global	mp45dt02BufferPtr
 697              		.syntax unified
 698              		.thumb
 699              		.thumb_func
 700              		.fpu fpv4-sp-d16
 701              		.type	mp45dt02BufferPtr, %function
 702              	mp45dt02BufferPtr:
 703              	.LFB261:
 704              		.loc 1 278 0
 705              		.cfi_startproc
 706              		@ args = 0, pretend = 0, frame = 8
 707              		@ frame_needed = 0, uses_anonymous_args = 0
 708 0000 00B5     		push	{lr}
 709              		.cfi_def_cfa_offset 4
 710              		.cfi_offset 14, -4
 711 0002 074B     		ldr	r3, .L46
 712              		.loc 1 279 0
 713 0004 0749     		ldr	r1, .L46+4
 714              		.loc 1 278 0
 715 0006 1A68     		ldr	r2, [r3]
 716              		.loc 1 280 0
 717 0008 0868     		ldr	r0, [r1]
 718              		.loc 1 278 0
 719 000a 83B0     		sub	sp, sp, #12
 720              		.cfi_def_cfa_offset 16
 721              		.loc 1 278 0
 722 000c 0192     		str	r2, [sp, #4]
 723              		.loc 1 280 0
 724 000e 019A     		ldr	r2, [sp, #4]
 725 0010 1B68     		ldr	r3, [r3]
 726 0012 9A42     		cmp	r2, r3
 727 0014 02D1     		bne	.L45
 728 0016 03B0     		add	sp, sp, #12
 729              		.cfi_remember_state
 730              		.cfi_def_cfa_offset 4
 731              		@ sp needed
 732 0018 5DF804FB 		ldr	pc, [sp], #4
 733              	.L45:
 734              		.cfi_restore_state
 735 001c FFF7FEFF 		bl	__stack_chk_fail
 736              	.LVL46:
 737              	.L47:
 738              		.align	2
 739              	.L46:
 740 0020 00000000 		.word	__stack_chk_guard
 741 0024 00000000 		.word	.LANCHOR10
ARM GAS  C:\Users\osour\AppData\Local\Temp\cc57WNOX.s 			page 14


 742              		.cfi_endproc
 743              	.LFE261:
 744              		.size	mp45dt02BufferPtr, .-mp45dt02BufferPtr
 745              		.global	PDM_filter_I2S
 746              		.global	Channel_Demux
 747              		.section	.bss.DataProcessingSem,"aw",%nobits
 748              		.align	2
 749              		.set	.LANCHOR1,. + 0
 750              		.type	DataProcessingSem, %object
 751              		.size	DataProcessingSem, 12
 752              	DataProcessingSem:
 753 0000 00000000 		.space	12
 753      00000000 
 753      00000000 
 754              		.section	.bss.DataProcessingThd,"aw",%nobits
 755              		.align	2
 756              		.set	.LANCHOR14,. + 0
 757              		.type	DataProcessingThd, %object
 758              		.size	DataProcessingThd, 4
 759              	DataProcessingThd:
 760 0000 00000000 		.space	4
 761              		.section	.bss.DataProcessingThdWA,"aw",%nobits
 762              		.align	3
 763              		.set	.LANCHOR13,. + 0
 764              		.type	DataProcessingThdWA, %object
 765              		.size	DataProcessingThdWA, 1400
 766              	DataProcessingThdWA:
 767 0000 00000000 		.space	1400
 767      00000000 
 767      00000000 
 767      00000000 
 767      00000000 
 768              		.section	.bss.I2S_PCM_samples,"aw",%nobits
 769              		.align	2
 770              		.set	.LANCHOR6,. + 0
 771              		.type	I2S_PCM_samples, %object
 772              		.size	I2S_PCM_samples, 64
 773              	I2S_PCM_samples:
 774 0000 00000000 		.space	64
 774      00000000 
 774      00000000 
 774      00000000 
 774      00000000 
 775              		.section	.bss.I2S_PDM_samples,"aw",%nobits
 776              		.align	2
 777              		.set	.LANCHOR3,. + 0
 778              		.type	I2S_PDM_samples, %object
 779              		.size	I2S_PDM_samples, 256
 780              	I2S_PDM_samples:
 781 0000 00000000 		.space	256
 781      00000000 
 781      00000000 
 781      00000000 
 781      00000000 
 782              		.section	.bss.PCM_buffer1,"aw",%nobits
 783              		.align	2
 784              		.set	.LANCHOR11,. + 0
ARM GAS  C:\Users\osour\AppData\Local\Temp\cc57WNOX.s 			page 15


 785              		.type	PCM_buffer1, %object
 786              		.size	PCM_buffer1, 1280
 787              	PCM_buffer1:
 788 0000 00000000 		.space	1280
 788      00000000 
 788      00000000 
 788      00000000 
 788      00000000 
 789              		.section	.bss.PCM_buffer2,"aw",%nobits
 790              		.align	2
 791              		.set	.LANCHOR12,. + 0
 792              		.type	PCM_buffer2, %object
 793              		.size	PCM_buffer2, 1280
 794              	PCM_buffer2:
 795 0000 00000000 		.space	1280
 795      00000000 
 795      00000000 
 795      00000000 
 795      00000000 
 796              		.section	.bss.PCM_buffer_index,"aw",%nobits
 797              		.set	.LANCHOR8,. + 0
 798              		.type	PCM_buffer_index, %object
 799              		.size	PCM_buffer_index, 1
 800              	PCM_buffer_index:
 801 0000 00       		.space	1
 802              		.section	.bss.PDM_filter_I2S,"aw",%nobits
 803              		.align	2
 804              		.set	.LANCHOR5,. + 0
 805              		.type	PDM_filter_I2S, %object
 806              		.size	PDM_filter_I2S, 104
 807              	PDM_filter_I2S:
 808 0000 00000000 		.space	104
 808      00000000 
 808      00000000 
 808      00000000 
 808      00000000 
 809              		.section	.bss.initConfig,"aw",%nobits
 810              		.align	2
 811              		.set	.LANCHOR9,. + 0
 812              		.type	initConfig, %object
 813              		.size	initConfig, 4
 814              	initConfig:
 815 0000 00000000 		.space	4
 816              		.section	.bss.mp45dt02I2SConfig,"aw",%nobits
 817              		.align	2
 818              		.set	.LANCHOR15,. + 0
 819              		.type	mp45dt02I2SConfig, %object
 820              		.size	mp45dt02I2SConfig, 20
 821              	mp45dt02I2SConfig:
 822 0000 00000000 		.space	20
 822      00000000 
 822      00000000 
 822      00000000 
 822      00000000 
 823              		.section	.bss.mp45dt02I2sData,"aw",%nobits
 824              		.align	2
 825              		.set	.LANCHOR0,. + 0
ARM GAS  C:\Users\osour\AppData\Local\Temp\cc57WNOX.s 			page 16


 826              		.type	mp45dt02I2sData, %object
 827              		.size	mp45dt02I2sData, 524
 828              	mp45dt02I2sData:
 829 0000 00000000 		.space	524
 829      00000000 
 829      00000000 
 829      00000000 
 829      00000000 
 830              		.section	.data.Channel_Demux,"aw",%progbits
 831              		.align	2
 832              		.set	.LANCHOR4,. + 0
 833              		.type	Channel_Demux, %object
 834              		.size	Channel_Demux, 128
 835              	Channel_Demux:
 836 0000 00       		.byte	0
 837 0001 01       		.byte	1
 838 0002 00       		.byte	0
 839 0003 01       		.byte	1
 840 0004 02       		.byte	2
 841 0005 03       		.byte	3
 842 0006 02       		.byte	2
 843 0007 03       		.byte	3
 844 0008 00       		.byte	0
 845 0009 01       		.byte	1
 846 000a 00       		.byte	0
 847 000b 01       		.byte	1
 848 000c 02       		.byte	2
 849 000d 03       		.byte	3
 850 000e 02       		.byte	2
 851 000f 03       		.byte	3
 852 0010 04       		.byte	4
 853 0011 05       		.byte	5
 854 0012 04       		.byte	4
 855 0013 05       		.byte	5
 856 0014 06       		.byte	6
 857 0015 07       		.byte	7
 858 0016 06       		.byte	6
 859 0017 07       		.byte	7
 860 0018 04       		.byte	4
 861 0019 05       		.byte	5
 862 001a 04       		.byte	4
 863 001b 05       		.byte	5
 864 001c 06       		.byte	6
 865 001d 07       		.byte	7
 866 001e 06       		.byte	6
 867 001f 07       		.byte	7
 868 0020 00       		.byte	0
 869 0021 01       		.byte	1
 870 0022 00       		.byte	0
 871 0023 01       		.byte	1
 872 0024 02       		.byte	2
 873 0025 03       		.byte	3
 874 0026 02       		.byte	2
 875 0027 03       		.byte	3
 876 0028 00       		.byte	0
 877 0029 01       		.byte	1
 878 002a 00       		.byte	0
ARM GAS  C:\Users\osour\AppData\Local\Temp\cc57WNOX.s 			page 17


 879 002b 01       		.byte	1
 880 002c 02       		.byte	2
 881 002d 03       		.byte	3
 882 002e 02       		.byte	2
 883 002f 03       		.byte	3
 884 0030 04       		.byte	4
 885 0031 05       		.byte	5
 886 0032 04       		.byte	4
 887 0033 05       		.byte	5
 888 0034 06       		.byte	6
 889 0035 07       		.byte	7
 890 0036 06       		.byte	6
 891 0037 07       		.byte	7
 892 0038 04       		.byte	4
 893 0039 05       		.byte	5
 894 003a 04       		.byte	4
 895 003b 05       		.byte	5
 896 003c 06       		.byte	6
 897 003d 07       		.byte	7
 898 003e 06       		.byte	6
 899 003f 07       		.byte	7
 900 0040 08       		.byte	8
 901 0041 09       		.byte	9
 902 0042 08       		.byte	8
 903 0043 09       		.byte	9
 904 0044 0A       		.byte	10
 905 0045 0B       		.byte	11
 906 0046 0A       		.byte	10
 907 0047 0B       		.byte	11
 908 0048 08       		.byte	8
 909 0049 09       		.byte	9
 910 004a 08       		.byte	8
 911 004b 09       		.byte	9
 912 004c 0A       		.byte	10
 913 004d 0B       		.byte	11
 914 004e 0A       		.byte	10
 915 004f 0B       		.byte	11
 916 0050 0C       		.byte	12
 917 0051 0D       		.byte	13
 918 0052 0C       		.byte	12
 919 0053 0D       		.byte	13
 920 0054 0E       		.byte	14
 921 0055 0F       		.byte	15
 922 0056 0E       		.byte	14
 923 0057 0F       		.byte	15
 924 0058 0C       		.byte	12
 925 0059 0D       		.byte	13
 926 005a 0C       		.byte	12
 927 005b 0D       		.byte	13
 928 005c 0E       		.byte	14
 929 005d 0F       		.byte	15
 930 005e 0E       		.byte	14
 931 005f 0F       		.byte	15
 932 0060 08       		.byte	8
 933 0061 09       		.byte	9
 934 0062 08       		.byte	8
 935 0063 09       		.byte	9
ARM GAS  C:\Users\osour\AppData\Local\Temp\cc57WNOX.s 			page 18


 936 0064 0A       		.byte	10
 937 0065 0B       		.byte	11
 938 0066 0A       		.byte	10
 939 0067 0B       		.byte	11
 940 0068 08       		.byte	8
 941 0069 09       		.byte	9
 942 006a 08       		.byte	8
 943 006b 09       		.byte	9
 944 006c 0A       		.byte	10
 945 006d 0B       		.byte	11
 946 006e 0A       		.byte	10
 947 006f 0B       		.byte	11
 948 0070 0C       		.byte	12
 949 0071 0D       		.byte	13
 950 0072 0C       		.byte	12
 951 0073 0D       		.byte	13
 952 0074 0E       		.byte	14
 953 0075 0F       		.byte	15
 954 0076 0E       		.byte	14
 955 0077 0F       		.byte	15
 956 0078 0C       		.byte	12
 957 0079 0D       		.byte	13
 958 007a 0C       		.byte	12
 959 007b 0D       		.byte	13
 960 007c 0E       		.byte	14
 961 007d 0F       		.byte	15
 962 007e 0E       		.byte	14
 963 007f 0F       		.byte	15
 964              		.section	.data.PCM_buffer_ptr_curr,"aw",%progbits
 965              		.align	2
 966              		.set	.LANCHOR7,. + 0
 967              		.type	PCM_buffer_ptr_curr, %object
 968              		.size	PCM_buffer_ptr_curr, 4
 969              	PCM_buffer_ptr_curr:
 970 0000 00000000 		.word	PCM_buffer1
 971              		.section	.data.PCM_buffer_ptr_last,"aw",%progbits
 972              		.align	2
 973              		.set	.LANCHOR10,. + 0
 974              		.type	PCM_buffer_ptr_last, %object
 975              		.size	PCM_buffer_ptr_last, 4
 976              	PCM_buffer_ptr_last:
 977 0000 00000000 		.word	PCM_buffer2
 978              		.section	.rodata.__FUNCTION__.10399,"a",%progbits
 979              		.align	2
 980              		.set	.LANCHOR2,. + 0
 981              		.type	__FUNCTION__.10399, %object
 982              		.size	__FUNCTION__.10399, 15
 983              	__FUNCTION__.10399:
 984 0000 44617461 		.ascii	"DataProcessing\000"
 984      50726F63 
 984      65737369 
 984      6E6700
 985              		.text
 986              	.Letext0:
 987              		.file 6 "c:\\users\\osour\\desktop\\robotique\\eclipse_e-puck2\\tools\\gcc-arm-none-eabi-7-2017-q4
 988              		.file 7 "c:\\users\\osour\\desktop\\robotique\\eclipse_e-puck2\\tools\\gcc-arm-none-eabi-7-2017-q4
 989              		.file 8 "c:\\users\\osour\\desktop\\robotique\\eclipse_e-puck2\\tools\\gcc-arm-none-eabi-7-2017-q4
ARM GAS  C:\Users\osour\AppData\Local\Temp\cc57WNOX.s 			page 19


 990              		.file 9 "c:\\users\\osour\\desktop\\robotique\\eclipse_e-puck2\\tools\\gcc-arm-none-eabi-7-2017-q4
 991              		.file 10 "c:\\users\\osour\\desktop\\robotique\\eclipse_e-puck2\\tools\\gcc-arm-none-eabi-7-2017-q
 992              		.file 11 "c:\\users\\osour\\desktop\\robotique\\eclipse_e-puck2\\tools\\gcc-arm-none-eabi-7-2017-q
 993              		.file 12 "../../lib/e-puck2_main-processor/ChibiOS//os/rt/ports/ARMCMx/compilers/GCC/chtypes.h"
 994              		.file 13 "../../lib/e-puck2_main-processor/ChibiOS//os/rt/include/chsystypes.h"
 995              		.file 14 "../../lib/e-puck2_main-processor/ChibiOS//os/rt/include/chschd.h"
 996              		.file 15 "../../lib/e-puck2_main-processor/ChibiOS//os/ext/CMSIS/include/core_cm4.h"
 997              		.file 16 "../../lib/e-puck2_main-processor/ChibiOS//os/ext/CMSIS/ST/system_stm32f4xx.h"
 998              		.file 17 "../../lib/e-puck2_main-processor/ChibiOS//os/ext/CMSIS/ST/stm32f407xx.h"
 999              		.file 18 "../../lib/e-puck2_main-processor/ChibiOS//os/rt/ports/ARMCMx/chcore.h"
 1000              		.file 19 "../../lib/e-puck2_main-processor/ChibiOS//os/rt/ports/ARMCMx/chcore_v7m.h"
 1001              		.file 20 "../../lib/e-puck2_main-processor/ChibiOS//os/rt/include/chdebug.h"
 1002              		.file 21 "../../lib/e-puck2_main-processor/ChibiOS//os/rt/include/chtm.h"
 1003              		.file 22 "../../lib/e-puck2_main-processor/ChibiOS//os/rt/include/chstats.h"
 1004              		.file 23 "../../lib/e-puck2_main-processor/ChibiOS//os/rt/include/chsem.h"
 1005              		.file 24 "../../lib/e-puck2_main-processor/ChibiOS//os/rt/include/chmtx.h"
 1006              		.file 25 "../../lib/e-puck2_main-processor/ChibiOS//os/rt/include/chevents.h"
 1007              		.file 26 "../../lib/e-puck2_main-processor/ChibiOS//os/rt/include/chqueues.h"
 1008              		.file 27 "../../lib/e-puck2_main-processor/ChibiOS//os/hal/ports/STM32/STM32F4xx/stm32_dma.h"
 1009              		.file 28 "../../lib/e-puck2_main-processor/ChibiOS//os/hal/include/hal_ioblock.h"
 1010              		.file 29 "../../lib/e-puck2_main-processor/ChibiOS//os/hal/ports/STM32/LLD/GPIOv2/pal_lld.h"
 1011              		.file 30 "../../lib/e-puck2_main-processor/ChibiOS//os/hal/include/adc.h"
 1012              		.file 31 "../../lib/e-puck2_main-processor/ChibiOS//os/hal/ports/STM32/STM32F4xx/adc_lld.h"
 1013              		.file 32 "../../lib/e-puck2_main-processor/ChibiOS//os/hal/include/can.h"
 1014              		.file 33 "../../lib/e-puck2_main-processor/ChibiOS//os/hal/ports/STM32/LLD/can_lld.h"
 1015              		.file 34 "../../lib/e-puck2_main-processor/ChibiOS//os/hal/include/dac.h"
 1016              		.file 35 "../../lib/e-puck2_main-processor/ChibiOS//os/hal/ports/STM32/LLD/DACv1/dac_lld.h"
 1017              		.file 36 "../../lib/e-puck2_main-processor/ChibiOS//os/hal/include/ext.h"
 1018              		.file 37 "../../lib/e-puck2_main-processor/ChibiOS//os/hal/ports/STM32/LLD/ext_lld.h"
 1019              		.file 38 "../../lib/e-puck2_main-processor/ChibiOS//os/hal/include/gpt.h"
 1020              		.file 39 "../../lib/e-puck2_main-processor/ChibiOS//os/hal/ports/STM32/LLD/TIMv1/gpt_lld.h"
 1021              		.file 40 "../../lib/e-puck2_main-processor/ChibiOS//os/hal/ports/STM32/LLD/TIMv1/stm32_tim.h"
 1022              		.file 41 "../../lib/e-puck2_main-processor/ChibiOS//os/hal/include/i2c.h"
 1023              		.file 42 "../../lib/e-puck2_main-processor/ChibiOS//os/hal/ports/STM32/LLD/I2Cv1/i2c_lld.h"
 1024              		.file 43 "../../lib/e-puck2_main-processor/ChibiOS//os/hal/include/i2s.h"
 1025              		.file 44 "../../lib/e-puck2_main-processor/ChibiOS//os/hal/ports/STM32/LLD/SPIv1/i2s_lld.h"
 1026              		.file 45 "../../lib/e-puck2_main-processor/ChibiOS//os/hal/include/pwm.h"
 1027              		.file 46 "../../lib/e-puck2_main-processor/ChibiOS//os/hal/ports/STM32/LLD/TIMv1/pwm_lld.h"
 1028              		.file 47 "../../lib/e-puck2_main-processor/ChibiOS//os/hal/include/serial.h"
 1029              		.file 48 "../../lib/e-puck2_main-processor/ChibiOS//os/hal/ports/STM32/LLD/USARTv1/serial_lld.h"
 1030              		.file 49 "../../lib/e-puck2_main-processor/ChibiOS//os/hal/include/sdc.h"
 1031              		.file 50 "../../lib/e-puck2_main-processor/ChibiOS//os/hal/ports/STM32/LLD/sdc_lld.h"
 1032              		.file 51 "../../lib/e-puck2_main-processor/ChibiOS//os/hal/include/spi.h"
 1033              		.file 52 "../../lib/e-puck2_main-processor/ChibiOS//os/hal/ports/STM32/LLD/SPIv1/spi_lld.h"
 1034              		.file 53 "../../lib/e-puck2_main-processor/ChibiOS//os/hal/include/usb.h"
 1035              		.file 54 "../../lib/e-puck2_main-processor/ChibiOS//os/hal/ports/STM32/LLD/OTGv1/usb_lld.h"
 1036              		.file 55 "../../lib/e-puck2_main-processor/ChibiOS//os/hal/ports/STM32/LLD/OTGv1/stm32_otg.h"
 1037              		.file 56 "../../lib/e-puck2_main-processor/ChibiOS_ext/os/hal/include/spi3_slave.h"
 1038              		.file 57 "../../lib/e-puck2_main-processor/src/audio/custom_mp45dt02_processing.h"
 1039              		.file 58 "../../lib/e-puck2_main-processor/src/audio/pdm_filter.h"
 1040              		.file 59 "<built-in>"