ARM GAS  C:\Users\osour\AppData\Local\Temp\cc4N65Ig.s 			page 1


   1              		.cpu cortex-m4
   2              		.eabi_attribute 27, 1
   3              		.eabi_attribute 28, 1
   4              		.eabi_attribute 20, 1
   5              		.eabi_attribute 21, 1
   6              		.eabi_attribute 23, 3
   7              		.eabi_attribute 24, 1
   8              		.eabi_attribute 25, 1
   9              		.eabi_attribute 26, 1
  10              		.eabi_attribute 30, 2
  11              		.eabi_attribute 34, 1
  12              		.eabi_attribute 18, 4
  13              		.file	"dac.c"
  14              		.text
  15              	.Ltext0:
  16              		.cfi_sections	.debug_frame
  17              		.section	.text.dacInit,"ax",%progbits
  18              		.align	1
  19              		.p2align 4,,15
  20              		.global	dacInit
  21              		.syntax unified
  22              		.thumb
  23              		.thumb_func
  24              		.fpu fpv4-sp-d16
  25              		.type	dacInit, %function
  26              	dacInit:
  27              	.LFB256:
  28              		.file 1 "../../lib/e-puck2_main-processor/ChibiOS//os/hal/src/dac.c"
  29              		.loc 1 56 0
  30              		.cfi_startproc
  31              		@ args = 0, pretend = 0, frame = 8
  32              		@ frame_needed = 0, uses_anonymous_args = 0
  33 0000 00B5     		push	{lr}
  34              		.cfi_def_cfa_offset 4
  35              		.cfi_offset 14, -4
  36 0002 074B     		ldr	r3, .L7
  37 0004 83B0     		sub	sp, sp, #12
  38              		.cfi_def_cfa_offset 16
  39              		.loc 1 56 0
  40 0006 1A68     		ldr	r2, [r3]
  41 0008 0192     		str	r2, [sp, #4]
  42              		.loc 1 58 0
  43 000a 019A     		ldr	r2, [sp, #4]
  44 000c 1B68     		ldr	r3, [r3]
  45 000e 9A42     		cmp	r2, r3
  46 0010 04D1     		bne	.L6
  47              		.loc 1 59 0
  48 0012 03B0     		add	sp, sp, #12
  49              		.cfi_remember_state
  50              		.cfi_def_cfa_offset 4
  51              		@ sp needed
  52 0014 5DF804EB 		ldr	lr, [sp], #4
  53              		.cfi_restore 14
  54              		.cfi_def_cfa_offset 0
  55              		.loc 1 58 0
  56 0018 FFF7FEBF 		b	dac_lld_init
  57              	.LVL0:
ARM GAS  C:\Users\osour\AppData\Local\Temp\cc4N65Ig.s 			page 2


  58              	.L6:
  59              		.cfi_restore_state
  60 001c FFF7FEFF 		bl	__stack_chk_fail
  61              	.LVL1:
  62              	.L8:
  63              		.align	2
  64              	.L7:
  65 0020 00000000 		.word	__stack_chk_guard
  66              		.cfi_endproc
  67              	.LFE256:
  68              		.size	dacInit, .-dacInit
  69              		.section	.text.dacObjectInit,"ax",%progbits
  70              		.align	1
  71              		.p2align 4,,15
  72              		.global	dacObjectInit
  73              		.syntax unified
  74              		.thumb
  75              		.thumb_func
  76              		.fpu fpv4-sp-d16
  77              		.type	dacObjectInit, %function
  78              	dacObjectInit:
  79              	.LFB257:
  80              		.loc 1 68 0
  81              		.cfi_startproc
  82              		@ args = 0, pretend = 0, frame = 8
  83              		@ frame_needed = 0, uses_anonymous_args = 0
  84              	.LVL2:
  85 0000 00B5     		push	{lr}
  86              		.cfi_def_cfa_offset 4
  87              		.cfi_offset 14, -4
  88 0002 0A4B     		ldr	r3, .L14
  89 0004 83B0     		sub	sp, sp, #12
  90              		.cfi_def_cfa_offset 16
  91              		.loc 1 68 0
  92 0006 1A68     		ldr	r2, [r3]
  93 0008 0192     		str	r2, [sp, #4]
  94              		.loc 1 70 0
  95 000a 0122     		movs	r2, #1
  96 000c 0270     		strb	r2, [r0]
  97              	.LBB76:
  98              	.LBB77:
  99              		.file 2 "../../lib/e-puck2_main-processor/ChibiOS//os/hal/osal/rt/osal.h"
 100              		.loc 2 841 0
 101 000e 0199     		ldr	r1, [sp, #4]
 102 0010 1A68     		ldr	r2, [r3]
 103              	.LBE77:
 104              	.LBE76:
 105              		.loc 1 71 0
 106 0012 0023     		movs	r3, #0
 107              	.LBB81:
 108              	.LBB78:
 109              		.loc 2 841 0
 110 0014 9142     		cmp	r1, r2
 111              	.LBE78:
 112              	.LBE81:
 113              		.loc 1 73 0
 114 0016 C0E90433 		strd	r3, r3, [r0, #16]
ARM GAS  C:\Users\osour\AppData\Local\Temp\cc4N65Ig.s 			page 3


 115              	.LVL3:
 116              	.LBB82:
 117              	.LBB79:
 118              		.loc 2 841 0
 119 001a 05D1     		bne	.L13
 120 001c 1830     		adds	r0, r0, #24
 121              	.LVL4:
 122              	.LBE79:
 123              	.LBE82:
 124              		.loc 1 81 0
 125 001e 03B0     		add	sp, sp, #12
 126              		.cfi_remember_state
 127              		.cfi_def_cfa_offset 4
 128              		@ sp needed
 129 0020 5DF804EB 		ldr	lr, [sp], #4
 130              		.cfi_restore 14
 131              		.cfi_def_cfa_offset 0
 132              	.LBB83:
 133              	.LBB80:
 134              		.loc 2 841 0
 135 0024 FFF7FEBF 		b	chMtxObjectInit
 136              	.LVL5:
 137              	.L13:
 138              		.cfi_restore_state
 139 0028 FFF7FEFF 		bl	__stack_chk_fail
 140              	.LVL6:
 141              	.L15:
 142              		.align	2
 143              	.L14:
 144 002c 00000000 		.word	__stack_chk_guard
 145              	.LBE80:
 146              	.LBE83:
 147              		.cfi_endproc
 148              	.LFE257:
 149              		.size	dacObjectInit, .-dacObjectInit
 150              		.section	.text.dacStart,"ax",%progbits
 151              		.align	1
 152              		.p2align 4,,15
 153              		.global	dacStart
 154              		.syntax unified
 155              		.thumb
 156              		.thumb_func
 157              		.fpu fpv4-sp-d16
 158              		.type	dacStart, %function
 159              	dacStart:
 160              	.LFB258:
 161              		.loc 1 93 0
 162              		.cfi_startproc
 163              		@ args = 0, pretend = 0, frame = 8
 164              		@ frame_needed = 0, uses_anonymous_args = 0
 165              	.LVL7:
 166 0000 70B5     		push	{r4, r5, r6, lr}
 167              		.cfi_def_cfa_offset 16
 168              		.cfi_offset 4, -16
 169              		.cfi_offset 5, -12
 170              		.cfi_offset 6, -8
 171              		.cfi_offset 14, -4
ARM GAS  C:\Users\osour\AppData\Local\Temp\cc4N65Ig.s 			page 4


 172 0002 1D4D     		ldr	r5, .L25
 173 0004 82B0     		sub	sp, sp, #8
 174              		.cfi_def_cfa_offset 24
 175              		.loc 1 93 0
 176 0006 2B68     		ldr	r3, [r5]
 177 0008 0193     		str	r3, [sp, #4]
 178 000a 0E46     		mov	r6, r1
 179              		.loc 1 95 0
 180 000c 0446     		mov	r4, r0
 181 000e 68B3     		cbz	r0, .L22
 182              	.LVL8:
 183              	.L17:
 184              	.LBB97:
 185              	.LBB98:
 186              	.LBB99:
 187              	.LBB100:
 188              	.LBB101:
 189              	.LBB102:
 190              		.file 3 "../../lib/e-puck2_main-processor/ChibiOS//os/ext/CMSIS/include/core_cmFunc.h"
 191              		.loc 3 546 0
 192 0010 2023     		movs	r3, #32
 193              		.syntax unified
 194              	@ 546 "../../lib/e-puck2_main-processor/ChibiOS//os/ext/CMSIS/include/core_cmFunc.h" 1
 195 0012 83F31188 		MSR basepri, r3
 196              	@ 0 "" 2
 197              	.LVL9:
 198              		.thumb
 199              		.syntax unified
 200              	.LBE102:
 201              	.LBE101:
 202              	.LBE100:
 203              		.file 4 "../../lib/e-puck2_main-processor/ChibiOS//os/rt/include/chsys.h"
 204              		.loc 4 349 0
 205 0016 FFF7FEFF 		bl	_stats_start_measure_crit_thd
 206              	.LVL10:
 207              		.loc 4 350 0
 208 001a FFF7FEFF 		bl	_dbg_check_lock
 209              	.LVL11:
 210              	.LBE99:
 211              	.LBE98:
 212              	.LBE97:
 213              		.loc 1 99 0
 214 001e 2378     		ldrb	r3, [r4]	@ zero_extendqisi2
 215 0020 013B     		subs	r3, r3, #1
 216 0022 012B     		cmp	r3, #1
 217 0024 02D9     		bls	.L18
 218              		.loc 1 99 0 is_stmt 0 discriminator 2
 219 0026 1548     		ldr	r0, .L25+4
 220 0028 FFF7FEFF 		bl	chSysHalt
 221              	.LVL12:
 222              	.L18:
 223              		.loc 1 103 0 is_stmt 1
 224 002c 2046     		mov	r0, r4
 225              		.loc 1 102 0
 226 002e 2661     		str	r6, [r4, #16]
 227              		.loc 1 103 0
 228 0030 FFF7FEFF 		bl	dac_lld_start
ARM GAS  C:\Users\osour\AppData\Local\Temp\cc4N65Ig.s 			page 5


 229              	.LVL13:
 230              		.loc 1 104 0
 231 0034 0223     		movs	r3, #2
 232 0036 2370     		strb	r3, [r4]
 233              	.LBB103:
 234              	.LBB104:
 235              	.LBB105:
 236              		.loc 4 360 0
 237 0038 FFF7FEFF 		bl	_dbg_check_unlock
 238              	.LVL14:
 239              		.loc 4 361 0
 240 003c FFF7FEFF 		bl	_stats_stop_measure_crit_thd
 241              	.LVL15:
 242              		.loc 4 367 0
 243 0040 0F4B     		ldr	r3, .L25+8
 244 0042 1A68     		ldr	r2, [r3]
 245 0044 9A42     		cmp	r2, r3
 246 0046 04D0     		beq	.L19
 247 0048 9969     		ldr	r1, [r3, #24]
 248 004a 9368     		ldr	r3, [r2, #8]
 249 004c 8A68     		ldr	r2, [r1, #8]
 250 004e 9A42     		cmp	r2, r3
 251 0050 08D3     		bcc	.L23
 252              	.L19:
 253              	.LVL16:
 254              	.LBB106:
 255              	.LBB107:
 256              	.LBB108:
 257              		.loc 3 546 0
 258 0052 0023     		movs	r3, #0
 259              		.syntax unified
 260              	@ 546 "../../lib/e-puck2_main-processor/ChibiOS//os/ext/CMSIS/include/core_cmFunc.h" 1
 261 0054 83F31188 		MSR basepri, r3
 262              	@ 0 "" 2
 263              	.LVL17:
 264              		.thumb
 265              		.syntax unified
 266              	.LBE108:
 267              	.LBE107:
 268              	.LBE106:
 269              	.LBE105:
 270              	.LBE104:
 271              	.LBE103:
 272              		.loc 1 107 0
 273 0058 019A     		ldr	r2, [sp, #4]
 274 005a 2B68     		ldr	r3, [r5]
 275 005c 9A42     		cmp	r2, r3
 276 005e 09D1     		bne	.L24
 277 0060 02B0     		add	sp, sp, #8
 278              		.cfi_remember_state
 279              		.cfi_def_cfa_offset 16
 280              		@ sp needed
 281 0062 70BD     		pop	{r4, r5, r6, pc}
 282              	.LVL18:
 283              	.L23:
 284              		.cfi_restore_state
 285              	.LBB111:
ARM GAS  C:\Users\osour\AppData\Local\Temp\cc4N65Ig.s 			page 6


 286              	.LBB110:
 287              	.LBB109:
 288              		.loc 4 367 0
 289 0064 0748     		ldr	r0, .L25+12
 290 0066 FFF7FEFF 		bl	chSysHalt
 291              	.LVL19:
 292 006a F2E7     		b	.L19
 293              	.LVL20:
 294              	.L22:
 295              	.LBE109:
 296              	.LBE110:
 297              	.LBE111:
 298              		.loc 1 95 0 discriminator 2
 299 006c 0348     		ldr	r0, .L25+4
 300              	.LVL21:
 301 006e FFF7FEFF 		bl	chSysHalt
 302              	.LVL22:
 303 0072 CDE7     		b	.L17
 304              	.L24:
 305              		.loc 1 107 0
 306 0074 FFF7FEFF 		bl	__stack_chk_fail
 307              	.LVL23:
 308              	.L26:
 309              		.align	2
 310              	.L25:
 311 0078 00000000 		.word	__stack_chk_guard
 312 007c 00000000 		.word	.LANCHOR0
 313 0080 00000000 		.word	ch
 314 0084 00000000 		.word	.LANCHOR1
 315              		.cfi_endproc
 316              	.LFE258:
 317              		.size	dacStart, .-dacStart
 318              		.section	.text.dacStop,"ax",%progbits
 319              		.align	1
 320              		.p2align 4,,15
 321              		.global	dacStop
 322              		.syntax unified
 323              		.thumb
 324              		.thumb_func
 325              		.fpu fpv4-sp-d16
 326              		.type	dacStop, %function
 327              	dacStop:
 328              	.LFB259:
 329              		.loc 1 118 0
 330              		.cfi_startproc
 331              		@ args = 0, pretend = 0, frame = 8
 332              		@ frame_needed = 0, uses_anonymous_args = 0
 333              	.LVL24:
 334 0000 30B5     		push	{r4, r5, lr}
 335              		.cfi_def_cfa_offset 12
 336              		.cfi_offset 4, -12
 337              		.cfi_offset 5, -8
 338              		.cfi_offset 14, -4
 339 0002 1C4D     		ldr	r5, .L36
 340 0004 83B0     		sub	sp, sp, #12
 341              		.cfi_def_cfa_offset 24
 342              		.loc 1 118 0
ARM GAS  C:\Users\osour\AppData\Local\Temp\cc4N65Ig.s 			page 7


 343 0006 2B68     		ldr	r3, [r5]
 344 0008 0193     		str	r3, [sp, #4]
 345              		.loc 1 120 0
 346 000a 0446     		mov	r4, r0
 347 000c 60B3     		cbz	r0, .L33
 348              	.LVL25:
 349              	.L28:
 350              	.LBB125:
 351              	.LBB126:
 352              	.LBB127:
 353              	.LBB128:
 354              	.LBB129:
 355              	.LBB130:
 356              		.loc 3 546 0
 357 000e 2023     		movs	r3, #32
 358              		.syntax unified
 359              	@ 546 "../../lib/e-puck2_main-processor/ChibiOS//os/ext/CMSIS/include/core_cmFunc.h" 1
 360 0010 83F31188 		MSR basepri, r3
 361              	@ 0 "" 2
 362              	.LVL26:
 363              		.thumb
 364              		.syntax unified
 365              	.LBE130:
 366              	.LBE129:
 367              	.LBE128:
 368              		.loc 4 349 0
 369 0014 FFF7FEFF 		bl	_stats_start_measure_crit_thd
 370              	.LVL27:
 371              		.loc 4 350 0
 372 0018 FFF7FEFF 		bl	_dbg_check_lock
 373              	.LVL28:
 374              	.LBE127:
 375              	.LBE126:
 376              	.LBE125:
 377              		.loc 1 124 0
 378 001c 2378     		ldrb	r3, [r4]	@ zero_extendqisi2
 379 001e 013B     		subs	r3, r3, #1
 380 0020 012B     		cmp	r3, #1
 381 0022 02D9     		bls	.L29
 382              		.loc 1 124 0 is_stmt 0 discriminator 2
 383 0024 1448     		ldr	r0, .L36+4
 384 0026 FFF7FEFF 		bl	chSysHalt
 385              	.LVL29:
 386              	.L29:
 387              		.loc 1 127 0 is_stmt 1
 388 002a 2046     		mov	r0, r4
 389 002c FFF7FEFF 		bl	dac_lld_stop
 390              	.LVL30:
 391              		.loc 1 128 0
 392 0030 0123     		movs	r3, #1
 393 0032 2370     		strb	r3, [r4]
 394              	.LBB131:
 395              	.LBB132:
 396              	.LBB133:
 397              		.loc 4 360 0
 398 0034 FFF7FEFF 		bl	_dbg_check_unlock
 399              	.LVL31:
ARM GAS  C:\Users\osour\AppData\Local\Temp\cc4N65Ig.s 			page 8


 400              		.loc 4 361 0
 401 0038 FFF7FEFF 		bl	_stats_stop_measure_crit_thd
 402              	.LVL32:
 403              		.loc 4 367 0
 404 003c 0F4B     		ldr	r3, .L36+8
 405 003e 1A68     		ldr	r2, [r3]
 406 0040 9A42     		cmp	r2, r3
 407 0042 04D0     		beq	.L30
 408 0044 9969     		ldr	r1, [r3, #24]
 409 0046 9368     		ldr	r3, [r2, #8]
 410 0048 8A68     		ldr	r2, [r1, #8]
 411 004a 9A42     		cmp	r2, r3
 412 004c 08D3     		bcc	.L34
 413              	.L30:
 414              	.LVL33:
 415              	.LBB134:
 416              	.LBB135:
 417              	.LBB136:
 418              		.loc 3 546 0
 419 004e 0023     		movs	r3, #0
 420              		.syntax unified
 421              	@ 546 "../../lib/e-puck2_main-processor/ChibiOS//os/ext/CMSIS/include/core_cmFunc.h" 1
 422 0050 83F31188 		MSR basepri, r3
 423              	@ 0 "" 2
 424              	.LVL34:
 425              		.thumb
 426              		.syntax unified
 427              	.LBE136:
 428              	.LBE135:
 429              	.LBE134:
 430              	.LBE133:
 431              	.LBE132:
 432              	.LBE131:
 433              		.loc 1 131 0
 434 0054 019A     		ldr	r2, [sp, #4]
 435 0056 2B68     		ldr	r3, [r5]
 436 0058 9A42     		cmp	r2, r3
 437 005a 09D1     		bne	.L35
 438 005c 03B0     		add	sp, sp, #12
 439              		.cfi_remember_state
 440              		.cfi_def_cfa_offset 12
 441              		@ sp needed
 442 005e 30BD     		pop	{r4, r5, pc}
 443              	.LVL35:
 444              	.L34:
 445              		.cfi_restore_state
 446              	.LBB139:
 447              	.LBB138:
 448              	.LBB137:
 449              		.loc 4 367 0
 450 0060 0748     		ldr	r0, .L36+12
 451 0062 FFF7FEFF 		bl	chSysHalt
 452              	.LVL36:
 453 0066 F2E7     		b	.L30
 454              	.LVL37:
 455              	.L33:
 456              	.LBE137:
ARM GAS  C:\Users\osour\AppData\Local\Temp\cc4N65Ig.s 			page 9


 457              	.LBE138:
 458              	.LBE139:
 459              		.loc 1 120 0 discriminator 2
 460 0068 0348     		ldr	r0, .L36+4
 461              	.LVL38:
 462 006a FFF7FEFF 		bl	chSysHalt
 463              	.LVL39:
 464 006e CEE7     		b	.L28
 465              	.L35:
 466              		.loc 1 131 0
 467 0070 FFF7FEFF 		bl	__stack_chk_fail
 468              	.LVL40:
 469              	.L37:
 470              		.align	2
 471              	.L36:
 472 0074 00000000 		.word	__stack_chk_guard
 473 0078 00000000 		.word	.LANCHOR2
 474 007c 00000000 		.word	ch
 475 0080 00000000 		.word	.LANCHOR1
 476              		.cfi_endproc
 477              	.LFE259:
 478              		.size	dacStop, .-dacStop
 479              		.section	.text.dacPutChannelX,"ax",%progbits
 480              		.align	1
 481              		.p2align 4,,15
 482              		.global	dacPutChannelX
 483              		.syntax unified
 484              		.thumb
 485              		.thumb_func
 486              		.fpu fpv4-sp-d16
 487              		.type	dacPutChannelX, %function
 488              	dacPutChannelX:
 489              	.LFB260:
 490              		.loc 1 142 0
 491              		.cfi_startproc
 492              		@ args = 0, pretend = 0, frame = 8
 493              		@ frame_needed = 0, uses_anonymous_args = 0
 494              	.LVL41:
 495 0000 F0B5     		push	{r4, r5, r6, r7, lr}
 496              		.cfi_def_cfa_offset 20
 497              		.cfi_offset 4, -20
 498              		.cfi_offset 5, -16
 499              		.cfi_offset 6, -12
 500              		.cfi_offset 7, -8
 501              		.cfi_offset 14, -4
 502 0002 104C     		ldr	r4, .L52
 503 0004 83B0     		sub	sp, sp, #12
 504              		.cfi_def_cfa_offset 32
 505              		.loc 1 142 0
 506 0006 2368     		ldr	r3, [r4]
 507 0008 0193     		str	r3, [sp, #4]
 508 000a 0546     		mov	r5, r0
 509 000c 1746     		mov	r7, r2
 510              		.loc 1 144 0
 511 000e 0E46     		mov	r6, r1
 512 0010 89B9     		cbnz	r1, .L50
 513              	.LVL42:
ARM GAS  C:\Users\osour\AppData\Local\Temp\cc4N65Ig.s 			page 10


 514              	.L39:
 515              		.loc 1 145 0 discriminator 1
 516 0012 2B78     		ldrb	r3, [r5]	@ zero_extendqisi2
 517 0014 022B     		cmp	r3, #2
 518 0016 02D0     		beq	.L40
 519              		.loc 1 145 0 is_stmt 0 discriminator 2
 520 0018 0B48     		ldr	r0, .L52+4
 521 001a FFF7FEFF 		bl	chSysHalt
 522              	.LVL43:
 523              	.L40:
 524              		.loc 1 147 0 is_stmt 1
 525 001e 0199     		ldr	r1, [sp, #4]
 526 0020 2368     		ldr	r3, [r4]
 527 0022 9942     		cmp	r1, r3
 528 0024 0BD1     		bne	.L51
 529 0026 3A46     		mov	r2, r7
 530 0028 3146     		mov	r1, r6
 531 002a 2846     		mov	r0, r5
 532              		.loc 1 148 0
 533 002c 03B0     		add	sp, sp, #12
 534              		.cfi_remember_state
 535              		.cfi_def_cfa_offset 20
 536              		@ sp needed
 537 002e BDE8F040 		pop	{r4, r5, r6, r7, lr}
 538              		.cfi_restore 14
 539              		.cfi_restore 7
 540              		.cfi_restore 6
 541              		.cfi_restore 5
 542              		.cfi_restore 4
 543              		.cfi_def_cfa_offset 0
 544              	.LVL44:
 545              		.loc 1 147 0
 546 0032 FFF7FEBF 		b	dac_lld_put_channel
 547              	.LVL45:
 548              	.L50:
 549              		.cfi_restore_state
 550              		.loc 1 144 0 discriminator 2
 551 0036 0448     		ldr	r0, .L52+4
 552              	.LVL46:
 553 0038 FFF7FEFF 		bl	chSysHalt
 554              	.LVL47:
 555 003c E9E7     		b	.L39
 556              	.L51:
 557              		.loc 1 147 0
 558 003e FFF7FEFF 		bl	__stack_chk_fail
 559              	.LVL48:
 560              	.L53:
 561 0042 00BF     		.align	2
 562              	.L52:
 563 0044 00000000 		.word	__stack_chk_guard
 564 0048 00000000 		.word	.LANCHOR3
 565              		.cfi_endproc
 566              	.LFE260:
 567              		.size	dacPutChannelX, .-dacPutChannelX
 568              		.section	.text.dacStartConversionI,"ax",%progbits
 569              		.align	1
 570              		.p2align 4,,15
ARM GAS  C:\Users\osour\AppData\Local\Temp\cc4N65Ig.s 			page 11


 571              		.global	dacStartConversionI
 572              		.syntax unified
 573              		.thumb
 574              		.thumb_func
 575              		.fpu fpv4-sp-d16
 576              		.type	dacStartConversionI, %function
 577              	dacStartConversionI:
 578              	.LFB262:
 579              		.loc 1 197 0
 580              		.cfi_startproc
 581              		@ args = 0, pretend = 0, frame = 8
 582              		@ frame_needed = 0, uses_anonymous_args = 0
 583              	.LVL49:
 584 0000 2DE9F041 		push	{r4, r5, r6, r7, r8, lr}
 585              		.cfi_def_cfa_offset 24
 586              		.cfi_offset 4, -24
 587              		.cfi_offset 5, -20
 588              		.cfi_offset 6, -16
 589              		.cfi_offset 7, -12
 590              		.cfi_offset 8, -8
 591              		.cfi_offset 14, -4
 592 0004 184D     		ldr	r5, .L80
 593 0006 82B0     		sub	sp, sp, #8
 594              		.cfi_def_cfa_offset 32
 595              		.loc 1 197 0
 596 0008 0446     		mov	r4, r0
 597 000a 2868     		ldr	r0, [r5]
 598              	.LVL50:
 599 000c 0190     		str	r0, [sp, #4]
 600 000e 0E46     		mov	r6, r1
 601 0010 9046     		mov	r8, r2
 602 0012 1F46     		mov	r7, r3
 603              		.loc 1 199 0
 604 0014 FFF7FEFF 		bl	chDbgCheckClassI
 605              	.LVL51:
 606              		.loc 1 200 0
 607 0018 3CB1     		cbz	r4, .L55
 608              		.loc 1 200 0 is_stmt 0 discriminator 3
 609 001a 36B1     		cbz	r6, .L55
 610              		.loc 1 200 0 discriminator 5
 611 001c B8F1000F 		cmp	r8, #0
 612 0020 03D0     		beq	.L55
 613              		.loc 1 200 0 discriminator 7
 614 0022 012F     		cmp	r7, #1
 615 0024 04D0     		beq	.L56
 616              		.loc 1 200 0 discriminator 8
 617 0026 FB07     		lsls	r3, r7, #31
 618 0028 02D5     		bpl	.L56
 619              	.L55:
 620              		.loc 1 200 0 discriminator 9
 621 002a 1048     		ldr	r0, .L80+4
 622 002c FFF7FEFF 		bl	chSysHalt
 623              	.LVL52:
 624              	.L56:
 625              		.loc 1 202 0 is_stmt 1 discriminator 1
 626 0030 2378     		ldrb	r3, [r4]	@ zero_extendqisi2
 627 0032 022B     		cmp	r3, #2
ARM GAS  C:\Users\osour\AppData\Local\Temp\cc4N65Ig.s 			page 12


 628 0034 05D0     		beq	.L57
 629              		.loc 1 202 0 is_stmt 0 discriminator 2
 630 0036 043B     		subs	r3, r3, #4
 631 0038 012B     		cmp	r3, #1
 632 003a 02D9     		bls	.L57
 633              		.loc 1 202 0 discriminator 4
 634 003c 0B48     		ldr	r0, .L80+4
 635 003e FFF7FEFF 		bl	chSysHalt
 636              	.LVL53:
 637              	.L57:
 638              		.loc 1 210 0 is_stmt 1
 639 0042 0323     		movs	r3, #3
 640 0044 2370     		strb	r3, [r4]
 641              		.loc 1 211 0
 642 0046 019A     		ldr	r2, [sp, #4]
 643 0048 2B68     		ldr	r3, [r5]
 644              		.loc 1 207 0
 645 004a C4F80880 		str	r8, [r4, #8]
 646              		.loc 1 211 0
 647 004e 9A42     		cmp	r2, r3
 648              		.loc 1 208 0
 649 0050 A781     		strh	r7, [r4, #12]	@ movhi
 650              		.loc 1 209 0
 651 0052 6660     		str	r6, [r4, #4]
 652              		.loc 1 211 0
 653 0054 05D1     		bne	.L79
 654 0056 2046     		mov	r0, r4
 655              		.loc 1 212 0
 656 0058 02B0     		add	sp, sp, #8
 657              		.cfi_remember_state
 658              		.cfi_def_cfa_offset 24
 659              		@ sp needed
 660 005a BDE8F041 		pop	{r4, r5, r6, r7, r8, lr}
 661              		.cfi_restore 14
 662              		.cfi_restore 8
 663              		.cfi_restore 7
 664              		.cfi_restore 6
 665              		.cfi_restore 5
 666              		.cfi_restore 4
 667              		.cfi_def_cfa_offset 0
 668              	.LVL54:
 669              		.loc 1 211 0
 670 005e FFF7FEBF 		b	dac_lld_start_conversion
 671              	.LVL55:
 672              	.L79:
 673              		.cfi_restore_state
 674 0062 FFF7FEFF 		bl	__stack_chk_fail
 675              	.LVL56:
 676              	.L81:
 677 0066 00BF     		.align	2
 678              	.L80:
 679 0068 00000000 		.word	__stack_chk_guard
 680 006c 00000000 		.word	.LANCHOR4
 681              		.cfi_endproc
 682              	.LFE262:
 683              		.size	dacStartConversionI, .-dacStartConversionI
 684              		.section	.text.dacStartConversion,"ax",%progbits
ARM GAS  C:\Users\osour\AppData\Local\Temp\cc4N65Ig.s 			page 13


 685              		.align	1
 686              		.p2align 4,,15
 687              		.global	dacStartConversion
 688              		.syntax unified
 689              		.thumb
 690              		.thumb_func
 691              		.fpu fpv4-sp-d16
 692              		.type	dacStartConversion, %function
 693              	dacStartConversion:
 694              	.LFB261:
 695              		.loc 1 169 0
 696              		.cfi_startproc
 697              		@ args = 0, pretend = 0, frame = 8
 698              		@ frame_needed = 0, uses_anonymous_args = 0
 699              	.LVL57:
 700 0000 2DE9F041 		push	{r4, r5, r6, r7, r8, lr}
 701              		.cfi_def_cfa_offset 24
 702              		.cfi_offset 4, -24
 703              		.cfi_offset 5, -20
 704              		.cfi_offset 6, -16
 705              		.cfi_offset 7, -12
 706              		.cfi_offset 8, -8
 707              		.cfi_offset 14, -4
 708 0004 184C     		ldr	r4, .L88
 709 0006 82B0     		sub	sp, sp, #8
 710              		.cfi_def_cfa_offset 32
 711              		.loc 1 169 0
 712 0008 2568     		ldr	r5, [r4]
 713 000a 0195     		str	r5, [sp, #4]
 714              	.LVL58:
 715 000c 9846     		mov	r8, r3
 716 000e 0546     		mov	r5, r0
 717 0010 0E46     		mov	r6, r1
 718 0012 1746     		mov	r7, r2
 719              	.LBB153:
 720              	.LBB154:
 721              	.LBB155:
 722              	.LBB156:
 723              	.LBB157:
 724              	.LBB158:
 725              		.loc 3 546 0
 726 0014 2023     		movs	r3, #32
 727              	.LVL59:
 728              		.syntax unified
 729              	@ 546 "../../lib/e-puck2_main-processor/ChibiOS//os/ext/CMSIS/include/core_cmFunc.h" 1
 730 0016 83F31188 		MSR basepri, r3
 731              	@ 0 "" 2
 732              	.LVL60:
 733              		.thumb
 734              		.syntax unified
 735              	.LBE158:
 736              	.LBE157:
 737              	.LBE156:
 738              		.loc 4 349 0
 739 001a FFF7FEFF 		bl	_stats_start_measure_crit_thd
 740              	.LVL61:
 741              		.loc 4 350 0
ARM GAS  C:\Users\osour\AppData\Local\Temp\cc4N65Ig.s 			page 14


 742 001e FFF7FEFF 		bl	_dbg_check_lock
 743              	.LVL62:
 744              	.LBE155:
 745              	.LBE154:
 746              	.LBE153:
 747              		.loc 1 172 0
 748 0022 4346     		mov	r3, r8
 749 0024 3A46     		mov	r2, r7
 750 0026 3146     		mov	r1, r6
 751 0028 2846     		mov	r0, r5
 752 002a FFF7FEFF 		bl	dacStartConversionI
 753              	.LVL63:
 754              	.LBB159:
 755              	.LBB160:
 756              	.LBB161:
 757              		.loc 4 360 0
 758 002e FFF7FEFF 		bl	_dbg_check_unlock
 759              	.LVL64:
 760              		.loc 4 361 0
 761 0032 FFF7FEFF 		bl	_stats_stop_measure_crit_thd
 762              	.LVL65:
 763              		.loc 4 367 0
 764 0036 0D4B     		ldr	r3, .L88+4
 765 0038 1A68     		ldr	r2, [r3]
 766 003a 9A42     		cmp	r2, r3
 767 003c 04D0     		beq	.L83
 768 003e 9969     		ldr	r1, [r3, #24]
 769 0040 9368     		ldr	r3, [r2, #8]
 770 0042 8A68     		ldr	r2, [r1, #8]
 771 0044 9A42     		cmp	r2, r3
 772 0046 09D3     		bcc	.L86
 773              	.L83:
 774              	.LVL66:
 775              	.LBB162:
 776              	.LBB163:
 777              	.LBB164:
 778              		.loc 3 546 0
 779 0048 0023     		movs	r3, #0
 780              		.syntax unified
 781              	@ 546 "../../lib/e-puck2_main-processor/ChibiOS//os/ext/CMSIS/include/core_cmFunc.h" 1
 782 004a 83F31188 		MSR basepri, r3
 783              	@ 0 "" 2
 784              	.LVL67:
 785              		.thumb
 786              		.syntax unified
 787              	.LBE164:
 788              	.LBE163:
 789              	.LBE162:
 790              	.LBE161:
 791              	.LBE160:
 792              	.LBE159:
 793              		.loc 1 174 0
 794 004e 019A     		ldr	r2, [sp, #4]
 795 0050 2368     		ldr	r3, [r4]
 796 0052 9A42     		cmp	r2, r3
 797 0054 06D1     		bne	.L87
 798 0056 02B0     		add	sp, sp, #8
ARM GAS  C:\Users\osour\AppData\Local\Temp\cc4N65Ig.s 			page 15


 799              		.cfi_remember_state
 800              		.cfi_def_cfa_offset 24
 801              		@ sp needed
 802 0058 BDE8F081 		pop	{r4, r5, r6, r7, r8, pc}
 803              	.LVL68:
 804              	.L86:
 805              		.cfi_restore_state
 806              	.LBB167:
 807              	.LBB166:
 808              	.LBB165:
 809              		.loc 4 367 0
 810 005c 0448     		ldr	r0, .L88+8
 811 005e FFF7FEFF 		bl	chSysHalt
 812              	.LVL69:
 813 0062 F1E7     		b	.L83
 814              	.L87:
 815              	.LBE165:
 816              	.LBE166:
 817              	.LBE167:
 818              		.loc 1 174 0
 819 0064 FFF7FEFF 		bl	__stack_chk_fail
 820              	.LVL70:
 821              	.L89:
 822              		.align	2
 823              	.L88:
 824 0068 00000000 		.word	__stack_chk_guard
 825 006c 00000000 		.word	ch
 826 0070 00000000 		.word	.LANCHOR1
 827              		.cfi_endproc
 828              	.LFE261:
 829              		.size	dacStartConversion, .-dacStartConversion
 830              		.section	.text.dacStopConversion,"ax",%progbits
 831              		.align	1
 832              		.p2align 4,,15
 833              		.global	dacStopConversion
 834              		.syntax unified
 835              		.thumb
 836              		.thumb_func
 837              		.fpu fpv4-sp-d16
 838              		.type	dacStopConversion, %function
 839              	dacStopConversion:
 840              	.LFB263:
 841              		.loc 1 224 0
 842              		.cfi_startproc
 843              		@ args = 0, pretend = 0, frame = 8
 844              		@ frame_needed = 0, uses_anonymous_args = 0
 845              	.LVL71:
 846 0000 30B5     		push	{r4, r5, lr}
 847              		.cfi_def_cfa_offset 12
 848              		.cfi_offset 4, -12
 849              		.cfi_offset 5, -8
 850              		.cfi_offset 14, -4
 851 0002 224D     		ldr	r5, .L103
 852 0004 83B0     		sub	sp, sp, #12
 853              		.cfi_def_cfa_offset 24
 854              		.loc 1 224 0
 855 0006 2B68     		ldr	r3, [r5]
ARM GAS  C:\Users\osour\AppData\Local\Temp\cc4N65Ig.s 			page 16


 856 0008 0193     		str	r3, [sp, #4]
 857              		.loc 1 226 0
 858 000a 0446     		mov	r4, r0
 859 000c 0028     		cmp	r0, #0
 860 000e 37D0     		beq	.L100
 861              	.LVL72:
 862              	.L91:
 863              	.LBB183:
 864              	.LBB184:
 865              	.LBB185:
 866              	.LBB186:
 867              	.LBB187:
 868              	.LBB188:
 869              		.loc 3 546 0
 870 0010 2023     		movs	r3, #32
 871              		.syntax unified
 872              	@ 546 "../../lib/e-puck2_main-processor/ChibiOS//os/ext/CMSIS/include/core_cmFunc.h" 1
 873 0012 83F31188 		MSR basepri, r3
 874              	@ 0 "" 2
 875              	.LVL73:
 876              		.thumb
 877              		.syntax unified
 878              	.LBE188:
 879              	.LBE187:
 880              	.LBE186:
 881              		.loc 4 349 0
 882 0016 FFF7FEFF 		bl	_stats_start_measure_crit_thd
 883              	.LVL74:
 884              		.loc 4 350 0
 885 001a FFF7FEFF 		bl	_dbg_check_lock
 886              	.LVL75:
 887              	.LBE185:
 888              	.LBE184:
 889              	.LBE183:
 890              		.loc 1 230 0
 891 001e 2378     		ldrb	r3, [r4]	@ zero_extendqisi2
 892 0020 9A1E     		subs	r2, r3, #2
 893 0022 012A     		cmp	r2, #1
 894 0024 03D9     		bls	.L92
 895              		.loc 1 230 0 is_stmt 0 discriminator 2
 896 0026 1A48     		ldr	r0, .L103+4
 897 0028 FFF7FEFF 		bl	chSysHalt
 898              	.LVL76:
 899 002c 2378     		ldrb	r3, [r4]	@ zero_extendqisi2
 900              	.L92:
 901              		.loc 1 234 0 is_stmt 1
 902 002e 022B     		cmp	r3, #2
 903 0030 0CD0     		beq	.L93
 904              		.loc 1 235 0
 905 0032 2046     		mov	r0, r4
 906 0034 FFF7FEFF 		bl	dac_lld_stop_conversion
 907              	.LVL77:
 908              		.loc 1 237 0
 909 0038 2046     		mov	r0, r4
 910              		.loc 1 236 0
 911 003a 0022     		movs	r2, #0
 912              		.loc 1 237 0
ARM GAS  C:\Users\osour\AppData\Local\Temp\cc4N65Ig.s 			page 17


 913 003c 0223     		movs	r3, #2
 914              		.loc 1 236 0
 915 003e 6260     		str	r2, [r4, #4]
 916              	.LBB189:
 917              	.LBB190:
 918              		.loc 2 697 0
 919 0040 6FF00101 		mvn	r1, #1
 920              	.LBE190:
 921              	.LBE189:
 922              		.loc 1 237 0
 923 0044 00F8143B 		strb	r3, [r0], #20
 924              	.LVL78:
 925              	.LBB192:
 926              	.LBB191:
 927              		.loc 2 697 0
 928 0048 FFF7FEFF 		bl	chThdResumeS
 929              	.LVL79:
 930              	.L93:
 931              	.LBE191:
 932              	.LBE192:
 933              	.LBB193:
 934              	.LBB194:
 935              	.LBB195:
 936              		.loc 4 360 0
 937 004c FFF7FEFF 		bl	_dbg_check_unlock
 938              	.LVL80:
 939              		.loc 4 361 0
 940 0050 FFF7FEFF 		bl	_stats_stop_measure_crit_thd
 941              	.LVL81:
 942              		.loc 4 367 0
 943 0054 0F4B     		ldr	r3, .L103+8
 944 0056 1A68     		ldr	r2, [r3]
 945 0058 9A42     		cmp	r2, r3
 946 005a 04D0     		beq	.L94
 947 005c 9969     		ldr	r1, [r3, #24]
 948 005e 9368     		ldr	r3, [r2, #8]
 949 0060 8A68     		ldr	r2, [r1, #8]
 950 0062 9A42     		cmp	r2, r3
 951 0064 08D3     		bcc	.L101
 952              	.L94:
 953              	.LVL82:
 954              	.LBB196:
 955              	.LBB197:
 956              	.LBB198:
 957              		.loc 3 546 0
 958 0066 0023     		movs	r3, #0
 959              		.syntax unified
 960              	@ 546 "../../lib/e-puck2_main-processor/ChibiOS//os/ext/CMSIS/include/core_cmFunc.h" 1
 961 0068 83F31188 		MSR basepri, r3
 962              	@ 0 "" 2
 963              	.LVL83:
 964              		.thumb
 965              		.syntax unified
 966              	.LBE198:
 967              	.LBE197:
 968              	.LBE196:
 969              	.LBE195:
ARM GAS  C:\Users\osour\AppData\Local\Temp\cc4N65Ig.s 			page 18


 970              	.LBE194:
 971              	.LBE193:
 972              		.loc 1 242 0
 973 006c 019A     		ldr	r2, [sp, #4]
 974 006e 2B68     		ldr	r3, [r5]
 975 0070 9A42     		cmp	r2, r3
 976 0072 09D1     		bne	.L102
 977 0074 03B0     		add	sp, sp, #12
 978              		.cfi_remember_state
 979              		.cfi_def_cfa_offset 12
 980              		@ sp needed
 981 0076 30BD     		pop	{r4, r5, pc}
 982              	.LVL84:
 983              	.L101:
 984              		.cfi_restore_state
 985              	.LBB201:
 986              	.LBB200:
 987              	.LBB199:
 988              		.loc 4 367 0
 989 0078 0748     		ldr	r0, .L103+12
 990 007a FFF7FEFF 		bl	chSysHalt
 991              	.LVL85:
 992 007e F2E7     		b	.L94
 993              	.LVL86:
 994              	.L100:
 995              	.LBE199:
 996              	.LBE200:
 997              	.LBE201:
 998              		.loc 1 226 0 discriminator 2
 999 0080 0348     		ldr	r0, .L103+4
 1000              	.LVL87:
 1001 0082 FFF7FEFF 		bl	chSysHalt
 1002              	.LVL88:
 1003 0086 C3E7     		b	.L91
 1004              	.L102:
 1005              		.loc 1 242 0
 1006 0088 FFF7FEFF 		bl	__stack_chk_fail
 1007              	.LVL89:
 1008              	.L104:
 1009              		.align	2
 1010              	.L103:
 1011 008c 00000000 		.word	__stack_chk_guard
 1012 0090 00000000 		.word	.LANCHOR5
 1013 0094 00000000 		.word	ch
 1014 0098 00000000 		.word	.LANCHOR1
 1015              		.cfi_endproc
 1016              	.LFE263:
 1017              		.size	dacStopConversion, .-dacStopConversion
 1018              		.section	.text.dacStopConversionI,"ax",%progbits
 1019              		.align	1
 1020              		.p2align 4,,15
 1021              		.global	dacStopConversionI
 1022              		.syntax unified
 1023              		.thumb
 1024              		.thumb_func
 1025              		.fpu fpv4-sp-d16
 1026              		.type	dacStopConversionI, %function
ARM GAS  C:\Users\osour\AppData\Local\Temp\cc4N65Ig.s 			page 19


 1027              	dacStopConversionI:
 1028              	.LFB264:
 1029              		.loc 1 254 0
 1030              		.cfi_startproc
 1031              		@ args = 0, pretend = 0, frame = 8
 1032              		@ frame_needed = 0, uses_anonymous_args = 0
 1033              	.LVL90:
 1034 0000 30B5     		push	{r4, r5, lr}
 1035              		.cfi_def_cfa_offset 12
 1036              		.cfi_offset 4, -12
 1037              		.cfi_offset 5, -8
 1038              		.cfi_offset 14, -4
 1039 0002 194D     		ldr	r5, .L115
 1040 0004 83B0     		sub	sp, sp, #12
 1041              		.cfi_def_cfa_offset 24
 1042              		.loc 1 254 0
 1043 0006 0446     		mov	r4, r0
 1044 0008 2B68     		ldr	r3, [r5]
 1045 000a 0193     		str	r3, [sp, #4]
 1046              		.loc 1 256 0
 1047 000c FFF7FEFF 		bl	chDbgCheckClassI
 1048              	.LVL91:
 1049              		.loc 1 257 0
 1050 0010 24B3     		cbz	r4, .L113
 1051              	.L106:
 1052              		.loc 1 258 0 discriminator 1
 1053 0012 2378     		ldrb	r3, [r4]	@ zero_extendqisi2
 1054 0014 9A1E     		subs	r2, r3, #2
 1055 0016 022A     		cmp	r2, #2
 1056 0018 1BD8     		bhi	.L114
 1057              	.L107:
 1058              		.loc 1 263 0
 1059 001a 022B     		cmp	r3, #2
 1060 001c 13D0     		beq	.L105
 1061              		.loc 1 264 0
 1062 001e 2046     		mov	r0, r4
 1063 0020 FFF7FEFF 		bl	dac_lld_stop_conversion
 1064              	.LVL92:
 1065              		.loc 1 266 0
 1066 0024 0223     		movs	r3, #2
 1067 0026 2370     		strb	r3, [r4]
 1068              	.LVL93:
 1069              	.LBB202:
 1070              	.LBB203:
 1071              		.loc 2 682 0
 1072 0028 019A     		ldr	r2, [sp, #4]
 1073 002a 2B68     		ldr	r3, [r5]
 1074              	.LBE203:
 1075              	.LBE202:
 1076              		.loc 1 265 0
 1077 002c 0021     		movs	r1, #0
 1078              	.LBB207:
 1079              	.LBB204:
 1080              		.loc 2 682 0
 1081 002e 9A42     		cmp	r2, r3
 1082              	.LBE204:
 1083              	.LBE207:
ARM GAS  C:\Users\osour\AppData\Local\Temp\cc4N65Ig.s 			page 20


 1084              		.loc 1 265 0
 1085 0030 6160     		str	r1, [r4, #4]
 1086              	.LBB208:
 1087              	.LBB205:
 1088              		.loc 2 682 0
 1089 0032 17D1     		bne	.L112
 1090 0034 04F11400 		add	r0, r4, #20
 1091              	.LVL94:
 1092 0038 6FF00101 		mvn	r1, #1
 1093              	.LBE205:
 1094              	.LBE208:
 1095              		.loc 1 269 0
 1096 003c 03B0     		add	sp, sp, #12
 1097              		.cfi_remember_state
 1098              		.cfi_def_cfa_offset 12
 1099              		@ sp needed
 1100 003e BDE83040 		pop	{r4, r5, lr}
 1101              		.cfi_restore 14
 1102              		.cfi_restore 5
 1103              		.cfi_restore 4
 1104              		.cfi_def_cfa_offset 0
 1105              	.LVL95:
 1106              	.LBB209:
 1107              	.LBB206:
 1108              		.loc 2 682 0
 1109 0042 FFF7FEBF 		b	chThdResumeI
 1110              	.LVL96:
 1111              	.L105:
 1112              		.cfi_restore_state
 1113              	.LBE206:
 1114              	.LBE209:
 1115              		.loc 1 269 0
 1116 0046 019A     		ldr	r2, [sp, #4]
 1117 0048 2B68     		ldr	r3, [r5]
 1118 004a 9A42     		cmp	r2, r3
 1119 004c 0AD1     		bne	.L112
 1120 004e 03B0     		add	sp, sp, #12
 1121              		.cfi_remember_state
 1122              		.cfi_def_cfa_offset 12
 1123              		@ sp needed
 1124 0050 30BD     		pop	{r4, r5, pc}
 1125              	.LVL97:
 1126              	.L114:
 1127              		.cfi_restore_state
 1128              		.loc 1 258 0 discriminator 2
 1129 0052 0648     		ldr	r0, .L115+4
 1130 0054 FFF7FEFF 		bl	chSysHalt
 1131              	.LVL98:
 1132 0058 2378     		ldrb	r3, [r4]	@ zero_extendqisi2
 1133 005a DEE7     		b	.L107
 1134              	.L113:
 1135              		.loc 1 257 0 discriminator 2
 1136 005c 0348     		ldr	r0, .L115+4
 1137 005e FFF7FEFF 		bl	chSysHalt
 1138              	.LVL99:
 1139 0062 D6E7     		b	.L106
 1140              	.L112:
ARM GAS  C:\Users\osour\AppData\Local\Temp\cc4N65Ig.s 			page 21


 1141              		.loc 1 269 0
 1142 0064 FFF7FEFF 		bl	__stack_chk_fail
 1143              	.LVL100:
 1144              	.L116:
 1145              		.align	2
 1146              	.L115:
 1147 0068 00000000 		.word	__stack_chk_guard
 1148 006c 00000000 		.word	.LANCHOR6
 1149              		.cfi_endproc
 1150              	.LFE264:
 1151              		.size	dacStopConversionI, .-dacStopConversionI
 1152              		.section	.text.dacConvert,"ax",%progbits
 1153              		.align	1
 1154              		.p2align 4,,15
 1155              		.global	dacConvert
 1156              		.syntax unified
 1157              		.thumb
 1158              		.thumb_func
 1159              		.fpu fpv4-sp-d16
 1160              		.type	dacConvert, %function
 1161              	dacConvert:
 1162              	.LFB265:
 1163              		.loc 1 298 0
 1164              		.cfi_startproc
 1165              		@ args = 0, pretend = 0, frame = 8
 1166              		@ frame_needed = 0, uses_anonymous_args = 0
 1167              	.LVL101:
 1168 0000 2DE9F041 		push	{r4, r5, r6, r7, r8, lr}
 1169              		.cfi_def_cfa_offset 24
 1170              		.cfi_offset 4, -24
 1171              		.cfi_offset 5, -20
 1172              		.cfi_offset 6, -16
 1173              		.cfi_offset 7, -12
 1174              		.cfi_offset 8, -8
 1175              		.cfi_offset 14, -4
 1176 0004 1B4C     		ldr	r4, .L123
 1177 0006 82B0     		sub	sp, sp, #8
 1178              		.cfi_def_cfa_offset 32
 1179              		.loc 1 298 0
 1180 0008 2568     		ldr	r5, [r4]
 1181 000a 0195     		str	r5, [sp, #4]
 1182              	.LVL102:
 1183 000c 9846     		mov	r8, r3
 1184 000e 0546     		mov	r5, r0
 1185 0010 0E46     		mov	r6, r1
 1186 0012 1746     		mov	r7, r2
 1187              	.LBB225:
 1188              	.LBB226:
 1189              	.LBB227:
 1190              	.LBB228:
 1191              	.LBB229:
 1192              	.LBB230:
 1193              		.loc 3 546 0
 1194 0014 2023     		movs	r3, #32
 1195              	.LVL103:
 1196              		.syntax unified
 1197              	@ 546 "../../lib/e-puck2_main-processor/ChibiOS//os/ext/CMSIS/include/core_cmFunc.h" 1
ARM GAS  C:\Users\osour\AppData\Local\Temp\cc4N65Ig.s 			page 22


 1198 0016 83F31188 		MSR basepri, r3
 1199              	@ 0 "" 2
 1200              	.LVL104:
 1201              		.thumb
 1202              		.syntax unified
 1203              	.LBE230:
 1204              	.LBE229:
 1205              	.LBE228:
 1206              		.loc 4 349 0
 1207 001a FFF7FEFF 		bl	_stats_start_measure_crit_thd
 1208              	.LVL105:
 1209              		.loc 4 350 0
 1210 001e FFF7FEFF 		bl	_dbg_check_lock
 1211              	.LVL106:
 1212              	.LBE227:
 1213              	.LBE226:
 1214              	.LBE225:
 1215              		.loc 1 303 0
 1216 0022 4346     		mov	r3, r8
 1217 0024 3A46     		mov	r2, r7
 1218 0026 3146     		mov	r1, r6
 1219 0028 2846     		mov	r0, r5
 1220 002a FFF7FEFF 		bl	dacStartConversionI
 1221              	.LVL107:
 1222              	.LBB231:
 1223              	.LBB232:
 1224              		.loc 2 642 0
 1225 002e 05F11400 		add	r0, r5, #20
 1226              	.LVL108:
 1227 0032 FFF7FEFF 		bl	chThdSuspendS
 1228              	.LVL109:
 1229 0036 0546     		mov	r5, r0
 1230              	.LVL110:
 1231              	.LBE232:
 1232              	.LBE231:
 1233              	.LBB233:
 1234              	.LBB234:
 1235              	.LBB235:
 1236              		.loc 4 360 0
 1237 0038 FFF7FEFF 		bl	_dbg_check_unlock
 1238              	.LVL111:
 1239              		.loc 4 361 0
 1240 003c FFF7FEFF 		bl	_stats_stop_measure_crit_thd
 1241              	.LVL112:
 1242              		.loc 4 367 0
 1243 0040 0D4B     		ldr	r3, .L123+4
 1244 0042 1A68     		ldr	r2, [r3]
 1245 0044 9A42     		cmp	r2, r3
 1246 0046 04D0     		beq	.L118
 1247 0048 9969     		ldr	r1, [r3, #24]
 1248 004a 9368     		ldr	r3, [r2, #8]
 1249 004c 8A68     		ldr	r2, [r1, #8]
 1250 004e 9A42     		cmp	r2, r3
 1251 0050 0AD3     		bcc	.L121
 1252              	.L118:
 1253              	.LVL113:
 1254              	.LBB236:
ARM GAS  C:\Users\osour\AppData\Local\Temp\cc4N65Ig.s 			page 23


 1255              	.LBB237:
 1256              	.LBB238:
 1257              		.loc 3 546 0
 1258 0052 0023     		movs	r3, #0
 1259              		.syntax unified
 1260              	@ 546 "../../lib/e-puck2_main-processor/ChibiOS//os/ext/CMSIS/include/core_cmFunc.h" 1
 1261 0054 83F31188 		MSR basepri, r3
 1262              	@ 0 "" 2
 1263              	.LVL114:
 1264              		.thumb
 1265              		.syntax unified
 1266              	.LBE238:
 1267              	.LBE237:
 1268              	.LBE236:
 1269              	.LBE235:
 1270              	.LBE234:
 1271              	.LBE233:
 1272              		.loc 1 308 0
 1273 0058 019A     		ldr	r2, [sp, #4]
 1274 005a 2368     		ldr	r3, [r4]
 1275 005c 9A42     		cmp	r2, r3
 1276 005e 2846     		mov	r0, r5
 1277 0060 06D1     		bne	.L122
 1278 0062 02B0     		add	sp, sp, #8
 1279              		.cfi_remember_state
 1280              		.cfi_def_cfa_offset 24
 1281              		@ sp needed
 1282 0064 BDE8F081 		pop	{r4, r5, r6, r7, r8, pc}
 1283              	.LVL115:
 1284              	.L121:
 1285              		.cfi_restore_state
 1286              	.LBB241:
 1287              	.LBB240:
 1288              	.LBB239:
 1289              		.loc 4 367 0
 1290 0068 0448     		ldr	r0, .L123+8
 1291 006a FFF7FEFF 		bl	chSysHalt
 1292              	.LVL116:
 1293 006e F0E7     		b	.L118
 1294              	.L122:
 1295              	.LBE239:
 1296              	.LBE240:
 1297              	.LBE241:
 1298              		.loc 1 308 0
 1299 0070 FFF7FEFF 		bl	__stack_chk_fail
 1300              	.LVL117:
 1301              	.L124:
 1302              		.align	2
 1303              	.L123:
 1304 0074 00000000 		.word	__stack_chk_guard
 1305 0078 00000000 		.word	ch
 1306 007c 00000000 		.word	.LANCHOR1
 1307              		.cfi_endproc
 1308              	.LFE265:
 1309              		.size	dacConvert, .-dacConvert
 1310              		.section	.text.dacAcquireBus,"ax",%progbits
 1311              		.align	1
ARM GAS  C:\Users\osour\AppData\Local\Temp\cc4N65Ig.s 			page 24


 1312              		.p2align 4,,15
 1313              		.global	dacAcquireBus
 1314              		.syntax unified
 1315              		.thumb
 1316              		.thumb_func
 1317              		.fpu fpv4-sp-d16
 1318              		.type	dacAcquireBus, %function
 1319              	dacAcquireBus:
 1320              	.LFB266:
 1321              		.loc 1 323 0
 1322              		.cfi_startproc
 1323              		@ args = 0, pretend = 0, frame = 8
 1324              		@ frame_needed = 0, uses_anonymous_args = 0
 1325              	.LVL118:
 1326 0000 30B5     		push	{r4, r5, lr}
 1327              		.cfi_def_cfa_offset 12
 1328              		.cfi_offset 4, -12
 1329              		.cfi_offset 5, -8
 1330              		.cfi_offset 14, -4
 1331 0002 0B4C     		ldr	r4, .L132
 1332 0004 83B0     		sub	sp, sp, #12
 1333              		.cfi_def_cfa_offset 24
 1334              		.loc 1 323 0
 1335 0006 2368     		ldr	r3, [r4]
 1336 0008 0193     		str	r3, [sp, #4]
 1337              		.loc 1 325 0
 1338 000a 0546     		mov	r5, r0
 1339 000c 50B1     		cbz	r0, .L130
 1340              	.LVL119:
 1341              	.L126:
 1342              	.LBB242:
 1343              	.LBB243:
 1344              		.loc 2 861 0
 1345 000e 019A     		ldr	r2, [sp, #4]
 1346 0010 2368     		ldr	r3, [r4]
 1347 0012 9A42     		cmp	r2, r3
 1348 0014 0AD1     		bne	.L131
 1349 0016 05F11800 		add	r0, r5, #24
 1350              	.LVL120:
 1351              	.LBE243:
 1352              	.LBE242:
 1353              		.loc 1 328 0
 1354 001a 03B0     		add	sp, sp, #12
 1355              		.cfi_remember_state
 1356              		.cfi_def_cfa_offset 12
 1357              		@ sp needed
 1358 001c BDE83040 		pop	{r4, r5, lr}
 1359              		.cfi_restore 14
 1360              		.cfi_restore 5
 1361              		.cfi_restore 4
 1362              		.cfi_def_cfa_offset 0
 1363              	.LVL121:
 1364              	.LBB246:
 1365              	.LBB244:
 1366              		.loc 2 861 0
 1367 0020 FFF7FEBF 		b	chMtxLock
 1368              	.LVL122:
ARM GAS  C:\Users\osour\AppData\Local\Temp\cc4N65Ig.s 			page 25


 1369              	.L130:
 1370              		.cfi_restore_state
 1371              	.LBE244:
 1372              	.LBE246:
 1373              		.loc 1 325 0 discriminator 2
 1374 0024 0348     		ldr	r0, .L132+4
 1375              	.LVL123:
 1376 0026 FFF7FEFF 		bl	chSysHalt
 1377              	.LVL124:
 1378 002a F0E7     		b	.L126
 1379              	.LVL125:
 1380              	.L131:
 1381              	.LBB247:
 1382              	.LBB245:
 1383              		.loc 2 861 0
 1384 002c FFF7FEFF 		bl	__stack_chk_fail
 1385              	.LVL126:
 1386              	.L133:
 1387              		.align	2
 1388              	.L132:
 1389 0030 00000000 		.word	__stack_chk_guard
 1390 0034 00000000 		.word	.LANCHOR7
 1391              	.LBE245:
 1392              	.LBE247:
 1393              		.cfi_endproc
 1394              	.LFE266:
 1395              		.size	dacAcquireBus, .-dacAcquireBus
 1396              		.section	.text.dacReleaseBus,"ax",%progbits
 1397              		.align	1
 1398              		.p2align 4,,15
 1399              		.global	dacReleaseBus
 1400              		.syntax unified
 1401              		.thumb
 1402              		.thumb_func
 1403              		.fpu fpv4-sp-d16
 1404              		.type	dacReleaseBus, %function
 1405              	dacReleaseBus:
 1406              	.LFB267:
 1407              		.loc 1 339 0
 1408              		.cfi_startproc
 1409              		@ args = 0, pretend = 0, frame = 8
 1410              		@ frame_needed = 0, uses_anonymous_args = 0
 1411              	.LVL127:
 1412 0000 30B5     		push	{r4, r5, lr}
 1413              		.cfi_def_cfa_offset 12
 1414              		.cfi_offset 4, -12
 1415              		.cfi_offset 5, -8
 1416              		.cfi_offset 14, -4
 1417 0002 0B4C     		ldr	r4, .L141
 1418 0004 83B0     		sub	sp, sp, #12
 1419              		.cfi_def_cfa_offset 24
 1420              		.loc 1 339 0
 1421 0006 2368     		ldr	r3, [r4]
 1422 0008 0193     		str	r3, [sp, #4]
 1423              		.loc 1 341 0
 1424 000a 0546     		mov	r5, r0
 1425 000c 50B1     		cbz	r0, .L139
ARM GAS  C:\Users\osour\AppData\Local\Temp\cc4N65Ig.s 			page 26


 1426              	.LVL128:
 1427              	.L135:
 1428              	.LBB248:
 1429              	.LBB249:
 1430              		.loc 2 885 0
 1431 000e 019A     		ldr	r2, [sp, #4]
 1432 0010 2368     		ldr	r3, [r4]
 1433 0012 9A42     		cmp	r2, r3
 1434 0014 0AD1     		bne	.L140
 1435 0016 05F11800 		add	r0, r5, #24
 1436              	.LVL129:
 1437              	.LBE249:
 1438              	.LBE248:
 1439              		.loc 1 344 0
 1440 001a 03B0     		add	sp, sp, #12
 1441              		.cfi_remember_state
 1442              		.cfi_def_cfa_offset 12
 1443              		@ sp needed
 1444 001c BDE83040 		pop	{r4, r5, lr}
 1445              		.cfi_restore 14
 1446              		.cfi_restore 5
 1447              		.cfi_restore 4
 1448              		.cfi_def_cfa_offset 0
 1449              	.LVL130:
 1450              	.LBB252:
 1451              	.LBB250:
 1452              		.loc 2 885 0
 1453 0020 FFF7FEBF 		b	chMtxUnlock
 1454              	.LVL131:
 1455              	.L139:
 1456              		.cfi_restore_state
 1457              	.LBE250:
 1458              	.LBE252:
 1459              		.loc 1 341 0 discriminator 2
 1460 0024 0348     		ldr	r0, .L141+4
 1461              	.LVL132:
 1462 0026 FFF7FEFF 		bl	chSysHalt
 1463              	.LVL133:
 1464 002a F0E7     		b	.L135
 1465              	.LVL134:
 1466              	.L140:
 1467              	.LBB253:
 1468              	.LBB251:
 1469              		.loc 2 885 0
 1470 002c FFF7FEFF 		bl	__stack_chk_fail
 1471              	.LVL135:
 1472              	.L142:
 1473              		.align	2
 1474              	.L141:
 1475 0030 00000000 		.word	__stack_chk_guard
 1476 0034 00000000 		.word	.LANCHOR8
 1477              	.LBE251:
 1478              	.LBE253:
 1479              		.cfi_endproc
 1480              	.LFE267:
 1481              		.size	dacReleaseBus, .-dacReleaseBus
 1482              		.section	.rodata.__func__.7153,"a",%progbits
ARM GAS  C:\Users\osour\AppData\Local\Temp\cc4N65Ig.s 			page 27


 1483              		.align	2
 1484              		.set	.LANCHOR1,. + 0
 1485              		.type	__func__.7153, %object
 1486              		.size	__func__.7153, 12
 1487              	__func__.7153:
 1488 0000 63685379 		.ascii	"chSysUnlock\000"
 1488      73556E6C 
 1488      6F636B00 
 1489              		.section	.rodata.__func__.9849,"a",%progbits
 1490              		.align	2
 1491              		.set	.LANCHOR0,. + 0
 1492              		.type	__func__.9849, %object
 1493              		.size	__func__.9849, 9
 1494              	__func__.9849:
 1495 0000 64616353 		.ascii	"dacStart\000"
 1495      74617274 
 1495      00
 1496              		.section	.rodata.__func__.9853,"a",%progbits
 1497              		.align	2
 1498              		.set	.LANCHOR2,. + 0
 1499              		.type	__func__.9853, %object
 1500              		.size	__func__.9853, 8
 1501              	__func__.9853:
 1502 0000 64616353 		.ascii	"dacStop\000"
 1502      746F7000 
 1503              		.section	.rodata.__func__.9859,"a",%progbits
 1504              		.align	2
 1505              		.set	.LANCHOR3,. + 0
 1506              		.type	__func__.9859, %object
 1507              		.size	__func__.9859, 15
 1508              	__func__.9859:
 1509 0000 64616350 		.ascii	"dacPutChannelX\000"
 1509      75744368 
 1509      616E6E65 
 1509      6C5800
 1510              		.section	.rodata.__func__.9872,"a",%progbits
 1511              		.align	2
 1512              		.set	.LANCHOR4,. + 0
 1513              		.type	__func__.9872, %object
 1514              		.size	__func__.9872, 20
 1515              	__func__.9872:
 1516 0000 64616353 		.ascii	"dacStartConversionI\000"
 1516      74617274 
 1516      436F6E76 
 1516      65727369 
 1516      6F6E4900 
 1517              		.section	.rodata.__func__.9876,"a",%progbits
 1518              		.align	2
 1519              		.set	.LANCHOR5,. + 0
 1520              		.type	__func__.9876, %object
 1521              		.size	__func__.9876, 18
 1522              	__func__.9876:
 1523 0000 64616353 		.ascii	"dacStopConversion\000"
 1523      746F7043 
 1523      6F6E7665 
 1523      7273696F 
 1523      6E00
ARM GAS  C:\Users\osour\AppData\Local\Temp\cc4N65Ig.s 			page 28


 1524              		.section	.rodata.__func__.9880,"a",%progbits
 1525              		.align	2
 1526              		.set	.LANCHOR6,. + 0
 1527              		.type	__func__.9880, %object
 1528              		.size	__func__.9880, 19
 1529              	__func__.9880:
 1530 0000 64616353 		.ascii	"dacStopConversionI\000"
 1530      746F7043 
 1530      6F6E7665 
 1530      7273696F 
 1530      6E4900
 1531              		.section	.rodata.__func__.9891,"a",%progbits
 1532              		.align	2
 1533              		.set	.LANCHOR7,. + 0
 1534              		.type	__func__.9891, %object
 1535              		.size	__func__.9891, 14
 1536              	__func__.9891:
 1537 0000 64616341 		.ascii	"dacAcquireBus\000"
 1537      63717569 
 1537      72654275 
 1537      7300
 1538              		.section	.rodata.__func__.9895,"a",%progbits
 1539              		.align	2
 1540              		.set	.LANCHOR8,. + 0
 1541              		.type	__func__.9895, %object
 1542              		.size	__func__.9895, 14
 1543              	__func__.9895:
 1544 0000 64616352 		.ascii	"dacReleaseBus\000"
 1544      656C6561 
 1544      73654275 
 1544      7300
 1545              		.text
 1546              	.Letext0:
 1547              		.file 5 "c:\\users\\osour\\desktop\\robotique\\eclipse_e-puck2\\tools\\gcc-arm-none-eabi-7-2017-q4
 1548              		.file 6 "c:\\users\\osour\\desktop\\robotique\\eclipse_e-puck2\\tools\\gcc-arm-none-eabi-7-2017-q4
 1549              		.file 7 "c:\\users\\osour\\desktop\\robotique\\eclipse_e-puck2\\tools\\gcc-arm-none-eabi-7-2017-q4
 1550              		.file 8 "../../lib/e-puck2_main-processor/ChibiOS//os/rt/ports/ARMCMx/compilers/GCC/chtypes.h"
 1551              		.file 9 "../../lib/e-puck2_main-processor/ChibiOS//os/rt/include/chsystypes.h"
 1552              		.file 10 "../../lib/e-puck2_main-processor/ChibiOS//os/rt/include/chschd.h"
 1553              		.file 11 "../../lib/e-puck2_main-processor/ChibiOS//os/ext/CMSIS/include/core_cm4.h"
 1554              		.file 12 "../../lib/e-puck2_main-processor/ChibiOS//os/ext/CMSIS/ST/system_stm32f4xx.h"
 1555              		.file 13 "../../lib/e-puck2_main-processor/ChibiOS//os/ext/CMSIS/ST/stm32f407xx.h"
 1556              		.file 14 "../../lib/e-puck2_main-processor/ChibiOS//os/rt/ports/ARMCMx/chcore.h"
 1557              		.file 15 "../../lib/e-puck2_main-processor/ChibiOS//os/rt/ports/ARMCMx/chcore_v7m.h"
 1558              		.file 16 "../../lib/e-puck2_main-processor/ChibiOS//os/rt/include/chdebug.h"
 1559              		.file 17 "../../lib/e-puck2_main-processor/ChibiOS//os/rt/include/chtm.h"
 1560              		.file 18 "../../lib/e-puck2_main-processor/ChibiOS//os/rt/include/chstats.h"
 1561              		.file 19 "../../lib/e-puck2_main-processor/ChibiOS//os/rt/include/chsem.h"
 1562              		.file 20 "../../lib/e-puck2_main-processor/ChibiOS//os/rt/include/chmtx.h"
 1563              		.file 21 "../../lib/e-puck2_main-processor/ChibiOS//os/rt/include/chregistry.h"
 1564              		.file 22 "../../lib/e-puck2_main-processor/ChibiOS//os/rt/include/chevents.h"
 1565              		.file 23 "../../lib/e-puck2_main-processor/ChibiOS//os/rt/include/chqueues.h"
 1566              		.file 24 "../../lib/e-puck2_main-processor/ChibiOS//os/hal/ports/STM32/STM32F4xx/stm32_dma.h"
 1567              		.file 25 "../../lib/e-puck2_main-processor/ChibiOS//os/hal/include/hal_ioblock.h"
 1568              		.file 26 "../../lib/e-puck2_main-processor/ChibiOS//os/hal/ports/STM32/LLD/GPIOv2/pal_lld.h"
 1569              		.file 27 "../../lib/e-puck2_main-processor/ChibiOS//os/hal/include/adc.h"
 1570              		.file 28 "../../lib/e-puck2_main-processor/ChibiOS//os/hal/ports/STM32/STM32F4xx/adc_lld.h"
ARM GAS  C:\Users\osour\AppData\Local\Temp\cc4N65Ig.s 			page 29


 1571              		.file 29 "../../lib/e-puck2_main-processor/ChibiOS//os/hal/include/can.h"
 1572              		.file 30 "../../lib/e-puck2_main-processor/ChibiOS//os/hal/ports/STM32/LLD/can_lld.h"
 1573              		.file 31 "../../lib/e-puck2_main-processor/ChibiOS//os/hal/include/dac.h"
 1574              		.file 32 "../../lib/e-puck2_main-processor/ChibiOS//os/hal/ports/STM32/LLD/DACv1/dac_lld.h"
 1575              		.file 33 "../../lib/e-puck2_main-processor/ChibiOS//os/hal/include/ext.h"
 1576              		.file 34 "../../lib/e-puck2_main-processor/ChibiOS//os/hal/ports/STM32/LLD/ext_lld.h"
 1577              		.file 35 "../../lib/e-puck2_main-processor/ChibiOS//os/hal/include/gpt.h"
 1578              		.file 36 "../../lib/e-puck2_main-processor/ChibiOS//os/hal/ports/STM32/LLD/TIMv1/gpt_lld.h"
 1579              		.file 37 "../../lib/e-puck2_main-processor/ChibiOS//os/hal/ports/STM32/LLD/TIMv1/stm32_tim.h"
 1580              		.file 38 "../../lib/e-puck2_main-processor/ChibiOS//os/hal/include/i2c.h"
 1581              		.file 39 "../../lib/e-puck2_main-processor/ChibiOS//os/hal/ports/STM32/LLD/I2Cv1/i2c_lld.h"
 1582              		.file 40 "../../lib/e-puck2_main-processor/ChibiOS//os/hal/include/i2s.h"
 1583              		.file 41 "../../lib/e-puck2_main-processor/ChibiOS//os/hal/ports/STM32/LLD/SPIv1/i2s_lld.h"
 1584              		.file 42 "../../lib/e-puck2_main-processor/ChibiOS//os/hal/include/pwm.h"
 1585              		.file 43 "../../lib/e-puck2_main-processor/ChibiOS//os/hal/ports/STM32/LLD/TIMv1/pwm_lld.h"
 1586              		.file 44 "../../lib/e-puck2_main-processor/ChibiOS//os/hal/include/serial.h"
 1587              		.file 45 "../../lib/e-puck2_main-processor/ChibiOS//os/hal/ports/STM32/LLD/USARTv1/serial_lld.h"
 1588              		.file 46 "../../lib/e-puck2_main-processor/ChibiOS//os/hal/include/sdc.h"
 1589              		.file 47 "../../lib/e-puck2_main-processor/ChibiOS//os/hal/ports/STM32/LLD/sdc_lld.h"
 1590              		.file 48 "../../lib/e-puck2_main-processor/ChibiOS//os/hal/include/spi.h"
 1591              		.file 49 "../../lib/e-puck2_main-processor/ChibiOS//os/hal/ports/STM32/LLD/SPIv1/spi_lld.h"
 1592              		.file 50 "../../lib/e-puck2_main-processor/ChibiOS//os/hal/include/usb.h"
 1593              		.file 51 "../../lib/e-puck2_main-processor/ChibiOS//os/hal/ports/STM32/LLD/OTGv1/usb_lld.h"
 1594              		.file 52 "../../lib/e-puck2_main-processor/ChibiOS//os/hal/ports/STM32/LLD/OTGv1/stm32_otg.h"
 1595              		.file 53 "../../lib/e-puck2_main-processor/ChibiOS//os/rt/include/chthreads.h"