ARM GAS  C:\Users\osour\AppData\Local\Temp\ccVzNnbm.s 			page 1


   1              		.cpu cortex-m4
   2              		.eabi_attribute 27, 1
   3              		.eabi_attribute 28, 1
   4              		.eabi_attribute 20, 1
   5              		.eabi_attribute 21, 1
   6              		.eabi_attribute 23, 3
   7              		.eabi_attribute 24, 1
   8              		.eabi_attribute 25, 1
   9              		.eabi_attribute 26, 1
  10              		.eabi_attribute 30, 2
  11              		.eabi_attribute 34, 1
  12              		.eabi_attribute 18, 4
  13              		.file	"e_I2C_protocol.c"
  14              		.text
  15              	.Ltext0:
  16              		.cfi_sections	.debug_frame
  17              		.section	.text.e_i2cp_init,"ax",%progbits
  18              		.align	1
  19              		.p2align 4,,15
  20              		.global	e_i2cp_init
  21              		.syntax unified
  22              		.thumb
  23              		.thumb_func
  24              		.fpu fpv4-sp-d16
  25              		.type	e_i2cp_init, %function
  26              	e_i2cp_init:
  27              	.LFB256:
  28              		.file 1 "../../lib/e-puck2_main-processor/src/epuck1x/I2C/e_I2C_protocol.c"
  29              		.loc 1 37 0
  30              		.cfi_startproc
  31              		@ args = 0, pretend = 0, frame = 8
  32              		@ frame_needed = 0, uses_anonymous_args = 0
  33 0000 00B5     		push	{lr}
  34              		.cfi_def_cfa_offset 4
  35              		.cfi_offset 14, -4
  36 0002 064B     		ldr	r3, .L6
  37 0004 83B0     		sub	sp, sp, #12
  38              		.cfi_def_cfa_offset 16
  39              		.loc 1 37 0
  40 0006 1A68     		ldr	r2, [r3]
  41 0008 0192     		str	r2, [sp, #4]
  42              		.loc 1 39 0
  43 000a 019A     		ldr	r2, [sp, #4]
  44 000c 1B68     		ldr	r3, [r3]
  45 000e 9A42     		cmp	r2, r3
  46 0010 02D1     		bne	.L5
  47 0012 03B0     		add	sp, sp, #12
  48              		.cfi_remember_state
  49              		.cfi_def_cfa_offset 4
  50              		@ sp needed
  51 0014 5DF804FB 		ldr	pc, [sp], #4
  52              	.L5:
  53              		.cfi_restore_state
  54 0018 FFF7FEFF 		bl	__stack_chk_fail
  55              	.LVL0:
  56              	.L7:
  57              		.align	2
ARM GAS  C:\Users\osour\AppData\Local\Temp\ccVzNnbm.s 			page 2


  58              	.L6:
  59 001c 00000000 		.word	__stack_chk_guard
  60              		.cfi_endproc
  61              	.LFE256:
  62              		.size	e_i2cp_init, .-e_i2cp_init
  63              		.section	.text.e_i2cp_deinit,"ax",%progbits
  64              		.align	1
  65              		.p2align 4,,15
  66              		.global	e_i2cp_deinit
  67              		.syntax unified
  68              		.thumb
  69              		.thumb_func
  70              		.fpu fpv4-sp-d16
  71              		.type	e_i2cp_deinit, %function
  72              	e_i2cp_deinit:
  73              	.LFB263:
  74              		.cfi_startproc
  75              		@ args = 0, pretend = 0, frame = 8
  76              		@ frame_needed = 0, uses_anonymous_args = 0
  77 0000 00B5     		push	{lr}
  78              		.cfi_def_cfa_offset 4
  79              		.cfi_offset 14, -4
  80 0002 064B     		ldr	r3, .L12
  81 0004 83B0     		sub	sp, sp, #12
  82              		.cfi_def_cfa_offset 16
  83 0006 1A68     		ldr	r2, [r3]
  84 0008 0192     		str	r2, [sp, #4]
  85 000a 019A     		ldr	r2, [sp, #4]
  86 000c 1B68     		ldr	r3, [r3]
  87 000e 9A42     		cmp	r2, r3
  88 0010 02D1     		bne	.L11
  89 0012 03B0     		add	sp, sp, #12
  90              		.cfi_remember_state
  91              		.cfi_def_cfa_offset 4
  92              		@ sp needed
  93 0014 5DF804FB 		ldr	pc, [sp], #4
  94              	.L11:
  95              		.cfi_restore_state
  96 0018 FFF7FEFF 		bl	__stack_chk_fail
  97              	.L13:
  98              		.align	2
  99              	.L12:
 100 001c 00000000 		.word	__stack_chk_guard
 101              		.cfi_endproc
 102              	.LFE263:
 103              		.size	e_i2cp_deinit, .-e_i2cp_deinit
 104              		.section	.text.e_i2cp_enable,"ax",%progbits
 105              		.align	1
 106              		.p2align 4,,15
 107              		.global	e_i2cp_enable
 108              		.syntax unified
 109              		.thumb
 110              		.thumb_func
 111              		.fpu fpv4-sp-d16
 112              		.type	e_i2cp_enable, %function
 113              	e_i2cp_enable:
 114              	.LFB265:
ARM GAS  C:\Users\osour\AppData\Local\Temp\ccVzNnbm.s 			page 3


 115              		.cfi_startproc
 116              		@ args = 0, pretend = 0, frame = 8
 117              		@ frame_needed = 0, uses_anonymous_args = 0
 118 0000 00B5     		push	{lr}
 119              		.cfi_def_cfa_offset 4
 120              		.cfi_offset 14, -4
 121 0002 064B     		ldr	r3, .L18
 122 0004 83B0     		sub	sp, sp, #12
 123              		.cfi_def_cfa_offset 16
 124 0006 1A68     		ldr	r2, [r3]
 125 0008 0192     		str	r2, [sp, #4]
 126 000a 019A     		ldr	r2, [sp, #4]
 127 000c 1B68     		ldr	r3, [r3]
 128 000e 9A42     		cmp	r2, r3
 129 0010 02D1     		bne	.L17
 130 0012 03B0     		add	sp, sp, #12
 131              		.cfi_remember_state
 132              		.cfi_def_cfa_offset 4
 133              		@ sp needed
 134 0014 5DF804FB 		ldr	pc, [sp], #4
 135              	.L17:
 136              		.cfi_restore_state
 137 0018 FFF7FEFF 		bl	__stack_chk_fail
 138              	.L19:
 139              		.align	2
 140              	.L18:
 141 001c 00000000 		.word	__stack_chk_guard
 142              		.cfi_endproc
 143              	.LFE265:
 144              		.size	e_i2cp_enable, .-e_i2cp_enable
 145              		.section	.text.e_i2cp_disable,"ax",%progbits
 146              		.align	1
 147              		.p2align 4,,15
 148              		.global	e_i2cp_disable
 149              		.syntax unified
 150              		.thumb
 151              		.thumb_func
 152              		.fpu fpv4-sp-d16
 153              		.type	e_i2cp_disable, %function
 154              	e_i2cp_disable:
 155              	.LFB267:
 156              		.cfi_startproc
 157              		@ args = 0, pretend = 0, frame = 8
 158              		@ frame_needed = 0, uses_anonymous_args = 0
 159 0000 00B5     		push	{lr}
 160              		.cfi_def_cfa_offset 4
 161              		.cfi_offset 14, -4
 162 0002 064B     		ldr	r3, .L24
 163 0004 83B0     		sub	sp, sp, #12
 164              		.cfi_def_cfa_offset 16
 165 0006 1A68     		ldr	r2, [r3]
 166 0008 0192     		str	r2, [sp, #4]
 167 000a 019A     		ldr	r2, [sp, #4]
 168 000c 1B68     		ldr	r3, [r3]
 169 000e 9A42     		cmp	r2, r3
 170 0010 02D1     		bne	.L23
 171 0012 03B0     		add	sp, sp, #12
ARM GAS  C:\Users\osour\AppData\Local\Temp\ccVzNnbm.s 			page 4


 172              		.cfi_remember_state
 173              		.cfi_def_cfa_offset 4
 174              		@ sp needed
 175 0014 5DF804FB 		ldr	pc, [sp], #4
 176              	.L23:
 177              		.cfi_restore_state
 178 0018 FFF7FEFF 		bl	__stack_chk_fail
 179              	.L25:
 180              		.align	2
 181              	.L24:
 182 001c 00000000 		.word	__stack_chk_guard
 183              		.cfi_endproc
 184              	.LFE267:
 185              		.size	e_i2cp_disable, .-e_i2cp_disable
 186              		.section	.text.e_i2cp_read,"ax",%progbits
 187              		.align	1
 188              		.p2align 4,,15
 189              		.global	e_i2cp_read
 190              		.syntax unified
 191              		.thumb
 192              		.thumb_func
 193              		.fpu fpv4-sp-d16
 194              		.type	e_i2cp_read, %function
 195              	e_i2cp_read:
 196              	.LFB260:
 197              		.loc 1 68 0
 198              		.cfi_startproc
 199              		@ args = 0, pretend = 0, frame = 8
 200              		@ frame_needed = 0, uses_anonymous_args = 0
 201              	.LVL1:
 202              		.loc 1 68 0
 203 0000 10B5     		push	{r4, lr}
 204              		.cfi_def_cfa_offset 8
 205              		.cfi_offset 4, -8
 206              		.cfi_offset 14, -4
 207 0002 82B0     		sub	sp, sp, #8
 208              		.cfi_def_cfa_offset 16
 209              		.loc 1 69 0
 210 0004 02AA     		add	r2, sp, #8
 211              		.loc 1 68 0
 212 0006 094C     		ldr	r4, .L30
 213              		.loc 1 69 0
 214 0008 0023     		movs	r3, #0
 215 000a 02F8053D 		strb	r3, [r2, #-5]!
 216              		.loc 1 70 0
 217 000e 4008     		lsrs	r0, r0, #1
 218              	.LVL2:
 219              		.loc 1 68 0
 220 0010 2368     		ldr	r3, [r4]
 221 0012 0193     		str	r3, [sp, #4]
 222              		.loc 1 70 0
 223 0014 FFF7FEFF 		bl	read_reg
 224              	.LVL3:
 225              		.loc 1 72 0
 226 0018 019A     		ldr	r2, [sp, #4]
 227 001a 2368     		ldr	r3, [r4]
 228 001c 9DF80300 		ldrb	r0, [sp, #3]	@ zero_extendqisi2
ARM GAS  C:\Users\osour\AppData\Local\Temp\ccVzNnbm.s 			page 5


 229 0020 9A42     		cmp	r2, r3
 230 0022 01D1     		bne	.L29
 231 0024 02B0     		add	sp, sp, #8
 232              		.cfi_remember_state
 233              		.cfi_def_cfa_offset 8
 234              		@ sp needed
 235 0026 10BD     		pop	{r4, pc}
 236              	.L29:
 237              		.cfi_restore_state
 238 0028 FFF7FEFF 		bl	__stack_chk_fail
 239              	.LVL4:
 240              	.L31:
 241              		.align	2
 242              	.L30:
 243 002c 00000000 		.word	__stack_chk_guard
 244              		.cfi_endproc
 245              	.LFE260:
 246              		.size	e_i2cp_read, .-e_i2cp_read
 247              		.section	.text.e_i2cp_write,"ax",%progbits
 248              		.align	1
 249              		.p2align 4,,15
 250              		.global	e_i2cp_write
 251              		.syntax unified
 252              		.thumb
 253              		.thumb_func
 254              		.fpu fpv4-sp-d16
 255              		.type	e_i2cp_write, %function
 256              	e_i2cp_write:
 257              	.LFB261:
 258              		.loc 1 81 0
 259              		.cfi_startproc
 260              		@ args = 0, pretend = 0, frame = 8
 261              		@ frame_needed = 0, uses_anonymous_args = 0
 262              	.LVL5:
 263 0000 10B5     		push	{r4, lr}
 264              		.cfi_def_cfa_offset 8
 265              		.cfi_offset 4, -8
 266              		.cfi_offset 14, -4
 267 0002 094C     		ldr	r4, .L36
 268 0004 82B0     		sub	sp, sp, #8
 269              		.cfi_def_cfa_offset 16
 270              		.loc 1 81 0
 271 0006 2368     		ldr	r3, [r4]
 272 0008 0193     		str	r3, [sp, #4]
 273              	.LVL6:
 274              		.loc 1 83 0
 275 000a 4008     		lsrs	r0, r0, #1
 276              	.LVL7:
 277 000c FFF7FEFF 		bl	write_reg
 278              	.LVL8:
 279              		.loc 1 88 0
 280 0010 019A     		ldr	r2, [sp, #4]
 281 0012 2368     		ldr	r3, [r4]
 282 0014 9A42     		cmp	r2, r3
 283 0016 04D1     		bne	.L35
 284 0018 B0FA80F0 		clz	r0, r0
 285              	.LVL9:
ARM GAS  C:\Users\osour\AppData\Local\Temp\ccVzNnbm.s 			page 6


 286 001c 4009     		lsrs	r0, r0, #5
 287 001e 02B0     		add	sp, sp, #8
 288              		.cfi_remember_state
 289              		.cfi_def_cfa_offset 8
 290              		@ sp needed
 291 0020 10BD     		pop	{r4, pc}
 292              	.LVL10:
 293              	.L35:
 294              		.cfi_restore_state
 295 0022 FFF7FEFF 		bl	__stack_chk_fail
 296              	.LVL11:
 297              	.L37:
 298 0026 00BF     		.align	2
 299              	.L36:
 300 0028 00000000 		.word	__stack_chk_guard
 301              		.cfi_endproc
 302              	.LFE261:
 303              		.size	e_i2cp_write, .-e_i2cp_write
 304              		.text
 305              	.Letext0:
 306              		.file 2 "c:\\users\\osour\\desktop\\robotique\\eclipse_e-puck2\\tools\\gcc-arm-none-eabi-7-2017-q4
 307              		.file 3 "c:\\users\\osour\\desktop\\robotique\\eclipse_e-puck2\\tools\\gcc-arm-none-eabi-7-2017-q4
 308              		.file 4 "c:\\users\\osour\\desktop\\robotique\\eclipse_e-puck2\\tools\\gcc-arm-none-eabi-7-2017-q4
 309              		.file 5 "../../lib/e-puck2_main-processor/ChibiOS//os/rt/ports/ARMCMx/compilers/GCC/chtypes.h"
 310              		.file 6 "../../lib/e-puck2_main-processor/ChibiOS//os/rt/include/chsystypes.h"
 311              		.file 7 "../../lib/e-puck2_main-processor/ChibiOS//os/rt/include/chschd.h"
 312              		.file 8 "../../lib/e-puck2_main-processor/ChibiOS//os/ext/CMSIS/include/core_cm4.h"
 313              		.file 9 "../../lib/e-puck2_main-processor/ChibiOS//os/ext/CMSIS/ST/system_stm32f4xx.h"
 314              		.file 10 "../../lib/e-puck2_main-processor/ChibiOS//os/ext/CMSIS/ST/stm32f407xx.h"
 315              		.file 11 "../../lib/e-puck2_main-processor/ChibiOS//os/rt/ports/ARMCMx/chcore.h"
 316              		.file 12 "../../lib/e-puck2_main-processor/ChibiOS//os/rt/ports/ARMCMx/chcore_v7m.h"
 317              		.file 13 "../../lib/e-puck2_main-processor/ChibiOS//os/rt/include/chdebug.h"
 318              		.file 14 "../../lib/e-puck2_main-processor/ChibiOS//os/rt/include/chtm.h"
 319              		.file 15 "../../lib/e-puck2_main-processor/ChibiOS//os/rt/include/chstats.h"
 320              		.file 16 "../../lib/e-puck2_main-processor/ChibiOS//os/rt/include/chsem.h"
 321              		.file 17 "../../lib/e-puck2_main-processor/ChibiOS//os/rt/include/chmtx.h"
 322              		.file 18 "../../lib/e-puck2_main-processor/ChibiOS//os/rt/include/chregistry.h"
 323              		.file 19 "../../lib/e-puck2_main-processor/ChibiOS//os/rt/include/chevents.h"
 324              		.file 20 "../../lib/e-puck2_main-processor/ChibiOS//os/rt/include/chqueues.h"
 325              		.file 21 "../../lib/e-puck2_main-processor/ChibiOS//os/hal/ports/STM32/STM32F4xx/stm32_dma.h"
 326              		.file 22 "../../lib/e-puck2_main-processor/ChibiOS//os/hal/include/hal_ioblock.h"
 327              		.file 23 "../../lib/e-puck2_main-processor/ChibiOS//os/hal/ports/STM32/LLD/GPIOv2/pal_lld.h"
 328              		.file 24 "../../lib/e-puck2_main-processor/ChibiOS//os/hal/include/adc.h"
 329              		.file 25 "../../lib/e-puck2_main-processor/ChibiOS//os/hal/ports/STM32/STM32F4xx/adc_lld.h"
 330              		.file 26 "../../lib/e-puck2_main-processor/ChibiOS//os/hal/include/can.h"
 331              		.file 27 "../../lib/e-puck2_main-processor/ChibiOS//os/hal/ports/STM32/LLD/can_lld.h"
 332              		.file 28 "../../lib/e-puck2_main-processor/ChibiOS//os/hal/include/dac.h"
 333              		.file 29 "../../lib/e-puck2_main-processor/ChibiOS//os/hal/ports/STM32/LLD/DACv1/dac_lld.h"
 334              		.file 30 "../../lib/e-puck2_main-processor/ChibiOS//os/hal/include/ext.h"
 335              		.file 31 "../../lib/e-puck2_main-processor/ChibiOS//os/hal/ports/STM32/LLD/ext_lld.h"
 336              		.file 32 "../../lib/e-puck2_main-processor/ChibiOS//os/hal/include/gpt.h"
 337              		.file 33 "../../lib/e-puck2_main-processor/ChibiOS//os/hal/ports/STM32/LLD/TIMv1/gpt_lld.h"
 338              		.file 34 "../../lib/e-puck2_main-processor/ChibiOS//os/hal/ports/STM32/LLD/TIMv1/stm32_tim.h"
 339              		.file 35 "../../lib/e-puck2_main-processor/ChibiOS//os/hal/include/i2c.h"
 340              		.file 36 "../../lib/e-puck2_main-processor/ChibiOS//os/hal/ports/STM32/LLD/I2Cv1/i2c_lld.h"
 341              		.file 37 "../../lib/e-puck2_main-processor/ChibiOS//os/hal/include/i2s.h"
 342              		.file 38 "../../lib/e-puck2_main-processor/ChibiOS//os/hal/ports/STM32/LLD/SPIv1/i2s_lld.h"
ARM GAS  C:\Users\osour\AppData\Local\Temp\ccVzNnbm.s 			page 7


 343              		.file 39 "../../lib/e-puck2_main-processor/ChibiOS//os/hal/include/pwm.h"
 344              		.file 40 "../../lib/e-puck2_main-processor/ChibiOS//os/hal/ports/STM32/LLD/TIMv1/pwm_lld.h"
 345              		.file 41 "../../lib/e-puck2_main-processor/ChibiOS//os/hal/include/serial.h"
 346              		.file 42 "../../lib/e-puck2_main-processor/ChibiOS//os/hal/ports/STM32/LLD/USARTv1/serial_lld.h"
 347              		.file 43 "../../lib/e-puck2_main-processor/ChibiOS//os/hal/include/sdc.h"
 348              		.file 44 "../../lib/e-puck2_main-processor/ChibiOS//os/hal/ports/STM32/LLD/sdc_lld.h"
 349              		.file 45 "../../lib/e-puck2_main-processor/ChibiOS//os/hal/include/spi.h"
 350              		.file 46 "../../lib/e-puck2_main-processor/ChibiOS//os/hal/ports/STM32/LLD/SPIv1/spi_lld.h"
 351              		.file 47 "../../lib/e-puck2_main-processor/ChibiOS//os/hal/include/usb.h"
 352              		.file 48 "../../lib/e-puck2_main-processor/ChibiOS//os/hal/ports/STM32/LLD/OTGv1/usb_lld.h"
 353              		.file 49 "../../lib/e-puck2_main-processor/ChibiOS//os/hal/ports/STM32/LLD/OTGv1/stm32_otg.h"
 354              		.file 50 "../../lib/e-puck2_main-processor/src/epuck1x/../i2c_bus.h"