ARM GAS  C:\Users\osour\AppData\Local\Temp\ccbvXwa9.s 			page 1


   1              		.cpu cortex-m4
   2              		.eabi_attribute 27, 1
   3              		.eabi_attribute 28, 1
   4              		.eabi_attribute 20, 1
   5              		.eabi_attribute 21, 1
   6              		.eabi_attribute 23, 3
   7              		.eabi_attribute 24, 1
   8              		.eabi_attribute 25, 1
   9              		.eabi_attribute 26, 1
  10              		.eabi_attribute 30, 2
  11              		.eabi_attribute 34, 1
  12              		.eabi_attribute 18, 4
  13              		.file	"e_led.c"
  14              		.text
  15              	.Ltext0:
  16              		.cfi_sections	.debug_frame
  17              		.section	.text.e_set_led,"ax",%progbits
  18              		.align	1
  19              		.p2align 4,,15
  20              		.global	e_set_led
  21              		.syntax unified
  22              		.thumb
  23              		.thumb_func
  24              		.fpu fpv4-sp-d16
  25              		.type	e_set_led, %function
  26              	e_set_led:
  27              	.LFB256:
  28              		.file 1 "../../lib/e-puck2_main-processor/src/epuck1x/motor_led/advance_one_timer/e_led.c"
  29              		.loc 1 25 0
  30              		.cfi_startproc
  31              		@ args = 0, pretend = 0, frame = 8
  32              		@ frame_needed = 0, uses_anonymous_args = 0
  33              	.LVL0:
  34 0000 70B5     		push	{r4, r5, r6, lr}
  35              		.cfi_def_cfa_offset 16
  36              		.cfi_offset 4, -16
  37              		.cfi_offset 5, -12
  38              		.cfi_offset 6, -8
  39              		.cfi_offset 14, -4
  40 0002 514E     		ldr	r6, .L37
  41 0004 82B0     		sub	sp, sp, #8
  42              		.cfi_def_cfa_offset 24
  43              		.loc 1 25 0
  44 0006 3368     		ldr	r3, [r6]
  45 0008 0193     		str	r3, [sp, #4]
  46 000a 0C46     		mov	r4, r1
  47              		.loc 1 26 0
  48 000c 0728     		cmp	r0, #7
  49 000e 00F28B80 		bhi	.L29
  50 0012 DFE800F0 		tbb	[pc, r0]
  51              	.L4:
  52 0016 13       		.byte	(.L3-.L4)/2
  53 0017 1D       		.byte	(.L5-.L4)/2
  54 0018 27       		.byte	(.L6-.L4)/2
  55 0019 31       		.byte	(.L7-.L4)/2
  56 001a 3B       		.byte	(.L8-.L4)/2
  57 001b 45       		.byte	(.L9-.L4)/2
ARM GAS  C:\Users\osour\AppData\Local\Temp\ccbvXwa9.s 			page 2


  58 001c 4F       		.byte	(.L10-.L4)/2
  59 001d 04       		.byte	(.L11-.L4)/2
  60              		.p2align 1
  61              	.L11:
  62              		.loc 1 62 0
  63 001e 0129     		cmp	r1, #1
  64              		.loc 1 63 0
  65 0020 019A     		ldr	r2, [sp, #4]
  66 0022 3368     		ldr	r3, [r6]
  67              		.loc 1 62 0
  68 0024 50D9     		bls	.L25
  69              		.loc 1 63 0
  70 0026 9A42     		cmp	r2, r3
  71 0028 40F08C80 		bne	.L34
  72 002c 0A22     		movs	r2, #10
  73 002e 0021     		movs	r1, #0
  74              	.LVL1:
  75 0030 0320     		movs	r0, #3
  76              	.LVL2:
  77              	.L33:
  78              		.loc 1 74 0
  79 0032 02B0     		add	sp, sp, #8
  80              		.cfi_remember_state
  81              		.cfi_def_cfa_offset 16
  82              		@ sp needed
  83 0034 BDE87040 		pop	{r4, r5, r6, lr}
  84              		.cfi_restore 14
  85              		.cfi_restore 6
  86              		.cfi_restore 5
  87              		.cfi_restore 4
  88              		.cfi_def_cfa_offset 0
  89              	.LVL3:
  90              		.loc 1 43 0
  91 0038 FFF7FEBF 		b	toggle_rgb_led
  92              	.LVL4:
  93              	.L3:
  94              		.cfi_restore_state
  95              		.loc 1 29 0
  96 003c 019A     		ldr	r2, [sp, #4]
  97 003e 3368     		ldr	r3, [r6]
  98 0040 9A42     		cmp	r2, r3
  99 0042 7FD1     		bne	.L34
 100 0044 0020     		movs	r0, #0
 101              	.LVL5:
 102              		.loc 1 74 0
 103 0046 02B0     		add	sp, sp, #8
 104              		.cfi_remember_state
 105              		.cfi_def_cfa_offset 16
 106              		@ sp needed
 107 0048 BDE87040 		pop	{r4, r5, r6, lr}
 108              		.cfi_restore 14
 109              		.cfi_restore 6
 110              		.cfi_restore 5
 111              		.cfi_restore 4
 112              		.cfi_def_cfa_offset 0
 113              		.loc 1 39 0
 114 004c FFF7FEBF 		b	set_led
ARM GAS  C:\Users\osour\AppData\Local\Temp\ccbvXwa9.s 			page 3


 115              	.LVL6:
 116              	.L5:
 117              		.cfi_restore_state
 118              		.loc 1 32 0
 119 0050 0129     		cmp	r1, #1
 120              		.loc 1 33 0
 121 0052 019A     		ldr	r2, [sp, #4]
 122 0054 3368     		ldr	r3, [r6]
 123              		.loc 1 32 0
 124 0056 5CD9     		bls	.L13
 125              		.loc 1 33 0
 126 0058 9A42     		cmp	r2, r3
 127 005a 73D1     		bne	.L34
 128 005c 0021     		movs	r1, #0
 129              	.LVL7:
 130 005e 0846     		mov	r0, r1
 131              	.LVL8:
 132 0060 0A22     		movs	r2, #10
 133 0062 E6E7     		b	.L33
 134              	.LVL9:
 135              	.L6:
 136              		.loc 1 39 0
 137 0064 019A     		ldr	r2, [sp, #4]
 138 0066 3368     		ldr	r3, [r6]
 139 0068 9A42     		cmp	r2, r3
 140 006a 6BD1     		bne	.L34
 141 006c 0120     		movs	r0, #1
 142              	.LVL10:
 143              		.loc 1 74 0
 144 006e 02B0     		add	sp, sp, #8
 145              		.cfi_remember_state
 146              		.cfi_def_cfa_offset 16
 147              		@ sp needed
 148 0070 BDE87040 		pop	{r4, r5, r6, lr}
 149              		.cfi_restore 14
 150              		.cfi_restore 6
 151              		.cfi_restore 5
 152              		.cfi_restore 4
 153              		.cfi_def_cfa_offset 0
 154              		.loc 1 39 0
 155 0074 FFF7FEBF 		b	set_led
 156              	.LVL11:
 157              	.L7:
 158              		.cfi_restore_state
 159              		.loc 1 42 0
 160 0078 0129     		cmp	r1, #1
 161              		.loc 1 43 0
 162 007a 019A     		ldr	r2, [sp, #4]
 163 007c 3368     		ldr	r3, [r6]
 164              		.loc 1 42 0
 165 007e 3DD9     		bls	.L17
 166              		.loc 1 43 0
 167 0080 9A42     		cmp	r2, r3
 168 0082 5FD1     		bne	.L34
 169 0084 0A22     		movs	r2, #10
 170 0086 0021     		movs	r1, #0
 171              	.LVL12:
ARM GAS  C:\Users\osour\AppData\Local\Temp\ccbvXwa9.s 			page 4


 172 0088 0120     		movs	r0, #1
 173              	.LVL13:
 174 008a D2E7     		b	.L33
 175              	.LVL14:
 176              	.L8:
 177              		.loc 1 49 0
 178 008c 019A     		ldr	r2, [sp, #4]
 179 008e 3368     		ldr	r3, [r6]
 180 0090 9A42     		cmp	r2, r3
 181 0092 57D1     		bne	.L34
 182 0094 0220     		movs	r0, #2
 183              	.LVL15:
 184              		.loc 1 74 0
 185 0096 02B0     		add	sp, sp, #8
 186              		.cfi_remember_state
 187              		.cfi_def_cfa_offset 16
 188              		@ sp needed
 189 0098 BDE87040 		pop	{r4, r5, r6, lr}
 190              		.cfi_restore 14
 191              		.cfi_restore 6
 192              		.cfi_restore 5
 193              		.cfi_restore 4
 194              		.cfi_def_cfa_offset 0
 195              		.loc 1 39 0
 196 009c FFF7FEBF 		b	set_led
 197              	.LVL16:
 198              	.L9:
 199              		.cfi_restore_state
 200              		.loc 1 52 0
 201 00a0 0129     		cmp	r1, #1
 202              		.loc 1 53 0
 203 00a2 019A     		ldr	r2, [sp, #4]
 204 00a4 3368     		ldr	r3, [r6]
 205              		.loc 1 52 0
 206 00a6 1ED9     		bls	.L21
 207              		.loc 1 53 0
 208 00a8 9A42     		cmp	r2, r3
 209 00aa 4BD1     		bne	.L34
 210 00ac 0A22     		movs	r2, #10
 211 00ae 0021     		movs	r1, #0
 212              	.LVL17:
 213 00b0 0220     		movs	r0, #2
 214              	.LVL18:
 215 00b2 BEE7     		b	.L33
 216              	.LVL19:
 217              	.L10:
 218              		.loc 1 59 0
 219 00b4 019A     		ldr	r2, [sp, #4]
 220 00b6 3368     		ldr	r3, [r6]
 221 00b8 9A42     		cmp	r2, r3
 222 00ba 43D1     		bne	.L34
 223 00bc 0320     		movs	r0, #3
 224              	.LVL20:
 225              		.loc 1 74 0
 226 00be 02B0     		add	sp, sp, #8
 227              		.cfi_remember_state
 228              		.cfi_def_cfa_offset 16
ARM GAS  C:\Users\osour\AppData\Local\Temp\ccbvXwa9.s 			page 5


 229              		@ sp needed
 230 00c0 BDE87040 		pop	{r4, r5, r6, lr}
 231              		.cfi_restore 14
 232              		.cfi_restore 6
 233              		.cfi_restore 5
 234              		.cfi_restore 4
 235              		.cfi_def_cfa_offset 0
 236              		.loc 1 39 0
 237 00c4 FFF7FEBF 		b	set_led
 238              	.LVL21:
 239              	.L25:
 240              		.cfi_restore_state
 241              		.loc 1 65 0
 242 00c8 9A42     		cmp	r2, r3
 243 00ca 3BD1     		bne	.L34
 244 00cc 01EB8104 		add	r4, r1, r1, lsl #2
 245 00d0 6100     		lsls	r1, r4, #1
 246              	.LVL22:
 247 00d2 0023     		movs	r3, #0
 248 00d4 01F0FE01 		and	r1, r1, #254
 249 00d8 1A46     		mov	r2, r3
 250 00da 0320     		movs	r0, #3
 251              	.LVL23:
 252              	.L35:
 253              		.loc 1 74 0
 254 00dc 02B0     		add	sp, sp, #8
 255              		.cfi_remember_state
 256              		.cfi_def_cfa_offset 16
 257              		@ sp needed
 258 00de BDE87040 		pop	{r4, r5, r6, lr}
 259              		.cfi_restore 14
 260              		.cfi_restore 6
 261              		.cfi_restore 5
 262              		.cfi_restore 4
 263              		.cfi_def_cfa_offset 0
 264              		.loc 1 65 0
 265 00e2 FFF7FEBF 		b	set_rgb_led
 266              	.LVL24:
 267              	.L21:
 268              		.cfi_restore_state
 269              		.loc 1 55 0
 270 00e6 9A42     		cmp	r2, r3
 271 00e8 2CD1     		bne	.L34
 272 00ea 01EB8104 		add	r4, r1, r1, lsl #2
 273 00ee 6100     		lsls	r1, r4, #1
 274              	.LVL25:
 275 00f0 0023     		movs	r3, #0
 276 00f2 01F0FE01 		and	r1, r1, #254
 277 00f6 1A46     		mov	r2, r3
 278 00f8 0220     		movs	r0, #2
 279              	.LVL26:
 280 00fa EFE7     		b	.L35
 281              	.LVL27:
 282              	.L17:
 283              		.loc 1 45 0
 284 00fc 9A42     		cmp	r2, r3
 285 00fe 21D1     		bne	.L34
ARM GAS  C:\Users\osour\AppData\Local\Temp\ccbvXwa9.s 			page 6


 286 0100 01EB8104 		add	r4, r1, r1, lsl #2
 287 0104 6100     		lsls	r1, r4, #1
 288              	.LVL28:
 289 0106 0023     		movs	r3, #0
 290 0108 01F0FE01 		and	r1, r1, #254
 291 010c 1A46     		mov	r2, r3
 292 010e 0120     		movs	r0, #1
 293              	.LVL29:
 294 0110 E4E7     		b	.L35
 295              	.LVL30:
 296              	.L13:
 297              		.loc 1 35 0
 298 0112 9A42     		cmp	r2, r3
 299 0114 16D1     		bne	.L34
 300 0116 01EB8104 		add	r4, r1, r1, lsl #2
 301 011a 0023     		movs	r3, #0
 302 011c 6100     		lsls	r1, r4, #1
 303              	.LVL31:
 304 011e 01F0FE01 		and	r1, r1, #254
 305 0122 1A46     		mov	r2, r3
 306 0124 1846     		mov	r0, r3
 307              	.LVL32:
 308 0126 D9E7     		b	.L35
 309              	.LVL33:
 310              	.L29:
 311              	.LBB6:
 312              		.loc 1 69 0
 313 0128 0025     		movs	r5, #0
 314              	.LVL34:
 315              	.L2:
 316              		.loc 1 70 0 discriminator 3
 317 012a 2846     		mov	r0, r5
 318 012c 2146     		mov	r1, r4
 319              		.loc 1 69 0 discriminator 3
 320 012e 0135     		adds	r5, r5, #1
 321              	.LVL35:
 322              		.loc 1 70 0 discriminator 3
 323 0130 FFF7FEFF 		bl	e_set_led
 324              	.LVL36:
 325              		.loc 1 69 0 discriminator 3
 326 0134 082D     		cmp	r5, #8
 327 0136 F8D1     		bne	.L2
 328              	.LBE6:
 329              		.loc 1 74 0
 330 0138 019A     		ldr	r2, [sp, #4]
 331 013a 3368     		ldr	r3, [r6]
 332 013c 9A42     		cmp	r2, r3
 333 013e 01D1     		bne	.L34
 334 0140 02B0     		add	sp, sp, #8
 335              		@ sp needed
 336 0142 70BD     		pop	{r4, r5, r6, pc}
 337              	.LVL37:
 338              	.L34:
 339 0144 FFF7FEFF 		bl	__stack_chk_fail
 340              	.LVL38:
 341              	.L38:
 342              		.align	2
ARM GAS  C:\Users\osour\AppData\Local\Temp\ccbvXwa9.s 			page 7


 343              	.L37:
 344 0148 00000000 		.word	__stack_chk_guard
 345              		.cfi_endproc
 346              	.LFE256:
 347              		.size	e_set_led, .-e_set_led
 348              		.section	.text.e_led_clear,"ax",%progbits
 349              		.align	1
 350              		.p2align 4,,15
 351              		.global	e_led_clear
 352              		.syntax unified
 353              		.thumb
 354              		.thumb_func
 355              		.fpu fpv4-sp-d16
 356              		.type	e_led_clear, %function
 357              	e_led_clear:
 358              	.LFB257:
 359              		.loc 1 82 0
 360              		.cfi_startproc
 361              		@ args = 0, pretend = 0, frame = 8
 362              		@ frame_needed = 0, uses_anonymous_args = 0
 363 0000 00B5     		push	{lr}
 364              		.cfi_def_cfa_offset 4
 365              		.cfi_offset 14, -4
 366 0002 074B     		ldr	r3, .L44
 367 0004 83B0     		sub	sp, sp, #12
 368              		.cfi_def_cfa_offset 16
 369              		.loc 1 82 0
 370 0006 1A68     		ldr	r2, [r3]
 371 0008 0192     		str	r2, [sp, #4]
 372              		.loc 1 83 0
 373 000a 019A     		ldr	r2, [sp, #4]
 374 000c 1B68     		ldr	r3, [r3]
 375 000e 9A42     		cmp	r2, r3
 376 0010 04D1     		bne	.L43
 377              		.loc 1 84 0
 378 0012 03B0     		add	sp, sp, #12
 379              		.cfi_remember_state
 380              		.cfi_def_cfa_offset 4
 381              		@ sp needed
 382 0014 5DF804EB 		ldr	lr, [sp], #4
 383              		.cfi_restore 14
 384              		.cfi_def_cfa_offset 0
 385              		.loc 1 83 0
 386 0018 FFF7FEBF 		b	clear_leds
 387              	.LVL39:
 388              	.L43:
 389              		.cfi_restore_state
 390 001c FFF7FEFF 		bl	__stack_chk_fail
 391              	.LVL40:
 392              	.L45:
 393              		.align	2
 394              	.L44:
 395 0020 00000000 		.word	__stack_chk_guard
 396              		.cfi_endproc
 397              	.LFE257:
 398              		.size	e_led_clear, .-e_led_clear
 399              		.section	.text.e_set_body_led,"ax",%progbits
ARM GAS  C:\Users\osour\AppData\Local\Temp\ccbvXwa9.s 			page 8


 400              		.align	1
 401              		.p2align 4,,15
 402              		.global	e_set_body_led
 403              		.syntax unified
 404              		.thumb
 405              		.thumb_func
 406              		.fpu fpv4-sp-d16
 407              		.type	e_set_body_led, %function
 408              	e_set_body_led:
 409              	.LFB258:
 410              		.loc 1 93 0
 411              		.cfi_startproc
 412              		@ args = 0, pretend = 0, frame = 8
 413              		@ frame_needed = 0, uses_anonymous_args = 0
 414              	.LVL41:
 415 0000 00B5     		push	{lr}
 416              		.cfi_def_cfa_offset 4
 417              		.cfi_offset 14, -4
 418 0002 074B     		ldr	r3, .L51
 419 0004 83B0     		sub	sp, sp, #12
 420              		.cfi_def_cfa_offset 16
 421              		.loc 1 93 0
 422 0006 1A68     		ldr	r2, [r3]
 423 0008 0192     		str	r2, [sp, #4]
 424              		.loc 1 94 0
 425 000a 019A     		ldr	r2, [sp, #4]
 426 000c 1B68     		ldr	r3, [r3]
 427 000e 9A42     		cmp	r2, r3
 428 0010 04D1     		bne	.L50
 429              		.loc 1 95 0
 430 0012 03B0     		add	sp, sp, #12
 431              		.cfi_remember_state
 432              		.cfi_def_cfa_offset 4
 433              		@ sp needed
 434 0014 5DF804EB 		ldr	lr, [sp], #4
 435              		.cfi_restore 14
 436              		.cfi_def_cfa_offset 0
 437              		.loc 1 94 0
 438 0018 FFF7FEBF 		b	set_body_led
 439              	.LVL42:
 440              	.L50:
 441              		.cfi_restore_state
 442 001c FFF7FEFF 		bl	__stack_chk_fail
 443              	.LVL43:
 444              	.L52:
 445              		.align	2
 446              	.L51:
 447 0020 00000000 		.word	__stack_chk_guard
 448              		.cfi_endproc
 449              	.LFE258:
 450              		.size	e_set_body_led, .-e_set_body_led
 451              		.section	.text.e_set_front_led,"ax",%progbits
 452              		.align	1
 453              		.p2align 4,,15
 454              		.global	e_set_front_led
 455              		.syntax unified
 456              		.thumb
ARM GAS  C:\Users\osour\AppData\Local\Temp\ccbvXwa9.s 			page 9


 457              		.thumb_func
 458              		.fpu fpv4-sp-d16
 459              		.type	e_set_front_led, %function
 460              	e_set_front_led:
 461              	.LFB259:
 462              		.loc 1 104 0
 463              		.cfi_startproc
 464              		@ args = 0, pretend = 0, frame = 8
 465              		@ frame_needed = 0, uses_anonymous_args = 0
 466              	.LVL44:
 467 0000 00B5     		push	{lr}
 468              		.cfi_def_cfa_offset 4
 469              		.cfi_offset 14, -4
 470 0002 074B     		ldr	r3, .L58
 471 0004 83B0     		sub	sp, sp, #12
 472              		.cfi_def_cfa_offset 16
 473              		.loc 1 104 0
 474 0006 1A68     		ldr	r2, [r3]
 475 0008 0192     		str	r2, [sp, #4]
 476              		.loc 1 105 0
 477 000a 019A     		ldr	r2, [sp, #4]
 478 000c 1B68     		ldr	r3, [r3]
 479 000e 9A42     		cmp	r2, r3
 480 0010 04D1     		bne	.L57
 481              		.loc 1 106 0
 482 0012 03B0     		add	sp, sp, #12
 483              		.cfi_remember_state
 484              		.cfi_def_cfa_offset 4
 485              		@ sp needed
 486 0014 5DF804EB 		ldr	lr, [sp], #4
 487              		.cfi_restore 14
 488              		.cfi_def_cfa_offset 0
 489              		.loc 1 105 0
 490 0018 FFF7FEBF 		b	set_front_led
 491              	.LVL45:
 492              	.L57:
 493              		.cfi_restore_state
 494 001c FFF7FEFF 		bl	__stack_chk_fail
 495              	.LVL46:
 496              	.L59:
 497              		.align	2
 498              	.L58:
 499 0020 00000000 		.word	__stack_chk_guard
 500              		.cfi_endproc
 501              	.LFE259:
 502              		.size	e_set_front_led, .-e_set_front_led
 503              		.section	.text.e_blink_led,"ax",%progbits
 504              		.align	1
 505              		.p2align 4,,15
 506              		.global	e_blink_led
 507              		.syntax unified
 508              		.thumb
 509              		.thumb_func
 510              		.fpu fpv4-sp-d16
 511              		.type	e_blink_led, %function
 512              	e_blink_led:
 513              	.LFB260:
ARM GAS  C:\Users\osour\AppData\Local\Temp\ccbvXwa9.s 			page 10


 514              		.loc 1 114 0
 515              		.cfi_startproc
 516              		@ args = 0, pretend = 0, frame = 8
 517              		@ frame_needed = 0, uses_anonymous_args = 0
 518 0000 00B5     		push	{lr}
 519              		.cfi_def_cfa_offset 4
 520              		.cfi_offset 14, -4
 521 0002 084B     		ldr	r3, .L65
 522 0004 83B0     		sub	sp, sp, #12
 523              		.cfi_def_cfa_offset 16
 524              		.loc 1 114 0
 525 0006 1A68     		ldr	r2, [r3]
 526 0008 0192     		str	r2, [sp, #4]
 527              		.loc 1 115 0
 528 000a 019A     		ldr	r2, [sp, #4]
 529 000c 1B68     		ldr	r3, [r3]
 530 000e 9A42     		cmp	r2, r3
 531 0010 06D1     		bne	.L64
 532 0012 0221     		movs	r1, #2
 533 0014 0420     		movs	r0, #4
 534              		.loc 1 117 0
 535 0016 03B0     		add	sp, sp, #12
 536              		.cfi_remember_state
 537              		.cfi_def_cfa_offset 4
 538              		@ sp needed
 539 0018 5DF804EB 		ldr	lr, [sp], #4
 540              		.cfi_restore 14
 541              		.cfi_def_cfa_offset 0
 542              		.loc 1 115 0
 543 001c FFF7FEBF 		b	set_led
 544              	.LVL47:
 545              	.L64:
 546              		.cfi_restore_state
 547 0020 FFF7FEFF 		bl	__stack_chk_fail
 548              	.LVL48:
 549              	.L66:
 550              		.align	2
 551              	.L65:
 552 0024 00000000 		.word	__stack_chk_guard
 553              		.cfi_endproc
 554              	.LFE260:
 555              		.size	e_blink_led, .-e_blink_led
 556              		.section	.text.e_blink_led0,"ax",%progbits
 557              		.align	1
 558              		.p2align 4,,15
 559              		.global	e_blink_led0
 560              		.syntax unified
 561              		.thumb
 562              		.thumb_func
 563              		.fpu fpv4-sp-d16
 564              		.type	e_blink_led0, %function
 565              	e_blink_led0:
 566              	.LFB261:
 567              		.loc 1 125 0
 568              		.cfi_startproc
 569              		@ args = 0, pretend = 0, frame = 8
 570              		@ frame_needed = 0, uses_anonymous_args = 0
ARM GAS  C:\Users\osour\AppData\Local\Temp\ccbvXwa9.s 			page 11


 571 0000 00B5     		push	{lr}
 572              		.cfi_def_cfa_offset 4
 573              		.cfi_offset 14, -4
 574 0002 084B     		ldr	r3, .L72
 575 0004 83B0     		sub	sp, sp, #12
 576              		.cfi_def_cfa_offset 16
 577              		.loc 1 125 0
 578 0006 1A68     		ldr	r2, [r3]
 579 0008 0192     		str	r2, [sp, #4]
 580              		.loc 1 126 0
 581 000a 019A     		ldr	r2, [sp, #4]
 582 000c 1B68     		ldr	r3, [r3]
 583 000e 9A42     		cmp	r2, r3
 584 0010 06D1     		bne	.L71
 585 0012 0221     		movs	r1, #2
 586 0014 0020     		movs	r0, #0
 587              		.loc 1 127 0
 588 0016 03B0     		add	sp, sp, #12
 589              		.cfi_remember_state
 590              		.cfi_def_cfa_offset 4
 591              		@ sp needed
 592 0018 5DF804EB 		ldr	lr, [sp], #4
 593              		.cfi_restore 14
 594              		.cfi_def_cfa_offset 0
 595              		.loc 1 126 0
 596 001c FFF7FEBF 		b	set_led
 597              	.LVL49:
 598              	.L71:
 599              		.cfi_restore_state
 600 0020 FFF7FEFF 		bl	__stack_chk_fail
 601              	.LVL50:
 602              	.L73:
 603              		.align	2
 604              	.L72:
 605 0024 00000000 		.word	__stack_chk_guard
 606              		.cfi_endproc
 607              	.LFE261:
 608              		.size	e_blink_led0, .-e_blink_led0
 609              		.section	.text.e_blink_led1,"ax",%progbits
 610              		.align	1
 611              		.p2align 4,,15
 612              		.global	e_blink_led1
 613              		.syntax unified
 614              		.thumb
 615              		.thumb_func
 616              		.fpu fpv4-sp-d16
 617              		.type	e_blink_led1, %function
 618              	e_blink_led1:
 619              	.LFB262:
 620              		.loc 1 135 0
 621              		.cfi_startproc
 622              		@ args = 0, pretend = 0, frame = 8
 623              		@ frame_needed = 0, uses_anonymous_args = 0
 624 0000 00B5     		push	{lr}
 625              		.cfi_def_cfa_offset 4
 626              		.cfi_offset 14, -4
 627 0002 064B     		ldr	r3, .L78
ARM GAS  C:\Users\osour\AppData\Local\Temp\ccbvXwa9.s 			page 12


 628 0004 83B0     		sub	sp, sp, #12
 629              		.cfi_def_cfa_offset 16
 630              		.loc 1 135 0
 631 0006 1A68     		ldr	r2, [r3]
 632 0008 0192     		str	r2, [sp, #4]
 633              		.loc 1 137 0
 634 000a 019A     		ldr	r2, [sp, #4]
 635 000c 1B68     		ldr	r3, [r3]
 636 000e 9A42     		cmp	r2, r3
 637 0010 02D1     		bne	.L77
 638 0012 03B0     		add	sp, sp, #12
 639              		.cfi_remember_state
 640              		.cfi_def_cfa_offset 4
 641              		@ sp needed
 642 0014 5DF804FB 		ldr	pc, [sp], #4
 643              	.L77:
 644              		.cfi_restore_state
 645 0018 FFF7FEFF 		bl	__stack_chk_fail
 646              	.LVL51:
 647              	.L79:
 648              		.align	2
 649              	.L78:
 650 001c 00000000 		.word	__stack_chk_guard
 651              		.cfi_endproc
 652              	.LFE262:
 653              		.size	e_blink_led1, .-e_blink_led1
 654              		.section	.text.e_blink_led2,"ax",%progbits
 655              		.align	1
 656              		.p2align 4,,15
 657              		.global	e_blink_led2
 658              		.syntax unified
 659              		.thumb
 660              		.thumb_func
 661              		.fpu fpv4-sp-d16
 662              		.type	e_blink_led2, %function
 663              	e_blink_led2:
 664              	.LFB263:
 665              		.loc 1 145 0
 666              		.cfi_startproc
 667              		@ args = 0, pretend = 0, frame = 8
 668              		@ frame_needed = 0, uses_anonymous_args = 0
 669 0000 00B5     		push	{lr}
 670              		.cfi_def_cfa_offset 4
 671              		.cfi_offset 14, -4
 672 0002 084B     		ldr	r3, .L85
 673 0004 83B0     		sub	sp, sp, #12
 674              		.cfi_def_cfa_offset 16
 675              		.loc 1 145 0
 676 0006 1A68     		ldr	r2, [r3]
 677 0008 0192     		str	r2, [sp, #4]
 678              		.loc 1 146 0
 679 000a 019A     		ldr	r2, [sp, #4]
 680 000c 1B68     		ldr	r3, [r3]
 681 000e 9A42     		cmp	r2, r3
 682 0010 06D1     		bne	.L84
 683 0012 0221     		movs	r1, #2
 684 0014 0120     		movs	r0, #1
ARM GAS  C:\Users\osour\AppData\Local\Temp\ccbvXwa9.s 			page 13


 685              		.loc 1 147 0
 686 0016 03B0     		add	sp, sp, #12
 687              		.cfi_remember_state
 688              		.cfi_def_cfa_offset 4
 689              		@ sp needed
 690 0018 5DF804EB 		ldr	lr, [sp], #4
 691              		.cfi_restore 14
 692              		.cfi_def_cfa_offset 0
 693              		.loc 1 146 0
 694 001c FFF7FEBF 		b	set_led
 695              	.LVL52:
 696              	.L84:
 697              		.cfi_restore_state
 698 0020 FFF7FEFF 		bl	__stack_chk_fail
 699              	.LVL53:
 700              	.L86:
 701              		.align	2
 702              	.L85:
 703 0024 00000000 		.word	__stack_chk_guard
 704              		.cfi_endproc
 705              	.LFE263:
 706              		.size	e_blink_led2, .-e_blink_led2
 707              		.section	.text.e_blink_led3,"ax",%progbits
 708              		.align	1
 709              		.p2align 4,,15
 710              		.global	e_blink_led3
 711              		.syntax unified
 712              		.thumb
 713              		.thumb_func
 714              		.fpu fpv4-sp-d16
 715              		.type	e_blink_led3, %function
 716              	e_blink_led3:
 717              	.LFB278:
 718              		.cfi_startproc
 719              		@ args = 0, pretend = 0, frame = 8
 720              		@ frame_needed = 0, uses_anonymous_args = 0
 721 0000 00B5     		push	{lr}
 722              		.cfi_def_cfa_offset 4
 723              		.cfi_offset 14, -4
 724 0002 064B     		ldr	r3, .L91
 725 0004 83B0     		sub	sp, sp, #12
 726              		.cfi_def_cfa_offset 16
 727 0006 1A68     		ldr	r2, [r3]
 728 0008 0192     		str	r2, [sp, #4]
 729 000a 019A     		ldr	r2, [sp, #4]
 730 000c 1B68     		ldr	r3, [r3]
 731 000e 9A42     		cmp	r2, r3
 732 0010 02D1     		bne	.L90
 733 0012 03B0     		add	sp, sp, #12
 734              		.cfi_remember_state
 735              		.cfi_def_cfa_offset 4
 736              		@ sp needed
 737 0014 5DF804FB 		ldr	pc, [sp], #4
 738              	.L90:
 739              		.cfi_restore_state
 740 0018 FFF7FEFF 		bl	__stack_chk_fail
 741              	.L92:
ARM GAS  C:\Users\osour\AppData\Local\Temp\ccbvXwa9.s 			page 14


 742              		.align	2
 743              	.L91:
 744 001c 00000000 		.word	__stack_chk_guard
 745              		.cfi_endproc
 746              	.LFE278:
 747              		.size	e_blink_led3, .-e_blink_led3
 748              		.section	.text.e_blink_led4,"ax",%progbits
 749              		.align	1
 750              		.p2align 4,,15
 751              		.global	e_blink_led4
 752              		.syntax unified
 753              		.thumb
 754              		.thumb_func
 755              		.fpu fpv4-sp-d16
 756              		.type	e_blink_led4, %function
 757              	e_blink_led4:
 758              	.LFB265:
 759              		.loc 1 165 0
 760              		.cfi_startproc
 761              		@ args = 0, pretend = 0, frame = 8
 762              		@ frame_needed = 0, uses_anonymous_args = 0
 763              		.loc 1 165 0
 764 0000 00B5     		push	{lr}
 765              		.cfi_def_cfa_offset 4
 766              		.cfi_offset 14, -4
 767 0002 084B     		ldr	r3, .L98
 768 0004 83B0     		sub	sp, sp, #12
 769              		.cfi_def_cfa_offset 16
 770              		.loc 1 165 0
 771 0006 1A68     		ldr	r2, [r3]
 772 0008 0192     		str	r2, [sp, #4]
 773              		.loc 1 166 0
 774 000a 019A     		ldr	r2, [sp, #4]
 775 000c 1B68     		ldr	r3, [r3]
 776 000e 9A42     		cmp	r2, r3
 777 0010 06D1     		bne	.L97
 778 0012 0221     		movs	r1, #2
 779 0014 0846     		mov	r0, r1
 780              		.loc 1 167 0
 781 0016 03B0     		add	sp, sp, #12
 782              		.cfi_remember_state
 783              		.cfi_def_cfa_offset 4
 784              		@ sp needed
 785 0018 5DF804EB 		ldr	lr, [sp], #4
 786              		.cfi_restore 14
 787              		.cfi_def_cfa_offset 0
 788              		.loc 1 166 0
 789 001c FFF7FEBF 		b	set_led
 790              	.LVL54:
 791              	.L97:
 792              		.cfi_restore_state
 793 0020 FFF7FEFF 		bl	__stack_chk_fail
 794              	.LVL55:
 795              	.L99:
 796              		.align	2
 797              	.L98:
 798 0024 00000000 		.word	__stack_chk_guard
ARM GAS  C:\Users\osour\AppData\Local\Temp\ccbvXwa9.s 			page 15


 799              		.cfi_endproc
 800              	.LFE265:
 801              		.size	e_blink_led4, .-e_blink_led4
 802              		.section	.text.e_blink_led5,"ax",%progbits
 803              		.align	1
 804              		.p2align 4,,15
 805              		.global	e_blink_led5
 806              		.syntax unified
 807              		.thumb
 808              		.thumb_func
 809              		.fpu fpv4-sp-d16
 810              		.type	e_blink_led5, %function
 811              	e_blink_led5:
 812              	.LFB280:
 813              		.cfi_startproc
 814              		@ args = 0, pretend = 0, frame = 8
 815              		@ frame_needed = 0, uses_anonymous_args = 0
 816 0000 00B5     		push	{lr}
 817              		.cfi_def_cfa_offset 4
 818              		.cfi_offset 14, -4
 819 0002 064B     		ldr	r3, .L104
 820 0004 83B0     		sub	sp, sp, #12
 821              		.cfi_def_cfa_offset 16
 822 0006 1A68     		ldr	r2, [r3]
 823 0008 0192     		str	r2, [sp, #4]
 824 000a 019A     		ldr	r2, [sp, #4]
 825 000c 1B68     		ldr	r3, [r3]
 826 000e 9A42     		cmp	r2, r3
 827 0010 02D1     		bne	.L103
 828 0012 03B0     		add	sp, sp, #12
 829              		.cfi_remember_state
 830              		.cfi_def_cfa_offset 4
 831              		@ sp needed
 832 0014 5DF804FB 		ldr	pc, [sp], #4
 833              	.L103:
 834              		.cfi_restore_state
 835 0018 FFF7FEFF 		bl	__stack_chk_fail
 836              	.L105:
 837              		.align	2
 838              	.L104:
 839 001c 00000000 		.word	__stack_chk_guard
 840              		.cfi_endproc
 841              	.LFE280:
 842              		.size	e_blink_led5, .-e_blink_led5
 843              		.section	.text.e_blink_led6,"ax",%progbits
 844              		.align	1
 845              		.p2align 4,,15
 846              		.global	e_blink_led6
 847              		.syntax unified
 848              		.thumb
 849              		.thumb_func
 850              		.fpu fpv4-sp-d16
 851              		.type	e_blink_led6, %function
 852              	e_blink_led6:
 853              	.LFB267:
 854              		.loc 1 185 0
 855              		.cfi_startproc
ARM GAS  C:\Users\osour\AppData\Local\Temp\ccbvXwa9.s 			page 16


 856              		@ args = 0, pretend = 0, frame = 8
 857              		@ frame_needed = 0, uses_anonymous_args = 0
 858              		.loc 1 185 0
 859 0000 00B5     		push	{lr}
 860              		.cfi_def_cfa_offset 4
 861              		.cfi_offset 14, -4
 862 0002 084B     		ldr	r3, .L111
 863 0004 83B0     		sub	sp, sp, #12
 864              		.cfi_def_cfa_offset 16
 865              		.loc 1 185 0
 866 0006 1A68     		ldr	r2, [r3]
 867 0008 0192     		str	r2, [sp, #4]
 868              		.loc 1 186 0
 869 000a 019A     		ldr	r2, [sp, #4]
 870 000c 1B68     		ldr	r3, [r3]
 871 000e 9A42     		cmp	r2, r3
 872 0010 06D1     		bne	.L110
 873 0012 0221     		movs	r1, #2
 874 0014 0320     		movs	r0, #3
 875              		.loc 1 187 0
 876 0016 03B0     		add	sp, sp, #12
 877              		.cfi_remember_state
 878              		.cfi_def_cfa_offset 4
 879              		@ sp needed
 880 0018 5DF804EB 		ldr	lr, [sp], #4
 881              		.cfi_restore 14
 882              		.cfi_def_cfa_offset 0
 883              		.loc 1 186 0
 884 001c FFF7FEBF 		b	set_led
 885              	.LVL56:
 886              	.L110:
 887              		.cfi_restore_state
 888 0020 FFF7FEFF 		bl	__stack_chk_fail
 889              	.LVL57:
 890              	.L112:
 891              		.align	2
 892              	.L111:
 893 0024 00000000 		.word	__stack_chk_guard
 894              		.cfi_endproc
 895              	.LFE267:
 896              		.size	e_blink_led6, .-e_blink_led6
 897              		.section	.text.e_blink_led7,"ax",%progbits
 898              		.align	1
 899              		.p2align 4,,15
 900              		.global	e_blink_led7
 901              		.syntax unified
 902              		.thumb
 903              		.thumb_func
 904              		.fpu fpv4-sp-d16
 905              		.type	e_blink_led7, %function
 906              	e_blink_led7:
 907              	.LFB282:
 908              		.cfi_startproc
 909              		@ args = 0, pretend = 0, frame = 8
 910              		@ frame_needed = 0, uses_anonymous_args = 0
 911 0000 00B5     		push	{lr}
 912              		.cfi_def_cfa_offset 4
ARM GAS  C:\Users\osour\AppData\Local\Temp\ccbvXwa9.s 			page 17


 913              		.cfi_offset 14, -4
 914 0002 064B     		ldr	r3, .L117
 915 0004 83B0     		sub	sp, sp, #12
 916              		.cfi_def_cfa_offset 16
 917 0006 1A68     		ldr	r2, [r3]
 918 0008 0192     		str	r2, [sp, #4]
 919 000a 019A     		ldr	r2, [sp, #4]
 920 000c 1B68     		ldr	r3, [r3]
 921 000e 9A42     		cmp	r2, r3
 922 0010 02D1     		bne	.L116
 923 0012 03B0     		add	sp, sp, #12
 924              		.cfi_remember_state
 925              		.cfi_def_cfa_offset 4
 926              		@ sp needed
 927 0014 5DF804FB 		ldr	pc, [sp], #4
 928              	.L116:
 929              		.cfi_restore_state
 930 0018 FFF7FEFF 		bl	__stack_chk_fail
 931              	.L118:
 932              		.align	2
 933              	.L117:
 934 001c 00000000 		.word	__stack_chk_guard
 935              		.cfi_endproc
 936              	.LFE282:
 937              		.size	e_blink_led7, .-e_blink_led7
 938              		.section	.text.e_start_led_blinking,"ax",%progbits
 939              		.align	1
 940              		.p2align 4,,15
 941              		.global	e_start_led_blinking
 942              		.syntax unified
 943              		.thumb
 944              		.thumb_func
 945              		.fpu fpv4-sp-d16
 946              		.type	e_start_led_blinking, %function
 947              	e_start_led_blinking:
 948              	.LFB269:
 949              		.loc 1 205 0
 950              		.cfi_startproc
 951              		@ args = 0, pretend = 0, frame = 8
 952              		@ frame_needed = 0, uses_anonymous_args = 0
 953              	.LVL58:
 954              		.loc 1 205 0
 955 0000 00B5     		push	{lr}
 956              		.cfi_def_cfa_offset 4
 957              		.cfi_offset 14, -4
 958 0002 064B     		ldr	r3, .L123
 959 0004 83B0     		sub	sp, sp, #12
 960              		.cfi_def_cfa_offset 16
 961              		.loc 1 205 0
 962 0006 1A68     		ldr	r2, [r3]
 963 0008 0192     		str	r2, [sp, #4]
 964              		.loc 1 208 0
 965 000a 019A     		ldr	r2, [sp, #4]
 966 000c 1B68     		ldr	r3, [r3]
 967 000e 9A42     		cmp	r2, r3
 968 0010 02D1     		bne	.L122
 969 0012 03B0     		add	sp, sp, #12
ARM GAS  C:\Users\osour\AppData\Local\Temp\ccbvXwa9.s 			page 18


 970              		.cfi_remember_state
 971              		.cfi_def_cfa_offset 4
 972              		@ sp needed
 973 0014 5DF804FB 		ldr	pc, [sp], #4
 974              	.L122:
 975              		.cfi_restore_state
 976 0018 FFF7FEFF 		bl	__stack_chk_fail
 977              	.LVL59:
 978              	.L124:
 979              		.align	2
 980              	.L123:
 981 001c 00000000 		.word	__stack_chk_guard
 982              		.cfi_endproc
 983              	.LFE269:
 984              		.size	e_start_led_blinking, .-e_start_led_blinking
 985              		.section	.text.e_stop_led_blinking,"ax",%progbits
 986              		.align	1
 987              		.p2align 4,,15
 988              		.global	e_stop_led_blinking
 989              		.syntax unified
 990              		.thumb
 991              		.thumb_func
 992              		.fpu fpv4-sp-d16
 993              		.type	e_stop_led_blinking, %function
 994              	e_stop_led_blinking:
 995              	.LFB284:
 996              		.cfi_startproc
 997              		@ args = 0, pretend = 0, frame = 8
 998              		@ frame_needed = 0, uses_anonymous_args = 0
 999 0000 00B5     		push	{lr}
 1000              		.cfi_def_cfa_offset 4
 1001              		.cfi_offset 14, -4
 1002 0002 064B     		ldr	r3, .L129
 1003 0004 83B0     		sub	sp, sp, #12
 1004              		.cfi_def_cfa_offset 16
 1005 0006 1A68     		ldr	r2, [r3]
 1006 0008 0192     		str	r2, [sp, #4]
 1007 000a 019A     		ldr	r2, [sp, #4]
 1008 000c 1B68     		ldr	r3, [r3]
 1009 000e 9A42     		cmp	r2, r3
 1010 0010 02D1     		bne	.L128
 1011 0012 03B0     		add	sp, sp, #12
 1012              		.cfi_remember_state
 1013              		.cfi_def_cfa_offset 4
 1014              		@ sp needed
 1015 0014 5DF804FB 		ldr	pc, [sp], #4
 1016              	.L128:
 1017              		.cfi_restore_state
 1018 0018 FFF7FEFF 		bl	__stack_chk_fail
 1019              	.L130:
 1020              		.align	2
 1021              	.L129:
 1022 001c 00000000 		.word	__stack_chk_guard
 1023              		.cfi_endproc
 1024              	.LFE284:
 1025              		.size	e_stop_led_blinking, .-e_stop_led_blinking
 1026              		.section	.text.e_set_blinking_cycle,"ax",%progbits
ARM GAS  C:\Users\osour\AppData\Local\Temp\ccbvXwa9.s 			page 19


 1027              		.align	1
 1028              		.p2align 4,,15
 1029              		.global	e_set_blinking_cycle
 1030              		.syntax unified
 1031              		.thumb
 1032              		.thumb_func
 1033              		.fpu fpv4-sp-d16
 1034              		.type	e_set_blinking_cycle, %function
 1035              	e_set_blinking_cycle:
 1036              	.LFB286:
 1037              		.cfi_startproc
 1038              		@ args = 0, pretend = 0, frame = 8
 1039              		@ frame_needed = 0, uses_anonymous_args = 0
 1040 0000 00B5     		push	{lr}
 1041              		.cfi_def_cfa_offset 4
 1042              		.cfi_offset 14, -4
 1043 0002 064B     		ldr	r3, .L135
 1044 0004 83B0     		sub	sp, sp, #12
 1045              		.cfi_def_cfa_offset 16
 1046 0006 1A68     		ldr	r2, [r3]
 1047 0008 0192     		str	r2, [sp, #4]
 1048 000a 019A     		ldr	r2, [sp, #4]
 1049 000c 1B68     		ldr	r3, [r3]
 1050 000e 9A42     		cmp	r2, r3
 1051 0010 02D1     		bne	.L134
 1052 0012 03B0     		add	sp, sp, #12
 1053              		.cfi_remember_state
 1054              		.cfi_def_cfa_offset 4
 1055              		@ sp needed
 1056 0014 5DF804FB 		ldr	pc, [sp], #4
 1057              	.L134:
 1058              		.cfi_restore_state
 1059 0018 FFF7FEFF 		bl	__stack_chk_fail
 1060              	.L136:
 1061              		.align	2
 1062              	.L135:
 1063 001c 00000000 		.word	__stack_chk_guard
 1064              		.cfi_endproc
 1065              	.LFE286:
 1066              		.size	e_set_blinking_cycle, .-e_set_blinking_cycle
 1067              		.section	.text.snake_led,"ax",%progbits
 1068              		.align	1
 1069              		.p2align 4,,15
 1070              		.global	snake_led
 1071              		.syntax unified
 1072              		.thumb
 1073              		.thumb_func
 1074              		.fpu fpv4-sp-d16
 1075              		.type	snake_led, %function
 1076              	snake_led:
 1077              	.LFB272:
 1078              		.loc 1 241 0
 1079              		.cfi_startproc
 1080              		@ args = 0, pretend = 0, frame = 8
 1081              		@ frame_needed = 0, uses_anonymous_args = 0
 1082              		.loc 1 241 0
 1083 0000 30B5     		push	{r4, r5, lr}
ARM GAS  C:\Users\osour\AppData\Local\Temp\ccbvXwa9.s 			page 20


 1084              		.cfi_def_cfa_offset 12
 1085              		.cfi_offset 4, -12
 1086              		.cfi_offset 5, -8
 1087              		.cfi_offset 14, -4
 1088              		.loc 1 243 0
 1089 0002 144C     		ldr	r4, .L147
 1090              		.loc 1 241 0
 1091 0004 144D     		ldr	r5, .L147+4
 1092              		.loc 1 243 0
 1093 0006 2178     		ldrb	r1, [r4]	@ zero_extendqisi2
 1094              		.loc 1 241 0
 1095 0008 2B68     		ldr	r3, [r5]
 1096 000a 83B0     		sub	sp, sp, #12
 1097              		.cfi_def_cfa_offset 24
 1098              		.loc 1 241 0
 1099 000c 0193     		str	r3, [sp, #4]
 1100              		.loc 1 243 0
 1101 000e E9B1     		cbz	r1, .L144
 1102              		.loc 1 249 0
 1103 0010 0729     		cmp	r1, #7
 1104 0012 10D0     		beq	.L145
 1105              		.loc 1 257 0
 1106 0014 481E     		subs	r0, r1, #1
 1107 0016 0021     		movs	r1, #0
 1108              	.L143:
 1109 0018 FFF7FEFF 		bl	e_set_led
 1110              	.LVL60:
 1111              		.loc 1 258 0
 1112 001c 0121     		movs	r1, #1
 1113 001e 2078     		ldrb	r0, [r4]	@ zero_extendqisi2
 1114 0020 FFF7FEFF 		bl	e_set_led
 1115              	.LVL61:
 1116              		.loc 1 259 0
 1117 0024 2378     		ldrb	r3, [r4]	@ zero_extendqisi2
 1118 0026 0133     		adds	r3, r3, #1
 1119 0028 2370     		strb	r3, [r4]
 1120              	.L137:
 1121              		.loc 1 261 0
 1122 002a 019A     		ldr	r2, [sp, #4]
 1123 002c 2B68     		ldr	r3, [r5]
 1124 002e 9A42     		cmp	r2, r3
 1125 0030 0ED1     		bne	.L146
 1126 0032 03B0     		add	sp, sp, #12
 1127              		.cfi_remember_state
 1128              		.cfi_def_cfa_offset 12
 1129              		@ sp needed
 1130 0034 30BD     		pop	{r4, r5, pc}
 1131              	.L145:
 1132              		.cfi_restore_state
 1133              		.loc 1 251 0
 1134 0036 0021     		movs	r1, #0
 1135 0038 0620     		movs	r0, #6
 1136 003a FFF7FEFF 		bl	e_set_led
 1137              	.LVL62:
 1138              		.loc 1 252 0
 1139 003e 0121     		movs	r1, #1
 1140 0040 2078     		ldrb	r0, [r4]	@ zero_extendqisi2
ARM GAS  C:\Users\osour\AppData\Local\Temp\ccbvXwa9.s 			page 21


 1141 0042 FFF7FEFF 		bl	e_set_led
 1142              	.LVL63:
 1143              		.loc 1 253 0
 1144 0046 0023     		movs	r3, #0
 1145 0048 2370     		strb	r3, [r4]
 1146 004a EEE7     		b	.L137
 1147              	.L144:
 1148              		.loc 1 245 0
 1149 004c 0720     		movs	r0, #7
 1150 004e E3E7     		b	.L143
 1151              	.L146:
 1152              		.loc 1 261 0
 1153 0050 FFF7FEFF 		bl	__stack_chk_fail
 1154              	.LVL64:
 1155              	.L148:
 1156              		.align	2
 1157              	.L147:
 1158 0054 00000000 		.word	.LANCHOR0
 1159 0058 00000000 		.word	__stack_chk_guard
 1160              		.cfi_endproc
 1161              	.LFE272:
 1162              		.size	snake_led, .-snake_led
 1163              		.section	.text.flow_led,"ax",%progbits
 1164              		.align	1
 1165              		.p2align 4,,15
 1166              		.global	flow_led
 1167              		.syntax unified
 1168              		.thumb
 1169              		.thumb_func
 1170              		.fpu fpv4-sp-d16
 1171              		.type	flow_led, %function
 1172              	flow_led:
 1173              	.LFB273:
 1174              		.loc 1 266 0
 1175              		.cfi_startproc
 1176              		@ args = 0, pretend = 0, frame = 8
 1177              		@ frame_needed = 0, uses_anonymous_args = 0
 1178 0000 30B5     		push	{r4, r5, lr}
 1179              		.cfi_def_cfa_offset 12
 1180              		.cfi_offset 4, -12
 1181              		.cfi_offset 5, -8
 1182              		.cfi_offset 14, -4
 1183              		.loc 1 268 0
 1184 0002 224C     		ldr	r4, .L162
 1185              		.loc 1 266 0
 1186 0004 224D     		ldr	r5, .L162+4
 1187              		.loc 1 268 0
 1188 0006 2378     		ldrb	r3, [r4]	@ zero_extendqisi2
 1189              		.loc 1 266 0
 1190 0008 2A68     		ldr	r2, [r5]
 1191 000a 83B0     		sub	sp, sp, #12
 1192              		.cfi_def_cfa_offset 24
 1193              		.loc 1 266 0
 1194 000c 0192     		str	r2, [sp, #4]
 1195              		.loc 1 268 0
 1196 000e 042B     		cmp	r3, #4
 1197 0010 04D8     		bhi	.L150
ARM GAS  C:\Users\osour\AppData\Local\Temp\ccbvXwa9.s 			page 22


 1198 0012 DFE803F0 		tbb	[pc, r3]
 1199              	.L152:
 1200 0016 15       		.byte	(.L151-.L152)/2
 1201 0017 1B       		.byte	(.L153-.L152)/2
 1202 0018 25       		.byte	(.L154-.L152)/2
 1203 0019 2F       		.byte	(.L155-.L152)/2
 1204 001a 0B       		.byte	(.L156-.L152)/2
 1205 001b 00       		.p2align 1
 1206              	.L150:
 1207              		.loc 1 279 0
 1208 001c 0023     		movs	r3, #0
 1209 001e 2370     		strb	r3, [r4]
 1210              	.L149:
 1211              		.loc 1 280 0
 1212 0020 019A     		ldr	r2, [sp, #4]
 1213 0022 2B68     		ldr	r3, [r5]
 1214 0024 9A42     		cmp	r2, r3
 1215 0026 2FD1     		bne	.L161
 1216 0028 03B0     		add	sp, sp, #12
 1217              		.cfi_remember_state
 1218              		.cfi_def_cfa_offset 12
 1219              		@ sp needed
 1220 002a 30BD     		pop	{r4, r5, pc}
 1221              	.L156:
 1222              		.cfi_restore_state
 1223              		.loc 1 274 0
 1224 002c 0221     		movs	r1, #2
 1225 002e 0420     		movs	r0, #4
 1226 0030 FFF7FEFF 		bl	e_set_led
 1227              	.LVL65:
 1228 0034 2378     		ldrb	r3, [r4]	@ zero_extendqisi2
 1229              	.L157:
 1230              		.loc 1 276 0
 1231 0036 032B     		cmp	r3, #3
 1232 0038 F0D8     		bhi	.L150
 1233              		.loc 1 277 0
 1234 003a 0133     		adds	r3, r3, #1
 1235 003c 2370     		strb	r3, [r4]
 1236 003e EFE7     		b	.L149
 1237              	.L151:
 1238              		.loc 1 270 0
 1239 0040 0221     		movs	r1, #2
 1240 0042 0020     		movs	r0, #0
 1241 0044 FFF7FEFF 		bl	e_set_led
 1242              	.LVL66:
 1243 0048 2378     		ldrb	r3, [r4]	@ zero_extendqisi2
 1244 004a F4E7     		b	.L157
 1245              	.L153:
 1246              		.loc 1 271 0
 1247 004c 0221     		movs	r1, #2
 1248 004e 0120     		movs	r0, #1
 1249 0050 FFF7FEFF 		bl	e_set_led
 1250              	.LVL67:
 1251 0054 0221     		movs	r1, #2
 1252 0056 0720     		movs	r0, #7
 1253 0058 FFF7FEFF 		bl	e_set_led
 1254              	.LVL68:
ARM GAS  C:\Users\osour\AppData\Local\Temp\ccbvXwa9.s 			page 23


 1255 005c 2378     		ldrb	r3, [r4]	@ zero_extendqisi2
 1256 005e EAE7     		b	.L157
 1257              	.L154:
 1258              		.loc 1 272 0
 1259 0060 0221     		movs	r1, #2
 1260 0062 0846     		mov	r0, r1
 1261 0064 FFF7FEFF 		bl	e_set_led
 1262              	.LVL69:
 1263 0068 0221     		movs	r1, #2
 1264 006a 0620     		movs	r0, #6
 1265 006c FFF7FEFF 		bl	e_set_led
 1266              	.LVL70:
 1267 0070 2378     		ldrb	r3, [r4]	@ zero_extendqisi2
 1268 0072 E0E7     		b	.L157
 1269              	.L155:
 1270              		.loc 1 273 0
 1271 0074 0221     		movs	r1, #2
 1272 0076 0320     		movs	r0, #3
 1273 0078 FFF7FEFF 		bl	e_set_led
 1274              	.LVL71:
 1275 007c 0221     		movs	r1, #2
 1276 007e 0520     		movs	r0, #5
 1277 0080 FFF7FEFF 		bl	e_set_led
 1278              	.LVL72:
 1279 0084 2378     		ldrb	r3, [r4]	@ zero_extendqisi2
 1280 0086 D6E7     		b	.L157
 1281              	.L161:
 1282              		.loc 1 280 0
 1283 0088 FFF7FEFF 		bl	__stack_chk_fail
 1284              	.LVL73:
 1285              	.L163:
 1286              		.align	2
 1287              	.L162:
 1288 008c 00000000 		.word	.LANCHOR1
 1289 0090 00000000 		.word	__stack_chk_guard
 1290              		.cfi_endproc
 1291              	.LFE273:
 1292              		.size	flow_led, .-flow_led
 1293              		.section	.text.k2000_led,"ax",%progbits
 1294              		.align	1
 1295              		.p2align 4,,15
 1296              		.global	k2000_led
 1297              		.syntax unified
 1298              		.thumb
 1299              		.thumb_func
 1300              		.fpu fpv4-sp-d16
 1301              		.type	k2000_led, %function
 1302              	k2000_led:
 1303              	.LFB274:
 1304              		.loc 1 284 0
 1305              		.cfi_startproc
 1306              		@ args = 0, pretend = 0, frame = 8
 1307              		@ frame_needed = 0, uses_anonymous_args = 0
 1308 0000 2DE9F041 		push	{r4, r5, r6, r7, r8, lr}
 1309              		.cfi_def_cfa_offset 24
 1310              		.cfi_offset 4, -24
 1311              		.cfi_offset 5, -20
ARM GAS  C:\Users\osour\AppData\Local\Temp\ccbvXwa9.s 			page 24


 1312              		.cfi_offset 6, -16
 1313              		.cfi_offset 7, -12
 1314              		.cfi_offset 8, -8
 1315              		.cfi_offset 14, -4
 1316              		.loc 1 287 0
 1317 0004 294D     		ldr	r5, .L179
 1318              		.loc 1 284 0
 1319 0006 2A4E     		ldr	r6, .L179+4
 1320              		.loc 1 287 0
 1321 0008 2C78     		ldrb	r4, [r5]	@ zero_extendqisi2
 1322              		.loc 1 284 0
 1323 000a 3368     		ldr	r3, [r6]
 1324 000c 82B0     		sub	sp, sp, #8
 1325              		.cfi_def_cfa_offset 32
 1326              		.loc 1 284 0
 1327 000e 0193     		str	r3, [sp, #4]
 1328              		.loc 1 287 0
 1329 0010 54B1     		cbz	r4, .L175
 1330              		.loc 1 293 0
 1331 0012 072C     		cmp	r4, #7
 1332 0014 36D0     		beq	.L176
 1333              		.loc 1 296 0
 1334 0016 012C     		cmp	r4, #1
 1335 0018 23D0     		beq	.L177
 1336              	.L164:
 1337              		.loc 1 299 0
 1338 001a 019A     		ldr	r2, [sp, #4]
 1339 001c 3368     		ldr	r3, [r6]
 1340 001e 9A42     		cmp	r2, r3
 1341 0020 41D1     		bne	.L174
 1342 0022 02B0     		add	sp, sp, #8
 1343              		.cfi_remember_state
 1344              		.cfi_def_cfa_offset 24
 1345              		@ sp needed
 1346 0024 BDE8F081 		pop	{r4, r5, r6, r7, r8, pc}
 1347              	.L175:
 1348              		.cfi_restore_state
 1349              		.loc 1 287 0 discriminator 1
 1350 0028 224F     		ldr	r7, .L179+8
 1351 002a 3978     		ldrb	r1, [r7]	@ zero_extendqisi2
 1352 002c 59B9     		cbnz	r1, .L178
 1353              		.loc 1 291 0 discriminator 1
 1354 002e 0723     		movs	r3, #7
 1355 0030 0846     		mov	r0, r1
 1356 0032 2B70     		strb	r3, [r5]
 1357 0034 FFF7FEFF 		bl	e_set_led
 1358              	.LVL74:
 1359 0038 2878     		ldrb	r0, [r5]	@ zero_extendqisi2
 1360 003a 0121     		movs	r1, #1
 1361 003c FFF7FEFF 		bl	e_set_led
 1362              	.LVL75:
 1363 0040 0123     		movs	r3, #1
 1364 0042 3B70     		strb	r3, [r7]
 1365 0044 E9E7     		b	.L164
 1366              	.L178:
 1367              		.loc 1 288 0
 1368 0046 4FF00108 		mov	r8, #1
ARM GAS  C:\Users\osour\AppData\Local\Temp\ccbvXwa9.s 			page 25


 1369 004a 2146     		mov	r1, r4
 1370 004c 2046     		mov	r0, r4
 1371 004e 85F80080 		strb	r8, [r5]
 1372 0052 FFF7FEFF 		bl	e_set_led
 1373              	.LVL76:
 1374 0056 4146     		mov	r1, r8
 1375 0058 2878     		ldrb	r0, [r5]	@ zero_extendqisi2
 1376 005a FFF7FEFF 		bl	e_set_led
 1377              	.LVL77:
 1378 005e 3C70     		strb	r4, [r7]
 1379 0060 DBE7     		b	.L164
 1380              	.L177:
 1381              		.loc 1 297 0
 1382 0062 0023     		movs	r3, #0
 1383 0064 1946     		mov	r1, r3
 1384 0066 2046     		mov	r0, r4
 1385 0068 2B70     		strb	r3, [r5]
 1386 006a FFF7FEFF 		bl	e_set_led
 1387              	.LVL78:
 1388 006e 019A     		ldr	r2, [sp, #4]
 1389 0070 3368     		ldr	r3, [r6]
 1390 0072 9A42     		cmp	r2, r3
 1391 0074 17D1     		bne	.L174
 1392 0076 2878     		ldrb	r0, [r5]	@ zero_extendqisi2
 1393 0078 2146     		mov	r1, r4
 1394              		.loc 1 299 0
 1395 007a 02B0     		add	sp, sp, #8
 1396              		.cfi_remember_state
 1397              		.cfi_def_cfa_offset 24
 1398              		@ sp needed
 1399 007c BDE8F041 		pop	{r4, r5, r6, r7, r8, lr}
 1400              		.cfi_restore 14
 1401              		.cfi_restore 8
 1402              		.cfi_restore 7
 1403              		.cfi_restore 6
 1404              		.cfi_restore 5
 1405              		.cfi_restore 4
 1406              		.cfi_def_cfa_offset 0
 1407              		.loc 1 297 0
 1408 0080 FFF7FEBF 		b	e_set_led
 1409              	.LVL79:
 1410              	.L176:
 1411              		.cfi_restore_state
 1412              		.loc 1 294 0
 1413 0084 0023     		movs	r3, #0
 1414 0086 1946     		mov	r1, r3
 1415 0088 2046     		mov	r0, r4
 1416 008a 2B70     		strb	r3, [r5]
 1417 008c FFF7FEFF 		bl	e_set_led
 1418              	.LVL80:
 1419 0090 019A     		ldr	r2, [sp, #4]
 1420 0092 3368     		ldr	r3, [r6]
 1421 0094 9A42     		cmp	r2, r3
 1422 0096 06D1     		bne	.L174
 1423 0098 2878     		ldrb	r0, [r5]	@ zero_extendqisi2
 1424 009a 0121     		movs	r1, #1
 1425              		.loc 1 299 0
ARM GAS  C:\Users\osour\AppData\Local\Temp\ccbvXwa9.s 			page 26


 1426 009c 02B0     		add	sp, sp, #8
 1427              		.cfi_remember_state
 1428              		.cfi_def_cfa_offset 24
 1429              		@ sp needed
 1430 009e BDE8F041 		pop	{r4, r5, r6, r7, r8, lr}
 1431              		.cfi_restore 14
 1432              		.cfi_restore 8
 1433              		.cfi_restore 7
 1434              		.cfi_restore 6
 1435              		.cfi_restore 5
 1436              		.cfi_restore 4
 1437              		.cfi_def_cfa_offset 0
 1438              		.loc 1 297 0
 1439 00a2 FFF7FEBF 		b	e_set_led
 1440              	.LVL81:
 1441              	.L174:
 1442              		.cfi_restore_state
 1443              		.loc 1 299 0
 1444 00a6 FFF7FEFF 		bl	__stack_chk_fail
 1445              	.LVL82:
 1446              	.L180:
 1447 00aa 00BF     		.align	2
 1448              	.L179:
 1449 00ac 00000000 		.word	.LANCHOR2
 1450 00b0 00000000 		.word	__stack_chk_guard
 1451 00b4 00000000 		.word	.LANCHOR3
 1452              		.cfi_endproc
 1453              	.LFE274:
 1454              		.size	k2000_led, .-k2000_led
 1455              		.section	.text.right_led,"ax",%progbits
 1456              		.align	1
 1457              		.p2align 4,,15
 1458              		.global	right_led
 1459              		.syntax unified
 1460              		.thumb
 1461              		.thumb_func
 1462              		.fpu fpv4-sp-d16
 1463              		.type	right_led, %function
 1464              	right_led:
 1465              	.LFB275:
 1466              		.loc 1 303 0
 1467              		.cfi_startproc
 1468              		@ args = 0, pretend = 0, frame = 8
 1469              		@ frame_needed = 0, uses_anonymous_args = 0
 1470 0000 30B5     		push	{r4, r5, lr}
 1471              		.cfi_def_cfa_offset 12
 1472              		.cfi_offset 4, -12
 1473              		.cfi_offset 5, -8
 1474              		.cfi_offset 14, -4
 1475              		.loc 1 305 0
 1476 0002 1C4C     		ldr	r4, .L193
 1477              		.loc 1 303 0
 1478 0004 1C4D     		ldr	r5, .L193+4
 1479              		.loc 1 305 0
 1480 0006 2378     		ldrb	r3, [r4]	@ zero_extendqisi2
 1481              		.loc 1 303 0
 1482 0008 2A68     		ldr	r2, [r5]
ARM GAS  C:\Users\osour\AppData\Local\Temp\ccbvXwa9.s 			page 27


 1483 000a 83B0     		sub	sp, sp, #12
 1484              		.cfi_def_cfa_offset 24
 1485              		.loc 1 303 0
 1486 000c 0192     		str	r2, [sp, #4]
 1487              		.loc 1 305 0
 1488 000e 032B     		cmp	r3, #3
 1489 0010 03D8     		bhi	.L182
 1490 0012 DFE803F0 		tbb	[pc, r3]
 1491              	.L184:
 1492 0016 22       		.byte	(.L183-.L184)/2
 1493 0017 18       		.byte	(.L185-.L184)/2
 1494 0018 12       		.byte	(.L186-.L184)/2
 1495 0019 0A       		.byte	(.L187-.L184)/2
 1496              		.p2align 1
 1497              	.L182:
 1498              		.loc 1 315 0
 1499 001a 0023     		movs	r3, #0
 1500 001c 2370     		strb	r3, [r4]
 1501              	.L181:
 1502              		.loc 1 316 0
 1503 001e 019A     		ldr	r2, [sp, #4]
 1504 0020 2B68     		ldr	r3, [r5]
 1505 0022 9A42     		cmp	r2, r3
 1506 0024 23D1     		bne	.L192
 1507 0026 03B0     		add	sp, sp, #12
 1508              		.cfi_remember_state
 1509              		.cfi_def_cfa_offset 12
 1510              		@ sp needed
 1511 0028 30BD     		pop	{r4, r5, pc}
 1512              	.L187:
 1513              		.cfi_restore_state
 1514              	.LBB7:
 1515              	.LBB8:
 1516              		.loc 1 83 0
 1517 002a FFF7FEFF 		bl	clear_leds
 1518              	.LVL83:
 1519 002e 2378     		ldrb	r3, [r4]	@ zero_extendqisi2
 1520              	.L188:
 1521              	.LBE8:
 1522              	.LBE7:
 1523              		.loc 1 312 0
 1524 0030 022B     		cmp	r3, #2
 1525 0032 F2D8     		bhi	.L182
 1526              		.loc 1 313 0
 1527 0034 0133     		adds	r3, r3, #1
 1528 0036 2370     		strb	r3, [r4]
 1529 0038 F1E7     		b	.L181
 1530              	.L186:
 1531              		.loc 1 309 0
 1532 003a 0221     		movs	r1, #2
 1533 003c 0846     		mov	r0, r1
 1534 003e FFF7FEFF 		bl	e_set_led
 1535              	.LVL84:
 1536 0042 2378     		ldrb	r3, [r4]	@ zero_extendqisi2
 1537 0044 F4E7     		b	.L188
 1538              	.L185:
 1539              		.loc 1 308 0
ARM GAS  C:\Users\osour\AppData\Local\Temp\ccbvXwa9.s 			page 28


 1540 0046 0221     		movs	r1, #2
 1541 0048 0120     		movs	r0, #1
 1542 004a FFF7FEFF 		bl	e_set_led
 1543              	.LVL85:
 1544 004e 0221     		movs	r1, #2
 1545 0050 0320     		movs	r0, #3
 1546 0052 FFF7FEFF 		bl	e_set_led
 1547              	.LVL86:
 1548 0056 2378     		ldrb	r3, [r4]	@ zero_extendqisi2
 1549 0058 EAE7     		b	.L188
 1550              	.L183:
 1551              		.loc 1 307 0
 1552 005a 0221     		movs	r1, #2
 1553 005c 0020     		movs	r0, #0
 1554 005e FFF7FEFF 		bl	e_set_led
 1555              	.LVL87:
 1556 0062 0221     		movs	r1, #2
 1557 0064 0420     		movs	r0, #4
 1558 0066 FFF7FEFF 		bl	e_set_led
 1559              	.LVL88:
 1560 006a 2378     		ldrb	r3, [r4]	@ zero_extendqisi2
 1561 006c E0E7     		b	.L188
 1562              	.L192:
 1563              		.loc 1 316 0
 1564 006e FFF7FEFF 		bl	__stack_chk_fail
 1565              	.LVL89:
 1566              	.L194:
 1567 0072 00BF     		.align	2
 1568              	.L193:
 1569 0074 00000000 		.word	.LANCHOR4
 1570 0078 00000000 		.word	__stack_chk_guard
 1571              		.cfi_endproc
 1572              	.LFE275:
 1573              		.size	right_led, .-right_led
 1574              		.section	.text.left_led,"ax",%progbits
 1575              		.align	1
 1576              		.p2align 4,,15
 1577              		.global	left_led
 1578              		.syntax unified
 1579              		.thumb
 1580              		.thumb_func
 1581              		.fpu fpv4-sp-d16
 1582              		.type	left_led, %function
 1583              	left_led:
 1584              	.LFB276:
 1585              		.loc 1 320 0
 1586              		.cfi_startproc
 1587              		@ args = 0, pretend = 0, frame = 8
 1588              		@ frame_needed = 0, uses_anonymous_args = 0
 1589 0000 30B5     		push	{r4, r5, lr}
 1590              		.cfi_def_cfa_offset 12
 1591              		.cfi_offset 4, -12
 1592              		.cfi_offset 5, -8
 1593              		.cfi_offset 14, -4
 1594              		.loc 1 322 0
 1595 0002 1C4C     		ldr	r4, .L207
 1596              		.loc 1 320 0
ARM GAS  C:\Users\osour\AppData\Local\Temp\ccbvXwa9.s 			page 29


 1597 0004 1C4D     		ldr	r5, .L207+4
 1598              		.loc 1 322 0
 1599 0006 2378     		ldrb	r3, [r4]	@ zero_extendqisi2
 1600              		.loc 1 320 0
 1601 0008 2A68     		ldr	r2, [r5]
 1602 000a 83B0     		sub	sp, sp, #12
 1603              		.cfi_def_cfa_offset 24
 1604              		.loc 1 320 0
 1605 000c 0192     		str	r2, [sp, #4]
 1606              		.loc 1 322 0
 1607 000e 032B     		cmp	r3, #3
 1608 0010 03D8     		bhi	.L196
 1609 0012 DFE803F0 		tbb	[pc, r3]
 1610              	.L198:
 1611 0016 22       		.byte	(.L197-.L198)/2
 1612 0017 18       		.byte	(.L199-.L198)/2
 1613 0018 12       		.byte	(.L200-.L198)/2
 1614 0019 0A       		.byte	(.L201-.L198)/2
 1615              		.p2align 1
 1616              	.L196:
 1617              		.loc 1 332 0
 1618 001a 0023     		movs	r3, #0
 1619 001c 2370     		strb	r3, [r4]
 1620              	.L195:
 1621              		.loc 1 333 0
 1622 001e 019A     		ldr	r2, [sp, #4]
 1623 0020 2B68     		ldr	r3, [r5]
 1624 0022 9A42     		cmp	r2, r3
 1625 0024 23D1     		bne	.L206
 1626 0026 03B0     		add	sp, sp, #12
 1627              		.cfi_remember_state
 1628              		.cfi_def_cfa_offset 12
 1629              		@ sp needed
 1630 0028 30BD     		pop	{r4, r5, pc}
 1631              	.L201:
 1632              		.cfi_restore_state
 1633              	.LBB9:
 1634              	.LBB10:
 1635              		.loc 1 83 0
 1636 002a FFF7FEFF 		bl	clear_leds
 1637              	.LVL90:
 1638 002e 2378     		ldrb	r3, [r4]	@ zero_extendqisi2
 1639              	.L202:
 1640              	.LBE10:
 1641              	.LBE9:
 1642              		.loc 1 329 0
 1643 0030 022B     		cmp	r3, #2
 1644 0032 F2D8     		bhi	.L196
 1645              		.loc 1 330 0
 1646 0034 0133     		adds	r3, r3, #1
 1647 0036 2370     		strb	r3, [r4]
 1648 0038 F1E7     		b	.L195
 1649              	.L200:
 1650              		.loc 1 326 0
 1651 003a 0221     		movs	r1, #2
 1652 003c 0620     		movs	r0, #6
 1653 003e FFF7FEFF 		bl	e_set_led
ARM GAS  C:\Users\osour\AppData\Local\Temp\ccbvXwa9.s 			page 30


 1654              	.LVL91:
 1655 0042 2378     		ldrb	r3, [r4]	@ zero_extendqisi2
 1656 0044 F4E7     		b	.L202
 1657              	.L199:
 1658              		.loc 1 325 0
 1659 0046 0221     		movs	r1, #2
 1660 0048 0720     		movs	r0, #7
 1661 004a FFF7FEFF 		bl	e_set_led
 1662              	.LVL92:
 1663 004e 0221     		movs	r1, #2
 1664 0050 0520     		movs	r0, #5
 1665 0052 FFF7FEFF 		bl	e_set_led
 1666              	.LVL93:
 1667 0056 2378     		ldrb	r3, [r4]	@ zero_extendqisi2
 1668 0058 EAE7     		b	.L202
 1669              	.L197:
 1670              		.loc 1 324 0
 1671 005a 0221     		movs	r1, #2
 1672 005c 0020     		movs	r0, #0
 1673 005e FFF7FEFF 		bl	e_set_led
 1674              	.LVL94:
 1675 0062 0221     		movs	r1, #2
 1676 0064 0420     		movs	r0, #4
 1677 0066 FFF7FEFF 		bl	e_set_led
 1678              	.LVL95:
 1679 006a 2378     		ldrb	r3, [r4]	@ zero_extendqisi2
 1680 006c E0E7     		b	.L202
 1681              	.L206:
 1682              		.loc 1 333 0
 1683 006e FFF7FEFF 		bl	__stack_chk_fail
 1684              	.LVL96:
 1685              	.L208:
 1686 0072 00BF     		.align	2
 1687              	.L207:
 1688 0074 00000000 		.word	.LANCHOR5
 1689 0078 00000000 		.word	__stack_chk_guard
 1690              		.cfi_endproc
 1691              	.LFE276:
 1692              		.size	left_led, .-left_led
 1693              		.section	.bss.no_led.10000,"aw",%nobits
 1694              		.set	.LANCHOR2,. + 0
 1695              		.type	no_led.10000, %object
 1696              		.size	no_led.10000, 1
 1697              	no_led.10000:
 1698 0000 00       		.space	1
 1699              		.section	.bss.no_led.10005,"aw",%nobits
 1700              		.set	.LANCHOR4,. + 0
 1701              		.type	no_led.10005, %object
 1702              		.size	no_led.10005, 1
 1703              	no_led.10005:
 1704 0000 00       		.space	1
 1705              		.section	.bss.no_led.10014,"aw",%nobits
 1706              		.set	.LANCHOR5,. + 0
 1707              		.type	no_led.10014, %object
 1708              		.size	no_led.10014, 1
 1709              	no_led.10014:
 1710 0000 00       		.space	1
ARM GAS  C:\Users\osour\AppData\Local\Temp\ccbvXwa9.s 			page 31


 1711              		.section	.bss.no_led.9986,"aw",%nobits
 1712              		.set	.LANCHOR0,. + 0
 1713              		.type	no_led.9986, %object
 1714              		.size	no_led.9986, 1
 1715              	no_led.9986:
 1716 0000 00       		.space	1
 1717              		.section	.bss.no_led.9990,"aw",%nobits
 1718              		.set	.LANCHOR1,. + 0
 1719              		.type	no_led.9990, %object
 1720              		.size	no_led.9990, 1
 1721              	no_led.9990:
 1722 0000 00       		.space	1
 1723              		.section	.data.right.10001,"aw",%progbits
 1724              		.set	.LANCHOR3,. + 0
 1725              		.type	right.10001, %object
 1726              		.size	right.10001, 1
 1727              	right.10001:
 1728 0000 01       		.byte	1
 1729              		.text
 1730              	.Letext0:
 1731              		.file 2 "c:\\users\\osour\\desktop\\robotique\\eclipse_e-puck2\\tools\\gcc-arm-none-eabi-7-2017-q4
 1732              		.file 3 "c:\\users\\osour\\desktop\\robotique\\eclipse_e-puck2\\tools\\gcc-arm-none-eabi-7-2017-q4
 1733              		.file 4 "c:\\users\\osour\\desktop\\robotique\\eclipse_e-puck2\\tools\\gcc-arm-none-eabi-7-2017-q4
 1734              		.file 5 "../../lib/e-puck2_main-processor/ChibiOS//os/rt/ports/ARMCMx/compilers/GCC/chtypes.h"
 1735              		.file 6 "../../lib/e-puck2_main-processor/ChibiOS//os/rt/include/chsystypes.h"
 1736              		.file 7 "../../lib/e-puck2_main-processor/ChibiOS//os/rt/include/chschd.h"
 1737              		.file 8 "../../lib/e-puck2_main-processor/ChibiOS//os/ext/CMSIS/include/core_cm4.h"
 1738              		.file 9 "../../lib/e-puck2_main-processor/ChibiOS//os/ext/CMSIS/ST/system_stm32f4xx.h"
 1739              		.file 10 "../../lib/e-puck2_main-processor/ChibiOS//os/ext/CMSIS/ST/stm32f407xx.h"
 1740              		.file 11 "../../lib/e-puck2_main-processor/ChibiOS//os/rt/ports/ARMCMx/chcore.h"
 1741              		.file 12 "../../lib/e-puck2_main-processor/ChibiOS//os/rt/ports/ARMCMx/chcore_v7m.h"
 1742              		.file 13 "../../lib/e-puck2_main-processor/ChibiOS//os/rt/include/chdebug.h"
 1743              		.file 14 "../../lib/e-puck2_main-processor/ChibiOS//os/rt/include/chtm.h"
 1744              		.file 15 "../../lib/e-puck2_main-processor/ChibiOS//os/rt/include/chstats.h"
 1745              		.file 16 "../../lib/e-puck2_main-processor/ChibiOS//os/rt/include/chsem.h"
 1746              		.file 17 "../../lib/e-puck2_main-processor/ChibiOS//os/rt/include/chmtx.h"
 1747              		.file 18 "../../lib/e-puck2_main-processor/ChibiOS//os/rt/include/chregistry.h"
 1748              		.file 19 "../../lib/e-puck2_main-processor/ChibiOS//os/rt/include/chevents.h"
 1749              		.file 20 "../../lib/e-puck2_main-processor/ChibiOS//os/rt/include/chqueues.h"
 1750              		.file 21 "../../lib/e-puck2_main-processor/ChibiOS//os/hal/ports/STM32/STM32F4xx/stm32_dma.h"
 1751              		.file 22 "../../lib/e-puck2_main-processor/ChibiOS//os/hal/include/hal_ioblock.h"
 1752              		.file 23 "../../lib/e-puck2_main-processor/ChibiOS//os/hal/ports/STM32/LLD/GPIOv2/pal_lld.h"
 1753              		.file 24 "../../lib/e-puck2_main-processor/ChibiOS//os/hal/include/adc.h"
 1754              		.file 25 "../../lib/e-puck2_main-processor/ChibiOS//os/hal/ports/STM32/STM32F4xx/adc_lld.h"
 1755              		.file 26 "../../lib/e-puck2_main-processor/ChibiOS//os/hal/include/can.h"
 1756              		.file 27 "../../lib/e-puck2_main-processor/ChibiOS//os/hal/ports/STM32/LLD/can_lld.h"
 1757              		.file 28 "../../lib/e-puck2_main-processor/ChibiOS//os/hal/include/dac.h"
 1758              		.file 29 "../../lib/e-puck2_main-processor/ChibiOS//os/hal/ports/STM32/LLD/DACv1/dac_lld.h"
 1759              		.file 30 "../../lib/e-puck2_main-processor/ChibiOS//os/hal/include/ext.h"
 1760              		.file 31 "../../lib/e-puck2_main-processor/ChibiOS//os/hal/ports/STM32/LLD/ext_lld.h"
 1761              		.file 32 "../../lib/e-puck2_main-processor/ChibiOS//os/hal/include/gpt.h"
 1762              		.file 33 "../../lib/e-puck2_main-processor/ChibiOS//os/hal/ports/STM32/LLD/TIMv1/gpt_lld.h"
 1763              		.file 34 "../../lib/e-puck2_main-processor/ChibiOS//os/hal/ports/STM32/LLD/TIMv1/stm32_tim.h"
 1764              		.file 35 "../../lib/e-puck2_main-processor/ChibiOS//os/hal/include/i2c.h"
 1765              		.file 36 "../../lib/e-puck2_main-processor/ChibiOS//os/hal/ports/STM32/LLD/I2Cv1/i2c_lld.h"
 1766              		.file 37 "../../lib/e-puck2_main-processor/ChibiOS//os/hal/include/i2s.h"
 1767              		.file 38 "../../lib/e-puck2_main-processor/ChibiOS//os/hal/ports/STM32/LLD/SPIv1/i2s_lld.h"
ARM GAS  C:\Users\osour\AppData\Local\Temp\ccbvXwa9.s 			page 32


 1768              		.file 39 "../../lib/e-puck2_main-processor/ChibiOS//os/hal/include/pwm.h"
 1769              		.file 40 "../../lib/e-puck2_main-processor/ChibiOS//os/hal/ports/STM32/LLD/TIMv1/pwm_lld.h"
 1770              		.file 41 "../../lib/e-puck2_main-processor/ChibiOS//os/hal/include/serial.h"
 1771              		.file 42 "../../lib/e-puck2_main-processor/ChibiOS//os/hal/ports/STM32/LLD/USARTv1/serial_lld.h"
 1772              		.file 43 "../../lib/e-puck2_main-processor/ChibiOS//os/hal/include/sdc.h"
 1773              		.file 44 "../../lib/e-puck2_main-processor/ChibiOS//os/hal/ports/STM32/LLD/sdc_lld.h"
 1774              		.file 45 "../../lib/e-puck2_main-processor/ChibiOS//os/hal/include/spi.h"
 1775              		.file 46 "../../lib/e-puck2_main-processor/ChibiOS//os/hal/ports/STM32/LLD/SPIv1/spi_lld.h"
 1776              		.file 47 "../../lib/e-puck2_main-processor/ChibiOS//os/hal/include/usb.h"
 1777              		.file 48 "../../lib/e-puck2_main-processor/ChibiOS//os/hal/ports/STM32/LLD/OTGv1/usb_lld.h"
 1778              		.file 49 "../../lib/e-puck2_main-processor/ChibiOS//os/hal/ports/STM32/LLD/OTGv1/stm32_otg.h"
 1779              		.file 50 "../../lib/e-puck2_main-processor/src/epuck1x/../leds.h"