ARM GAS  C:\Users\osour\AppData\Local\Temp\ccgbm3aj.s 			page 1


   1              		.cpu cortex-m4
   2              		.eabi_attribute 27, 1
   3              		.eabi_attribute 28, 1
   4              		.eabi_attribute 20, 1
   5              		.eabi_attribute 21, 1
   6              		.eabi_attribute 23, 3
   7              		.eabi_attribute 24, 1
   8              		.eabi_attribute 25, 1
   9              		.eabi_attribute 26, 1
  10              		.eabi_attribute 30, 2
  11              		.eabi_attribute 34, 1
  12              		.eabi_attribute 18, 4
  13              		.file	"e_sound.c"
  14              		.text
  15              	.Ltext0:
  16              		.cfi_sections	.debug_frame
  17              		.section	.text.e_init_sound,"ax",%progbits
  18              		.align	1
  19              		.p2align 4,,15
  20              		.global	e_init_sound
  21              		.syntax unified
  22              		.thumb
  23              		.thumb_func
  24              		.fpu fpv4-sp-d16
  25              		.type	e_init_sound, %function
  26              	e_init_sound:
  27              	.LFB256:
  28              		.file 1 "../../lib/e-puck2_main-processor/src/epuck1x/codec/e_sound.c"
  29              		.loc 1 34 0
  30              		.cfi_startproc
  31              		@ args = 0, pretend = 0, frame = 8
  32              		@ frame_needed = 0, uses_anonymous_args = 0
  33 0000 00B5     		push	{lr}
  34              		.cfi_def_cfa_offset 4
  35              		.cfi_offset 14, -4
  36 0002 064B     		ldr	r3, .L6
  37 0004 83B0     		sub	sp, sp, #12
  38              		.cfi_def_cfa_offset 16
  39              		.loc 1 34 0
  40 0006 1A68     		ldr	r2, [r3]
  41 0008 0192     		str	r2, [sp, #4]
  42              		.loc 1 36 0
  43 000a 019A     		ldr	r2, [sp, #4]
  44 000c 1B68     		ldr	r3, [r3]
  45 000e 9A42     		cmp	r2, r3
  46 0010 02D1     		bne	.L5
  47 0012 03B0     		add	sp, sp, #12
  48              		.cfi_remember_state
  49              		.cfi_def_cfa_offset 4
  50              		@ sp needed
  51 0014 5DF804FB 		ldr	pc, [sp], #4
  52              	.L5:
  53              		.cfi_restore_state
  54 0018 FFF7FEFF 		bl	__stack_chk_fail
  55              	.LVL0:
  56              	.L7:
  57              		.align	2
ARM GAS  C:\Users\osour\AppData\Local\Temp\ccgbm3aj.s 			page 2


  58              	.L6:
  59 001c 00000000 		.word	__stack_chk_guard
  60              		.cfi_endproc
  61              	.LFE256:
  62              		.size	e_init_sound, .-e_init_sound
  63              		.section	.text.e_play_sound,"ax",%progbits
  64              		.align	1
  65              		.p2align 4,,15
  66              		.global	e_play_sound
  67              		.syntax unified
  68              		.thumb
  69              		.thumb_func
  70              		.fpu fpv4-sp-d16
  71              		.type	e_play_sound, %function
  72              	e_play_sound:
  73              	.LFB257:
  74              		.loc 1 44 0
  75              		.cfi_startproc
  76              		@ args = 0, pretend = 0, frame = 8
  77              		@ frame_needed = 0, uses_anonymous_args = 0
  78              	.LVL1:
  79 0000 00B5     		push	{lr}
  80              		.cfi_def_cfa_offset 4
  81              		.cfi_offset 14, -4
  82 0002 2A4B     		ldr	r3, .L28
  83 0004 83B0     		sub	sp, sp, #12
  84              		.cfi_def_cfa_offset 16
  85              		.loc 1 44 0
  86 0006 1A68     		ldr	r2, [r3]
  87 0008 0192     		str	r2, [sp, #4]
  88              		.loc 1 46 0
  89 000a 40F62672 		movw	r2, #3878
  90 000e 9042     		cmp	r0, r2
  91 0010 40D0     		beq	.L10
  92 0012 10DC     		bgt	.L11
  93 0014 98B3     		cbz	r0, .L12
  94 0016 40F64402 		movw	r2, #2116
  95 001a 9042     		cmp	r0, r2
  96 001c 1CD1     		bne	.L8
  97              		.loc 1 51 0
  98 001e 019A     		ldr	r2, [sp, #4]
  99 0020 1B68     		ldr	r3, [r3]
 100 0022 9A42     		cmp	r2, r3
 101 0024 08BF     		it	eq
 102 0026 4FF4FA70 		moveq	r0, #500
 103              	.LVL2:
 104 002a 13D1     		bne	.L24
 105              	.L23:
 106              		.loc 1 63 0
 107 002c 03B0     		add	sp, sp, #12
 108              		.cfi_remember_state
 109              		.cfi_def_cfa_offset 4
 110              		@ sp needed
 111 002e 5DF804EB 		ldr	lr, [sp], #4
 112              		.cfi_restore 14
 113              		.cfi_def_cfa_offset 0
 114              		.loc 1 60 0
ARM GAS  C:\Users\osour\AppData\Local\Temp\ccgbm3aj.s 			page 3


 115 0032 FFF7FEBF 		b	dac_play
 116              	.LVL3:
 117              	.L11:
 118              		.cfi_restore_state
 119              		.loc 1 46 0
 120 0036 41F67E42 		movw	r2, #7294
 121 003a 9042     		cmp	r0, r2
 122 003c 13D0     		beq	.L14
 123 003e 42F61432 		movw	r2, #11028
 124 0042 9042     		cmp	r0, r2
 125 0044 08D1     		bne	.L8
 126              		.loc 1 60 0
 127 0046 019A     		ldr	r2, [sp, #4]
 128 0048 1B68     		ldr	r3, [r3]
 129 004a 9A42     		cmp	r2, r3
 130 004c 08BF     		it	eq
 131 004e 42F21070 		movweq	r0, #10000
 132              	.LVL4:
 133 0052 EBD0     		beq	.L23
 134              	.L24:
 135              		.loc 1 63 0
 136 0054 FFF7FEFF 		bl	__stack_chk_fail
 137              	.LVL5:
 138              	.L8:
 139 0058 019A     		ldr	r2, [sp, #4]
 140 005a 1B68     		ldr	r3, [r3]
 141 005c 9A42     		cmp	r2, r3
 142 005e F9D1     		bne	.L24
 143 0060 03B0     		add	sp, sp, #12
 144              		.cfi_remember_state
 145              		.cfi_def_cfa_offset 4
 146              		@ sp needed
 147 0062 5DF804FB 		ldr	pc, [sp], #4
 148              	.L14:
 149              		.cfi_restore_state
 150              		.loc 1 57 0
 151 0066 019A     		ldr	r2, [sp, #4]
 152 0068 1B68     		ldr	r3, [r3]
 153 006a 9A42     		cmp	r2, r3
 154 006c 08BF     		it	eq
 155 006e 4FF47A60 		moveq	r0, #4000
 156              	.LVL6:
 157 0072 EFD1     		bne	.L24
 158              		.loc 1 63 0
 159 0074 03B0     		add	sp, sp, #12
 160              		.cfi_remember_state
 161              		.cfi_def_cfa_offset 4
 162              		@ sp needed
 163 0076 5DF804EB 		ldr	lr, [sp], #4
 164              		.cfi_restore 14
 165              		.cfi_def_cfa_offset 0
 166              		.loc 1 60 0
 167 007a FFF7FEBF 		b	dac_play
 168              	.LVL7:
 169              	.L12:
 170              		.cfi_restore_state
 171              		.loc 1 48 0
ARM GAS  C:\Users\osour\AppData\Local\Temp\ccgbm3aj.s 			page 4


 172 007e 019A     		ldr	r2, [sp, #4]
 173 0080 1B68     		ldr	r3, [r3]
 174 0082 9A42     		cmp	r2, r3
 175 0084 08BF     		it	eq
 176 0086 6420     		moveq	r0, #100
 177              	.LVL8:
 178 0088 E4D1     		bne	.L24
 179              		.loc 1 63 0
 180 008a 03B0     		add	sp, sp, #12
 181              		.cfi_remember_state
 182              		.cfi_def_cfa_offset 4
 183              		@ sp needed
 184 008c 5DF804EB 		ldr	lr, [sp], #4
 185              		.cfi_restore 14
 186              		.cfi_def_cfa_offset 0
 187              		.loc 1 60 0
 188 0090 FFF7FEBF 		b	dac_play
 189              	.LVL9:
 190              	.L10:
 191              		.cfi_restore_state
 192              		.loc 1 54 0
 193 0094 019A     		ldr	r2, [sp, #4]
 194 0096 1B68     		ldr	r3, [r3]
 195 0098 9A42     		cmp	r2, r3
 196 009a 08BF     		it	eq
 197 009c 4FF4FA60 		moveq	r0, #2000
 198              	.LVL10:
 199 00a0 D8D1     		bne	.L24
 200              		.loc 1 63 0
 201 00a2 03B0     		add	sp, sp, #12
 202              		.cfi_def_cfa_offset 4
 203              		@ sp needed
 204 00a4 5DF804EB 		ldr	lr, [sp], #4
 205              		.cfi_restore 14
 206              		.cfi_def_cfa_offset 0
 207              		.loc 1 60 0
 208 00a8 FFF7FEBF 		b	dac_play
 209              	.LVL11:
 210              	.L29:
 211              		.align	2
 212              	.L28:
 213 00ac 00000000 		.word	__stack_chk_guard
 214              		.cfi_endproc
 215              	.LFE257:
 216              		.size	e_play_sound, .-e_play_sound
 217              		.section	.text.e_close_sound,"ax",%progbits
 218              		.align	1
 219              		.p2align 4,,15
 220              		.global	e_close_sound
 221              		.syntax unified
 222              		.thumb
 223              		.thumb_func
 224              		.fpu fpv4-sp-d16
 225              		.type	e_close_sound, %function
 226              	e_close_sound:
 227              	.LFB258:
 228              		.loc 1 70 0
ARM GAS  C:\Users\osour\AppData\Local\Temp\ccgbm3aj.s 			page 5


 229              		.cfi_startproc
 230              		@ args = 0, pretend = 0, frame = 8
 231              		@ frame_needed = 0, uses_anonymous_args = 0
 232 0000 00B5     		push	{lr}
 233              		.cfi_def_cfa_offset 4
 234              		.cfi_offset 14, -4
 235 0002 074B     		ldr	r3, .L35
 236 0004 83B0     		sub	sp, sp, #12
 237              		.cfi_def_cfa_offset 16
 238              		.loc 1 70 0
 239 0006 1A68     		ldr	r2, [r3]
 240 0008 0192     		str	r2, [sp, #4]
 241              		.loc 1 71 0
 242 000a 019A     		ldr	r2, [sp, #4]
 243 000c 1B68     		ldr	r3, [r3]
 244 000e 9A42     		cmp	r2, r3
 245 0010 04D1     		bne	.L34
 246              		.loc 1 72 0
 247 0012 03B0     		add	sp, sp, #12
 248              		.cfi_remember_state
 249              		.cfi_def_cfa_offset 4
 250              		@ sp needed
 251 0014 5DF804EB 		ldr	lr, [sp], #4
 252              		.cfi_restore 14
 253              		.cfi_def_cfa_offset 0
 254              		.loc 1 71 0
 255 0018 FFF7FEBF 		b	dac_stop
 256              	.LVL12:
 257              	.L34:
 258              		.cfi_restore_state
 259 001c FFF7FEFF 		bl	__stack_chk_fail
 260              	.LVL13:
 261              	.L36:
 262              		.align	2
 263              	.L35:
 264 0020 00000000 		.word	__stack_chk_guard
 265              		.cfi_endproc
 266              	.LFE258:
 267              		.size	e_close_sound, .-e_close_sound
 268              		.text
 269              	.Letext0:
 270              		.file 2 "c:\\users\\osour\\desktop\\robotique\\eclipse_e-puck2\\tools\\gcc-arm-none-eabi-7-2017-q4
 271              		.file 3 "c:\\users\\osour\\desktop\\robotique\\eclipse_e-puck2\\tools\\gcc-arm-none-eabi-7-2017-q4
 272              		.file 4 "c:\\users\\osour\\desktop\\robotique\\eclipse_e-puck2\\tools\\gcc-arm-none-eabi-7-2017-q4
 273              		.file 5 "../../lib/e-puck2_main-processor/ChibiOS//os/rt/ports/ARMCMx/compilers/GCC/chtypes.h"
 274              		.file 6 "../../lib/e-puck2_main-processor/ChibiOS//os/rt/include/chsystypes.h"
 275              		.file 7 "../../lib/e-puck2_main-processor/ChibiOS//os/rt/include/chschd.h"
 276              		.file 8 "../../lib/e-puck2_main-processor/ChibiOS//os/ext/CMSIS/include/core_cm4.h"
 277              		.file 9 "../../lib/e-puck2_main-processor/ChibiOS//os/ext/CMSIS/ST/system_stm32f4xx.h"
 278              		.file 10 "../../lib/e-puck2_main-processor/ChibiOS//os/ext/CMSIS/ST/stm32f407xx.h"
 279              		.file 11 "../../lib/e-puck2_main-processor/ChibiOS//os/rt/ports/ARMCMx/chcore.h"
 280              		.file 12 "../../lib/e-puck2_main-processor/ChibiOS//os/rt/ports/ARMCMx/chcore_v7m.h"
 281              		.file 13 "../../lib/e-puck2_main-processor/ChibiOS//os/rt/include/chdebug.h"
 282              		.file 14 "../../lib/e-puck2_main-processor/ChibiOS//os/rt/include/chtm.h"
 283              		.file 15 "../../lib/e-puck2_main-processor/ChibiOS//os/rt/include/chstats.h"
 284              		.file 16 "../../lib/e-puck2_main-processor/ChibiOS//os/rt/include/chsem.h"
 285              		.file 17 "../../lib/e-puck2_main-processor/ChibiOS//os/rt/include/chmtx.h"
ARM GAS  C:\Users\osour\AppData\Local\Temp\ccgbm3aj.s 			page 6


 286              		.file 18 "../../lib/e-puck2_main-processor/ChibiOS//os/rt/include/chregistry.h"
 287              		.file 19 "../../lib/e-puck2_main-processor/ChibiOS//os/rt/include/chevents.h"
 288              		.file 20 "../../lib/e-puck2_main-processor/ChibiOS//os/rt/include/chqueues.h"
 289              		.file 21 "../../lib/e-puck2_main-processor/ChibiOS//os/hal/ports/STM32/STM32F4xx/stm32_dma.h"
 290              		.file 22 "../../lib/e-puck2_main-processor/ChibiOS//os/hal/include/hal_ioblock.h"
 291              		.file 23 "../../lib/e-puck2_main-processor/ChibiOS//os/hal/ports/STM32/LLD/GPIOv2/pal_lld.h"
 292              		.file 24 "../../lib/e-puck2_main-processor/ChibiOS//os/hal/include/adc.h"
 293              		.file 25 "../../lib/e-puck2_main-processor/ChibiOS//os/hal/ports/STM32/STM32F4xx/adc_lld.h"
 294              		.file 26 "../../lib/e-puck2_main-processor/ChibiOS//os/hal/include/can.h"
 295              		.file 27 "../../lib/e-puck2_main-processor/ChibiOS//os/hal/ports/STM32/LLD/can_lld.h"
 296              		.file 28 "../../lib/e-puck2_main-processor/ChibiOS//os/hal/include/dac.h"
 297              		.file 29 "../../lib/e-puck2_main-processor/ChibiOS//os/hal/ports/STM32/LLD/DACv1/dac_lld.h"
 298              		.file 30 "../../lib/e-puck2_main-processor/ChibiOS//os/hal/include/ext.h"
 299              		.file 31 "../../lib/e-puck2_main-processor/ChibiOS//os/hal/ports/STM32/LLD/ext_lld.h"
 300              		.file 32 "../../lib/e-puck2_main-processor/ChibiOS//os/hal/include/gpt.h"
 301              		.file 33 "../../lib/e-puck2_main-processor/ChibiOS//os/hal/ports/STM32/LLD/TIMv1/gpt_lld.h"
 302              		.file 34 "../../lib/e-puck2_main-processor/ChibiOS//os/hal/ports/STM32/LLD/TIMv1/stm32_tim.h"
 303              		.file 35 "../../lib/e-puck2_main-processor/ChibiOS//os/hal/include/i2c.h"
 304              		.file 36 "../../lib/e-puck2_main-processor/ChibiOS//os/hal/ports/STM32/LLD/I2Cv1/i2c_lld.h"
 305              		.file 37 "../../lib/e-puck2_main-processor/ChibiOS//os/hal/include/i2s.h"
 306              		.file 38 "../../lib/e-puck2_main-processor/ChibiOS//os/hal/ports/STM32/LLD/SPIv1/i2s_lld.h"
 307              		.file 39 "../../lib/e-puck2_main-processor/ChibiOS//os/hal/include/pwm.h"
 308              		.file 40 "../../lib/e-puck2_main-processor/ChibiOS//os/hal/ports/STM32/LLD/TIMv1/pwm_lld.h"
 309              		.file 41 "../../lib/e-puck2_main-processor/ChibiOS//os/hal/include/serial.h"
 310              		.file 42 "../../lib/e-puck2_main-processor/ChibiOS//os/hal/ports/STM32/LLD/USARTv1/serial_lld.h"
 311              		.file 43 "../../lib/e-puck2_main-processor/ChibiOS//os/hal/include/sdc.h"
 312              		.file 44 "../../lib/e-puck2_main-processor/ChibiOS//os/hal/ports/STM32/LLD/sdc_lld.h"
 313              		.file 45 "../../lib/e-puck2_main-processor/ChibiOS//os/hal/include/spi.h"
 314              		.file 46 "../../lib/e-puck2_main-processor/ChibiOS//os/hal/ports/STM32/LLD/SPIv1/spi_lld.h"
 315              		.file 47 "../../lib/e-puck2_main-processor/ChibiOS//os/hal/include/usb.h"
 316              		.file 48 "../../lib/e-puck2_main-processor/ChibiOS//os/hal/ports/STM32/LLD/OTGv1/usb_lld.h"
 317              		.file 49 "../../lib/e-puck2_main-processor/ChibiOS//os/hal/ports/STM32/LLD/OTGv1/stm32_otg.h"
 318              		.file 50 "../../lib/e-puck2_main-processor/src/epuck1x/../audio/audio_thread.h"