ARM GAS  C:\Users\osour\AppData\Local\Temp\ccJBffqE.s 			page 1


   1              		.cpu cortex-m4
   2              		.eabi_attribute 27, 1
   3              		.eabi_attribute 28, 1
   4              		.eabi_attribute 20, 1
   5              		.eabi_attribute 21, 1
   6              		.eabi_attribute 23, 3
   7              		.eabi_attribute 24, 1
   8              		.eabi_attribute 25, 1
   9              		.eabi_attribute 26, 1
  10              		.eabi_attribute 30, 2
  11              		.eabi_attribute 34, 1
  12              		.eabi_attribute 18, 4
  13              		.file	"e_uart_char.c"
  14              		.text
  15              	.Ltext0:
  16              		.cfi_sections	.debug_frame
  17              		.section	.text.e_init_uart1,"ax",%progbits
  18              		.align	1
  19              		.p2align 4,,15
  20              		.global	e_init_uart1
  21              		.syntax unified
  22              		.thumb
  23              		.thumb_func
  24              		.fpu fpv4-sp-d16
  25              		.type	e_init_uart1, %function
  26              	e_init_uart1:
  27              	.LFB256:
  28              		.file 1 "../../lib/e-puck2_main-processor/src/epuck1x/uart/e_uart_char.c"
  29              		.loc 1 5 0
  30              		.cfi_startproc
  31              		@ args = 0, pretend = 0, frame = 8
  32              		@ frame_needed = 0, uses_anonymous_args = 0
  33 0000 00B5     		push	{lr}
  34              		.cfi_def_cfa_offset 4
  35              		.cfi_offset 14, -4
  36 0002 064B     		ldr	r3, .L6
  37 0004 83B0     		sub	sp, sp, #12
  38              		.cfi_def_cfa_offset 16
  39              		.loc 1 5 0
  40 0006 1A68     		ldr	r2, [r3]
  41 0008 0192     		str	r2, [sp, #4]
  42              		.loc 1 7 0
  43 000a 019A     		ldr	r2, [sp, #4]
  44 000c 1B68     		ldr	r3, [r3]
  45 000e 9A42     		cmp	r2, r3
  46 0010 02D1     		bne	.L5
  47 0012 03B0     		add	sp, sp, #12
  48              		.cfi_remember_state
  49              		.cfi_def_cfa_offset 4
  50              		@ sp needed
  51 0014 5DF804FB 		ldr	pc, [sp], #4
  52              	.L5:
  53              		.cfi_restore_state
  54 0018 FFF7FEFF 		bl	__stack_chk_fail
  55              	.LVL0:
  56              	.L7:
  57              		.align	2
ARM GAS  C:\Users\osour\AppData\Local\Temp\ccJBffqE.s 			page 2


  58              	.L6:
  59 001c 00000000 		.word	__stack_chk_guard
  60              		.cfi_endproc
  61              	.LFE256:
  62              		.size	e_init_uart1, .-e_init_uart1
  63              		.section	.text.e_ischar_uart1,"ax",%progbits
  64              		.align	1
  65              		.p2align 4,,15
  66              		.global	e_ischar_uart1
  67              		.syntax unified
  68              		.thumb
  69              		.thumb_func
  70              		.fpu fpv4-sp-d16
  71              		.type	e_ischar_uart1, %function
  72              	e_ischar_uart1:
  73              	.LFB257:
  74              		.loc 1 11 0
  75              		.cfi_startproc
  76              		@ args = 0, pretend = 0, frame = 8
  77              		@ frame_needed = 0, uses_anonymous_args = 0
  78 0000 00B5     		push	{lr}
  79              		.cfi_def_cfa_offset 4
  80              		.cfi_offset 14, -4
  81 0002 074B     		ldr	r3, .L12
  82 0004 83B0     		sub	sp, sp, #12
  83              		.cfi_def_cfa_offset 16
  84              		.loc 1 11 0
  85 0006 1A68     		ldr	r2, [r3]
  86 0008 0192     		str	r2, [sp, #4]
  87              		.loc 1 14 0
  88 000a 019A     		ldr	r2, [sp, #4]
  89 000c 1B68     		ldr	r3, [r3]
  90 000e 9A42     		cmp	r2, r3
  91 0010 03D1     		bne	.L11
  92 0012 0020     		movs	r0, #0
  93 0014 03B0     		add	sp, sp, #12
  94              		.cfi_remember_state
  95              		.cfi_def_cfa_offset 4
  96              		@ sp needed
  97 0016 5DF804FB 		ldr	pc, [sp], #4
  98              	.L11:
  99              		.cfi_restore_state
 100 001a FFF7FEFF 		bl	__stack_chk_fail
 101              	.LVL1:
 102              	.L13:
 103 001e 00BF     		.align	2
 104              	.L12:
 105 0020 00000000 		.word	__stack_chk_guard
 106              		.cfi_endproc
 107              	.LFE257:
 108              		.size	e_ischar_uart1, .-e_ischar_uart1
 109              		.section	.text.e_getchar_uart1,"ax",%progbits
 110              		.align	1
 111              		.p2align 4,,15
 112              		.global	e_getchar_uart1
 113              		.syntax unified
 114              		.thumb
ARM GAS  C:\Users\osour\AppData\Local\Temp\ccJBffqE.s 			page 3


 115              		.thumb_func
 116              		.fpu fpv4-sp-d16
 117              		.type	e_getchar_uart1, %function
 118              	e_getchar_uart1:
 119              	.LFB258:
 120              		.loc 1 16 0
 121              		.cfi_startproc
 122              		@ args = 0, pretend = 0, frame = 8
 123              		@ frame_needed = 0, uses_anonymous_args = 0
 124              	.LVL2:
 125 0000 10B5     		push	{r4, lr}
 126              		.cfi_def_cfa_offset 8
 127              		.cfi_offset 4, -8
 128              		.cfi_offset 14, -4
 129 0002 0A4B     		ldr	r3, .L19
 130 0004 82B0     		sub	sp, sp, #8
 131              		.cfi_def_cfa_offset 16
 132              		.loc 1 16 0
 133 0006 1A68     		ldr	r2, [r3]
 134 0008 0192     		str	r2, [sp, #4]
 135              		.loc 1 17 0
 136 000a 019A     		ldr	r2, [sp, #4]
 137 000c 1B68     		ldr	r3, [r3]
 138 000e 9A42     		cmp	r2, r3
 139 0010 0AD1     		bne	.L18
 140 0012 074B     		ldr	r3, .L19+4
 141 0014 1A68     		ldr	r2, [r3]
 142 0016 5468     		ldr	r4, [r2, #4]
 143 0018 0146     		mov	r1, r0
 144 001a 0122     		movs	r2, #1
 145 001c 1846     		mov	r0, r3
 146              	.LVL3:
 147 001e 2346     		mov	r3, r4
 148              		.loc 1 27 0
 149 0020 02B0     		add	sp, sp, #8
 150              		.cfi_remember_state
 151              		.cfi_def_cfa_offset 8
 152              		@ sp needed
 153 0022 BDE81040 		pop	{r4, lr}
 154              		.cfi_restore 14
 155              		.cfi_restore 4
 156              		.cfi_def_cfa_offset 0
 157              		.loc 1 17 0
 158 0026 1847     		bx	r3
 159              	.LVL4:
 160              	.L18:
 161              		.cfi_restore_state
 162 0028 FFF7FEFF 		bl	__stack_chk_fail
 163              	.LVL5:
 164              	.L20:
 165              		.align	2
 166              	.L19:
 167 002c 00000000 		.word	__stack_chk_guard
 168 0030 00000000 		.word	SD3
 169              		.cfi_endproc
 170              	.LFE258:
 171              		.size	e_getchar_uart1, .-e_getchar_uart1
ARM GAS  C:\Users\osour\AppData\Local\Temp\ccJBffqE.s 			page 4


 172              		.section	.text.e_send_uart1_char,"ax",%progbits
 173              		.align	1
 174              		.p2align 4,,15
 175              		.global	e_send_uart1_char
 176              		.syntax unified
 177              		.thumb
 178              		.thumb_func
 179              		.fpu fpv4-sp-d16
 180              		.type	e_send_uart1_char, %function
 181              	e_send_uart1_char:
 182              	.LFB259:
 183              		.loc 1 29 0
 184              		.cfi_startproc
 185              		@ args = 0, pretend = 0, frame = 8
 186              		@ frame_needed = 0, uses_anonymous_args = 0
 187              	.LVL6:
 188 0000 10B5     		push	{r4, lr}
 189              		.cfi_def_cfa_offset 8
 190              		.cfi_offset 4, -8
 191              		.cfi_offset 14, -4
 192 0002 0A4B     		ldr	r3, .L26
 193 0004 82B0     		sub	sp, sp, #8
 194              		.cfi_def_cfa_offset 16
 195              		.loc 1 29 0
 196 0006 1A68     		ldr	r2, [r3]
 197 0008 0192     		str	r2, [sp, #4]
 198              		.loc 1 30 0
 199 000a 019C     		ldr	r4, [sp, #4]
 200 000c 1B68     		ldr	r3, [r3]
 201 000e 9C42     		cmp	r4, r3
 202 0010 0AD1     		bne	.L25
 203 0012 074B     		ldr	r3, .L26+4
 204 0014 1C68     		ldr	r4, [r3]
 205 0016 2468     		ldr	r4, [r4]
 206 0018 0A46     		mov	r2, r1
 207 001a 0146     		mov	r1, r0
 208              	.LVL7:
 209 001c 1846     		mov	r0, r3
 210              	.LVL8:
 211 001e 2346     		mov	r3, r4
 212              		.loc 1 36 0
 213 0020 02B0     		add	sp, sp, #8
 214              		.cfi_remember_state
 215              		.cfi_def_cfa_offset 8
 216              		@ sp needed
 217 0022 BDE81040 		pop	{r4, lr}
 218              		.cfi_restore 14
 219              		.cfi_restore 4
 220              		.cfi_def_cfa_offset 0
 221              		.loc 1 30 0
 222 0026 1847     		bx	r3
 223              	.LVL9:
 224              	.L25:
 225              		.cfi_restore_state
 226 0028 FFF7FEFF 		bl	__stack_chk_fail
 227              	.LVL10:
 228              	.L27:
ARM GAS  C:\Users\osour\AppData\Local\Temp\ccJBffqE.s 			page 5


 229              		.align	2
 230              	.L26:
 231 002c 00000000 		.word	__stack_chk_guard
 232 0030 00000000 		.word	SD3
 233              		.cfi_endproc
 234              	.LFE259:
 235              		.size	e_send_uart1_char, .-e_send_uart1_char
 236              		.section	.text.e_uart1_sending,"ax",%progbits
 237              		.align	1
 238              		.p2align 4,,15
 239              		.global	e_uart1_sending
 240              		.syntax unified
 241              		.thumb
 242              		.thumb_func
 243              		.fpu fpv4-sp-d16
 244              		.type	e_uart1_sending, %function
 245              	e_uart1_sending:
 246              	.LFB267:
 247              		.cfi_startproc
 248              		@ args = 0, pretend = 0, frame = 8
 249              		@ frame_needed = 0, uses_anonymous_args = 0
 250 0000 00B5     		push	{lr}
 251              		.cfi_def_cfa_offset 4
 252              		.cfi_offset 14, -4
 253 0002 074B     		ldr	r3, .L32
 254 0004 83B0     		sub	sp, sp, #12
 255              		.cfi_def_cfa_offset 16
 256 0006 1A68     		ldr	r2, [r3]
 257 0008 0192     		str	r2, [sp, #4]
 258 000a 019A     		ldr	r2, [sp, #4]
 259 000c 1B68     		ldr	r3, [r3]
 260 000e 9A42     		cmp	r2, r3
 261 0010 03D1     		bne	.L31
 262 0012 0020     		movs	r0, #0
 263 0014 03B0     		add	sp, sp, #12
 264              		.cfi_remember_state
 265              		.cfi_def_cfa_offset 4
 266              		@ sp needed
 267 0016 5DF804FB 		ldr	pc, [sp], #4
 268              	.L31:
 269              		.cfi_restore_state
 270 001a FFF7FEFF 		bl	__stack_chk_fail
 271              	.L33:
 272 001e 00BF     		.align	2
 273              	.L32:
 274 0020 00000000 		.word	__stack_chk_guard
 275              		.cfi_endproc
 276              	.LFE267:
 277              		.size	e_uart1_sending, .-e_uart1_sending
 278              		.section	.text.e_init_uart2,"ax",%progbits
 279              		.align	1
 280              		.p2align 4,,15
 281              		.global	e_init_uart2
 282              		.syntax unified
 283              		.thumb
 284              		.thumb_func
 285              		.fpu fpv4-sp-d16
ARM GAS  C:\Users\osour\AppData\Local\Temp\ccJBffqE.s 			page 6


 286              		.type	e_init_uart2, %function
 287              	e_init_uart2:
 288              	.LFB261:
 289              		.loc 1 46 0
 290              		.cfi_startproc
 291              		@ args = 0, pretend = 0, frame = 8
 292              		@ frame_needed = 0, uses_anonymous_args = 0
 293              	.LVL11:
 294              		.loc 1 46 0
 295 0000 00B5     		push	{lr}
 296              		.cfi_def_cfa_offset 4
 297              		.cfi_offset 14, -4
 298 0002 064B     		ldr	r3, .L38
 299 0004 83B0     		sub	sp, sp, #12
 300              		.cfi_def_cfa_offset 16
 301              		.loc 1 46 0
 302 0006 1A68     		ldr	r2, [r3]
 303 0008 0192     		str	r2, [sp, #4]
 304              		.loc 1 49 0
 305 000a 019A     		ldr	r2, [sp, #4]
 306 000c 1B68     		ldr	r3, [r3]
 307 000e 9A42     		cmp	r2, r3
 308 0010 02D1     		bne	.L37
 309 0012 03B0     		add	sp, sp, #12
 310              		.cfi_remember_state
 311              		.cfi_def_cfa_offset 4
 312              		@ sp needed
 313 0014 5DF804FB 		ldr	pc, [sp], #4
 314              	.L37:
 315              		.cfi_restore_state
 316 0018 FFF7FEFF 		bl	__stack_chk_fail
 317              	.LVL12:
 318              	.L39:
 319              		.align	2
 320              	.L38:
 321 001c 00000000 		.word	__stack_chk_guard
 322              		.cfi_endproc
 323              	.LFE261:
 324              		.size	e_init_uart2, .-e_init_uart2
 325              		.section	.text.e_ischar_uart2,"ax",%progbits
 326              		.align	1
 327              		.p2align 4,,15
 328              		.global	e_ischar_uart2
 329              		.syntax unified
 330              		.thumb
 331              		.thumb_func
 332              		.fpu fpv4-sp-d16
 333              		.type	e_ischar_uart2, %function
 334              	e_ischar_uart2:
 335              	.LFB269:
 336              		.cfi_startproc
 337              		@ args = 0, pretend = 0, frame = 8
 338              		@ frame_needed = 0, uses_anonymous_args = 0
 339 0000 00B5     		push	{lr}
 340              		.cfi_def_cfa_offset 4
 341              		.cfi_offset 14, -4
 342 0002 074B     		ldr	r3, .L44
ARM GAS  C:\Users\osour\AppData\Local\Temp\ccJBffqE.s 			page 7


 343 0004 83B0     		sub	sp, sp, #12
 344              		.cfi_def_cfa_offset 16
 345 0006 1A68     		ldr	r2, [r3]
 346 0008 0192     		str	r2, [sp, #4]
 347 000a 019A     		ldr	r2, [sp, #4]
 348 000c 1B68     		ldr	r3, [r3]
 349 000e 9A42     		cmp	r2, r3
 350 0010 03D1     		bne	.L43
 351 0012 0020     		movs	r0, #0
 352 0014 03B0     		add	sp, sp, #12
 353              		.cfi_remember_state
 354              		.cfi_def_cfa_offset 4
 355              		@ sp needed
 356 0016 5DF804FB 		ldr	pc, [sp], #4
 357              	.L43:
 358              		.cfi_restore_state
 359 001a FFF7FEFF 		bl	__stack_chk_fail
 360              	.L45:
 361 001e 00BF     		.align	2
 362              	.L44:
 363 0020 00000000 		.word	__stack_chk_guard
 364              		.cfi_endproc
 365              	.LFE269:
 366              		.size	e_ischar_uart2, .-e_ischar_uart2
 367              		.section	.text.e_getchar_uart2,"ax",%progbits
 368              		.align	1
 369              		.p2align 4,,15
 370              		.global	e_getchar_uart2
 371              		.syntax unified
 372              		.thumb
 373              		.thumb_func
 374              		.fpu fpv4-sp-d16
 375              		.type	e_getchar_uart2, %function
 376              	e_getchar_uart2:
 377              	.LFB263:
 378              		.loc 1 58 0
 379              		.cfi_startproc
 380              		@ args = 0, pretend = 0, frame = 8
 381              		@ frame_needed = 0, uses_anonymous_args = 0
 382              	.LVL13:
 383              		.loc 1 58 0
 384 0000 10B5     		push	{r4, lr}
 385              		.cfi_def_cfa_offset 8
 386              		.cfi_offset 4, -8
 387              		.cfi_offset 14, -4
 388              		.loc 1 59 0
 389 0002 134B     		ldr	r3, .L52
 390              		.loc 1 58 0
 391 0004 134C     		ldr	r4, .L52+4
 392              		.loc 1 59 0
 393 0006 D3F85422 		ldr	r2, [r3, #596]
 394              		.loc 1 58 0
 395 000a 2168     		ldr	r1, [r4]
 396              		.loc 1 59 0
 397 000c 1268     		ldr	r2, [r2]
 398 000e 1278     		ldrb	r2, [r2]	@ zero_extendqisi2
 399              		.loc 1 58 0
ARM GAS  C:\Users\osour\AppData\Local\Temp\ccJBffqE.s 			page 8


 400 0010 82B0     		sub	sp, sp, #8
 401              		.cfi_def_cfa_offset 16
 402              		.loc 1 59 0
 403 0012 042A     		cmp	r2, #4
 404              		.loc 1 58 0
 405 0014 0191     		str	r1, [sp, #4]
 406              		.loc 1 59 0
 407 0016 0DD1     		bne	.L47
 408              		.loc 1 62 0
 409 0018 0199     		ldr	r1, [sp, #4]
 410 001a 2268     		ldr	r2, [r4]
 411 001c 9142     		cmp	r1, r2
 412 001e 14D1     		bne	.L51
 413 0020 1A68     		ldr	r2, [r3]
 414 0022 5468     		ldr	r4, [r2, #4]
 415 0024 0146     		mov	r1, r0
 416 0026 0122     		movs	r2, #1
 417 0028 1846     		mov	r0, r3
 418              	.LVL14:
 419 002a 2346     		mov	r3, r4
 420              		.loc 1 67 0
 421 002c 02B0     		add	sp, sp, #8
 422              		.cfi_remember_state
 423              		.cfi_def_cfa_offset 8
 424              		@ sp needed
 425 002e BDE81040 		pop	{r4, lr}
 426              		.cfi_restore 14
 427              		.cfi_restore 4
 428              		.cfi_def_cfa_offset 0
 429              		.loc 1 62 0
 430 0032 1847     		bx	r3
 431              	.LVL15:
 432              	.L47:
 433              		.cfi_restore_state
 434              		.loc 1 65 0
 435 0034 0A20     		movs	r0, #10
 436              	.LVL16:
 437 0036 FFF7FEFF 		bl	chThdSleep
 438              	.LVL17:
 439              		.loc 1 67 0
 440 003a 019A     		ldr	r2, [sp, #4]
 441 003c 2368     		ldr	r3, [r4]
 442 003e 9A42     		cmp	r2, r3
 443 0040 4FF00000 		mov	r0, #0
 444 0044 01D1     		bne	.L51
 445 0046 02B0     		add	sp, sp, #8
 446              		.cfi_remember_state
 447              		.cfi_def_cfa_offset 8
 448              		@ sp needed
 449 0048 10BD     		pop	{r4, pc}
 450              	.L51:
 451              		.cfi_restore_state
 452 004a FFF7FEFF 		bl	__stack_chk_fail
 453              	.LVL18:
 454              	.L53:
 455 004e 00BF     		.align	2
 456              	.L52:
ARM GAS  C:\Users\osour\AppData\Local\Temp\ccJBffqE.s 			page 9


 457 0050 00000000 		.word	SDU1
 458 0054 00000000 		.word	__stack_chk_guard
 459              		.cfi_endproc
 460              	.LFE263:
 461              		.size	e_getchar_uart2, .-e_getchar_uart2
 462              		.section	.text.e_send_uart2_char,"ax",%progbits
 463              		.align	1
 464              		.p2align 4,,15
 465              		.global	e_send_uart2_char
 466              		.syntax unified
 467              		.thumb
 468              		.thumb_func
 469              		.fpu fpv4-sp-d16
 470              		.type	e_send_uart2_char, %function
 471              	e_send_uart2_char:
 472              	.LFB264:
 473              		.loc 1 69 0
 474              		.cfi_startproc
 475              		@ args = 0, pretend = 0, frame = 8
 476              		@ frame_needed = 0, uses_anonymous_args = 0
 477              	.LVL19:
 478 0000 30B5     		push	{r4, r5, lr}
 479              		.cfi_def_cfa_offset 12
 480              		.cfi_offset 4, -12
 481              		.cfi_offset 5, -8
 482              		.cfi_offset 14, -4
 483              		.loc 1 70 0
 484 0002 104B     		ldr	r3, .L60
 485              		.loc 1 69 0
 486 0004 104C     		ldr	r4, .L60+4
 487              		.loc 1 70 0
 488 0006 D3F85422 		ldr	r2, [r3, #596]
 489              		.loc 1 69 0
 490 000a 2568     		ldr	r5, [r4]
 491              		.loc 1 70 0
 492 000c 1268     		ldr	r2, [r2]
 493              		.loc 1 69 0
 494 000e 83B0     		sub	sp, sp, #12
 495              		.cfi_def_cfa_offset 24
 496              		.loc 1 69 0
 497 0010 0195     		str	r5, [sp, #4]
 498              		.loc 1 70 0
 499 0012 1578     		ldrb	r5, [r2]	@ zero_extendqisi2
 500 0014 042D     		cmp	r5, #4
 501 0016 0DD1     		bne	.L54
 502              		.loc 1 72 0
 503 0018 019D     		ldr	r5, [sp, #4]
 504 001a 2268     		ldr	r2, [r4]
 505 001c 9542     		cmp	r5, r2
 506 001e 0FD1     		bne	.L59
 507 0020 1C68     		ldr	r4, [r3]
 508 0022 2468     		ldr	r4, [r4]
 509 0024 0A46     		mov	r2, r1
 510 0026 0146     		mov	r1, r0
 511              	.LVL20:
 512 0028 1846     		mov	r0, r3
 513              	.LVL21:
ARM GAS  C:\Users\osour\AppData\Local\Temp\ccJBffqE.s 			page 10


 514 002a 2346     		mov	r3, r4
 515              		.loc 1 74 0
 516 002c 03B0     		add	sp, sp, #12
 517              		.cfi_remember_state
 518              		.cfi_def_cfa_offset 12
 519              		@ sp needed
 520 002e BDE83040 		pop	{r4, r5, lr}
 521              		.cfi_restore 14
 522              		.cfi_restore 5
 523              		.cfi_restore 4
 524              		.cfi_def_cfa_offset 0
 525              		.loc 1 72 0
 526 0032 1847     		bx	r3
 527              	.LVL22:
 528              	.L54:
 529              		.cfi_restore_state
 530              		.loc 1 74 0
 531 0034 019A     		ldr	r2, [sp, #4]
 532 0036 2368     		ldr	r3, [r4]
 533 0038 9A42     		cmp	r2, r3
 534 003a 01D1     		bne	.L59
 535 003c 03B0     		add	sp, sp, #12
 536              		.cfi_remember_state
 537              		.cfi_def_cfa_offset 12
 538              		@ sp needed
 539 003e 30BD     		pop	{r4, r5, pc}
 540              	.L59:
 541              		.cfi_restore_state
 542 0040 FFF7FEFF 		bl	__stack_chk_fail
 543              	.LVL23:
 544              	.L61:
 545              		.align	2
 546              	.L60:
 547 0044 00000000 		.word	SDU1
 548 0048 00000000 		.word	__stack_chk_guard
 549              		.cfi_endproc
 550              	.LFE264:
 551              		.size	e_send_uart2_char, .-e_send_uart2_char
 552              		.section	.text.e_uart2_sending,"ax",%progbits
 553              		.align	1
 554              		.p2align 4,,15
 555              		.global	e_uart2_sending
 556              		.syntax unified
 557              		.thumb
 558              		.thumb_func
 559              		.fpu fpv4-sp-d16
 560              		.type	e_uart2_sending, %function
 561              	e_uart2_sending:
 562              	.LFB271:
 563              		.cfi_startproc
 564              		@ args = 0, pretend = 0, frame = 8
 565              		@ frame_needed = 0, uses_anonymous_args = 0
 566 0000 00B5     		push	{lr}
 567              		.cfi_def_cfa_offset 4
 568              		.cfi_offset 14, -4
 569 0002 074B     		ldr	r3, .L66
 570 0004 83B0     		sub	sp, sp, #12
ARM GAS  C:\Users\osour\AppData\Local\Temp\ccJBffqE.s 			page 11


 571              		.cfi_def_cfa_offset 16
 572 0006 1A68     		ldr	r2, [r3]
 573 0008 0192     		str	r2, [sp, #4]
 574 000a 019A     		ldr	r2, [sp, #4]
 575 000c 1B68     		ldr	r3, [r3]
 576 000e 9A42     		cmp	r2, r3
 577 0010 03D1     		bne	.L65
 578 0012 0020     		movs	r0, #0
 579 0014 03B0     		add	sp, sp, #12
 580              		.cfi_remember_state
 581              		.cfi_def_cfa_offset 4
 582              		@ sp needed
 583 0016 5DF804FB 		ldr	pc, [sp], #4
 584              	.L65:
 585              		.cfi_restore_state
 586 001a FFF7FEFF 		bl	__stack_chk_fail
 587              	.L67:
 588 001e 00BF     		.align	2
 589              	.L66:
 590 0020 00000000 		.word	__stack_chk_guard
 591              		.cfi_endproc
 592              	.LFE271:
 593              		.size	e_uart2_sending, .-e_uart2_sending
 594              		.text
 595              	.Letext0:
 596              		.file 2 "c:\\users\\osour\\desktop\\robotique\\eclipse_e-puck2\\tools\\gcc-arm-none-eabi-7-2017-q4
 597              		.file 3 "c:\\users\\osour\\desktop\\robotique\\eclipse_e-puck2\\tools\\gcc-arm-none-eabi-7-2017-q4
 598              		.file 4 "c:\\users\\osour\\desktop\\robotique\\eclipse_e-puck2\\tools\\gcc-arm-none-eabi-7-2017-q4
 599              		.file 5 "../../lib/e-puck2_main-processor/ChibiOS//os/rt/ports/ARMCMx/compilers/GCC/chtypes.h"
 600              		.file 6 "../../lib/e-puck2_main-processor/ChibiOS//os/rt/include/chsystypes.h"
 601              		.file 7 "../../lib/e-puck2_main-processor/ChibiOS//os/rt/include/chschd.h"
 602              		.file 8 "../../lib/e-puck2_main-processor/ChibiOS//os/ext/CMSIS/include/core_cm4.h"
 603              		.file 9 "../../lib/e-puck2_main-processor/ChibiOS//os/ext/CMSIS/ST/system_stm32f4xx.h"
 604              		.file 10 "../../lib/e-puck2_main-processor/ChibiOS//os/ext/CMSIS/ST/stm32f407xx.h"
 605              		.file 11 "../../lib/e-puck2_main-processor/ChibiOS//os/rt/ports/ARMCMx/chcore.h"
 606              		.file 12 "../../lib/e-puck2_main-processor/ChibiOS//os/rt/ports/ARMCMx/chcore_v7m.h"
 607              		.file 13 "../../lib/e-puck2_main-processor/ChibiOS//os/rt/include/chdebug.h"
 608              		.file 14 "../../lib/e-puck2_main-processor/ChibiOS//os/rt/include/chtm.h"
 609              		.file 15 "../../lib/e-puck2_main-processor/ChibiOS//os/rt/include/chstats.h"
 610              		.file 16 "../../lib/e-puck2_main-processor/ChibiOS//os/rt/include/chsem.h"
 611              		.file 17 "../../lib/e-puck2_main-processor/ChibiOS//os/rt/include/chmtx.h"
 612              		.file 18 "../../lib/e-puck2_main-processor/ChibiOS//os/rt/include/chregistry.h"
 613              		.file 19 "../../lib/e-puck2_main-processor/ChibiOS//os/rt/include/chevents.h"
 614              		.file 20 "../../lib/e-puck2_main-processor/ChibiOS//os/rt/include/chqueues.h"
 615              		.file 21 "../../lib/e-puck2_main-processor/ChibiOS//os/hal/ports/STM32/STM32F4xx/stm32_dma.h"
 616              		.file 22 "../../lib/e-puck2_main-processor/ChibiOS//os/hal/include/hal_ioblock.h"
 617              		.file 23 "../../lib/e-puck2_main-processor/ChibiOS//os/hal/ports/STM32/LLD/GPIOv2/pal_lld.h"
 618              		.file 24 "../../lib/e-puck2_main-processor/ChibiOS//os/hal/include/adc.h"
 619              		.file 25 "../../lib/e-puck2_main-processor/ChibiOS//os/hal/ports/STM32/STM32F4xx/adc_lld.h"
 620              		.file 26 "../../lib/e-puck2_main-processor/ChibiOS//os/hal/include/can.h"
 621              		.file 27 "../../lib/e-puck2_main-processor/ChibiOS//os/hal/ports/STM32/LLD/can_lld.h"
 622              		.file 28 "../../lib/e-puck2_main-processor/ChibiOS//os/hal/include/dac.h"
 623              		.file 29 "../../lib/e-puck2_main-processor/ChibiOS//os/hal/ports/STM32/LLD/DACv1/dac_lld.h"
 624              		.file 30 "../../lib/e-puck2_main-processor/ChibiOS//os/hal/include/ext.h"
 625              		.file 31 "../../lib/e-puck2_main-processor/ChibiOS//os/hal/ports/STM32/LLD/ext_lld.h"
 626              		.file 32 "../../lib/e-puck2_main-processor/ChibiOS//os/hal/include/gpt.h"
 627              		.file 33 "../../lib/e-puck2_main-processor/ChibiOS//os/hal/ports/STM32/LLD/TIMv1/gpt_lld.h"
ARM GAS  C:\Users\osour\AppData\Local\Temp\ccJBffqE.s 			page 12


 628              		.file 34 "../../lib/e-puck2_main-processor/ChibiOS//os/hal/ports/STM32/LLD/TIMv1/stm32_tim.h"
 629              		.file 35 "../../lib/e-puck2_main-processor/ChibiOS//os/hal/include/i2c.h"
 630              		.file 36 "../../lib/e-puck2_main-processor/ChibiOS//os/hal/ports/STM32/LLD/I2Cv1/i2c_lld.h"
 631              		.file 37 "../../lib/e-puck2_main-processor/ChibiOS//os/hal/include/i2s.h"
 632              		.file 38 "../../lib/e-puck2_main-processor/ChibiOS//os/hal/ports/STM32/LLD/SPIv1/i2s_lld.h"
 633              		.file 39 "../../lib/e-puck2_main-processor/ChibiOS//os/hal/include/pwm.h"
 634              		.file 40 "../../lib/e-puck2_main-processor/ChibiOS//os/hal/ports/STM32/LLD/TIMv1/pwm_lld.h"
 635              		.file 41 "../../lib/e-puck2_main-processor/ChibiOS//os/hal/include/serial.h"
 636              		.file 42 "../../lib/e-puck2_main-processor/ChibiOS//os/hal/ports/STM32/LLD/USARTv1/serial_lld.h"
 637              		.file 43 "../../lib/e-puck2_main-processor/ChibiOS//os/hal/include/sdc.h"
 638              		.file 44 "../../lib/e-puck2_main-processor/ChibiOS//os/hal/ports/STM32/LLD/sdc_lld.h"
 639              		.file 45 "../../lib/e-puck2_main-processor/ChibiOS//os/hal/include/spi.h"
 640              		.file 46 "../../lib/e-puck2_main-processor/ChibiOS//os/hal/ports/STM32/LLD/SPIv1/spi_lld.h"
 641              		.file 47 "../../lib/e-puck2_main-processor/ChibiOS//os/hal/include/usb.h"
 642              		.file 48 "../../lib/e-puck2_main-processor/ChibiOS//os/hal/ports/STM32/LLD/OTGv1/usb_lld.h"
 643              		.file 49 "../../lib/e-puck2_main-processor/ChibiOS//os/hal/ports/STM32/LLD/OTGv1/stm32_otg.h"
 644              		.file 50 "../../lib/e-puck2_main-processor/ChibiOS//os/hal/include/serial_usb.h"
 645              		.file 51 "../../lib/e-puck2_main-processor/src/epuck1x/../usbcfg.h"
 646              		.file 52 "../../lib/e-puck2_main-processor/ChibiOS//os/rt/include/chthreads.h"