ARM GAS  C:\Users\osour\AppData\Local\Temp\ccKEUjRn.s 			page 1


   1              		.cpu cortex-m4
   2              		.eabi_attribute 27, 1
   3              		.eabi_attribute 28, 1
   4              		.eabi_attribute 20, 1
   5              		.eabi_attribute 21, 1
   6              		.eabi_attribute 23, 3
   7              		.eabi_attribute 24, 1
   8              		.eabi_attribute 25, 1
   9              		.eabi_attribute 26, 1
  10              		.eabi_attribute 30, 2
  11              		.eabi_attribute 34, 1
  12              		.eabi_attribute 18, 4
  13              		.file	"fat.c"
  14              		.text
  15              	.Ltext0:
  16              		.cfi_sections	.debug_frame
  17              		.section	.text.chprintf,"ax",%progbits
  18              		.align	1
  19              		.p2align 4,,15
  20              		.syntax unified
  21              		.thumb
  22              		.thumb_func
  23              		.fpu fpv4-sp-d16
  24              		.type	chprintf, %function
  25              	chprintf:
  26              	.LFB256:
  27              		.file 1 "../../lib/e-puck2_main-processor/ChibiOS//os/hal/lib/streams/chprintf.h"
  28              		.loc 1 69 0
  29              		.cfi_startproc
  30              		@ args = 4, pretend = 12, frame = 8
  31              		@ frame_needed = 0, uses_anonymous_args = 1
  32              	.LVL0:
  33 0000 0EB4     		push	{r1, r2, r3}
  34              		.cfi_def_cfa_offset 12
  35              		.cfi_offset 1, -12
  36              		.cfi_offset 2, -8
  37              		.cfi_offset 3, -4
  38 0002 10B5     		push	{r4, lr}
  39              		.cfi_def_cfa_offset 20
  40              		.cfi_offset 4, -20
  41              		.cfi_offset 14, -16
  42 0004 83B0     		sub	sp, sp, #12
  43              		.cfi_def_cfa_offset 32
  44              		.loc 1 69 0
  45 0006 05AA     		add	r2, sp, #20
  46 0008 094C     		ldr	r4, .L6
  47 000a 52F8041B 		ldr	r1, [r2], #4
  48 000e 2368     		ldr	r3, [r4]
  49              		.loc 1 73 0
  50 0010 0092     		str	r2, [sp]
  51              		.loc 1 69 0
  52 0012 0193     		str	r3, [sp, #4]
  53              		.loc 1 74 0
  54 0014 FFF7FEFF 		bl	chvprintf
  55              	.LVL1:
  56              		.loc 1 78 0
  57 0018 019A     		ldr	r2, [sp, #4]
ARM GAS  C:\Users\osour\AppData\Local\Temp\ccKEUjRn.s 			page 2


  58 001a 2368     		ldr	r3, [r4]
  59 001c 9A42     		cmp	r2, r3
  60 001e 04D1     		bne	.L5
  61 0020 03B0     		add	sp, sp, #12
  62              		.cfi_remember_state
  63              		.cfi_def_cfa_offset 20
  64              		@ sp needed
  65 0022 BDE81040 		pop	{r4, lr}
  66              		.cfi_restore 14
  67              		.cfi_restore 4
  68              		.cfi_def_cfa_offset 12
  69 0026 03B0     		add	sp, sp, #12
  70              		.cfi_restore 3
  71              		.cfi_restore 2
  72              		.cfi_restore 1
  73              		.cfi_def_cfa_offset 0
  74 0028 7047     		bx	lr
  75              	.L5:
  76              		.cfi_restore_state
  77 002a FFF7FEFF 		bl	__stack_chk_fail
  78              	.LVL2:
  79              	.L7:
  80 002e 00BF     		.align	2
  81              	.L6:
  82 0030 00000000 		.word	__stack_chk_guard
  83              		.cfi_endproc
  84              	.LFE256:
  85              		.size	chprintf, .-chprintf
  86              		.section	.text.fresult_str,"ax",%progbits
  87              		.align	1
  88              		.p2align 4,,15
  89              		.global	fresult_str
  90              		.syntax unified
  91              		.thumb
  92              		.thumb_func
  93              		.fpu fpv4-sp-d16
  94              		.type	fresult_str, %function
  95              	fresult_str:
  96              	.LFB257:
  97              		.file 2 "../../lib/e-puck2_main-processor/src/fat.c"
  98              		.loc 2 38 0
  99              		.cfi_startproc
 100              		@ args = 0, pretend = 0, frame = 8
 101              		@ frame_needed = 0, uses_anonymous_args = 0
 102              	.LVL3:
 103 0000 00B5     		push	{lr}
 104              		.cfi_def_cfa_offset 4
 105              		.cfi_offset 14, -4
 106 0002 094B     		ldr	r3, .L14
 107 0004 83B0     		sub	sp, sp, #12
 108              		.cfi_def_cfa_offset 16
 109              		.loc 2 38 0
 110 0006 1A68     		ldr	r2, [r3]
 111 0008 0192     		str	r2, [sp, #4]
 112 000a 1328     		cmp	r0, #19
 113 000c 96BF     		itet	ls
 114 000e 074A     		ldrls	r2, .L14+4
ARM GAS  C:\Users\osour\AppData\Local\Temp\ccKEUjRn.s 			page 3


 115 0010 0748     		ldrhi	r0, .L14+8
 116              	.LVL4:
 117 0012 52F82000 		ldrls	r0, [r2, r0, lsl #2]
 118              		.loc 2 87 0
 119 0016 019A     		ldr	r2, [sp, #4]
 120 0018 1B68     		ldr	r3, [r3]
 121 001a 9A42     		cmp	r2, r3
 122 001c 02D1     		bne	.L13
 123 001e 03B0     		add	sp, sp, #12
 124              		.cfi_remember_state
 125              		.cfi_def_cfa_offset 4
 126              		@ sp needed
 127 0020 5DF804FB 		ldr	pc, [sp], #4
 128              	.L13:
 129              		.cfi_restore_state
 130 0024 FFF7FEFF 		bl	__stack_chk_fail
 131              	.LVL5:
 132              	.L15:
 133              		.align	2
 134              	.L14:
 135 0028 00000000 		.word	__stack_chk_guard
 136 002c 00000000 		.word	.LANCHOR0
 137 0030 00000000 		.word	.LC0
 138              		.cfi_endproc
 139              	.LFE257:
 140              		.size	fresult_str, .-fresult_str
 141              		.section	.text.mountSDCard,"ax",%progbits
 142              		.align	1
 143              		.p2align 4,,15
 144              		.global	mountSDCard
 145              		.syntax unified
 146              		.thumb
 147              		.thumb_func
 148              		.fpu fpv4-sp-d16
 149              		.type	mountSDCard, %function
 150              	mountSDCard:
 151              	.LFB258:
 152              		.loc 2 93 0
 153              		.cfi_startproc
 154              		@ args = 0, pretend = 0, frame = 8
 155              		@ frame_needed = 0, uses_anonymous_args = 0
 156 0000 70B5     		push	{r4, r5, r6, lr}
 157              		.cfi_def_cfa_offset 16
 158              		.cfi_offset 4, -16
 159              		.cfi_offset 5, -12
 160              		.cfi_offset 6, -8
 161              		.cfi_offset 14, -4
 162              		.loc 2 95 0
 163 0002 0F4E     		ldr	r6, .L24
 164              		.loc 2 93 0
 165 0004 0F4D     		ldr	r5, .L24+4
 166              		.loc 2 95 0
 167 0006 3478     		ldrb	r4, [r6]	@ zero_extendqisi2
 168              		.loc 2 93 0
 169 0008 2B68     		ldr	r3, [r5]
 170 000a 82B0     		sub	sp, sp, #8
 171              		.cfi_def_cfa_offset 24
ARM GAS  C:\Users\osour\AppData\Local\Temp\ccKEUjRn.s 			page 4


 172              		.loc 2 93 0
 173 000c 0193     		str	r3, [sp, #4]
 174              		.loc 2 95 0
 175 000e 34B1     		cbz	r4, .L22
 176              	.L17:
 177              		.loc 2 108 0
 178 0010 019A     		ldr	r2, [sp, #4]
 179 0012 2B68     		ldr	r3, [r5]
 180 0014 9A42     		cmp	r2, r3
 181 0016 2046     		mov	r0, r4
 182 0018 0FD1     		bne	.L23
 183 001a 02B0     		add	sp, sp, #8
 184              		.cfi_remember_state
 185              		.cfi_def_cfa_offset 16
 186              		@ sp needed
 187 001c 70BD     		pop	{r4, r5, r6, pc}
 188              	.L22:
 189              		.cfi_restore_state
 190              		.loc 2 99 0
 191 001e FFF7FEFF 		bl	sdio_connect
 192              	.LVL6:
 193 0022 0028     		cmp	r0, #0
 194 0024 F4D1     		bne	.L17
 195              		.loc 2 102 0
 196 0026 2246     		mov	r2, r4
 197 0028 0749     		ldr	r1, .L24+8
 198 002a 0848     		ldr	r0, .L24+12
 199 002c FFF7FEFF 		bl	f_mount
 200              	.LVL7:
 201 0030 0028     		cmp	r0, #0
 202 0032 EDD1     		bne	.L17
 203              		.loc 2 105 0
 204 0034 0124     		movs	r4, #1
 205 0036 3470     		strb	r4, [r6]
 206 0038 EAE7     		b	.L17
 207              	.L23:
 208              		.loc 2 108 0
 209 003a FFF7FEFF 		bl	__stack_chk_fail
 210              	.LVL8:
 211              	.L25:
 212 003e 00BF     		.align	2
 213              	.L24:
 214 0040 00000000 		.word	.LANCHOR1
 215 0044 00000000 		.word	__stack_chk_guard
 216 0048 00000000 		.word	.LC1
 217 004c 00000000 		.word	.LANCHOR2
 218              		.cfi_endproc
 219              	.LFE258:
 220              		.size	mountSDCard, .-mountSDCard
 221              		.section	.text.unmountSDCard,"ax",%progbits
 222              		.align	1
 223              		.p2align 4,,15
 224              		.global	unmountSDCard
 225              		.syntax unified
 226              		.thumb
 227              		.thumb_func
 228              		.fpu fpv4-sp-d16
ARM GAS  C:\Users\osour\AppData\Local\Temp\ccKEUjRn.s 			page 5


 229              		.type	unmountSDCard, %function
 230              	unmountSDCard:
 231              	.LFB259:
 232              		.loc 2 113 0
 233              		.cfi_startproc
 234              		@ args = 0, pretend = 0, frame = 8
 235              		@ frame_needed = 0, uses_anonymous_args = 0
 236 0000 70B5     		push	{r4, r5, r6, lr}
 237              		.cfi_def_cfa_offset 16
 238              		.cfi_offset 4, -16
 239              		.cfi_offset 5, -12
 240              		.cfi_offset 6, -8
 241              		.cfi_offset 14, -4
 242              		.loc 2 114 0
 243 0002 0F4E     		ldr	r6, .L35
 244              		.loc 2 113 0
 245 0004 0F4D     		ldr	r5, .L35+4
 246              		.loc 2 114 0
 247 0006 3478     		ldrb	r4, [r6]	@ zero_extendqisi2
 248              		.loc 2 113 0
 249 0008 2B68     		ldr	r3, [r5]
 250 000a 82B0     		sub	sp, sp, #8
 251              		.cfi_def_cfa_offset 24
 252              		.loc 2 113 0
 253 000c 0193     		str	r3, [sp, #4]
 254              		.loc 2 114 0
 255 000e 3CB9     		cbnz	r4, .L33
 256              		.loc 2 127 0
 257 0010 0124     		movs	r4, #1
 258              	.L27:
 259              		.loc 2 128 0
 260 0012 019A     		ldr	r2, [sp, #4]
 261 0014 2B68     		ldr	r3, [r5]
 262 0016 9A42     		cmp	r2, r3
 263 0018 2046     		mov	r0, r4
 264 001a 0ED1     		bne	.L34
 265 001c 02B0     		add	sp, sp, #8
 266              		.cfi_remember_state
 267              		.cfi_def_cfa_offset 16
 268              		@ sp needed
 269 001e 70BD     		pop	{r4, r5, r6, pc}
 270              	.L33:
 271              		.cfi_restore_state
 272              		.loc 2 118 0
 273 0020 FFF7FEFF 		bl	sdio_disconnect
 274              	.LVL9:
 275 0024 0246     		mov	r2, r0
 276 0026 08B1     		cbz	r0, .L28
 277              	.L29:
 278              		.loc 2 119 0
 279 0028 0024     		movs	r4, #0
 280 002a F2E7     		b	.L27
 281              	.L28:
 282              		.loc 2 121 0
 283 002c 0649     		ldr	r1, .L35+8
 284 002e FFF7FEFF 		bl	f_mount
 285              	.LVL10:
ARM GAS  C:\Users\osour\AppData\Local\Temp\ccKEUjRn.s 			page 6


 286 0032 0028     		cmp	r0, #0
 287 0034 F8D1     		bne	.L29
 288              		.loc 2 124 0
 289 0036 3070     		strb	r0, [r6]
 290 0038 EBE7     		b	.L27
 291              	.L34:
 292              		.loc 2 128 0
 293 003a FFF7FEFF 		bl	__stack_chk_fail
 294              	.LVL11:
 295              	.L36:
 296 003e 00BF     		.align	2
 297              	.L35:
 298 0040 00000000 		.word	.LANCHOR1
 299 0044 00000000 		.word	__stack_chk_guard
 300 0048 00000000 		.word	.LC1
 301              		.cfi_endproc
 302              	.LFE259:
 303              		.size	unmountSDCard, .-unmountSDCard
 304              		.section	.text.isSDCardMounted,"ax",%progbits
 305              		.align	1
 306              		.p2align 4,,15
 307              		.global	isSDCardMounted
 308              		.syntax unified
 309              		.thumb
 310              		.thumb_func
 311              		.fpu fpv4-sp-d16
 312              		.type	isSDCardMounted, %function
 313              	isSDCardMounted:
 314              	.LFB260:
 315              		.loc 2 133 0
 316              		.cfi_startproc
 317              		@ args = 0, pretend = 0, frame = 8
 318              		@ frame_needed = 0, uses_anonymous_args = 0
 319 0000 00B5     		push	{lr}
 320              		.cfi_def_cfa_offset 4
 321              		.cfi_offset 14, -4
 322 0002 074B     		ldr	r3, .L41
 323              		.loc 2 134 0
 324 0004 0749     		ldr	r1, .L41+4
 325              		.loc 2 133 0
 326 0006 1A68     		ldr	r2, [r3]
 327              		.loc 2 135 0
 328 0008 0878     		ldrb	r0, [r1]	@ zero_extendqisi2
 329              		.loc 2 133 0
 330 000a 83B0     		sub	sp, sp, #12
 331              		.cfi_def_cfa_offset 16
 332              		.loc 2 133 0
 333 000c 0192     		str	r2, [sp, #4]
 334              		.loc 2 135 0
 335 000e 019A     		ldr	r2, [sp, #4]
 336 0010 1B68     		ldr	r3, [r3]
 337 0012 9A42     		cmp	r2, r3
 338 0014 02D1     		bne	.L40
 339 0016 03B0     		add	sp, sp, #12
 340              		.cfi_remember_state
 341              		.cfi_def_cfa_offset 4
 342              		@ sp needed
ARM GAS  C:\Users\osour\AppData\Local\Temp\ccKEUjRn.s 			page 7


 343 0018 5DF804FB 		ldr	pc, [sp], #4
 344              	.L40:
 345              		.cfi_restore_state
 346 001c FFF7FEFF 		bl	__stack_chk_fail
 347              	.LVL12:
 348              	.L42:
 349              		.align	2
 350              	.L41:
 351 0020 00000000 		.word	__stack_chk_guard
 352 0024 00000000 		.word	.LANCHOR1
 353              		.cfi_endproc
 354              	.LFE260:
 355              		.size	isSDCardMounted, .-isSDCardMounted
 356              		.section	.text.scan_files,"ax",%progbits
 357              		.align	1
 358              		.p2align 4,,15
 359              		.global	scan_files
 360              		.syntax unified
 361              		.thumb
 362              		.thumb_func
 363              		.fpu fpv4-sp-d16
 364              		.type	scan_files, %function
 365              	scan_files:
 366              	.LFB261:
 367              		.loc 2 140 0
 368              		.cfi_startproc
 369              		@ args = 0, pretend = 0, frame = 72
 370              		@ frame_needed = 0, uses_anonymous_args = 0
 371              	.LVL13:
 372 0000 2DE9F04F 		push	{r4, r5, r6, r7, r8, r9, r10, fp, lr}
 373              		.cfi_def_cfa_offset 36
 374              		.cfi_offset 4, -36
 375              		.cfi_offset 5, -32
 376              		.cfi_offset 6, -28
 377              		.cfi_offset 7, -24
 378              		.cfi_offset 8, -20
 379              		.cfi_offset 9, -16
 380              		.cfi_offset 10, -12
 381              		.cfi_offset 11, -8
 382              		.cfi_offset 14, -4
 383 0004 3A4E     		ldr	r6, .L60
 384 0006 97B0     		sub	sp, sp, #92
 385              		.cfi_def_cfa_offset 128
 386              		.loc 2 140 0
 387 0008 3368     		ldr	r3, [r6]
 388 000a 1593     		str	r3, [sp, #84]
 389 000c 0446     		mov	r4, r0
 390              		.loc 2 150 0
 391 000e 0023     		movs	r3, #0
 392              		.loc 2 156 0
 393 0010 04A8     		add	r0, sp, #16
 394              	.LVL14:
 395              		.loc 2 151 0
 396 0012 CDE91333 		strd	r3, r3, [sp, #76]
 397              		.loc 2 140 0
 398 0016 0D46     		mov	r5, r1
 399              		.loc 2 156 0
ARM GAS  C:\Users\osour\AppData\Local\Temp\ccKEUjRn.s 			page 8


 400 0018 FFF7FEFF 		bl	f_opendir
 401              	.LVL15:
 402              		.loc 2 157 0
 403 001c 0028     		cmp	r0, #0
 404 001e 5FD1     		bne	.L44
 405              		.loc 2 161 0
 406 0020 2846     		mov	r0, r5
 407              	.LVL16:
 408 0022 FFF7FEFF 		bl	strlen
 409              	.LVL17:
 410              		.loc 2 195 0
 411 0026 334F     		ldr	r7, .L60+4
 412              		.loc 2 221 0
 413 0028 DFF8D080 		ldr	r8, .L60+12
 414              		.loc 2 208 0
 415 002c DFF8D0A0 		ldr	r10, .L60+16
 416              		.loc 2 161 0
 417 0030 8146     		mov	r9, r0
 418              	.LVL18:
 419              	.L47:
 420              		.loc 2 166 0
 421 0032 0DA9     		add	r1, sp, #52
 422 0034 04A8     		add	r0, sp, #16
 423 0036 FFF7FEFF 		bl	f_readdir
 424              	.LVL19:
 425              		.loc 2 170 0
 426 003a 8346     		mov	fp, r0
 427 003c 78BB     		cbnz	r0, .L46
 428              	.L58:
 429              		.loc 2 170 0 is_stmt 0 discriminator 1
 430 003e 9DF83D30 		ldrb	r3, [sp, #61]	@ zero_extendqisi2
 431 0042 63B3     		cbz	r3, .L46
 432              		.loc 2 176 0 is_stmt 1
 433 0044 2E2B     		cmp	r3, #46
 434 0046 F4D0     		beq	.L47
 435              	.LVL20:
 436              		.loc 2 189 0
 437 0048 BDF83A20 		ldrh	r2, [sp, #58]
 438              		.loc 2 183 0
 439 004c BDF83830 		ldrh	r3, [sp, #56]
 440              	.LVL21:
 441              		.loc 2 191 0
 442 0050 02F01F01 		and	r1, r2, #31
 443 0054 4900     		lsls	r1, r1, #1
 444              		.loc 2 190 0
 445 0056 C2F3451C 		ubfx	ip, r2, #5, #6
 446              		.loc 2 183 0
 447 005a 580A     		lsrs	r0, r3, #9
 448              	.LVL22:
 449              		.loc 2 189 0
 450 005c D20A     		lsrs	r2, r2, #11
 451              	.LVL23:
 452              		.loc 2 195 0
 453 005e 0391     		str	r1, [sp, #12]
 454              		.loc 2 185 0
 455 0060 03F01F01 		and	r1, r3, #31
 456              		.loc 2 189 0
ARM GAS  C:\Users\osour\AppData\Local\Temp\ccKEUjRn.s 			page 9


 457 0064 CDE9012C 		strd	r2, ip, [sp, #4]
 458              		.loc 2 185 0
 459 0068 0091     		str	r1, [sp]
 460              		.loc 2 195 0
 461 006a 00F2BC72 		addw	r2, r0, #1980
 462 006e C3F34313 		ubfx	r3, r3, #5, #4
 463              	.LVL24:
 464 0072 3946     		mov	r1, r7
 465 0074 2046     		mov	r0, r4
 466 0076 FFF7FEFF 		bl	chprintf
 467              	.LVL25:
 468              		.loc 2 199 0
 469 007a 9DF83C30 		ldrb	r3, [sp, #60]	@ zero_extendqisi2
 470 007e DB06     		lsls	r3, r3, #27
 471 0080 15D4     		bmi	.L57
 472              		.loc 2 221 0
 473 0082 0DF13D03 		add	r3, sp, #61
 474              	.LVL26:
 475 0086 2A46     		mov	r2, r5
 476 0088 4146     		mov	r1, r8
 477 008a 2046     		mov	r0, r4
 478 008c FFF7FEFF 		bl	chprintf
 479              	.LVL27:
 480              		.loc 2 166 0
 481 0090 0DA9     		add	r1, sp, #52
 482 0092 04A8     		add	r0, sp, #16
 483 0094 FFF7FEFF 		bl	f_readdir
 484              	.LVL28:
 485              		.loc 2 170 0
 486 0098 8346     		mov	fp, r0
 487 009a 0028     		cmp	r0, #0
 488 009c CFD0     		beq	.L58
 489              	.LVL29:
 490              	.L46:
 491              		.loc 2 228 0
 492 009e 159A     		ldr	r2, [sp, #84]
 493 00a0 3368     		ldr	r3, [r6]
 494 00a2 9A42     		cmp	r2, r3
 495 00a4 5846     		mov	r0, fp
 496 00a6 21D1     		bne	.L59
 497 00a8 17B0     		add	sp, sp, #92
 498              		.cfi_remember_state
 499              		.cfi_def_cfa_offset 36
 500              		@ sp needed
 501 00aa BDE8F08F 		pop	{r4, r5, r6, r7, r8, r9, r10, fp, pc}
 502              	.LVL30:
 503              	.L57:
 504              		.cfi_restore_state
 505              		.loc 2 203 0
 506 00ae 2F23     		movs	r3, #47
 507 00b0 09F10100 		add	r0, r9, #1
 508              	.LVL31:
 509 00b4 05F80930 		strb	r3, [r5, r9]
 510              		.loc 2 204 0
 511 00b8 0DF13D01 		add	r1, sp, #61
 512              	.LVL32:
 513 00bc 2844     		add	r0, r0, r5
ARM GAS  C:\Users\osour\AppData\Local\Temp\ccKEUjRn.s 			page 10


 514              	.LVL33:
 515 00be FFF7FEFF 		bl	strcpy
 516              	.LVL34:
 517              		.loc 2 208 0
 518 00c2 2A46     		mov	r2, r5
 519 00c4 5146     		mov	r1, r10
 520 00c6 2046     		mov	r0, r4
 521 00c8 FFF7FEFF 		bl	chprintf
 522              	.LVL35:
 523              		.loc 2 212 0
 524 00cc 2946     		mov	r1, r5
 525 00ce 2046     		mov	r0, r4
 526 00d0 FFF7FEFF 		bl	scan_files
 527              	.LVL36:
 528 00d4 8346     		mov	fp, r0
 529              	.LVL37:
 530              		.loc 2 213 0
 531 00d6 0028     		cmp	r0, #0
 532 00d8 E1D1     		bne	.L46
 533              	.LVL38:
 534              		.loc 2 216 0
 535 00da 05F80900 		strb	r0, [r5, r9]
 536 00de A8E7     		b	.L47
 537              	.LVL39:
 538              	.L44:
 539 00e0 8346     		mov	fp, r0
 540              		.loc 2 225 0
 541 00e2 0549     		ldr	r1, .L60+8
 542 00e4 2046     		mov	r0, r4
 543              	.LVL40:
 544 00e6 FFF7FEFF 		bl	chprintf
 545              	.LVL41:
 546 00ea D8E7     		b	.L46
 547              	.LVL42:
 548              	.L59:
 549              		.loc 2 228 0
 550 00ec FFF7FEFF 		bl	__stack_chk_fail
 551              	.LVL43:
 552              	.L61:
 553              		.align	2
 554              	.L60:
 555 00f0 00000000 		.word	__stack_chk_guard
 556 00f4 00000000 		.word	.LC2
 557 00f8 3C000000 		.word	.LC5
 558 00fc 2C000000 		.word	.LC4
 559 0100 20000000 		.word	.LC3
 560              		.cfi_endproc
 561              	.LFE261:
 562              		.size	scan_files, .-scan_files
 563              		.section	.text.getSDCardClusterSize,"ax",%progbits
 564              		.align	1
 565              		.p2align 4,,15
 566              		.global	getSDCardClusterSize
 567              		.syntax unified
 568              		.thumb
 569              		.thumb_func
 570              		.fpu fpv4-sp-d16
ARM GAS  C:\Users\osour\AppData\Local\Temp\ccKEUjRn.s 			page 11


 571              		.type	getSDCardClusterSize, %function
 572              	getSDCardClusterSize:
 573              	.LFB262:
 574              		.loc 2 234 0
 575              		.cfi_startproc
 576              		@ args = 0, pretend = 0, frame = 8
 577              		@ frame_needed = 0, uses_anonymous_args = 0
 578 0000 00B5     		push	{lr}
 579              		.cfi_def_cfa_offset 4
 580              		.cfi_offset 14, -4
 581 0002 074B     		ldr	r3, .L66
 582              		.loc 2 235 0
 583 0004 0749     		ldr	r1, .L66+4
 584              		.loc 2 234 0
 585 0006 1A68     		ldr	r2, [r3]
 586              		.loc 2 236 0
 587 0008 8878     		ldrb	r0, [r1, #2]	@ zero_extendqisi2
 588              		.loc 2 234 0
 589 000a 83B0     		sub	sp, sp, #12
 590              		.cfi_def_cfa_offset 16
 591              		.loc 2 234 0
 592 000c 0192     		str	r2, [sp, #4]
 593              		.loc 2 236 0
 594 000e 019A     		ldr	r2, [sp, #4]
 595 0010 1B68     		ldr	r3, [r3]
 596 0012 9A42     		cmp	r2, r3
 597 0014 02D1     		bne	.L65
 598 0016 03B0     		add	sp, sp, #12
 599              		.cfi_remember_state
 600              		.cfi_def_cfa_offset 4
 601              		@ sp needed
 602 0018 5DF804FB 		ldr	pc, [sp], #4
 603              	.L65:
 604              		.cfi_restore_state
 605 001c FFF7FEFF 		bl	__stack_chk_fail
 606              	.LVL44:
 607              	.L67:
 608              		.align	2
 609              	.L66:
 610 0020 00000000 		.word	__stack_chk_guard
 611 0024 00000000 		.word	.LANCHOR2
 612              		.cfi_endproc
 613              	.LFE262:
 614              		.size	getSDCardClusterSize, .-getSDCardClusterSize
 615              		.section	.text.fverbose_error,"ax",%progbits
 616              		.align	1
 617              		.p2align 4,,15
 618              		.global	fverbose_error
 619              		.syntax unified
 620              		.thumb
 621              		.thumb_func
 622              		.fpu fpv4-sp-d16
 623              		.type	fverbose_error, %function
 624              	fverbose_error:
 625              	.LFB263:
 626              		.loc 2 240 0
 627              		.cfi_startproc
ARM GAS  C:\Users\osour\AppData\Local\Temp\ccKEUjRn.s 			page 12


 628              		@ args = 0, pretend = 0, frame = 8
 629              		@ frame_needed = 0, uses_anonymous_args = 0
 630              	.LVL45:
 631 0000 00B5     		push	{lr}
 632              		.cfi_def_cfa_offset 4
 633              		.cfi_offset 14, -4
 634 0002 0B4B     		ldr	r3, .L75
 635 0004 83B0     		sub	sp, sp, #12
 636              		.cfi_def_cfa_offset 16
 637              		.loc 2 240 0
 638 0006 1A68     		ldr	r2, [r3]
 639 0008 0192     		str	r2, [sp, #4]
 640              	.LVL46:
 641 000a 1329     		cmp	r1, #19
 642 000c 96BF     		itet	ls
 643 000e 094A     		ldrls	r2, .L75+4
 644 0010 094A     		ldrhi	r2, .L75+8
 645              	.LVL47:
 646 0012 52F82120 		ldrls	r2, [r2, r1, lsl #2]
 647              		.loc 2 241 0
 648 0016 0199     		ldr	r1, [sp, #4]
 649              	.LVL48:
 650 0018 1B68     		ldr	r3, [r3]
 651 001a 9942     		cmp	r1, r3
 652 001c 05D1     		bne	.L74
 653 001e 0749     		ldr	r1, .L75+12
 654              		.loc 2 242 0
 655 0020 03B0     		add	sp, sp, #12
 656              		.cfi_remember_state
 657              		.cfi_def_cfa_offset 4
 658              		@ sp needed
 659 0022 5DF804EB 		ldr	lr, [sp], #4
 660              		.cfi_restore 14
 661              		.cfi_def_cfa_offset 0
 662              		.loc 2 241 0
 663 0026 FFF7FEBF 		b	chprintf
 664              	.LVL49:
 665              	.L74:
 666              		.cfi_restore_state
 667 002a FFF7FEFF 		bl	__stack_chk_fail
 668              	.LVL50:
 669              	.L76:
 670 002e 00BF     		.align	2
 671              	.L75:
 672 0030 00000000 		.word	__stack_chk_guard
 673 0034 00000000 		.word	.LANCHOR0
 674 0038 00000000 		.word	.LC0
 675 003c 00000000 		.word	.LC6
 676              		.cfi_endproc
 677              	.LFE263:
 678              		.size	fverbose_error, .-fverbose_error
 679              		.section	.bss.SDC_FS,"aw",%nobits
 680              		.align	2
 681              		.set	.LANCHOR2,. + 0
 682              		.type	SDC_FS, %object
 683              		.size	SDC_FS, 560
 684              	SDC_FS:
ARM GAS  C:\Users\osour\AppData\Local\Temp\ccKEUjRn.s 			page 13


 685 0000 00000000 		.space	560
 685      00000000 
 685      00000000 
 685      00000000 
 685      00000000 
 686              		.section	.bss.sd_card_mounted,"aw",%nobits
 687              		.set	.LANCHOR1,. + 0
 688              		.type	sd_card_mounted, %object
 689              		.size	sd_card_mounted, 1
 690              	sd_card_mounted:
 691 0000 00       		.space	1
 692              		.section	.rodata.CSWTCH.8,"a",%progbits
 693              		.align	2
 694              		.set	.LANCHOR0,. + 0
 695              		.type	CSWTCH.8, %object
 696              		.size	CSWTCH.8, 80
 697              	CSWTCH.8:
 698 0000 00000000 		.word	.LC7
 699 0004 0C000000 		.word	.LC8
 700 0008 44000000 		.word	.LC9
 701 000c 58000000 		.word	.LC10
 702 0010 78000000 		.word	.LC11
 703 0014 90000000 		.word	.LC12
 704 0018 A8000000 		.word	.LC13
 705 001c C8000000 		.word	.LC14
 706 0020 04010000 		.word	.LC15
 707 0024 2C010000 		.word	.LC16
 708 0028 54010000 		.word	.LC17
 709 002c 7C010000 		.word	.LC18
 710 0030 A0010000 		.word	.LC19
 711 0034 BC010000 		.word	.LC20
 712 0038 DC010000 		.word	.LC21
 713 003c 0C020000 		.word	.LC22
 714 0040 50020000 		.word	.LC23
 715 0044 90020000 		.word	.LC24
 716 0048 BC020000 		.word	.LC25
 717 004c E0020000 		.word	.LC26
 718              		.section	.rodata.fresult_str.str1.4,"aMS",%progbits,1
 719              		.align	2
 720              	.LC0:
 721 0000 556E6B6E 		.ascii	"Unknown\000"
 721      6F776E00 
 722              		.section	.rodata.fverbose_error.str1.4,"aMS",%progbits,1
 723              		.align	2
 724              	.LC6:
 725 0000 0925732E 		.ascii	"\011%s.\015\012\000"
 725      0D0A00
 726              		.section	.rodata.mountSDCard.str1.4,"aMS",%progbits,1
 727              		.align	2
 728              	.LC1:
 729 0000 00       		.ascii	"\000"
 730              		.section	.rodata.scan_files.str1.4,"aMS",%progbits,1
 731              		.align	2
 732              	.LC2:
 733 0000 2534642D 		.ascii	"%4d-%02d-%02d %02d:%02d:%02d \000"
 733      25303264 
 733      2D253032 
ARM GAS  C:\Users\osour\AppData\Local\Temp\ccKEUjRn.s 			page 14


 733      64202530 
 733      32643A25 
 734 001e 0000     		.space	2
 735              	.LC3:
 736 0020 3C444952 		.ascii	"<DIR> %s/\015\012\000"
 736      3E202573 
 736      2F0D0A00 
 737              	.LC4:
 738 002c 20202020 		.ascii	"      %s/%s\015\012\000"
 738      20202573 
 738      2F25730D 
 738      0A00
 739 003a 0000     		.space	2
 740              	.LC5:
 741 003c 46533A20 		.ascii	"FS: f_opendir() failed\015\012\000"
 741      665F6F70 
 741      656E6469 
 741      72282920 
 741      6661696C 
 742              		.section	.rodata.str1.4,"aMS",%progbits,1
 743              		.align	2
 744              	.LC7:
 745 0000 53756363 		.ascii	"Succeeded\000"
 745      65656465 
 745      6400
 746 000a 0000     		.space	2
 747              	.LC8:
 748 000c 41206861 		.ascii	"A hard error occurred in the low level disk I/O lay"
 748      72642065 
 748      72726F72 
 748      206F6363 
 748      75727265 
 749 003f 657200   		.ascii	"er\000"
 750 0042 0000     		.space	2
 751              	.LC9:
 752 0044 41737365 		.ascii	"Assertion failed\000"
 752      7274696F 
 752      6E206661 
 752      696C6564 
 752      00
 753 0055 000000   		.space	3
 754              	.LC10:
 755 0058 54686520 		.ascii	"The physical drive cannot work\000"
 755      70687973 
 755      6963616C 
 755      20647269 
 755      76652063 
 756 0077 00       		.space	1
 757              	.LC11:
 758 0078 436F756C 		.ascii	"Could not find the file\000"
 758      64206E6F 
 758      74206669 
 758      6E642074 
 758      68652066 
 759              	.LC12:
 760 0090 436F756C 		.ascii	"Could not find the path\000"
 760      64206E6F 
ARM GAS  C:\Users\osour\AppData\Local\Temp\ccKEUjRn.s 			page 15


 760      74206669 
 760      6E642074 
 760      68652070 
 761              	.LC13:
 762 00a8 54686520 		.ascii	"The path name format is invalid\000"
 762      70617468 
 762      206E616D 
 762      6520666F 
 762      726D6174 
 763              	.LC14:
 764 00c8 41636365 		.ascii	"Access denied due to prohibited access or directory"
 764      73732064 
 764      656E6965 
 764      64206475 
 764      6520746F 
 765 00fb 2066756C 		.ascii	" full\000"
 765      6C00
 766 0101 000000   		.space	3
 767              	.LC15:
 768 0104 41636365 		.ascii	"Access denied due to prohibited access\000"
 768      73732064 
 768      656E6965 
 768      64206475 
 768      6520746F 
 769 012b 00       		.space	1
 770              	.LC16:
 771 012c 54686520 		.ascii	"The file/directory object is invalid\000"
 771      66696C65 
 771      2F646972 
 771      6563746F 
 771      7279206F 
 772 0151 000000   		.space	3
 773              	.LC17:
 774 0154 54686520 		.ascii	"The physical drive is write protected\000"
 774      70687973 
 774      6963616C 
 774      20647269 
 774      76652069 
 775 017a 0000     		.space	2
 776              	.LC18:
 777 017c 54686520 		.ascii	"The logical drive number is invalid\000"
 777      6C6F6769 
 777      63616C20 
 777      64726976 
 777      65206E75 
 778              	.LC19:
 779 01a0 54686520 		.ascii	"The volume has no work area\000"
 779      766F6C75 
 779      6D652068 
 779      6173206E 
 779      6F20776F 
 780              	.LC20:
 781 01bc 54686572 		.ascii	"There is no valid FAT volume\000"
 781      65206973 
 781      206E6F20 
 781      76616C69 
 781      64204641 
ARM GAS  C:\Users\osour\AppData\Local\Temp\ccKEUjRn.s 			page 16


 782 01d9 000000   		.space	3
 783              	.LC21:
 784 01dc 54686520 		.ascii	"The f_mkfs() aborted due to any parameter error\000"
 784      665F6D6B 
 784      66732829 
 784      2061626F 
 784      72746564 
 785              	.LC22:
 786 020c 436F756C 		.ascii	"Could not get a grant to access the volume within d"
 786      64206E6F 
 786      74206765 
 786      74206120 
 786      6772616E 
 787 023f 6566696E 		.ascii	"efined period\000"
 787      65642070 
 787      6572696F 
 787      6400
 788 024d 000000   		.space	3
 789              	.LC23:
 790 0250 54686520 		.ascii	"The operation is rejected according to the file sha"
 790      6F706572 
 790      6174696F 
 790      6E206973 
 790      2072656A 
 791 0283 72696E67 		.ascii	"ring policy\000"
 791      20706F6C 
 791      69637900 
 792 028f 00       		.space	1
 793              	.LC24:
 794 0290 4C464E20 		.ascii	"LFN working buffer could not be allocated\000"
 794      776F726B 
 794      696E6720 
 794      62756666 
 794      65722063 
 795 02ba 0000     		.space	2
 796              	.LC25:
 797 02bc 4E756D62 		.ascii	"Number of open files > _FS_SHARE\000"
 797      6572206F 
 797      66206F70 
 797      656E2066 
 797      696C6573 
 798 02dd 000000   		.space	3
 799              	.LC26:
 800 02e0 47697665 		.ascii	"Given parameter is invalid\000"
 800      6E207061 
 800      72616D65 
 800      74657220 
 800      69732069 
 801              		.text
 802              	.Letext0:
 803              		.file 3 "c:\\users\\osour\\desktop\\robotique\\eclipse_e-puck2\\tools\\gcc-arm-none-eabi-7-2017-q4
 804              		.file 4 "c:\\users\\osour\\desktop\\robotique\\eclipse_e-puck2\\tools\\gcc-arm-none-eabi-7-2017-q4
 805              		.file 5 "c:\\users\\osour\\desktop\\robotique\\eclipse_e-puck2\\tools\\gcc-arm-none-eabi-7-2017-q4
 806              		.file 6 "../../lib/e-puck2_main-processor/ChibiOS//os/rt/ports/ARMCMx/compilers/GCC/chtypes.h"
 807              		.file 7 "../../lib/e-puck2_main-processor/ChibiOS//os/rt/include/chsystypes.h"
 808              		.file 8 "../../lib/e-puck2_main-processor/ChibiOS//os/rt/include/chschd.h"
 809              		.file 9 "../../lib/e-puck2_main-processor/ChibiOS//os/ext/CMSIS/include/core_cm4.h"
ARM GAS  C:\Users\osour\AppData\Local\Temp\ccKEUjRn.s 			page 17


 810              		.file 10 "../../lib/e-puck2_main-processor/ChibiOS//os/ext/CMSIS/ST/system_stm32f4xx.h"
 811              		.file 11 "../../lib/e-puck2_main-processor/ChibiOS//os/ext/CMSIS/ST/stm32f407xx.h"
 812              		.file 12 "../../lib/e-puck2_main-processor/ChibiOS//os/rt/ports/ARMCMx/chcore.h"
 813              		.file 13 "../../lib/e-puck2_main-processor/ChibiOS//os/rt/ports/ARMCMx/chcore_v7m.h"
 814              		.file 14 "../../lib/e-puck2_main-processor/ChibiOS//os/rt/include/chdebug.h"
 815              		.file 15 "../../lib/e-puck2_main-processor/ChibiOS//os/rt/include/chtm.h"
 816              		.file 16 "../../lib/e-puck2_main-processor/ChibiOS//os/rt/include/chstats.h"
 817              		.file 17 "../../lib/e-puck2_main-processor/ChibiOS//os/rt/include/chsem.h"
 818              		.file 18 "../../lib/e-puck2_main-processor/ChibiOS//os/rt/include/chmtx.h"
 819              		.file 19 "../../lib/e-puck2_main-processor/ChibiOS//os/rt/include/chregistry.h"
 820              		.file 20 "../../lib/e-puck2_main-processor/ChibiOS//os/rt/include/chevents.h"
 821              		.file 21 "../../lib/e-puck2_main-processor/ChibiOS//os/rt/include/chqueues.h"
 822              		.file 22 "../../lib/e-puck2_main-processor/ChibiOS//os/rt/include/chstreams.h"
 823              		.file 23 "../../lib/e-puck2_main-processor/ChibiOS//os/hal/ports/STM32/STM32F4xx/stm32_dma.h"
 824              		.file 24 "../../lib/e-puck2_main-processor/ChibiOS//os/hal/include/hal_ioblock.h"
 825              		.file 25 "../../lib/e-puck2_main-processor/ChibiOS//os/hal/ports/STM32/LLD/GPIOv2/pal_lld.h"
 826              		.file 26 "../../lib/e-puck2_main-processor/ChibiOS//os/hal/include/adc.h"
 827              		.file 27 "../../lib/e-puck2_main-processor/ChibiOS//os/hal/ports/STM32/STM32F4xx/adc_lld.h"
 828              		.file 28 "../../lib/e-puck2_main-processor/ChibiOS//os/hal/include/can.h"
 829              		.file 29 "../../lib/e-puck2_main-processor/ChibiOS//os/hal/ports/STM32/LLD/can_lld.h"
 830              		.file 30 "../../lib/e-puck2_main-processor/ChibiOS//os/hal/include/dac.h"
 831              		.file 31 "../../lib/e-puck2_main-processor/ChibiOS//os/hal/ports/STM32/LLD/DACv1/dac_lld.h"
 832              		.file 32 "../../lib/e-puck2_main-processor/ChibiOS//os/hal/include/ext.h"
 833              		.file 33 "../../lib/e-puck2_main-processor/ChibiOS//os/hal/ports/STM32/LLD/ext_lld.h"
 834              		.file 34 "../../lib/e-puck2_main-processor/ChibiOS//os/hal/include/gpt.h"
 835              		.file 35 "../../lib/e-puck2_main-processor/ChibiOS//os/hal/ports/STM32/LLD/TIMv1/gpt_lld.h"
 836              		.file 36 "../../lib/e-puck2_main-processor/ChibiOS//os/hal/ports/STM32/LLD/TIMv1/stm32_tim.h"
 837              		.file 37 "../../lib/e-puck2_main-processor/ChibiOS//os/hal/include/i2c.h"
 838              		.file 38 "../../lib/e-puck2_main-processor/ChibiOS//os/hal/ports/STM32/LLD/I2Cv1/i2c_lld.h"
 839              		.file 39 "../../lib/e-puck2_main-processor/ChibiOS//os/hal/include/i2s.h"
 840              		.file 40 "../../lib/e-puck2_main-processor/ChibiOS//os/hal/ports/STM32/LLD/SPIv1/i2s_lld.h"
 841              		.file 41 "../../lib/e-puck2_main-processor/ChibiOS//os/hal/include/pwm.h"
 842              		.file 42 "../../lib/e-puck2_main-processor/ChibiOS//os/hal/ports/STM32/LLD/TIMv1/pwm_lld.h"
 843              		.file 43 "../../lib/e-puck2_main-processor/ChibiOS//os/hal/include/serial.h"
 844              		.file 44 "../../lib/e-puck2_main-processor/ChibiOS//os/hal/ports/STM32/LLD/USARTv1/serial_lld.h"
 845              		.file 45 "../../lib/e-puck2_main-processor/ChibiOS//os/hal/include/sdc.h"
 846              		.file 46 "../../lib/e-puck2_main-processor/ChibiOS//os/hal/ports/STM32/LLD/sdc_lld.h"
 847              		.file 47 "../../lib/e-puck2_main-processor/ChibiOS//os/hal/include/spi.h"
 848              		.file 48 "../../lib/e-puck2_main-processor/ChibiOS//os/hal/ports/STM32/LLD/SPIv1/spi_lld.h"
 849              		.file 49 "../../lib/e-puck2_main-processor/ChibiOS//os/hal/include/usb.h"
 850              		.file 50 "../../lib/e-puck2_main-processor/ChibiOS//os/hal/ports/STM32/LLD/OTGv1/usb_lld.h"
 851              		.file 51 "../../lib/e-puck2_main-processor/ChibiOS//os/hal/ports/STM32/LLD/OTGv1/stm32_otg.h"
 852              		.file 52 "c:\\users\\osour\\desktop\\robotique\\eclipse_e-puck2\\tools\\gcc-arm-none-eabi-7-2017-q
 853              		.file 53 "<built-in>"
 854              		.file 54 "c:\\users\\osour\\desktop\\robotique\\eclipse_e-puck2\\tools\\gcc-arm-none-eabi-7-2017-q
 855              		.file 55 "c:\\users\\osour\\desktop\\robotique\\eclipse_e-puck2\\tools\\gcc-arm-none-eabi-7-2017-q
 856              		.file 56 "c:\\users\\osour\\desktop\\robotique\\eclipse_e-puck2\\tools\\gcc-arm-none-eabi-7-2017-q
 857              		.file 57 "../../lib/e-puck2_main-processor/ChibiOS_ext//ext/fatfs/src/integer.h"
 858              		.file 58 "../../lib/e-puck2_main-processor/ChibiOS_ext//ext/fatfs/src/ff.h"
 859              		.file 59 "c:\\users\\osour\\desktop\\robotique\\eclipse_e-puck2\\tools\\gcc-arm-none-eabi-7-2017-q
 860              		.file 60 "../../lib/e-puck2_main-processor/src/sdio.h"