ARM GAS  C:\Users\osour\AppData\Local\Temp\cceNHLyo.s 			page 1


   1              		.cpu cortex-m4
   2              		.eabi_attribute 27, 1
   3              		.eabi_attribute 28, 1
   4              		.eabi_attribute 20, 1
   5              		.eabi_attribute 21, 1
   6              		.eabi_attribute 23, 3
   7              		.eabi_attribute 24, 1
   8              		.eabi_attribute 25, 1
   9              		.eabi_attribute 26, 1
  10              		.eabi_attribute 30, 2
  11              		.eabi_attribute 34, 1
  12              		.eabi_attribute 18, 4
  13              		.file	"fatfs_diskio.c"
  14              		.text
  15              	.Ltext0:
  16              		.cfi_sections	.debug_frame
  17              		.section	.text.disk_initialize,"ax",%progbits
  18              		.align	1
  19              		.p2align 4,,15
  20              		.global	disk_initialize
  21              		.syntax unified
  22              		.thumb
  23              		.thumb_func
  24              		.fpu fpv4-sp-d16
  25              		.type	disk_initialize, %function
  26              	disk_initialize:
  27              	.LFB256:
  28              		.file 1 "../../lib/e-puck2_main-processor/ChibiOS//os/various/fatfs_bindings/fatfs_diskio.c"
  29              		.loc 1 42 0
  30              		.cfi_startproc
  31              		@ args = 0, pretend = 0, frame = 8
  32              		@ frame_needed = 0, uses_anonymous_args = 0
  33              	.LVL0:
  34 0000 30B5     		push	{r4, r5, lr}
  35              		.cfi_def_cfa_offset 12
  36              		.cfi_offset 4, -12
  37              		.cfi_offset 5, -8
  38              		.cfi_offset 14, -4
  39 0002 0D4D     		ldr	r5, .L13
  40 0004 83B0     		sub	sp, sp, #12
  41              		.cfi_def_cfa_offset 24
  42              		.loc 1 42 0
  43 0006 2B68     		ldr	r3, [r5]
  44 0008 0193     		str	r3, [sp, #4]
  45              		.loc 1 45 0
  46 000a 80B9     		cbnz	r0, .L9
  47              	.LVL1:
  48              		.loc 1 59 0
  49 000c 0B48     		ldr	r0, .L13+4
  50              	.LVL2:
  51 000e 0479     		ldrb	r4, [r0, #4]	@ zero_extendqisi2
  52              		.loc 1 57 0
  53 0010 053C     		subs	r4, r4, #5
  54 0012 18BF     		it	ne
  55 0014 0124     		movne	r4, #1
  56              	.LVL3:
  57              		.loc 1 61 0
ARM GAS  C:\Users\osour\AppData\Local\Temp\cceNHLyo.s 			page 2


  58 0016 FFF7FEFF 		bl	sdc_lld_is_write_protected
  59              	.LVL4:
  60 001a 08B1     		cbz	r0, .L2
  61              		.loc 1 62 0
  62 001c 44F00404 		orr	r4, r4, #4
  63              	.LVL5:
  64              	.L2:
  65              		.loc 1 67 0
  66 0020 019A     		ldr	r2, [sp, #4]
  67 0022 2B68     		ldr	r3, [r5]
  68 0024 9A42     		cmp	r2, r3
  69 0026 2046     		mov	r0, r4
  70 0028 03D1     		bne	.L12
  71 002a 03B0     		add	sp, sp, #12
  72              		.cfi_remember_state
  73              		.cfi_def_cfa_offset 12
  74              		@ sp needed
  75 002c 30BD     		pop	{r4, r5, pc}
  76              	.LVL6:
  77              	.L9:
  78              		.cfi_restore_state
  79              		.loc 1 66 0
  80 002e 0124     		movs	r4, #1
  81 0030 F6E7     		b	.L2
  82              	.LVL7:
  83              	.L12:
  84              		.loc 1 67 0
  85 0032 FFF7FEFF 		bl	__stack_chk_fail
  86              	.LVL8:
  87              	.L14:
  88 0036 00BF     		.align	2
  89              	.L13:
  90 0038 00000000 		.word	__stack_chk_guard
  91 003c 00000000 		.word	SDCD1
  92              		.cfi_endproc
  93              	.LFE256:
  94              		.size	disk_initialize, .-disk_initialize
  95              		.section	.text.disk_status,"ax",%progbits
  96              		.align	1
  97              		.p2align 4,,15
  98              		.global	disk_status
  99              		.syntax unified
 100              		.thumb
 101              		.thumb_func
 102              		.fpu fpv4-sp-d16
 103              		.type	disk_status, %function
 104              	disk_status:
 105              	.LFB263:
 106              		.cfi_startproc
 107              		@ args = 0, pretend = 0, frame = 8
 108              		@ frame_needed = 0, uses_anonymous_args = 0
 109 0000 00B5     		push	{lr}
 110              		.cfi_def_cfa_offset 4
 111              		.cfi_offset 14, -4
 112 0002 074B     		ldr	r3, .L20
 113 0004 83B0     		sub	sp, sp, #12
 114              		.cfi_def_cfa_offset 16
ARM GAS  C:\Users\osour\AppData\Local\Temp\cceNHLyo.s 			page 3


 115 0006 1A68     		ldr	r2, [r3]
 116 0008 0192     		str	r2, [sp, #4]
 117 000a 019A     		ldr	r2, [sp, #4]
 118 000c 1B68     		ldr	r3, [r3]
 119 000e 9A42     		cmp	r2, r3
 120 0010 04D1     		bne	.L19
 121 0012 03B0     		add	sp, sp, #12
 122              		.cfi_remember_state
 123              		.cfi_def_cfa_offset 4
 124              		@ sp needed
 125 0014 5DF804EB 		ldr	lr, [sp], #4
 126              		.cfi_restore 14
 127              		.cfi_def_cfa_offset 0
 128 0018 FFF7FEBF 		b	disk_initialize
 129              	.L19:
 130              		.cfi_restore_state
 131 001c FFF7FEFF 		bl	__stack_chk_fail
 132              	.L21:
 133              		.align	2
 134              	.L20:
 135 0020 00000000 		.word	__stack_chk_guard
 136              		.cfi_endproc
 137              	.LFE263:
 138              		.size	disk_status, .-disk_status
 139              		.section	.text.disk_read,"ax",%progbits
 140              		.align	1
 141              		.p2align 4,,15
 142              		.global	disk_read
 143              		.syntax unified
 144              		.thumb
 145              		.thumb_func
 146              		.fpu fpv4-sp-d16
 147              		.type	disk_read, %function
 148              	disk_read:
 149              	.LFB258:
 150              		.loc 1 115 0
 151              		.cfi_startproc
 152              		@ args = 0, pretend = 0, frame = 8
 153              		@ frame_needed = 0, uses_anonymous_args = 0
 154              	.LVL9:
 155              		.loc 1 115 0
 156 0000 70B5     		push	{r4, r5, r6, lr}
 157              		.cfi_def_cfa_offset 16
 158              		.cfi_offset 4, -16
 159              		.cfi_offset 5, -12
 160              		.cfi_offset 6, -8
 161              		.cfi_offset 14, -4
 162 0002 104C     		ldr	r4, .L33
 163 0004 82B0     		sub	sp, sp, #8
 164              		.cfi_def_cfa_offset 24
 165              		.loc 1 115 0
 166 0006 2568     		ldr	r5, [r4]
 167 0008 0195     		str	r5, [sp, #4]
 168              		.loc 1 116 0
 169 000a B0B9     		cbnz	r0, .L29
 170              		.loc 1 134 0
 171 000c 0E48     		ldr	r0, .L33+4
ARM GAS  C:\Users\osour\AppData\Local\Temp\cceNHLyo.s 			page 4


 172              	.LVL10:
 173 000e 1546     		mov	r5, r2
 174 0010 0279     		ldrb	r2, [r0, #4]	@ zero_extendqisi2
 175              	.LVL11:
 176 0012 052A     		cmp	r2, #5
 177 0014 06D0     		beq	.L32
 178              		.loc 1 135 0
 179 0016 0320     		movs	r0, #3
 180              	.LVL12:
 181              	.L23:
 182              		.loc 1 142 0
 183 0018 019A     		ldr	r2, [sp, #4]
 184 001a 2368     		ldr	r3, [r4]
 185              	.LVL13:
 186 001c 9A42     		cmp	r2, r3
 187 001e 0ED1     		bne	.L31
 188 0020 02B0     		add	sp, sp, #8
 189              		.cfi_remember_state
 190              		.cfi_def_cfa_offset 16
 191              		@ sp needed
 192 0022 70BD     		pop	{r4, r5, r6, pc}
 193              	.LVL14:
 194              	.L32:
 195              		.cfi_restore_state
 196              		.loc 1 136 0
 197 0024 019E     		ldr	r6, [sp, #4]
 198 0026 2268     		ldr	r2, [r4]
 199 0028 9642     		cmp	r6, r2
 200 002a 08D1     		bne	.L31
 201 002c 0A46     		mov	r2, r1
 202 002e 2946     		mov	r1, r5
 203              	.LVL15:
 204              		.loc 1 142 0
 205 0030 02B0     		add	sp, sp, #8
 206              		.cfi_remember_state
 207              		.cfi_def_cfa_offset 16
 208              		@ sp needed
 209 0032 BDE87040 		pop	{r4, r5, r6, lr}
 210              		.cfi_restore 14
 211              		.cfi_restore 6
 212              		.cfi_restore 5
 213              		.cfi_restore 4
 214              		.cfi_def_cfa_offset 0
 215              	.LVL16:
 216              		.loc 1 136 0
 217 0036 FFF7FEBF 		b	sdcRead
 218              	.LVL17:
 219              	.L29:
 220              		.cfi_restore_state
 221              		.loc 1 141 0
 222 003a 0420     		movs	r0, #4
 223              	.LVL18:
 224 003c ECE7     		b	.L23
 225              	.LVL19:
 226              	.L31:
 227              		.loc 1 142 0
 228 003e FFF7FEFF 		bl	__stack_chk_fail
ARM GAS  C:\Users\osour\AppData\Local\Temp\cceNHLyo.s 			page 5


 229              	.LVL20:
 230              	.L34:
 231 0042 00BF     		.align	2
 232              	.L33:
 233 0044 00000000 		.word	__stack_chk_guard
 234 0048 00000000 		.word	SDCD1
 235              		.cfi_endproc
 236              	.LFE258:
 237              		.size	disk_read, .-disk_read
 238              		.section	.text.disk_write,"ax",%progbits
 239              		.align	1
 240              		.p2align 4,,15
 241              		.global	disk_write
 242              		.syntax unified
 243              		.thumb
 244              		.thumb_func
 245              		.fpu fpv4-sp-d16
 246              		.type	disk_write, %function
 247              	disk_write:
 248              	.LFB259:
 249              		.loc 1 156 0
 250              		.cfi_startproc
 251              		@ args = 0, pretend = 0, frame = 8
 252              		@ frame_needed = 0, uses_anonymous_args = 0
 253              	.LVL21:
 254 0000 70B5     		push	{r4, r5, r6, lr}
 255              		.cfi_def_cfa_offset 16
 256              		.cfi_offset 4, -16
 257              		.cfi_offset 5, -12
 258              		.cfi_offset 6, -8
 259              		.cfi_offset 14, -4
 260 0002 104C     		ldr	r4, .L46
 261 0004 82B0     		sub	sp, sp, #8
 262              		.cfi_def_cfa_offset 24
 263              		.loc 1 156 0
 264 0006 2568     		ldr	r5, [r4]
 265 0008 0195     		str	r5, [sp, #4]
 266              		.loc 1 157 0
 267 000a B0B9     		cbnz	r0, .L42
 268              		.loc 1 177 0
 269 000c 0E48     		ldr	r0, .L46+4
 270              	.LVL22:
 271 000e 1546     		mov	r5, r2
 272 0010 0279     		ldrb	r2, [r0, #4]	@ zero_extendqisi2
 273              	.LVL23:
 274 0012 052A     		cmp	r2, #5
 275 0014 06D0     		beq	.L45
 276              		.loc 1 178 0
 277 0016 0320     		movs	r0, #3
 278              	.LVL24:
 279              	.L36:
 280              		.loc 1 185 0
 281 0018 019A     		ldr	r2, [sp, #4]
 282 001a 2368     		ldr	r3, [r4]
 283              	.LVL25:
 284 001c 9A42     		cmp	r2, r3
 285 001e 0ED1     		bne	.L44
ARM GAS  C:\Users\osour\AppData\Local\Temp\cceNHLyo.s 			page 6


 286 0020 02B0     		add	sp, sp, #8
 287              		.cfi_remember_state
 288              		.cfi_def_cfa_offset 16
 289              		@ sp needed
 290 0022 70BD     		pop	{r4, r5, r6, pc}
 291              	.LVL26:
 292              	.L45:
 293              		.cfi_restore_state
 294              		.loc 1 179 0
 295 0024 019E     		ldr	r6, [sp, #4]
 296 0026 2268     		ldr	r2, [r4]
 297 0028 9642     		cmp	r6, r2
 298 002a 08D1     		bne	.L44
 299 002c 0A46     		mov	r2, r1
 300 002e 2946     		mov	r1, r5
 301              	.LVL27:
 302              		.loc 1 185 0
 303 0030 02B0     		add	sp, sp, #8
 304              		.cfi_remember_state
 305              		.cfi_def_cfa_offset 16
 306              		@ sp needed
 307 0032 BDE87040 		pop	{r4, r5, r6, lr}
 308              		.cfi_restore 14
 309              		.cfi_restore 6
 310              		.cfi_restore 5
 311              		.cfi_restore 4
 312              		.cfi_def_cfa_offset 0
 313              	.LVL28:
 314              		.loc 1 179 0
 315 0036 FFF7FEBF 		b	sdcWrite
 316              	.LVL29:
 317              	.L42:
 318              		.cfi_restore_state
 319              		.loc 1 184 0
 320 003a 0420     		movs	r0, #4
 321              	.LVL30:
 322 003c ECE7     		b	.L36
 323              	.LVL31:
 324              	.L44:
 325              		.loc 1 185 0
 326 003e FFF7FEFF 		bl	__stack_chk_fail
 327              	.LVL32:
 328              	.L47:
 329 0042 00BF     		.align	2
 330              	.L46:
 331 0044 00000000 		.word	__stack_chk_guard
 332 0048 00000000 		.word	SDCD1
 333              		.cfi_endproc
 334              	.LFE259:
 335              		.size	disk_write, .-disk_write
 336              		.section	.text.disk_ioctl,"ax",%progbits
 337              		.align	1
 338              		.p2align 4,,15
 339              		.global	disk_ioctl
 340              		.syntax unified
 341              		.thumb
 342              		.thumb_func
ARM GAS  C:\Users\osour\AppData\Local\Temp\cceNHLyo.s 			page 7


 343              		.fpu fpv4-sp-d16
 344              		.type	disk_ioctl, %function
 345              	disk_ioctl:
 346              	.LFB260:
 347              		.loc 1 199 0
 348              		.cfi_startproc
 349              		@ args = 0, pretend = 0, frame = 8
 350              		@ frame_needed = 0, uses_anonymous_args = 0
 351              	.LVL33:
 352 0000 10B5     		push	{r4, lr}
 353              		.cfi_def_cfa_offset 8
 354              		.cfi_offset 4, -8
 355              		.cfi_offset 14, -4
 356 0002 164C     		ldr	r4, .L64
 357 0004 82B0     		sub	sp, sp, #8
 358              		.cfi_def_cfa_offset 16
 359              		.loc 1 199 0
 360 0006 2368     		ldr	r3, [r4]
 361 0008 0193     		str	r3, [sp, #4]
 362              		.loc 1 200 0
 363 000a 98B9     		cbnz	r0, .L59
 364 000c 1346     		mov	r3, r2
 365              		.loc 1 219 0
 366 000e 0429     		cmp	r1, #4
 367 0010 10D8     		bhi	.L59
 368 0012 DFE801F0 		tbb	[pc, r1]
 369              	.LVL34:
 370              	.L52:
 371 0016 08       		.byte	(.L62-.L52)/2
 372 0017 11       		.byte	(.L53-.L52)/2
 373 0018 16       		.byte	(.L54-.L52)/2
 374 0019 1B       		.byte	(.L55-.L52)/2
 375 001a 03       		.byte	(.L56-.L52)/2
 376 001b 00       		.p2align 1
 377              	.L56:
 378              		.loc 1 233 0
 379 001c D3E90012 		ldrd	r1, r2, [r3]
 380              	.LVL35:
 381 0020 0F48     		ldr	r0, .L64+4
 382              	.LVL36:
 383 0022 FFF7FEFF 		bl	sdcErase
 384              	.LVL37:
 385              	.L62:
 386              		.loc 1 234 0
 387 0026 0020     		movs	r0, #0
 388              	.L49:
 389              		.loc 1 242 0
 390 0028 019A     		ldr	r2, [sp, #4]
 391 002a 2368     		ldr	r3, [r4]
 392 002c 9A42     		cmp	r2, r3
 393 002e 12D1     		bne	.L63
 394 0030 02B0     		add	sp, sp, #8
 395              		.cfi_remember_state
 396              		.cfi_def_cfa_offset 8
 397              		@ sp needed
 398 0032 10BD     		pop	{r4, pc}
 399              	.LVL38:
ARM GAS  C:\Users\osour\AppData\Local\Temp\cceNHLyo.s 			page 8


 400              	.L59:
 401              		.cfi_restore_state
 402              		.loc 1 237 0
 403 0034 0420     		movs	r0, #4
 404              	.LVL39:
 405 0036 F7E7     		b	.L49
 406              	.LVL40:
 407              	.L53:
 408              		.loc 1 223 0
 409 0038 094A     		ldr	r2, .L64+4
 410 003a 926A     		ldr	r2, [r2, #40]
 411 003c 1A60     		str	r2, [r3]
 412              		.loc 1 224 0
 413 003e 0020     		movs	r0, #0
 414              	.LVL41:
 415 0040 F2E7     		b	.L49
 416              	.LVL42:
 417              	.L54:
 418              		.loc 1 226 0
 419 0042 4FF40072 		mov	r2, #512
 420 0046 1A80     		strh	r2, [r3]	@ movhi
 421              		.loc 1 227 0
 422 0048 0020     		movs	r0, #0
 423              	.LVL43:
 424 004a EDE7     		b	.L49
 425              	.LVL44:
 426              	.L55:
 427              		.loc 1 229 0
 428 004c 4FF48072 		mov	r2, #256
 429 0050 1A60     		str	r2, [r3]
 430              		.loc 1 230 0
 431 0052 0020     		movs	r0, #0
 432              	.LVL45:
 433 0054 E8E7     		b	.L49
 434              	.LVL46:
 435              	.L63:
 436              		.loc 1 242 0
 437 0056 FFF7FEFF 		bl	__stack_chk_fail
 438              	.LVL47:
 439              	.L65:
 440 005a 00BF     		.align	2
 441              	.L64:
 442 005c 00000000 		.word	__stack_chk_guard
 443 0060 00000000 		.word	SDCD1
 444              		.cfi_endproc
 445              	.LFE260:
 446              		.size	disk_ioctl, .-disk_ioctl
 447              		.section	.text.get_fattime,"ax",%progbits
 448              		.align	1
 449              		.p2align 4,,15
 450              		.global	get_fattime
 451              		.syntax unified
 452              		.thumb
 453              		.thumb_func
 454              		.fpu fpv4-sp-d16
 455              		.type	get_fattime, %function
 456              	get_fattime:
ARM GAS  C:\Users\osour\AppData\Local\Temp\cceNHLyo.s 			page 9


 457              	.LFB261:
 458              		.loc 1 245 0
 459              		.cfi_startproc
 460              		@ args = 0, pretend = 0, frame = 8
 461              		@ frame_needed = 0, uses_anonymous_args = 0
 462 0000 00B5     		push	{lr}
 463              		.cfi_def_cfa_offset 4
 464              		.cfi_offset 14, -4
 465 0002 074B     		ldr	r3, .L70
 466 0004 83B0     		sub	sp, sp, #12
 467              		.cfi_def_cfa_offset 16
 468              		.loc 1 245 0
 469 0006 1A68     		ldr	r2, [r3]
 470 0008 0192     		str	r2, [sp, #4]
 471              		.loc 1 254 0
 472 000a 019A     		ldr	r2, [sp, #4]
 473 000c 1B68     		ldr	r3, [r3]
 474 000e 9A42     		cmp	r2, r3
 475 0010 04D1     		bne	.L69
 476 0012 4FF40410 		mov	r0, #2162688
 477 0016 03B0     		add	sp, sp, #12
 478              		.cfi_remember_state
 479              		.cfi_def_cfa_offset 4
 480              		@ sp needed
 481 0018 5DF804FB 		ldr	pc, [sp], #4
 482              	.L69:
 483              		.cfi_restore_state
 484 001c FFF7FEFF 		bl	__stack_chk_fail
 485              	.LVL48:
 486              	.L71:
 487              		.align	2
 488              	.L70:
 489 0020 00000000 		.word	__stack_chk_guard
 490              		.cfi_endproc
 491              	.LFE261:
 492              		.size	get_fattime, .-get_fattime
 493              		.text
 494              	.Letext0:
 495              		.file 2 "c:\\users\\osour\\desktop\\robotique\\eclipse_e-puck2\\tools\\gcc-arm-none-eabi-7-2017-q4
 496              		.file 3 "c:\\users\\osour\\desktop\\robotique\\eclipse_e-puck2\\tools\\gcc-arm-none-eabi-7-2017-q4
 497              		.file 4 "c:\\users\\osour\\desktop\\robotique\\eclipse_e-puck2\\tools\\gcc-arm-none-eabi-7-2017-q4
 498              		.file 5 "../../lib/e-puck2_main-processor/ChibiOS//os/rt/ports/ARMCMx/compilers/GCC/chtypes.h"
 499              		.file 6 "../../lib/e-puck2_main-processor/ChibiOS//os/rt/include/chsystypes.h"
 500              		.file 7 "../../lib/e-puck2_main-processor/ChibiOS//os/rt/include/chschd.h"
 501              		.file 8 "../../lib/e-puck2_main-processor/ChibiOS//os/ext/CMSIS/include/core_cm4.h"
 502              		.file 9 "../../lib/e-puck2_main-processor/ChibiOS//os/ext/CMSIS/ST/system_stm32f4xx.h"
 503              		.file 10 "../../lib/e-puck2_main-processor/ChibiOS//os/ext/CMSIS/ST/stm32f407xx.h"
 504              		.file 11 "../../lib/e-puck2_main-processor/ChibiOS//os/rt/ports/ARMCMx/chcore.h"
 505              		.file 12 "../../lib/e-puck2_main-processor/ChibiOS//os/rt/ports/ARMCMx/chcore_v7m.h"
 506              		.file 13 "../../lib/e-puck2_main-processor/ChibiOS//os/rt/include/chdebug.h"
 507              		.file 14 "../../lib/e-puck2_main-processor/ChibiOS//os/rt/include/chtm.h"
 508              		.file 15 "../../lib/e-puck2_main-processor/ChibiOS//os/rt/include/chstats.h"
 509              		.file 16 "../../lib/e-puck2_main-processor/ChibiOS//os/rt/include/chsem.h"
 510              		.file 17 "../../lib/e-puck2_main-processor/ChibiOS//os/rt/include/chmtx.h"
 511              		.file 18 "../../lib/e-puck2_main-processor/ChibiOS//os/rt/include/chregistry.h"
 512              		.file 19 "../../lib/e-puck2_main-processor/ChibiOS//os/rt/include/chevents.h"
 513              		.file 20 "../../lib/e-puck2_main-processor/ChibiOS//os/rt/include/chqueues.h"
ARM GAS  C:\Users\osour\AppData\Local\Temp\cceNHLyo.s 			page 10


 514              		.file 21 "../../lib/e-puck2_main-processor/ChibiOS//os/hal/ports/STM32/STM32F4xx/stm32_dma.h"
 515              		.file 22 "../../lib/e-puck2_main-processor/ChibiOS//os/hal/include/hal_ioblock.h"
 516              		.file 23 "../../lib/e-puck2_main-processor/ChibiOS//os/hal/ports/STM32/LLD/GPIOv2/pal_lld.h"
 517              		.file 24 "../../lib/e-puck2_main-processor/ChibiOS//os/hal/include/adc.h"
 518              		.file 25 "../../lib/e-puck2_main-processor/ChibiOS//os/hal/ports/STM32/STM32F4xx/adc_lld.h"
 519              		.file 26 "../../lib/e-puck2_main-processor/ChibiOS//os/hal/include/can.h"
 520              		.file 27 "../../lib/e-puck2_main-processor/ChibiOS//os/hal/ports/STM32/LLD/can_lld.h"
 521              		.file 28 "../../lib/e-puck2_main-processor/ChibiOS//os/hal/include/dac.h"
 522              		.file 29 "../../lib/e-puck2_main-processor/ChibiOS//os/hal/ports/STM32/LLD/DACv1/dac_lld.h"
 523              		.file 30 "../../lib/e-puck2_main-processor/ChibiOS//os/hal/include/ext.h"
 524              		.file 31 "../../lib/e-puck2_main-processor/ChibiOS//os/hal/ports/STM32/LLD/ext_lld.h"
 525              		.file 32 "../../lib/e-puck2_main-processor/ChibiOS//os/hal/include/gpt.h"
 526              		.file 33 "../../lib/e-puck2_main-processor/ChibiOS//os/hal/ports/STM32/LLD/TIMv1/gpt_lld.h"
 527              		.file 34 "../../lib/e-puck2_main-processor/ChibiOS//os/hal/ports/STM32/LLD/TIMv1/stm32_tim.h"
 528              		.file 35 "../../lib/e-puck2_main-processor/ChibiOS//os/hal/include/i2c.h"
 529              		.file 36 "../../lib/e-puck2_main-processor/ChibiOS//os/hal/ports/STM32/LLD/I2Cv1/i2c_lld.h"
 530              		.file 37 "../../lib/e-puck2_main-processor/ChibiOS//os/hal/include/i2s.h"
 531              		.file 38 "../../lib/e-puck2_main-processor/ChibiOS//os/hal/ports/STM32/LLD/SPIv1/i2s_lld.h"
 532              		.file 39 "../../lib/e-puck2_main-processor/ChibiOS//os/hal/include/pwm.h"
 533              		.file 40 "../../lib/e-puck2_main-processor/ChibiOS//os/hal/ports/STM32/LLD/TIMv1/pwm_lld.h"
 534              		.file 41 "../../lib/e-puck2_main-processor/ChibiOS//os/hal/include/serial.h"
 535              		.file 42 "../../lib/e-puck2_main-processor/ChibiOS//os/hal/ports/STM32/LLD/USARTv1/serial_lld.h"
 536              		.file 43 "../../lib/e-puck2_main-processor/ChibiOS//os/hal/include/sdc.h"
 537              		.file 44 "../../lib/e-puck2_main-processor/ChibiOS//os/hal/ports/STM32/LLD/sdc_lld.h"
 538              		.file 45 "../../lib/e-puck2_main-processor/ChibiOS//os/hal/include/spi.h"
 539              		.file 46 "../../lib/e-puck2_main-processor/ChibiOS//os/hal/ports/STM32/LLD/SPIv1/spi_lld.h"
 540              		.file 47 "../../lib/e-puck2_main-processor/ChibiOS//os/hal/include/usb.h"
 541              		.file 48 "../../lib/e-puck2_main-processor/ChibiOS//os/hal/ports/STM32/LLD/OTGv1/usb_lld.h"
 542              		.file 49 "../../lib/e-puck2_main-processor/ChibiOS//os/hal/ports/STM32/LLD/OTGv1/stm32_otg.h"
 543              		.file 50 "../../lib/e-puck2_main-processor/ChibiOS_ext//ext/fatfs/src/integer.h"
 544              		.file 51 "../../lib/e-puck2_main-processor/ChibiOS_ext//ext/fatfs/src/diskio.h"