ARM GAS  C:\Users\osour\AppData\Local\Temp\ccgKXRmi.s 			page 1


   1              		.cpu cortex-m4
   2              		.eabi_attribute 27, 1
   3              		.eabi_attribute 28, 1
   4              		.eabi_attribute 20, 1
   5              		.eabi_attribute 21, 1
   6              		.eabi_attribute 23, 3
   7              		.eabi_attribute 24, 1
   8              		.eabi_attribute 25, 1
   9              		.eabi_attribute 26, 1
  10              		.eabi_attribute 30, 2
  11              		.eabi_attribute 34, 1
  12              		.eabi_attribute 18, 4
  13              		.file	"game.c"
  14              		.text
  15              	.Ltext0:
  16              		.cfi_sections	.debug_frame
  17              		.section	.text.game_thd,"ax",%progbits
  18              		.align	1
  19              		.p2align 4,,15
  20              		.syntax unified
  21              		.thumb
  22              		.thumb_func
  23              		.fpu fpv4-sp-d16
  24              		.type	game_thd, %function
  25              	game_thd:
  26              	.LFB256:
  27              		.file 1 "game.c"
  28              		.loc 1 31 0
  29              		.cfi_startproc
  30              		@ args = 0, pretend = 0, frame = 8
  31              		@ frame_needed = 0, uses_anonymous_args = 0
  32              	.LVL0:
  33 0000 F0B5     		push	{r4, r5, r6, r7, lr}
  34              		.cfi_def_cfa_offset 20
  35              		.cfi_offset 4, -20
  36              		.cfi_offset 5, -16
  37              		.cfi_offset 6, -12
  38              		.cfi_offset 7, -8
  39              		.cfi_offset 14, -4
  40 0002 83B0     		sub	sp, sp, #12
  41              		.cfi_def_cfa_offset 32
  42              		.loc 1 31 0
  43 0004 384B     		ldr	r3, .L8
  44 0006 394D     		ldr	r5, .L8+4
  45 0008 1B68     		ldr	r3, [r3]
  46 000a 0193     		str	r3, [sp, #4]
  47              	.LVL1:
  48              		.loc 1 39 0
  49 000c 02AE     		add	r6, sp, #8
  50              		.loc 1 36 0
  51 000e 0024     		movs	r4, #0
  52              		.loc 1 39 0
  53 0010 06F8054D 		strb	r4, [r6, #-5]!
  54              		.loc 1 36 0
  55 0014 8DF80140 		strb	r4, [sp, #1]
  56              		.loc 1 37 0
  57 0018 8DF80240 		strb	r4, [sp, #2]
ARM GAS  C:\Users\osour\AppData\Local\Temp\ccgKXRmi.s 			page 2


  58              	.LVL2:
  59              		.loc 1 45 0
  60 001c 2F46     		mov	r7, r5
  61              	.LVL3:
  62              	.L4:
  63              		.loc 1 43 0
  64 001e 002C     		cmp	r4, #0
  65 0020 52D0     		beq	.L2
  66              		.loc 1 52 0
  67 0022 FFF7FEFF 		bl	music_init
  68              	.LVL4:
  69              		.loc 1 53 0
  70 0026 FFF7FEFF 		bl	pathing_init
  71              	.LVL5:
  72              		.loc 1 54 0
  73 002a FFF7FEFF 		bl	get_song
  74              	.LVL6:
  75              		.loc 1 55 0
  76 002e 2146     		mov	r1, r4
  77              		.loc 1 54 0
  78 0030 8DF80300 		strb	r0, [sp, #3]
  79              		.loc 1 55 0
  80 0034 3046     		mov	r0, r6
  81 0036 FFF7FEFF 		bl	SendUint8ToComputer
  82              	.LVL7:
  83              		.loc 1 56 0
  84 003a FFF7FEFF 		bl	wait_finish_music
  85              	.LVL8:
  86              		.loc 1 57 0
  87 003e FFF7FEFF 		bl	get_score
  88              	.LVL9:
  89              		.loc 1 58 0
  90 0042 2146     		mov	r1, r4
  91              		.loc 1 57 0
  92 0044 8DF80100 		strb	r0, [sp, #1]
  93              		.loc 1 58 0
  94 0048 0DF10100 		add	r0, sp, #1
  95 004c FFF7FEFF 		bl	SendUint8ToComputer
  96              	.LVL10:
  97              		.loc 1 59 0
  98 0050 4FF4FA60 		mov	r0, #2000
  99 0054 FFF7FEFF 		bl	chThdSleep
 100              	.LVL11:
 101              		.loc 1 60 0
 102 0058 FFF7FEFF 		bl	wait_finish_music
 103              	.LVL12:
 104              		.loc 1 61 0
 105 005c FFF7FEFF 		bl	get_score
 106              	.LVL13:
 107              		.loc 1 62 0
 108 0060 2146     		mov	r1, r4
 109              		.loc 1 61 0
 110 0062 8DF80200 		strb	r0, [sp, #2]
 111              		.loc 1 62 0
 112 0066 0DF10200 		add	r0, sp, #2
 113 006a FFF7FEFF 		bl	SendUint8ToComputer
 114              	.LVL14:
ARM GAS  C:\Users\osour\AppData\Local\Temp\ccgKXRmi.s 			page 3


 115              		.loc 1 63 0
 116 006e FFF7FEFF 		bl	music_stop
 117              	.LVL15:
 118              		.loc 1 64 0
 119 0072 4FF4FA60 		mov	r0, #2000
 120 0076 FFF7FEFF 		bl	chThdSleep
 121              	.LVL16:
 122              		.loc 1 93 0
 123 007a 4FF49670 		mov	r0, #300
 124 007e FFF7FEFF 		bl	chThdSleep
 125              	.LVL17:
 126              		.loc 1 72 0
 127 0082 9DF80230 		ldrb	r3, [sp, #2]	@ zero_extendqisi2
 128 0086 9DF80100 		ldrb	r0, [sp, #1]	@ zero_extendqisi2
 129 008a 9842     		cmp	r0, r3
 130 008c 2CBF     		ite	cs
 131 008e 0020     		movcs	r0, #0
 132 0090 0120     		movcc	r0, #1
 133 0092 FFF7FEFF 		bl	pathing_set
 134              	.LVL18:
 135              		.loc 1 73 0
 136 0096 FFF7FEFF 		bl	pathing_wait_finish
 137              	.LVL19:
 138              		.loc 1 74 0
 139 009a FFF7FEFF 		bl	pathing_stop
 140              	.LVL20:
 141              		.loc 1 93 0
 142 009e 4FF49670 		mov	r0, #300
 143 00a2 FFF7FEFF 		bl	chThdSleep
 144              	.LVL21:
 145              		.loc 1 82 0
 146 00a6 FFF7FEFF 		bl	photo_init
 147              	.LVL22:
 148              		.loc 1 83 0
 149 00aa FFF7FEFF 		bl	photo_wait_finish
 150              	.LVL23:
 151              		.loc 1 84 0
 152 00ae FFF7FEFF 		bl	photo_stop
 153              	.LVL24:
 154              		.loc 1 93 0
 155 00b2 4FF49670 		mov	r0, #300
 156 00b6 FFF7FEFF 		bl	chThdSleep
 157              	.LVL25:
 158              		.loc 1 90 0
 159 00ba 2046     		mov	r0, r4
 160 00bc FFF7FEFF 		bl	set_body_led
 161              	.LVL26:
 162              		.loc 1 93 0
 163 00c0 4FF49670 		mov	r0, #300
 164 00c4 FFF7FEFF 		bl	chThdSleep
 165              	.LVL27:
 166              	.L2:
 167              		.loc 1 45 0
 168 00c8 2B68     		ldr	r3, [r5]
 169 00ca 3846     		mov	r0, r7
 170 00cc DB68     		ldr	r3, [r3, #12]
 171 00ce 9847     		blx	r3
ARM GAS  C:\Users\osour\AppData\Local\Temp\ccgKXRmi.s 			page 4


 172              	.LVL28:
 173 00d0 0446     		mov	r4, r0
 174              	.LVL29:
 175              		.loc 1 46 0
 176 00d2 E4B2     		uxtb	r4, r4
 177 00d4 A4F17704 		sub	r4, #119
 178              	.LVL30:
 179              		.loc 1 93 0
 180 00d8 4FF49670 		mov	r0, #300
 181 00dc B4FA84F4 		clz	r4, r4
 182              	.LVL31:
 183 00e0 FFF7FEFF 		bl	chThdSleep
 184              	.LVL32:
 185 00e4 6409     		lsrs	r4, r4, #5
 186              		.loc 1 43 0
 187 00e6 9AE7     		b	.L4
 188              	.L9:
 189              		.align	2
 190              	.L8:
 191 00e8 00000000 		.word	__stack_chk_guard
 192 00ec 00000000 		.word	SD3
 193              		.cfi_endproc
 194              	.LFE256:
 195              		.size	game_thd, .-game_thd
 196              		.section	.text.game_init,"ax",%progbits
 197              		.align	1
 198              		.p2align 4,,15
 199              		.global	game_init
 200              		.syntax unified
 201              		.thumb
 202              		.thumb_func
 203              		.fpu fpv4-sp-d16
 204              		.type	game_init, %function
 205              	game_init:
 206              	.LFB257:
 207              		.loc 1 97 0
 208              		.cfi_startproc
 209              		@ args = 0, pretend = 0, frame = 8
 210              		@ frame_needed = 0, uses_anonymous_args = 0
 211 0000 10B5     		push	{r4, lr}
 212              		.cfi_def_cfa_offset 8
 213              		.cfi_offset 4, -8
 214              		.cfi_offset 14, -4
 215 0002 0A4C     		ldr	r4, .L14
 216              		.loc 1 98 0
 217 0004 0A4B     		ldr	r3, .L14+4
 218              		.loc 1 97 0
 219 0006 2268     		ldr	r2, [r4]
 220              		.loc 1 98 0
 221 0008 0A48     		ldr	r0, .L14+8
 222              		.loc 1 97 0
 223 000a 84B0     		sub	sp, sp, #16
 224              		.cfi_def_cfa_offset 24
 225              		.loc 1 98 0
 226 000c 4FF4FC71 		mov	r1, #504
 227              		.loc 1 97 0
 228 0010 0392     		str	r2, [sp, #12]
ARM GAS  C:\Users\osour\AppData\Local\Temp\ccgKXRmi.s 			page 5


 229              		.loc 1 98 0
 230 0012 0022     		movs	r2, #0
 231 0014 0092     		str	r2, [sp]
 232 0016 4122     		movs	r2, #65
 233 0018 FFF7FEFF 		bl	chThdCreateStatic
 234              	.LVL33:
 235              		.loc 1 99 0
 236 001c 039A     		ldr	r2, [sp, #12]
 237 001e 2368     		ldr	r3, [r4]
 238 0020 9A42     		cmp	r2, r3
 239 0022 01D1     		bne	.L13
 240 0024 04B0     		add	sp, sp, #16
 241              		.cfi_remember_state
 242              		.cfi_def_cfa_offset 8
 243              		@ sp needed
 244 0026 10BD     		pop	{r4, pc}
 245              	.L13:
 246              		.cfi_restore_state
 247 0028 FFF7FEFF 		bl	__stack_chk_fail
 248              	.LVL34:
 249              	.L15:
 250              		.align	2
 251              	.L14:
 252 002c 00000000 		.word	__stack_chk_guard
 253 0030 00000000 		.word	game_thd
 254 0034 00000000 		.word	.LANCHOR0
 255              		.cfi_endproc
 256              	.LFE257:
 257              		.size	game_init, .-game_init
 258              		.section	.bss.gameWA,"aw",%nobits
 259              		.align	3
 260              		.set	.LANCHOR0,. + 0
 261              		.type	gameWA, %object
 262              		.size	gameWA, 504
 263              	gameWA:
 264 0000 00000000 		.space	504
 264      00000000 
 264      00000000 
 264      00000000 
 264      00000000 
 265              		.text
 266              	.Letext0:
 267              		.file 2 "c:\\users\\osour\\desktop\\robotique\\eclipse_e-puck2\\tools\\gcc-arm-none-eabi-7-2017-q4
 268              		.file 3 "c:\\users\\osour\\desktop\\robotique\\eclipse_e-puck2\\tools\\gcc-arm-none-eabi-7-2017-q4
 269              		.file 4 "c:\\users\\osour\\desktop\\robotique\\eclipse_e-puck2\\tools\\gcc-arm-none-eabi-7-2017-q4
 270              		.file 5 "../lib/e-puck2_main-processor/ChibiOS//os/rt/ports/ARMCMx/compilers/GCC/chtypes.h"
 271              		.file 6 "../lib/e-puck2_main-processor/ChibiOS//os/rt/include/chsystypes.h"
 272              		.file 7 "../lib/e-puck2_main-processor/ChibiOS//os/rt/include/chschd.h"
 273              		.file 8 "../lib/e-puck2_main-processor/ChibiOS//os/ext/CMSIS/include/core_cm4.h"
 274              		.file 9 "../lib/e-puck2_main-processor/ChibiOS//os/ext/CMSIS/ST/system_stm32f4xx.h"
 275              		.file 10 "../lib/e-puck2_main-processor/ChibiOS//os/ext/CMSIS/ST/stm32f407xx.h"
 276              		.file 11 "../lib/e-puck2_main-processor/ChibiOS//os/rt/ports/ARMCMx/chcore.h"
 277              		.file 12 "../lib/e-puck2_main-processor/ChibiOS//os/rt/ports/ARMCMx/chcore_v7m.h"
 278              		.file 13 "../lib/e-puck2_main-processor/ChibiOS//os/rt/include/chdebug.h"
 279              		.file 14 "../lib/e-puck2_main-processor/ChibiOS//os/rt/include/chtm.h"
 280              		.file 15 "../lib/e-puck2_main-processor/ChibiOS//os/rt/include/chstats.h"
 281              		.file 16 "../lib/e-puck2_main-processor/ChibiOS//os/rt/include/chsem.h"
ARM GAS  C:\Users\osour\AppData\Local\Temp\ccgKXRmi.s 			page 6


 282              		.file 17 "../lib/e-puck2_main-processor/ChibiOS//os/rt/include/chmtx.h"
 283              		.file 18 "../lib/e-puck2_main-processor/ChibiOS//os/rt/include/chregistry.h"
 284              		.file 19 "../lib/e-puck2_main-processor/ChibiOS//os/rt/include/chevents.h"
 285              		.file 20 "../lib/e-puck2_main-processor/ChibiOS//os/rt/include/chqueues.h"
 286              		.file 21 "../lib/e-puck2_main-processor/ChibiOS//os/hal/ports/STM32/STM32F4xx/stm32_dma.h"
 287              		.file 22 "../lib/e-puck2_main-processor/ChibiOS//os/hal/include/hal_ioblock.h"
 288              		.file 23 "../lib/e-puck2_main-processor/ChibiOS//os/hal/ports/STM32/LLD/GPIOv2/pal_lld.h"
 289              		.file 24 "../lib/e-puck2_main-processor/ChibiOS//os/hal/include/adc.h"
 290              		.file 25 "../lib/e-puck2_main-processor/ChibiOS//os/hal/ports/STM32/STM32F4xx/adc_lld.h"
 291              		.file 26 "../lib/e-puck2_main-processor/ChibiOS//os/hal/include/can.h"
 292              		.file 27 "../lib/e-puck2_main-processor/ChibiOS//os/hal/ports/STM32/LLD/can_lld.h"
 293              		.file 28 "../lib/e-puck2_main-processor/ChibiOS//os/hal/include/dac.h"
 294              		.file 29 "../lib/e-puck2_main-processor/ChibiOS//os/hal/ports/STM32/LLD/DACv1/dac_lld.h"
 295              		.file 30 "../lib/e-puck2_main-processor/ChibiOS//os/hal/include/ext.h"
 296              		.file 31 "../lib/e-puck2_main-processor/ChibiOS//os/hal/ports/STM32/LLD/ext_lld.h"
 297              		.file 32 "../lib/e-puck2_main-processor/ChibiOS//os/hal/include/gpt.h"
 298              		.file 33 "../lib/e-puck2_main-processor/ChibiOS//os/hal/ports/STM32/LLD/TIMv1/gpt_lld.h"
 299              		.file 34 "../lib/e-puck2_main-processor/ChibiOS//os/hal/ports/STM32/LLD/TIMv1/stm32_tim.h"
 300              		.file 35 "../lib/e-puck2_main-processor/ChibiOS//os/hal/include/i2c.h"
 301              		.file 36 "../lib/e-puck2_main-processor/ChibiOS//os/hal/ports/STM32/LLD/I2Cv1/i2c_lld.h"
 302              		.file 37 "../lib/e-puck2_main-processor/ChibiOS//os/hal/include/i2s.h"
 303              		.file 38 "../lib/e-puck2_main-processor/ChibiOS//os/hal/ports/STM32/LLD/SPIv1/i2s_lld.h"
 304              		.file 39 "../lib/e-puck2_main-processor/ChibiOS//os/hal/include/pwm.h"
 305              		.file 40 "../lib/e-puck2_main-processor/ChibiOS//os/hal/ports/STM32/LLD/TIMv1/pwm_lld.h"
 306              		.file 41 "../lib/e-puck2_main-processor/ChibiOS//os/hal/include/serial.h"
 307              		.file 42 "../lib/e-puck2_main-processor/ChibiOS//os/hal/ports/STM32/LLD/USARTv1/serial_lld.h"
 308              		.file 43 "../lib/e-puck2_main-processor/ChibiOS//os/hal/include/sdc.h"
 309              		.file 44 "../lib/e-puck2_main-processor/ChibiOS//os/hal/ports/STM32/LLD/sdc_lld.h"
 310              		.file 45 "../lib/e-puck2_main-processor/ChibiOS//os/hal/include/spi.h"
 311              		.file 46 "../lib/e-puck2_main-processor/ChibiOS//os/hal/ports/STM32/LLD/SPIv1/spi_lld.h"
 312              		.file 47 "../lib/e-puck2_main-processor/ChibiOS//os/hal/include/usb.h"
 313              		.file 48 "../lib/e-puck2_main-processor/ChibiOS//os/hal/ports/STM32/LLD/OTGv1/usb_lld.h"
 314              		.file 49 "../lib/e-puck2_main-processor/ChibiOS//os/hal/ports/STM32/LLD/OTGv1/stm32_otg.h"
 315              		.file 50 "pathing.h"
 316              		.file 51 "./audio_processing.h"
 317              		.file 52 "../lib/e-puck2_main-processor/ChibiOS//os/rt/include/chthreads.h"
 318              		.file 53 "music.h"
 319              		.file 54 "communications.h"
 320              		.file 55 "./photo.h"
 321              		.file 56 "../lib/e-puck2_main-processor/src/leds.h"