ARM GAS  C:\Users\osour\AppData\Local\Temp\ccdjPPmp.s 			page 1


   1              		.cpu cortex-m4
   2              		.eabi_attribute 27, 1
   3              		.eabi_attribute 28, 1
   4              		.eabi_attribute 20, 1
   5              		.eabi_attribute 21, 1
   6              		.eabi_attribute 23, 3
   7              		.eabi_attribute 24, 1
   8              		.eabi_attribute 25, 1
   9              		.eabi_attribute 26, 1
  10              		.eabi_attribute 30, 2
  11              		.eabi_attribute 34, 1
  12              		.eabi_attribute 18, 4
  13              		.file	"i2s_lld.c"
  14              		.text
  15              	.Ltext0:
  16              		.cfi_sections	.debug_frame
  17              		.section	.text.i2s_lld_serve_rx_interrupt,"ax",%progbits
  18              		.align	1
  19              		.p2align 4,,15
  20              		.syntax unified
  21              		.thumb
  22              		.thumb_func
  23              		.fpu fpv4-sp-d16
  24              		.type	i2s_lld_serve_rx_interrupt, %function
  25              	i2s_lld_serve_rx_interrupt:
  26              	.LFB256:
  27              		.file 1 "../../lib/e-puck2_main-processor/ChibiOS//os/hal/ports/STM32/LLD/SPIv1/i2s_lld.c"
  28              		.loc 1 119 0
  29              		.cfi_startproc
  30              		@ args = 0, pretend = 0, frame = 8
  31              		@ frame_needed = 0, uses_anonymous_args = 0
  32              	.LVL0:
  33 0000 70B5     		push	{r4, r5, r6, lr}
  34              		.cfi_def_cfa_offset 16
  35              		.cfi_offset 4, -16
  36              		.cfi_offset 5, -12
  37              		.cfi_offset 6, -8
  38              		.cfi_offset 14, -4
  39 0002 1D4E     		ldr	r6, .L28
  40 0004 82B0     		sub	sp, sp, #8
  41              		.cfi_def_cfa_offset 24
  42              		.loc 1 119 0
  43 0006 3368     		ldr	r3, [r6]
  44 0008 0193     		str	r3, [sp, #4]
  45              		.loc 1 125 0
  46 000a 11F00C0F 		tst	r1, #12
  47              		.loc 1 119 0
  48 000e 0C46     		mov	r4, r1
  49 0010 0546     		mov	r5, r0
  50              		.loc 1 125 0
  51 0012 27D1     		bne	.L27
  52              	.LVL1:
  53              	.L2:
  54              		.loc 1 132 0
  55 0014 14F02001 		ands	r1, r4, #32
  56 0018 13D0     		beq	.L3
  57              		.loc 1 134 0
ARM GAS  C:\Users\osour\AppData\Local\Temp\ccdjPPmp.s 			page 2


  58 001a 6B68     		ldr	r3, [r5, #4]
  59 001c DA68     		ldr	r2, [r3, #12]
  60 001e 2AB3     		cbz	r2, .L4
  61              		.loc 1 134 0 is_stmt 0 discriminator 1
  62 0020 0422     		movs	r2, #4
  63 0022 2A70     		strb	r2, [r5]
  64 0024 D3E90223 		ldrd	r2, r3, [r3, #8]
  65 0028 5208     		lsrs	r2, r2, #1
  66 002a 1146     		mov	r1, r2
  67 002c 2846     		mov	r0, r5
  68 002e 9847     		blx	r3
  69              	.LVL2:
  70 0030 2B78     		ldrb	r3, [r5]	@ zero_extendqisi2
  71 0032 042B     		cmp	r3, #4
  72 0034 1AD0     		beq	.L4
  73              	.L1:
  74              		.loc 1 140 0 is_stmt 1
  75 0036 019A     		ldr	r2, [sp, #4]
  76 0038 3368     		ldr	r3, [r6]
  77 003a 9A42     		cmp	r2, r3
  78 003c 19D1     		bne	.L25
  79 003e 02B0     		add	sp, sp, #8
  80              		.cfi_remember_state
  81              		.cfi_def_cfa_offset 16
  82              		@ sp needed
  83 0040 70BD     		pop	{r4, r5, r6, pc}
  84              	.LVL3:
  85              	.L3:
  86              		.cfi_restore_state
  87              		.loc 1 136 0
  88 0042 E306     		lsls	r3, r4, #27
  89 0044 F7D5     		bpl	.L1
  90              	.LVL4:
  91              	.LBB12:
  92              	.LBB13:
  93              		.loc 1 138 0
  94 0046 6A68     		ldr	r2, [r5, #4]
  95 0048 D368     		ldr	r3, [r2, #12]
  96 004a 002B     		cmp	r3, #0
  97 004c F3D0     		beq	.L1
  98 004e 019C     		ldr	r4, [sp, #4]
  99              	.LVL5:
 100 0050 3068     		ldr	r0, [r6]
 101 0052 8442     		cmp	r4, r0
 102 0054 0DD1     		bne	.L25
 103 0056 9268     		ldr	r2, [r2, #8]
 104 0058 2846     		mov	r0, r5
 105 005a 5208     		lsrs	r2, r2, #1
 106              	.LBE13:
 107              	.LBE12:
 108              		.loc 1 140 0
 109 005c 02B0     		add	sp, sp, #8
 110              		.cfi_remember_state
 111              		.cfi_def_cfa_offset 16
 112              		@ sp needed
 113 005e BDE87040 		pop	{r4, r5, r6, lr}
 114              		.cfi_restore 14
ARM GAS  C:\Users\osour\AppData\Local\Temp\ccdjPPmp.s 			page 3


 115              		.cfi_restore 6
 116              		.cfi_restore 5
 117              		.cfi_restore 4
 118              		.cfi_def_cfa_offset 0
 119              	.LVL6:
 120              	.LBB15:
 121              	.LBB14:
 122              		.loc 1 138 0
 123 0062 1847     		bx	r3	@ indirect register sibling call
 124              	.LVL7:
 125              	.L27:
 126              		.cfi_restore_state
 127              	.LBE14:
 128              	.LBE15:
 129              	.LBB16:
 130              	.LBB17:
 131              		.file 2 "../../lib/e-puck2_main-processor/ChibiOS//os/hal/osal/rt/osal.h"
 132              		.loc 2 416 0
 133 0064 0548     		ldr	r0, .L28+4
 134              	.LVL8:
 135 0066 FFF7FEFF 		bl	chSysHalt
 136              	.LVL9:
 137 006a D3E7     		b	.L2
 138              	.LVL10:
 139              	.L4:
 140              	.LBE17:
 141              	.LBE16:
 142              		.loc 1 134 0 discriminator 3
 143 006c 0223     		movs	r3, #2
 144 006e 2B70     		strb	r3, [r5]
 145 0070 E1E7     		b	.L1
 146              	.LVL11:
 147              	.L25:
 148              		.loc 1 140 0
 149 0072 FFF7FEFF 		bl	__stack_chk_fail
 150              	.LVL12:
 151              	.L29:
 152 0076 00BF     		.align	2
 153              	.L28:
 154 0078 00000000 		.word	__stack_chk_guard
 155 007c 00000000 		.word	.LC0
 156              		.cfi_endproc
 157              	.LFE256:
 158              		.size	i2s_lld_serve_rx_interrupt, .-i2s_lld_serve_rx_interrupt
 159              		.section	.text.i2s_lld_init,"ax",%progbits
 160              		.align	1
 161              		.p2align 4,,15
 162              		.global	i2s_lld_init
 163              		.syntax unified
 164              		.thumb
 165              		.thumb_func
 166              		.fpu fpv4-sp-d16
 167              		.type	i2s_lld_init, %function
 168              	i2s_lld_init:
 169              	.LFB257:
 170              		.loc 1 188 0
 171              		.cfi_startproc
ARM GAS  C:\Users\osour\AppData\Local\Temp\ccdjPPmp.s 			page 4


 172              		@ args = 0, pretend = 0, frame = 8
 173              		@ frame_needed = 0, uses_anonymous_args = 0
 174 0000 30B5     		push	{r4, r5, lr}
 175              		.cfi_def_cfa_offset 12
 176              		.cfi_offset 4, -12
 177              		.cfi_offset 5, -8
 178              		.cfi_offset 14, -4
 179              		.loc 1 191 0
 180 0002 0E4C     		ldr	r4, .L34
 181              		.loc 1 188 0
 182 0004 0E4D     		ldr	r5, .L34+4
 183 0006 83B0     		sub	sp, sp, #12
 184              		.cfi_def_cfa_offset 24
 185              		.loc 1 188 0
 186 0008 2B68     		ldr	r3, [r5]
 187 000a 0193     		str	r3, [sp, #4]
 188              		.loc 1 191 0
 189 000c 2046     		mov	r0, r4
 190 000e FFF7FEFF 		bl	i2sObjectInit
 191              	.LVL13:
 192              		.loc 1 269 0
 193 0012 0199     		ldr	r1, [sp, #4]
 194              		.loc 1 192 0
 195 0014 0B4B     		ldr	r3, .L34+8
 196              		.loc 1 269 0
 197 0016 2A68     		ldr	r2, [r5]
 198              		.loc 1 196 0
 199 0018 0B48     		ldr	r0, .L34+12
 200              		.loc 1 192 0
 201 001a A360     		str	r3, [r4, #8]
 202              		.loc 1 193 0
 203 001c 4FF44073 		mov	r3, #768
 204              		.loc 1 195 0
 205 0020 0A4D     		ldr	r5, .L34+16
 206              		.loc 1 193 0
 207 0022 A381     		strh	r3, [r4, #12]	@ movhi
 208              		.loc 1 269 0
 209 0024 9142     		cmp	r1, r2
 210              		.loc 1 225 0
 211 0026 4FF00003 		mov	r3, #0
 212              		.loc 1 195 0
 213 002a 2561     		str	r5, [r4, #16]
 214              		.loc 1 225 0
 215 002c C4E90530 		strd	r3, r0, [r4, #20]
 216              		.loc 1 226 0
 217 0030 E361     		str	r3, [r4, #28]
 218              		.loc 1 269 0
 219 0032 01D1     		bne	.L33
 220 0034 03B0     		add	sp, sp, #12
 221              		.cfi_remember_state
 222              		.cfi_def_cfa_offset 12
 223              		@ sp needed
 224 0036 30BD     		pop	{r4, r5, pc}
 225              	.L33:
 226              		.cfi_restore_state
 227 0038 FFF7FEFF 		bl	__stack_chk_fail
 228              	.LVL14:
ARM GAS  C:\Users\osour\AppData\Local\Temp\ccdjPPmp.s 			page 5


 229              	.L35:
 230              		.align	2
 231              	.L34:
 232 003c 00000000 		.word	.LANCHOR0
 233 0040 00000000 		.word	__stack_chk_guard
 234 0044 00380040 		.word	1073756160
 235 0048 1E2D0100 		.word	77086
 236 004c 24000000 		.word	_stm32_dma_streams+36
 237              		.cfi_endproc
 238              	.LFE257:
 239              		.size	i2s_lld_init, .-i2s_lld_init
 240              		.section	.text.i2s_lld_start,"ax",%progbits
 241              		.align	1
 242              		.p2align 4,,15
 243              		.global	i2s_lld_start
 244              		.syntax unified
 245              		.thumb
 246              		.thumb_func
 247              		.fpu fpv4-sp-d16
 248              		.type	i2s_lld_start, %function
 249              	i2s_lld_start:
 250              	.LFB258:
 251              		.loc 1 278 0
 252              		.cfi_startproc
 253              		@ args = 0, pretend = 0, frame = 8
 254              		@ frame_needed = 0, uses_anonymous_args = 0
 255              	.LVL15:
 256 0000 70B5     		push	{r4, r5, r6, lr}
 257              		.cfi_def_cfa_offset 16
 258              		.cfi_offset 4, -16
 259              		.cfi_offset 5, -12
 260              		.cfi_offset 6, -8
 261              		.cfi_offset 14, -4
 262 0002 274D     		ldr	r5, .L58
 263              		.loc 1 281 0
 264 0004 0378     		ldrb	r3, [r0]	@ zero_extendqisi2
 265              		.loc 1 278 0
 266 0006 2A68     		ldr	r2, [r5]
 267 0008 82B0     		sub	sp, sp, #8
 268              		.cfi_def_cfa_offset 24
 269              		.loc 1 281 0
 270 000a 012B     		cmp	r3, #1
 271              		.loc 1 278 0
 272 000c 0446     		mov	r4, r0
 273 000e 0192     		str	r2, [sp, #4]
 274              		.loc 1 281 0
 275 0010 13D0     		beq	.L54
 276              	.LVL16:
 277              	.L38:
 278              		.loc 1 357 0
 279 0012 D4E90123 		ldrd	r2, r3, [r4, #4]
 280 0016 B2F91220 		ldrsh	r2, [r2, #18]
 281 001a 1A62     		str	r2, [r3, #32]
 282              		.loc 1 358 0
 283 001c 6368     		ldr	r3, [r4, #4]
 284 001e A189     		ldrh	r1, [r4, #12]
 285 0020 B3F91030 		ldrsh	r3, [r3, #16]
ARM GAS  C:\Users\osour\AppData\Local\Temp\ccdjPPmp.s 			page 6


 286 0024 A268     		ldr	r2, [r4, #8]
 287 0026 0B43     		orrs	r3, r3, r1
 288 0028 43F40063 		orr	r3, r3, #2048
 289 002c D361     		str	r3, [r2, #28]
 290              		.loc 1 359 0
 291 002e 019A     		ldr	r2, [sp, #4]
 292 0030 2B68     		ldr	r3, [r5]
 293 0032 9A42     		cmp	r2, r3
 294 0034 31D1     		bne	.L55
 295 0036 02B0     		add	sp, sp, #8
 296              		.cfi_remember_state
 297              		.cfi_def_cfa_offset 16
 298              		@ sp needed
 299 0038 70BD     		pop	{r4, r5, r6, pc}
 300              	.LVL17:
 301              	.L54:
 302              		.cfi_restore_state
 303              		.loc 1 284 0
 304 003a 1A4E     		ldr	r6, .L58+4
 305 003c B042     		cmp	r0, r6
 306 003e 15D0     		beq	.L56
 307              	.LVL18:
 308              	.L39:
 309              		.loc 1 346 0
 310 0040 2369     		ldr	r3, [r4, #16]
 311 0042 3BB1     		cbz	r3, .L41
 312              		.loc 1 347 0
 313 0044 1B68     		ldr	r3, [r3]
 314 0046 A269     		ldr	r2, [r4, #24]
 315 0048 1A60     		str	r2, [r3]
 316              		.loc 1 348 0
 317 004a 2269     		ldr	r2, [r4, #16]
 318 004c A368     		ldr	r3, [r4, #8]
 319 004e 1268     		ldr	r2, [r2]
 320 0050 0C33     		adds	r3, r3, #12
 321 0052 9360     		str	r3, [r2, #8]
 322              	.L41:
 323              		.loc 1 350 0
 324 0054 6369     		ldr	r3, [r4, #20]
 325 0056 002B     		cmp	r3, #0
 326 0058 DBD0     		beq	.L38
 327              		.loc 1 351 0
 328 005a 1B68     		ldr	r3, [r3]
 329 005c E269     		ldr	r2, [r4, #28]
 330 005e 1A60     		str	r2, [r3]
 331              		.loc 1 352 0
 332 0060 6269     		ldr	r2, [r4, #20]
 333 0062 A368     		ldr	r3, [r4, #8]
 334 0064 1268     		ldr	r2, [r2]
 335 0066 0C33     		adds	r3, r3, #12
 336 0068 9360     		str	r3, [r2, #8]
 337 006a D2E7     		b	.L38
 338              	.LVL19:
 339              	.L56:
 340              	.LBB18:
 341              		.loc 1 288 0
 342 006c 0E49     		ldr	r1, .L58+8
ARM GAS  C:\Users\osour\AppData\Local\Temp\ccdjPPmp.s 			page 7


 343              		.loc 1 291 0
 344 006e 0F4A     		ldr	r2, .L58+12
 345              		.loc 1 288 0
 346 0070 0B6C     		ldr	r3, [r1, #64]
 347 0072 43F48043 		orr	r3, r3, #16384
 348 0076 0B64     		str	r3, [r1, #64]
 349              		.loc 1 291 0
 350 0078 0069     		ldr	r0, [r0, #16]
 351              	.LVL20:
 352 007a 2346     		mov	r3, r4
 353 007c 0A21     		movs	r1, #10
 354 007e FFF7FEFF 		bl	dmaStreamAllocate
 355              	.LVL21:
 356              		.loc 1 295 0
 357 0082 30B9     		cbnz	r0, .L57
 358              	.LVL22:
 359              	.L40:
 360              		.loc 1 299 0
 361 0084 B368     		ldr	r3, [r6, #8]
 362 0086 0022     		movs	r2, #0
 363 0088 1A60     		str	r2, [r3]
 364              		.loc 1 300 0
 365 008a B368     		ldr	r3, [r6, #8]
 366 008c 0122     		movs	r2, #1
 367 008e 5A60     		str	r2, [r3, #4]
 368 0090 D6E7     		b	.L39
 369              	.LVL23:
 370              	.L57:
 371              		.loc 1 295 0 discriminator 2
 372 0092 0748     		ldr	r0, .L58+16
 373              	.LVL24:
 374 0094 FFF7FEFF 		bl	chSysHalt
 375              	.LVL25:
 376 0098 F4E7     		b	.L40
 377              	.L55:
 378              	.LBE18:
 379              		.loc 1 359 0
 380 009a FFF7FEFF 		bl	__stack_chk_fail
 381              	.LVL26:
 382              	.L59:
 383 009e 00BF     		.align	2
 384              	.L58:
 385 00a0 00000000 		.word	__stack_chk_guard
 386 00a4 00000000 		.word	.LANCHOR0
 387 00a8 00380240 		.word	1073887232
 388 00ac 00000000 		.word	i2s_lld_serve_rx_interrupt
 389 00b0 00000000 		.word	.LANCHOR1
 390              		.cfi_endproc
 391              	.LFE258:
 392              		.size	i2s_lld_start, .-i2s_lld_start
 393              		.section	.text.i2s_lld_stop,"ax",%progbits
 394              		.align	1
 395              		.p2align 4,,15
 396              		.global	i2s_lld_stop
 397              		.syntax unified
 398              		.thumb
 399              		.thumb_func
ARM GAS  C:\Users\osour\AppData\Local\Temp\ccdjPPmp.s 			page 8


 400              		.fpu fpv4-sp-d16
 401              		.type	i2s_lld_stop, %function
 402              	i2s_lld_stop:
 403              	.LFB259:
 404              		.loc 1 368 0
 405              		.cfi_startproc
 406              		@ args = 0, pretend = 0, frame = 8
 407              		@ frame_needed = 0, uses_anonymous_args = 0
 408              	.LVL27:
 409 0000 30B5     		push	{r4, r5, lr}
 410              		.cfi_def_cfa_offset 12
 411              		.cfi_offset 4, -12
 412              		.cfi_offset 5, -8
 413              		.cfi_offset 14, -4
 414 0002 124D     		ldr	r5, .L76
 415              		.loc 1 371 0
 416 0004 0378     		ldrb	r3, [r0]	@ zero_extendqisi2
 417              		.loc 1 368 0
 418 0006 2A68     		ldr	r2, [r5]
 419 0008 83B0     		sub	sp, sp, #12
 420              		.cfi_def_cfa_offset 24
 421              		.loc 1 371 0
 422 000a 022B     		cmp	r3, #2
 423              		.loc 1 368 0
 424 000c 0192     		str	r2, [sp, #4]
 425              		.loc 1 371 0
 426 000e 05D0     		beq	.L74
 427              	.LVL28:
 428              	.L60:
 429              		.loc 1 389 0
 430 0010 019A     		ldr	r2, [sp, #4]
 431 0012 2B68     		ldr	r3, [r5]
 432 0014 9A42     		cmp	r2, r3
 433 0016 16D1     		bne	.L75
 434 0018 03B0     		add	sp, sp, #12
 435              		.cfi_remember_state
 436              		.cfi_def_cfa_offset 12
 437              		@ sp needed
 438 001a 30BD     		pop	{r4, r5, pc}
 439              	.LVL29:
 440              	.L74:
 441              		.cfi_restore_state
 442              		.loc 1 374 0
 443 001c 8368     		ldr	r3, [r0, #8]
 444 001e 0022     		movs	r2, #0
 445 0020 5A60     		str	r2, [r3, #4]
 446 0022 0446     		mov	r4, r0
 447              		.loc 1 375 0
 448 0024 0069     		ldr	r0, [r0, #16]
 449              	.LVL30:
 450 0026 08B1     		cbz	r0, .L63
 451              		.loc 1 376 0
 452 0028 FFF7FEFF 		bl	dmaStreamRelease
 453              	.LVL31:
 454              	.L63:
 455              		.loc 1 377 0
 456 002c 6069     		ldr	r0, [r4, #20]
ARM GAS  C:\Users\osour\AppData\Local\Temp\ccdjPPmp.s 			page 9


 457 002e 08B1     		cbz	r0, .L64
 458              		.loc 1 378 0
 459 0030 FFF7FEFF 		bl	dmaStreamRelease
 460              	.LVL32:
 461              	.L64:
 462              		.loc 1 381 0
 463 0034 064B     		ldr	r3, .L76+4
 464 0036 9C42     		cmp	r4, r3
 465 0038 EAD1     		bne	.L60
 466              		.loc 1 382 0
 467 003a 064A     		ldr	r2, .L76+8
 468 003c 136C     		ldr	r3, [r2, #64]
 469 003e 23F48043 		bic	r3, r3, #16384
 470 0042 1364     		str	r3, [r2, #64]
 471              		.loc 1 389 0
 472 0044 E4E7     		b	.L60
 473              	.LVL33:
 474              	.L75:
 475 0046 FFF7FEFF 		bl	__stack_chk_fail
 476              	.LVL34:
 477              	.L77:
 478 004a 00BF     		.align	2
 479              	.L76:
 480 004c 00000000 		.word	__stack_chk_guard
 481 0050 00000000 		.word	.LANCHOR0
 482 0054 00380240 		.word	1073887232
 483              		.cfi_endproc
 484              	.LFE259:
 485              		.size	i2s_lld_stop, .-i2s_lld_stop
 486              		.section	.text.i2s_lld_start_exchange,"ax",%progbits
 487              		.align	1
 488              		.p2align 4,,15
 489              		.global	i2s_lld_start_exchange
 490              		.syntax unified
 491              		.thumb
 492              		.thumb_func
 493              		.fpu fpv4-sp-d16
 494              		.type	i2s_lld_start_exchange, %function
 495              	i2s_lld_start_exchange:
 496              	.LFB260:
 497              		.loc 1 398 0
 498              		.cfi_startproc
 499              		@ args = 0, pretend = 0, frame = 8
 500              		@ frame_needed = 0, uses_anonymous_args = 0
 501              	.LVL35:
 502 0000 30B5     		push	{r4, r5, lr}
 503              		.cfi_def_cfa_offset 12
 504              		.cfi_offset 4, -12
 505              		.cfi_offset 5, -8
 506              		.cfi_offset 14, -4
 507              		.loc 1 399 0
 508 0002 4268     		ldr	r2, [r0, #4]
 509              		.loc 1 398 0
 510 0004 194C     		ldr	r4, .L94
 511              		.loc 1 410 0
 512 0006 138A     		ldrh	r3, [r2, #16]
 513              		.loc 1 398 0
ARM GAS  C:\Users\osour\AppData\Local\Temp\ccdjPPmp.s 			page 10


 514 0008 2568     		ldr	r5, [r4]
 515              		.loc 1 399 0
 516 000a 9168     		ldr	r1, [r2, #8]
 517              	.LVL36:
 518              		.loc 1 398 0
 519 000c 83B0     		sub	sp, sp, #12
 520              		.cfi_def_cfa_offset 24
 521              		.loc 1 410 0
 522 000e 03F00603 		and	r3, r3, #6
 523              		.loc 1 398 0
 524 0012 0195     		str	r5, [sp, #4]
 525              		.loc 1 410 0
 526 0014 03B1     		cbz	r3, .L79
 527              		.loc 1 411 0
 528 0016 4900     		lsls	r1, r1, #1
 529              	.LVL37:
 530              	.L79:
 531              		.loc 1 414 0
 532 0018 0369     		ldr	r3, [r0, #16]
 533 001a 5BB1     		cbz	r3, .L80
 534              		.loc 1 415 0
 535 001c 1B68     		ldr	r3, [r3]
 536 001e 5268     		ldr	r2, [r2, #4]
 537 0020 DA60     		str	r2, [r3, #12]
 538              		.loc 1 416 0
 539 0022 0369     		ldr	r3, [r0, #16]
 540 0024 1B68     		ldr	r3, [r3]
 541 0026 5960     		str	r1, [r3, #4]
 542              		.loc 1 417 0
 543 0028 0369     		ldr	r3, [r0, #16]
 544 002a 1A68     		ldr	r2, [r3]
 545 002c 1368     		ldr	r3, [r2]
 546 002e 43F00103 		orr	r3, r3, #1
 547 0032 1360     		str	r3, [r2]
 548              	.L80:
 549              		.loc 1 421 0
 550 0034 4369     		ldr	r3, [r0, #20]
 551 0036 63B1     		cbz	r3, .L81
 552              		.loc 1 422 0
 553 0038 4268     		ldr	r2, [r0, #4]
 554 003a 1B68     		ldr	r3, [r3]
 555 003c 1268     		ldr	r2, [r2]
 556 003e DA60     		str	r2, [r3, #12]
 557              		.loc 1 423 0
 558 0040 4369     		ldr	r3, [r0, #20]
 559 0042 1B68     		ldr	r3, [r3]
 560 0044 5960     		str	r1, [r3, #4]
 561              		.loc 1 424 0
 562 0046 4369     		ldr	r3, [r0, #20]
 563 0048 1A68     		ldr	r2, [r3]
 564 004a 1368     		ldr	r3, [r2]
 565 004c 43F00103 		orr	r3, r3, #1
 566 0050 1360     		str	r3, [r2]
 567              	.L81:
 568              		.loc 1 428 0
 569 0052 8268     		ldr	r2, [r0, #8]
 570 0054 D369     		ldr	r3, [r2, #28]
ARM GAS  C:\Users\osour\AppData\Local\Temp\ccdjPPmp.s 			page 11


 571 0056 43F48063 		orr	r3, r3, #1024
 572 005a D361     		str	r3, [r2, #28]
 573              		.loc 1 429 0
 574 005c 019A     		ldr	r2, [sp, #4]
 575 005e 2368     		ldr	r3, [r4]
 576 0060 9A42     		cmp	r2, r3
 577 0062 01D1     		bne	.L93
 578 0064 03B0     		add	sp, sp, #12
 579              		.cfi_remember_state
 580              		.cfi_def_cfa_offset 12
 581              		@ sp needed
 582 0066 30BD     		pop	{r4, r5, pc}
 583              	.L93:
 584              		.cfi_restore_state
 585 0068 FFF7FEFF 		bl	__stack_chk_fail
 586              	.LVL38:
 587              	.L95:
 588              		.align	2
 589              	.L94:
 590 006c 00000000 		.word	__stack_chk_guard
 591              		.cfi_endproc
 592              	.LFE260:
 593              		.size	i2s_lld_start_exchange, .-i2s_lld_start_exchange
 594              		.section	.text.i2s_lld_stop_exchange,"ax",%progbits
 595              		.align	1
 596              		.p2align 4,,15
 597              		.global	i2s_lld_stop_exchange
 598              		.syntax unified
 599              		.thumb
 600              		.thumb_func
 601              		.fpu fpv4-sp-d16
 602              		.type	i2s_lld_stop_exchange, %function
 603              	i2s_lld_stop_exchange:
 604              	.LFB261:
 605              		.loc 1 440 0
 606              		.cfi_startproc
 607              		@ args = 0, pretend = 0, frame = 8
 608              		@ frame_needed = 0, uses_anonymous_args = 0
 609              	.LVL39:
 610 0000 30B5     		push	{r4, r5, lr}
 611              		.cfi_def_cfa_offset 12
 612              		.cfi_offset 4, -12
 613              		.cfi_offset 5, -8
 614              		.cfi_offset 14, -4
 615 0002 1D49     		ldr	r1, .L112
 616              		.loc 1 443 0
 617 0004 4369     		ldr	r3, [r0, #20]
 618              		.loc 1 440 0
 619 0006 0A68     		ldr	r2, [r1]
 620 0008 83B0     		sub	sp, sp, #12
 621              		.cfi_def_cfa_offset 24
 622              		.loc 1 440 0
 623 000a 0192     		str	r2, [sp, #4]
 624              		.loc 1 443 0
 625 000c 002B     		cmp	r3, #0
 626 000e 2FD0     		beq	.L97
 627              		.loc 1 444 0
ARM GAS  C:\Users\osour\AppData\Local\Temp\ccdjPPmp.s 			page 12


 628 0010 1A68     		ldr	r2, [r3]
 629 0012 1368     		ldr	r3, [r2]
 630 0014 23F01F03 		bic	r3, r3, #31
 631 0018 1360     		str	r3, [r2]
 632 001a 4469     		ldr	r4, [r0, #20]
 633 001c 2268     		ldr	r2, [r4]
 634              	.L98:
 635              		.loc 1 444 0 is_stmt 0 discriminator 2
 636 001e 1368     		ldr	r3, [r2]
 637 0020 DD07     		lsls	r5, r3, #31
 638 0022 FCD4     		bmi	.L98
 639              		.loc 1 444 0 discriminator 3
 640 0024 257A     		ldrb	r5, [r4, #8]	@ zero_extendqisi2
 641 0026 6268     		ldr	r2, [r4, #4]
 642 0028 3D23     		movs	r3, #61
 643 002a AB40     		lsls	r3, r3, r5
 644 002c 1360     		str	r3, [r2]
 645              		.loc 1 448 0 is_stmt 1 discriminator 3
 646 002e 8268     		ldr	r2, [r0, #8]
 647              	.L99:
 648              		.loc 1 448 0 is_stmt 0 discriminator 1
 649 0030 9368     		ldr	r3, [r2, #8]
 650 0032 03F08203 		and	r3, r3, #130
 651 0036 022B     		cmp	r3, #2
 652 0038 FAD1     		bne	.L99
 653              	.L100:
 654              		.loc 1 453 0 is_stmt 1
 655 003a D369     		ldr	r3, [r2, #28]
 656 003c 23F48063 		bic	r3, r3, #1024
 657 0040 D361     		str	r3, [r2, #28]
 658              		.loc 1 456 0
 659 0042 0369     		ldr	r3, [r0, #16]
 660 0044 73B1     		cbz	r3, .L96
 661              		.loc 1 457 0
 662 0046 1A68     		ldr	r2, [r3]
 663 0048 1368     		ldr	r3, [r2]
 664 004a 23F01F03 		bic	r3, r3, #31
 665 004e 1360     		str	r3, [r2]
 666 0050 0069     		ldr	r0, [r0, #16]
 667              	.LVL40:
 668 0052 0268     		ldr	r2, [r0]
 669              	.L102:
 670              		.loc 1 457 0 is_stmt 0 discriminator 2
 671 0054 1368     		ldr	r3, [r2]
 672 0056 DB07     		lsls	r3, r3, #31
 673 0058 FCD4     		bmi	.L102
 674              		.loc 1 457 0 discriminator 3
 675 005a 047A     		ldrb	r4, [r0, #8]	@ zero_extendqisi2
 676 005c 4268     		ldr	r2, [r0, #4]
 677 005e 3D23     		movs	r3, #61
 678 0060 A340     		lsls	r3, r3, r4
 679 0062 1360     		str	r3, [r2]
 680              	.L96:
 681              		.loc 1 458 0 is_stmt 1
 682 0064 019A     		ldr	r2, [sp, #4]
 683 0066 0B68     		ldr	r3, [r1]
 684 0068 9A42     		cmp	r2, r3
ARM GAS  C:\Users\osour\AppData\Local\Temp\ccdjPPmp.s 			page 13


 685 006a 03D1     		bne	.L111
 686 006c 03B0     		add	sp, sp, #12
 687              		.cfi_remember_state
 688              		.cfi_def_cfa_offset 12
 689              		@ sp needed
 690 006e 30BD     		pop	{r4, r5, pc}
 691              	.LVL41:
 692              	.L97:
 693              		.cfi_restore_state
 694 0070 8268     		ldr	r2, [r0, #8]
 695 0072 E2E7     		b	.L100
 696              	.LVL42:
 697              	.L111:
 698 0074 FFF7FEFF 		bl	__stack_chk_fail
 699              	.LVL43:
 700              	.L113:
 701              		.align	2
 702              	.L112:
 703 0078 00000000 		.word	__stack_chk_guard
 704              		.cfi_endproc
 705              	.LFE261:
 706              		.size	i2s_lld_stop_exchange, .-i2s_lld_stop_exchange
 707              		.global	I2SD2
 708              		.section	.bss.I2SD2,"aw",%nobits
 709              		.align	2
 710              		.set	.LANCHOR0,. + 0
 711              		.type	I2SD2, %object
 712              		.size	I2SD2, 32
 713              	I2SD2:
 714 0000 00000000 		.space	32
 714      00000000 
 714      00000000 
 714      00000000 
 714      00000000 
 715              		.section	.rodata.__func__.9851,"a",%progbits
 716              		.align	2
 717              		.set	.LANCHOR1,. + 0
 718              		.type	__func__.9851, %object
 719              		.size	__func__.9851, 14
 720              	__func__.9851:
 721 0000 6932735F 		.ascii	"i2s_lld_start\000"
 721      6C6C645F 
 721      73746172 
 721      7400
 722              		.section	.rodata.i2s_lld_serve_rx_interrupt.str1.4,"aMS",%progbits,1
 723              		.align	2
 724              	.LC0:
 725 0000 444D4120 		.ascii	"DMA failure\000"
 725      6661696C 
 725      75726500 
 726              		.text
 727              	.Letext0:
 728              		.file 3 "c:\\users\\osour\\desktop\\robotique\\eclipse_e-puck2\\tools\\gcc-arm-none-eabi-7-2017-q4
 729              		.file 4 "c:\\users\\osour\\desktop\\robotique\\eclipse_e-puck2\\tools\\gcc-arm-none-eabi-7-2017-q4
 730              		.file 5 "c:\\users\\osour\\desktop\\robotique\\eclipse_e-puck2\\tools\\gcc-arm-none-eabi-7-2017-q4
 731              		.file 6 "../../lib/e-puck2_main-processor/ChibiOS//os/rt/ports/ARMCMx/compilers/GCC/chtypes.h"
 732              		.file 7 "../../lib/e-puck2_main-processor/ChibiOS//os/rt/include/chsystypes.h"
ARM GAS  C:\Users\osour\AppData\Local\Temp\ccdjPPmp.s 			page 14


 733              		.file 8 "../../lib/e-puck2_main-processor/ChibiOS//os/rt/include/chschd.h"
 734              		.file 9 "../../lib/e-puck2_main-processor/ChibiOS//os/ext/CMSIS/include/core_cm4.h"
 735              		.file 10 "../../lib/e-puck2_main-processor/ChibiOS//os/ext/CMSIS/ST/system_stm32f4xx.h"
 736              		.file 11 "../../lib/e-puck2_main-processor/ChibiOS//os/ext/CMSIS/ST/stm32f407xx.h"
 737              		.file 12 "../../lib/e-puck2_main-processor/ChibiOS//os/rt/ports/ARMCMx/chcore.h"
 738              		.file 13 "../../lib/e-puck2_main-processor/ChibiOS//os/rt/ports/ARMCMx/chcore_v7m.h"
 739              		.file 14 "../../lib/e-puck2_main-processor/ChibiOS//os/rt/include/chdebug.h"
 740              		.file 15 "../../lib/e-puck2_main-processor/ChibiOS//os/rt/include/chtm.h"
 741              		.file 16 "../../lib/e-puck2_main-processor/ChibiOS//os/rt/include/chstats.h"
 742              		.file 17 "../../lib/e-puck2_main-processor/ChibiOS//os/rt/include/chsem.h"
 743              		.file 18 "../../lib/e-puck2_main-processor/ChibiOS//os/rt/include/chmtx.h"
 744              		.file 19 "../../lib/e-puck2_main-processor/ChibiOS//os/rt/include/chregistry.h"
 745              		.file 20 "../../lib/e-puck2_main-processor/ChibiOS//os/rt/include/chevents.h"
 746              		.file 21 "../../lib/e-puck2_main-processor/ChibiOS//os/rt/include/chqueues.h"
 747              		.file 22 "../../lib/e-puck2_main-processor/ChibiOS//os/hal/ports/STM32/STM32F4xx/stm32_dma.h"
 748              		.file 23 "../../lib/e-puck2_main-processor/ChibiOS//os/hal/include/hal_ioblock.h"
 749              		.file 24 "../../lib/e-puck2_main-processor/ChibiOS//os/hal/ports/STM32/LLD/GPIOv2/pal_lld.h"
 750              		.file 25 "../../lib/e-puck2_main-processor/ChibiOS//os/hal/include/adc.h"
 751              		.file 26 "../../lib/e-puck2_main-processor/ChibiOS//os/hal/ports/STM32/STM32F4xx/adc_lld.h"
 752              		.file 27 "../../lib/e-puck2_main-processor/ChibiOS//os/hal/include/can.h"
 753              		.file 28 "../../lib/e-puck2_main-processor/ChibiOS//os/hal/ports/STM32/LLD/can_lld.h"
 754              		.file 29 "../../lib/e-puck2_main-processor/ChibiOS//os/hal/include/dac.h"
 755              		.file 30 "../../lib/e-puck2_main-processor/ChibiOS//os/hal/ports/STM32/LLD/DACv1/dac_lld.h"
 756              		.file 31 "../../lib/e-puck2_main-processor/ChibiOS//os/hal/include/ext.h"
 757              		.file 32 "../../lib/e-puck2_main-processor/ChibiOS//os/hal/ports/STM32/LLD/ext_lld.h"
 758              		.file 33 "../../lib/e-puck2_main-processor/ChibiOS//os/hal/include/gpt.h"
 759              		.file 34 "../../lib/e-puck2_main-processor/ChibiOS//os/hal/ports/STM32/LLD/TIMv1/gpt_lld.h"
 760              		.file 35 "../../lib/e-puck2_main-processor/ChibiOS//os/hal/ports/STM32/LLD/TIMv1/stm32_tim.h"
 761              		.file 36 "../../lib/e-puck2_main-processor/ChibiOS//os/hal/include/i2c.h"
 762              		.file 37 "../../lib/e-puck2_main-processor/ChibiOS//os/hal/ports/STM32/LLD/I2Cv1/i2c_lld.h"
 763              		.file 38 "../../lib/e-puck2_main-processor/ChibiOS//os/hal/include/i2s.h"
 764              		.file 39 "../../lib/e-puck2_main-processor/ChibiOS//os/hal/ports/STM32/LLD/SPIv1/i2s_lld.h"
 765              		.file 40 "../../lib/e-puck2_main-processor/ChibiOS//os/hal/include/pwm.h"
 766              		.file 41 "../../lib/e-puck2_main-processor/ChibiOS//os/hal/ports/STM32/LLD/TIMv1/pwm_lld.h"
 767              		.file 42 "../../lib/e-puck2_main-processor/ChibiOS//os/hal/include/serial.h"
 768              		.file 43 "../../lib/e-puck2_main-processor/ChibiOS//os/hal/ports/STM32/LLD/USARTv1/serial_lld.h"
 769              		.file 44 "../../lib/e-puck2_main-processor/ChibiOS//os/hal/include/sdc.h"
 770              		.file 45 "../../lib/e-puck2_main-processor/ChibiOS//os/hal/ports/STM32/LLD/sdc_lld.h"
 771              		.file 46 "../../lib/e-puck2_main-processor/ChibiOS//os/hal/include/spi.h"
 772              		.file 47 "../../lib/e-puck2_main-processor/ChibiOS//os/hal/ports/STM32/LLD/SPIv1/spi_lld.h"
 773              		.file 48 "../../lib/e-puck2_main-processor/ChibiOS//os/hal/include/usb.h"
 774              		.file 49 "../../lib/e-puck2_main-processor/ChibiOS//os/hal/ports/STM32/LLD/OTGv1/usb_lld.h"
 775              		.file 50 "../../lib/e-puck2_main-processor/ChibiOS//os/hal/ports/STM32/LLD/OTGv1/stm32_otg.h"
 776              		.file 51 "../../lib/e-puck2_main-processor/ChibiOS//os/rt/include/chsys.h"