ARM GAS  C:\Users\osour\AppData\Local\Temp\ccUO63J9.s 			page 1


   1              		.cpu cortex-m4
   2              		.eabi_attribute 27, 1
   3              		.eabi_attribute 28, 1
   4              		.eabi_attribute 20, 1
   5              		.eabi_attribute 21, 1
   6              		.eabi_attribute 23, 3
   7              		.eabi_attribute 24, 1
   8              		.eabi_attribute 25, 1
   9              		.eabi_attribute 26, 1
  10              		.eabi_attribute 30, 2
  11              		.eabi_attribute 34, 1
  12              		.eabi_attribute 18, 4
  13              		.file	"leds.c"
  14              		.text
  15              	.Ltext0:
  16              		.cfi_sections	.debug_frame
  17              		.section	.text.set_led,"ax",%progbits
  18              		.align	1
  19              		.p2align 4,,15
  20              		.global	set_led
  21              		.syntax unified
  22              		.thumb
  23              		.thumb_func
  24              		.fpu fpv4-sp-d16
  25              		.type	set_led, %function
  26              	set_led:
  27              	.LFB256:
  28              		.file 1 "../../lib/e-puck2_main-processor/src/leds.c"
  29              		.loc 1 7 0
  30              		.cfi_startproc
  31              		@ args = 0, pretend = 0, frame = 8
  32              		@ frame_needed = 0, uses_anonymous_args = 0
  33              	.LVL0:
  34 0000 70B5     		push	{r4, r5, r6, lr}
  35              		.cfi_def_cfa_offset 16
  36              		.cfi_offset 4, -16
  37              		.cfi_offset 5, -12
  38              		.cfi_offset 6, -8
  39              		.cfi_offset 14, -4
  40 0002 294D     		ldr	r5, .L24
  41 0004 82B0     		sub	sp, sp, #8
  42              		.cfi_def_cfa_offset 24
  43              		.loc 1 7 0
  44 0006 2B68     		ldr	r3, [r5]
  45 0008 0193     		str	r3, [sp, #4]
  46 000a 0E46     		mov	r6, r1
  47              		.loc 1 8 0
  48 000c 0328     		cmp	r0, #3
  49 000e 41D8     		bhi	.L18
  50 0010 DFE800F0 		tbb	[pc, r0]
  51              	.L4:
  52 0014 1A       		.byte	(.L3-.L4)/2
  53 0015 12       		.byte	(.L5-.L4)/2
  54 0016 0A       		.byte	(.L6-.L4)/2
  55 0017 02       		.byte	(.L7-.L4)/2
  56              		.p2align 1
  57              	.L7:
ARM GAS  C:\Users\osour\AppData\Local\Temp\ccUO63J9.s 			page 2


  58              		.loc 1 31 0
  59 0018 0129     		cmp	r1, #1
  60 001a 22D9     		bls	.L15
  61              		.loc 1 32 0
  62 001c 234A     		ldr	r2, .L24+4
  63 001e 5369     		ldr	r3, [r2, #20]
  64 0020 83F40063 		eor	r3, r3, #2048
  65 0024 5361     		str	r3, [r2, #20]
  66 0026 16E0     		b	.L1
  67              	.L6:
  68              		.loc 1 24 0
  69 0028 0129     		cmp	r1, #1
  70 002a 26D9     		bls	.L13
  71              		.loc 1 25 0
  72 002c 1F4A     		ldr	r2, .L24+4
  73 002e 5369     		ldr	r3, [r2, #20]
  74 0030 83F48063 		eor	r3, r3, #1024
  75 0034 5361     		str	r3, [r2, #20]
  76 0036 0EE0     		b	.L1
  77              	.L5:
  78              		.loc 1 17 0
  79 0038 0129     		cmp	r1, #1
  80 003a 18D9     		bls	.L11
  81              		.loc 1 18 0
  82 003c 1B4A     		ldr	r2, .L24+4
  83 003e 5369     		ldr	r3, [r2, #20]
  84 0040 83F04003 		eor	r3, r3, #64
  85 0044 5361     		str	r3, [r2, #20]
  86 0046 06E0     		b	.L1
  87              	.L3:
  88              		.loc 1 10 0
  89 0048 0129     		cmp	r1, #1
  90 004a 1CD9     		bls	.L8
  91              		.loc 1 11 0
  92 004c 174A     		ldr	r2, .L24+4
  93 004e 5369     		ldr	r3, [r2, #20]
  94 0050 83F02003 		eor	r3, r3, #32
  95 0054 5361     		str	r3, [r2, #20]
  96              	.LVL1:
  97              	.L1:
  98              		.loc 1 42 0
  99 0056 019A     		ldr	r2, [sp, #4]
 100 0058 2B68     		ldr	r3, [r5]
 101 005a 9A42     		cmp	r2, r3
 102 005c 18D1     		bne	.L23
 103 005e 02B0     		add	sp, sp, #8
 104              		.cfi_remember_state
 105              		.cfi_def_cfa_offset 16
 106              		@ sp needed
 107 0060 70BD     		pop	{r4, r5, r6, pc}
 108              	.LVL2:
 109              	.L15:
 110              		.cfi_restore_state
 111              		.loc 1 34 0
 112 0062 124B     		ldr	r3, .L24+4
 113 0064 4FF40062 		mov	r2, #2048
 114 0068 29B1     		cbz	r1, .L16
ARM GAS  C:\Users\osour\AppData\Local\Temp\ccUO63J9.s 			page 3


 115              	.L21:
 116              		.loc 1 34 0 is_stmt 0 discriminator 1
 117 006a 5A83     		strh	r2, [r3, #26]	@ movhi
 118 006c F3E7     		b	.L1
 119              	.L11:
 120              		.loc 1 20 0 is_stmt 1
 121 006e 0F4B     		ldr	r3, .L24+4
 122 0070 4022     		movs	r2, #64
 123 0072 0029     		cmp	r1, #0
 124 0074 F9D1     		bne	.L21
 125              	.L16:
 126              		.loc 1 34 0 discriminator 2
 127 0076 1A83     		strh	r2, [r3, #24]	@ movhi
 128 0078 EDE7     		b	.L1
 129              	.L13:
 130              		.loc 1 27 0
 131 007a 0C4B     		ldr	r3, .L24+4
 132 007c 4FF48062 		mov	r2, #1024
 133 0080 0029     		cmp	r1, #0
 134 0082 F8D0     		beq	.L16
 135 0084 F1E7     		b	.L21
 136              	.L8:
 137              		.loc 1 13 0
 138 0086 094B     		ldr	r3, .L24+4
 139 0088 2022     		movs	r2, #32
 140 008a 0029     		cmp	r1, #0
 141 008c F3D0     		beq	.L16
 142 008e ECE7     		b	.L21
 143              	.LVL3:
 144              	.L23:
 145              		.loc 1 42 0
 146 0090 FFF7FEFF 		bl	__stack_chk_fail
 147              	.LVL4:
 148              	.L18:
 149              	.LBB5:
 150              		.loc 1 38 0
 151 0094 0024     		movs	r4, #0
 152              	.LVL5:
 153              	.L2:
 154              		.loc 1 39 0 discriminator 3
 155 0096 E0B2     		uxtb	r0, r4
 156 0098 3146     		mov	r1, r6
 157              		.loc 1 38 0 discriminator 3
 158 009a 0134     		adds	r4, r4, #1
 159              	.LVL6:
 160              		.loc 1 39 0 discriminator 3
 161 009c FFF7FEFF 		bl	set_led
 162              	.LVL7:
 163              		.loc 1 38 0 discriminator 3
 164 00a0 042C     		cmp	r4, #4
 165 00a2 F8D1     		bne	.L2
 166 00a4 D7E7     		b	.L1
 167              	.L25:
 168 00a6 00BF     		.align	2
 169              	.L24:
 170 00a8 00000000 		.word	__stack_chk_guard
 171 00ac 000C0240 		.word	1073875968
ARM GAS  C:\Users\osour\AppData\Local\Temp\ccUO63J9.s 			page 4


 172              	.LBE5:
 173              		.cfi_endproc
 174              	.LFE256:
 175              		.size	set_led, .-set_led
 176              		.section	.text.set_rgb_led,"ax",%progbits
 177              		.align	1
 178              		.p2align 4,,15
 179              		.global	set_rgb_led
 180              		.syntax unified
 181              		.thumb
 182              		.thumb_func
 183              		.fpu fpv4-sp-d16
 184              		.type	set_rgb_led, %function
 185              	set_rgb_led:
 186              	.LFB257:
 187              		.loc 1 44 0
 188              		.cfi_startproc
 189              		@ args = 0, pretend = 0, frame = 8
 190              		@ frame_needed = 0, uses_anonymous_args = 0
 191              	.LVL8:
 192 0000 70B5     		push	{r4, r5, r6, lr}
 193              		.cfi_def_cfa_offset 16
 194              		.cfi_offset 4, -16
 195              		.cfi_offset 5, -12
 196              		.cfi_offset 6, -8
 197              		.cfi_offset 14, -4
 198 0002 094D     		ldr	r5, .L30
 199              		.loc 1 45 0
 200 0004 094E     		ldr	r6, .L30+4
 201              		.loc 1 44 0
 202 0006 2C68     		ldr	r4, [r5]
 203 0008 82B0     		sub	sp, sp, #8
 204              		.cfi_def_cfa_offset 24
 205              		.loc 1 45 0
 206 000a 00EB4000 		add	r0, r0, r0, lsl #1
 207              	.LVL9:
 208              		.loc 1 44 0
 209 000e 0194     		str	r4, [sp, #4]
 210              		.loc 1 45 0
 211 0010 3154     		strb	r1, [r6, r0]
 212 0012 3418     		adds	r4, r6, r0
 213              		.loc 1 48 0
 214 0014 0198     		ldr	r0, [sp, #4]
 215 0016 2968     		ldr	r1, [r5]
 216              	.LVL10:
 217              		.loc 1 46 0
 218 0018 6270     		strb	r2, [r4, #1]
 219              		.loc 1 48 0
 220 001a 8842     		cmp	r0, r1
 221              		.loc 1 47 0
 222 001c A370     		strb	r3, [r4, #2]
 223              		.loc 1 48 0
 224 001e 01D1     		bne	.L29
 225 0020 02B0     		add	sp, sp, #8
 226              		.cfi_remember_state
 227              		.cfi_def_cfa_offset 16
 228              		@ sp needed
ARM GAS  C:\Users\osour\AppData\Local\Temp\ccUO63J9.s 			page 5


 229 0022 70BD     		pop	{r4, r5, r6, pc}
 230              	.LVL11:
 231              	.L29:
 232              		.cfi_restore_state
 233 0024 FFF7FEFF 		bl	__stack_chk_fail
 234              	.LVL12:
 235              	.L31:
 236              		.align	2
 237              	.L30:
 238 0028 00000000 		.word	__stack_chk_guard
 239 002c 00000000 		.word	.LANCHOR0
 240              		.cfi_endproc
 241              	.LFE257:
 242              		.size	set_rgb_led, .-set_rgb_led
 243              		.section	.text.toggle_rgb_led,"ax",%progbits
 244              		.align	1
 245              		.p2align 4,,15
 246              		.global	toggle_rgb_led
 247              		.syntax unified
 248              		.thumb
 249              		.thumb_func
 250              		.fpu fpv4-sp-d16
 251              		.type	toggle_rgb_led, %function
 252              	toggle_rgb_led:
 253              	.LFB258:
 254              		.loc 1 50 0
 255              		.cfi_startproc
 256              		@ args = 0, pretend = 0, frame = 8
 257              		@ frame_needed = 0, uses_anonymous_args = 0
 258              	.LVL13:
 259 0000 30B5     		push	{r4, r5, lr}
 260              		.cfi_def_cfa_offset 12
 261              		.cfi_offset 4, -12
 262              		.cfi_offset 5, -8
 263              		.cfi_offset 14, -4
 264              		.loc 1 51 0
 265 0002 0B4B     		ldr	r3, .L39
 266              		.loc 1 50 0
 267 0004 0B4C     		ldr	r4, .L39+4
 268              		.loc 1 51 0
 269 0006 00EB4000 		add	r0, r0, r0, lsl #1
 270              	.LVL14:
 271 000a 1844     		add	r0, r0, r3
 272              		.loc 1 50 0
 273 000c 83B0     		sub	sp, sp, #12
 274              		.cfi_def_cfa_offset 24
 275              		.loc 1 51 0
 276 000e 435C     		ldrb	r3, [r0, r1]	@ zero_extendqisi2
 277              		.loc 1 50 0
 278 0010 2568     		ldr	r5, [r4]
 279 0012 0195     		str	r5, [sp, #4]
 280              		.loc 1 51 0
 281 0014 33B9     		cbnz	r3, .L37
 282              		.loc 1 54 0
 283 0016 4254     		strb	r2, [r0, r1]
 284              	.L32:
 285              		.loc 1 56 0
ARM GAS  C:\Users\osour\AppData\Local\Temp\ccUO63J9.s 			page 6


 286 0018 019A     		ldr	r2, [sp, #4]
 287              	.LVL15:
 288 001a 2368     		ldr	r3, [r4]
 289 001c 9A42     		cmp	r2, r3
 290 001e 04D1     		bne	.L38
 291 0020 03B0     		add	sp, sp, #12
 292              		.cfi_remember_state
 293              		.cfi_def_cfa_offset 12
 294              		@ sp needed
 295 0022 30BD     		pop	{r4, r5, pc}
 296              	.LVL16:
 297              	.L37:
 298              		.cfi_restore_state
 299              		.loc 1 52 0
 300 0024 0023     		movs	r3, #0
 301 0026 4354     		strb	r3, [r0, r1]
 302 0028 F6E7     		b	.L32
 303              	.LVL17:
 304              	.L38:
 305              		.loc 1 56 0
 306 002a FFF7FEFF 		bl	__stack_chk_fail
 307              	.LVL18:
 308              	.L40:
 309 002e 00BF     		.align	2
 310              	.L39:
 311 0030 00000000 		.word	.LANCHOR0
 312 0034 00000000 		.word	__stack_chk_guard
 313              		.cfi_endproc
 314              	.LFE258:
 315              		.size	toggle_rgb_led, .-toggle_rgb_led
 316              		.section	.text.set_body_led,"ax",%progbits
 317              		.align	1
 318              		.p2align 4,,15
 319              		.global	set_body_led
 320              		.syntax unified
 321              		.thumb
 322              		.thumb_func
 323              		.fpu fpv4-sp-d16
 324              		.type	set_body_led, %function
 325              	set_body_led:
 326              	.LFB259:
 327              		.loc 1 65 0
 328              		.cfi_startproc
 329              		@ args = 0, pretend = 0, frame = 8
 330              		@ frame_needed = 0, uses_anonymous_args = 0
 331              	.LVL19:
 332 0000 00B5     		push	{lr}
 333              		.cfi_def_cfa_offset 4
 334              		.cfi_offset 14, -4
 335 0002 0D4B     		ldr	r3, .L49
 336 0004 83B0     		sub	sp, sp, #12
 337              		.cfi_def_cfa_offset 16
 338              		.loc 1 65 0
 339 0006 1A68     		ldr	r2, [r3]
 340 0008 0192     		str	r2, [sp, #4]
 341              		.loc 1 66 0
 342 000a 0128     		cmp	r0, #1
ARM GAS  C:\Users\osour\AppData\Local\Temp\ccUO63J9.s 			page 7


 343 000c 0BD9     		bls	.L42
 344              		.loc 1 67 0
 345 000e 0B49     		ldr	r1, .L49+4
 346 0010 4A69     		ldr	r2, [r1, #20]
 347 0012 82F00402 		eor	r2, r2, #4
 348 0016 4A61     		str	r2, [r1, #20]
 349              	.L41:
 350              		.loc 1 70 0
 351 0018 019A     		ldr	r2, [sp, #4]
 352 001a 1B68     		ldr	r3, [r3]
 353 001c 9A42     		cmp	r2, r3
 354 001e 09D1     		bne	.L47
 355 0020 03B0     		add	sp, sp, #12
 356              		.cfi_remember_state
 357              		.cfi_def_cfa_offset 4
 358              		@ sp needed
 359 0022 5DF804FB 		ldr	pc, [sp], #4
 360              	.L42:
 361              		.cfi_restore_state
 362              		.loc 1 69 0
 363 0026 054A     		ldr	r2, .L49+4
 364 0028 0421     		movs	r1, #4
 365 002a 08B9     		cbnz	r0, .L48
 366              		.loc 1 69 0 is_stmt 0 discriminator 2
 367 002c 5183     		strh	r1, [r2, #26]	@ movhi
 368              		.loc 1 70 0 is_stmt 1 discriminator 2
 369 002e F3E7     		b	.L41
 370              	.L48:
 371              		.loc 1 69 0 discriminator 1
 372 0030 1183     		strh	r1, [r2, #24]	@ movhi
 373 0032 F1E7     		b	.L41
 374              	.L47:
 375              		.loc 1 70 0
 376 0034 FFF7FEFF 		bl	__stack_chk_fail
 377              	.LVL20:
 378              	.L50:
 379              		.align	2
 380              	.L49:
 381 0038 00000000 		.word	__stack_chk_guard
 382 003c 00040240 		.word	1073873920
 383              		.cfi_endproc
 384              	.LFE259:
 385              		.size	set_body_led, .-set_body_led
 386              		.section	.text.set_front_led,"ax",%progbits
 387              		.align	1
 388              		.p2align 4,,15
 389              		.global	set_front_led
 390              		.syntax unified
 391              		.thumb
 392              		.thumb_func
 393              		.fpu fpv4-sp-d16
 394              		.type	set_front_led, %function
 395              	set_front_led:
 396              	.LFB260:
 397              		.loc 1 79 0
 398              		.cfi_startproc
 399              		@ args = 0, pretend = 0, frame = 8
ARM GAS  C:\Users\osour\AppData\Local\Temp\ccUO63J9.s 			page 8


 400              		@ frame_needed = 0, uses_anonymous_args = 0
 401              	.LVL21:
 402 0000 00B5     		push	{lr}
 403              		.cfi_def_cfa_offset 4
 404              		.cfi_offset 14, -4
 405 0002 0E4B     		ldr	r3, .L59
 406 0004 83B0     		sub	sp, sp, #12
 407              		.cfi_def_cfa_offset 16
 408              		.loc 1 79 0
 409 0006 1A68     		ldr	r2, [r3]
 410 0008 0192     		str	r2, [sp, #4]
 411              		.loc 1 80 0
 412 000a 0128     		cmp	r0, #1
 413 000c 0BD9     		bls	.L52
 414              		.loc 1 81 0
 415 000e 0C49     		ldr	r1, .L59+4
 416 0010 4A69     		ldr	r2, [r1, #20]
 417 0012 82F48042 		eor	r2, r2, #16384
 418 0016 4A61     		str	r2, [r1, #20]
 419              	.L51:
 420              		.loc 1 84 0
 421 0018 019A     		ldr	r2, [sp, #4]
 422 001a 1B68     		ldr	r3, [r3]
 423 001c 9A42     		cmp	r2, r3
 424 001e 0AD1     		bne	.L57
 425 0020 03B0     		add	sp, sp, #12
 426              		.cfi_remember_state
 427              		.cfi_def_cfa_offset 4
 428              		@ sp needed
 429 0022 5DF804FB 		ldr	pc, [sp], #4
 430              	.L52:
 431              		.cfi_restore_state
 432              		.loc 1 83 0
 433 0026 064A     		ldr	r2, .L59+4
 434 0028 4FF48041 		mov	r1, #16384
 435 002c 08B9     		cbnz	r0, .L58
 436              		.loc 1 83 0 is_stmt 0 discriminator 2
 437 002e 5183     		strh	r1, [r2, #26]	@ movhi
 438              		.loc 1 84 0 is_stmt 1 discriminator 2
 439 0030 F2E7     		b	.L51
 440              	.L58:
 441              		.loc 1 83 0 discriminator 1
 442 0032 1183     		strh	r1, [r2, #24]	@ movhi
 443 0034 F0E7     		b	.L51
 444              	.L57:
 445              		.loc 1 84 0
 446 0036 FFF7FEFF 		bl	__stack_chk_fail
 447              	.LVL22:
 448              	.L60:
 449 003a 00BF     		.align	2
 450              	.L59:
 451 003c 00000000 		.word	__stack_chk_guard
 452 0040 000C0240 		.word	1073875968
 453              		.cfi_endproc
 454              	.LFE260:
 455              		.size	set_front_led, .-set_front_led
 456              		.section	.text.clear_leds,"ax",%progbits
ARM GAS  C:\Users\osour\AppData\Local\Temp\ccUO63J9.s 			page 9


 457              		.align	1
 458              		.p2align 4,,15
 459              		.global	clear_leds
 460              		.syntax unified
 461              		.thumb
 462              		.thumb_func
 463              		.fpu fpv4-sp-d16
 464              		.type	clear_leds, %function
 465              	clear_leds:
 466              	.LFB261:
 467              		.loc 1 87 0
 468              		.cfi_startproc
 469              		@ args = 0, pretend = 0, frame = 8
 470              		@ frame_needed = 0, uses_anonymous_args = 0
 471 0000 F0B5     		push	{r4, r5, r6, r7, lr}
 472              		.cfi_def_cfa_offset 20
 473              		.cfi_offset 4, -20
 474              		.cfi_offset 5, -16
 475              		.cfi_offset 6, -12
 476              		.cfi_offset 7, -8
 477              		.cfi_offset 14, -4
 478 0002 0D4F     		ldr	r7, .L67
 479 0004 0D4C     		ldr	r4, .L67+4
 480 0006 3B68     		ldr	r3, [r7]
 481 0008 83B0     		sub	sp, sp, #12
 482              		.cfi_def_cfa_offset 32
 483              	.LBB6:
 484              		.loc 1 88 0
 485 000a 0025     		movs	r5, #0
 486              	.LBE6:
 487              		.loc 1 87 0
 488 000c 0193     		str	r3, [sp, #4]
 489              	.LVL23:
 490              	.LBB9:
 491              		.loc 1 89 0
 492 000e 2E46     		mov	r6, r5
 493              	.LVL24:
 494              	.L62:
 495              		.loc 1 89 0 is_stmt 0 discriminator 3
 496 0010 E8B2     		uxtb	r0, r5
 497 0012 0021     		movs	r1, #0
 498              		.loc 1 88 0 is_stmt 1 discriminator 3
 499 0014 0135     		adds	r5, r5, #1
 500              	.LVL25:
 501              		.loc 1 89 0 discriminator 3
 502 0016 FFF7FEFF 		bl	set_led
 503              	.LVL26:
 504              		.loc 1 88 0 discriminator 3
 505 001a 042D     		cmp	r5, #4
 506              	.LBB7:
 507              	.LBB8:
 508              		.loc 1 45 0 discriminator 3
 509 001c 2670     		strb	r6, [r4]
 510              		.loc 1 46 0 discriminator 3
 511 001e 6670     		strb	r6, [r4, #1]
 512              		.loc 1 47 0 discriminator 3
 513 0020 A670     		strb	r6, [r4, #2]
ARM GAS  C:\Users\osour\AppData\Local\Temp\ccUO63J9.s 			page 10


 514              	.LVL27:
 515 0022 04F10304 		add	r4, r4, #3
 516              	.LBE8:
 517              	.LBE7:
 518              		.loc 1 88 0 discriminator 3
 519 0026 F3D1     		bne	.L62
 520              	.LBE9:
 521              		.loc 1 92 0
 522 0028 019A     		ldr	r2, [sp, #4]
 523 002a 3B68     		ldr	r3, [r7]
 524 002c 9A42     		cmp	r2, r3
 525 002e 01D1     		bne	.L66
 526 0030 03B0     		add	sp, sp, #12
 527              		.cfi_remember_state
 528              		.cfi_def_cfa_offset 20
 529              		@ sp needed
 530 0032 F0BD     		pop	{r4, r5, r6, r7, pc}
 531              	.LVL28:
 532              	.L66:
 533              		.cfi_restore_state
 534 0034 FFF7FEFF 		bl	__stack_chk_fail
 535              	.LVL29:
 536              	.L68:
 537              		.align	2
 538              	.L67:
 539 0038 00000000 		.word	__stack_chk_guard
 540 003c 00000000 		.word	.LANCHOR0
 541              		.cfi_endproc
 542              	.LFE261:
 543              		.size	clear_leds, .-clear_leds
 544              		.section	.text.get_all_rgb_state,"ax",%progbits
 545              		.align	1
 546              		.p2align 4,,15
 547              		.global	get_all_rgb_state
 548              		.syntax unified
 549              		.thumb
 550              		.thumb_func
 551              		.fpu fpv4-sp-d16
 552              		.type	get_all_rgb_state, %function
 553              	get_all_rgb_state:
 554              	.LFB262:
 555              		.loc 1 94 0
 556              		.cfi_startproc
 557              		@ args = 0, pretend = 0, frame = 8
 558              		@ frame_needed = 0, uses_anonymous_args = 0
 559              	.LVL30:
 560 0000 30B5     		push	{r4, r5, lr}
 561              		.cfi_def_cfa_offset 12
 562              		.cfi_offset 4, -12
 563              		.cfi_offset 5, -8
 564              		.cfi_offset 14, -4
 565              		.loc 1 95 0
 566 0002 094B     		ldr	r3, .L73
 567              		.loc 1 94 0
 568 0004 094D     		ldr	r5, .L73+4
 569 0006 0446     		mov	r4, r0
 570              		.loc 1 95 0
ARM GAS  C:\Users\osour\AppData\Local\Temp\ccUO63J9.s 			page 11


 571 0008 07CB     		ldmia	r3!, {r0, r1, r2}
 572              	.LVL31:
 573              		.loc 1 94 0
 574 000a 83B0     		sub	sp, sp, #12
 575              		.cfi_def_cfa_offset 24
 576              		.loc 1 94 0
 577 000c 2B68     		ldr	r3, [r5]
 578 000e 0193     		str	r3, [sp, #4]
 579              		.loc 1 95 0
 580 0010 2060     		str	r0, [r4]	@ unaligned
 581              		.loc 1 96 0
 582 0012 0198     		ldr	r0, [sp, #4]
 583 0014 2B68     		ldr	r3, [r5]
 584              		.loc 1 95 0
 585 0016 6160     		str	r1, [r4, #4]	@ unaligned
 586              		.loc 1 96 0
 587 0018 9842     		cmp	r0, r3
 588              		.loc 1 95 0
 589 001a A260     		str	r2, [r4, #8]	@ unaligned
 590              		.loc 1 96 0
 591 001c 01D1     		bne	.L72
 592 001e 03B0     		add	sp, sp, #12
 593              		.cfi_remember_state
 594              		.cfi_def_cfa_offset 12
 595              		@ sp needed
 596 0020 30BD     		pop	{r4, r5, pc}
 597              	.LVL32:
 598              	.L72:
 599              		.cfi_restore_state
 600 0022 FFF7FEFF 		bl	__stack_chk_fail
 601              	.LVL33:
 602              	.L74:
 603 0026 00BF     		.align	2
 604              	.L73:
 605 0028 00000000 		.word	.LANCHOR0
 606 002c 00000000 		.word	__stack_chk_guard
 607              		.cfi_endproc
 608              	.LFE262:
 609              		.size	get_all_rgb_state, .-get_all_rgb_state
 610              		.section	.bss.rgb_led,"aw",%nobits
 611              		.align	2
 612              		.set	.LANCHOR0,. + 0
 613              		.type	rgb_led, %object
 614              		.size	rgb_led, 12
 615              	rgb_led:
 616 0000 00000000 		.space	12
 616      00000000 
 616      00000000 
 617              		.text
 618              	.Letext0:
 619              		.file 2 "c:\\users\\osour\\desktop\\robotique\\eclipse_e-puck2\\tools\\gcc-arm-none-eabi-7-2017-q4
 620              		.file 3 "c:\\users\\osour\\desktop\\robotique\\eclipse_e-puck2\\tools\\gcc-arm-none-eabi-7-2017-q4
 621              		.file 4 "c:\\users\\osour\\desktop\\robotique\\eclipse_e-puck2\\tools\\gcc-arm-none-eabi-7-2017-q4
 622              		.file 5 "../../lib/e-puck2_main-processor/ChibiOS//os/rt/ports/ARMCMx/compilers/GCC/chtypes.h"
 623              		.file 6 "../../lib/e-puck2_main-processor/ChibiOS//os/rt/include/chsystypes.h"
 624              		.file 7 "../../lib/e-puck2_main-processor/ChibiOS//os/rt/include/chschd.h"
 625              		.file 8 "../../lib/e-puck2_main-processor/ChibiOS//os/ext/CMSIS/include/core_cm4.h"
ARM GAS  C:\Users\osour\AppData\Local\Temp\ccUO63J9.s 			page 12


 626              		.file 9 "../../lib/e-puck2_main-processor/ChibiOS//os/ext/CMSIS/ST/system_stm32f4xx.h"
 627              		.file 10 "../../lib/e-puck2_main-processor/ChibiOS//os/ext/CMSIS/ST/stm32f407xx.h"
 628              		.file 11 "../../lib/e-puck2_main-processor/ChibiOS//os/rt/ports/ARMCMx/chcore.h"
 629              		.file 12 "../../lib/e-puck2_main-processor/ChibiOS//os/rt/ports/ARMCMx/chcore_v7m.h"
 630              		.file 13 "../../lib/e-puck2_main-processor/ChibiOS//os/rt/include/chdebug.h"
 631              		.file 14 "../../lib/e-puck2_main-processor/ChibiOS//os/rt/include/chtm.h"
 632              		.file 15 "../../lib/e-puck2_main-processor/ChibiOS//os/rt/include/chstats.h"
 633              		.file 16 "../../lib/e-puck2_main-processor/ChibiOS//os/rt/include/chsem.h"
 634              		.file 17 "../../lib/e-puck2_main-processor/ChibiOS//os/rt/include/chmtx.h"
 635              		.file 18 "../../lib/e-puck2_main-processor/ChibiOS//os/rt/include/chregistry.h"
 636              		.file 19 "../../lib/e-puck2_main-processor/ChibiOS//os/rt/include/chevents.h"
 637              		.file 20 "../../lib/e-puck2_main-processor/ChibiOS//os/rt/include/chqueues.h"
 638              		.file 21 "../../lib/e-puck2_main-processor/ChibiOS//os/hal/ports/STM32/STM32F4xx/stm32_dma.h"
 639              		.file 22 "../../lib/e-puck2_main-processor/ChibiOS//os/hal/include/hal_ioblock.h"
 640              		.file 23 "../../lib/e-puck2_main-processor/ChibiOS//os/hal/ports/STM32/LLD/GPIOv2/pal_lld.h"
 641              		.file 24 "../../lib/e-puck2_main-processor/ChibiOS//os/hal/include/adc.h"
 642              		.file 25 "../../lib/e-puck2_main-processor/ChibiOS//os/hal/ports/STM32/STM32F4xx/adc_lld.h"
 643              		.file 26 "../../lib/e-puck2_main-processor/ChibiOS//os/hal/include/can.h"
 644              		.file 27 "../../lib/e-puck2_main-processor/ChibiOS//os/hal/ports/STM32/LLD/can_lld.h"
 645              		.file 28 "../../lib/e-puck2_main-processor/ChibiOS//os/hal/include/dac.h"
 646              		.file 29 "../../lib/e-puck2_main-processor/ChibiOS//os/hal/ports/STM32/LLD/DACv1/dac_lld.h"
 647              		.file 30 "../../lib/e-puck2_main-processor/ChibiOS//os/hal/include/ext.h"
 648              		.file 31 "../../lib/e-puck2_main-processor/ChibiOS//os/hal/ports/STM32/LLD/ext_lld.h"
 649              		.file 32 "../../lib/e-puck2_main-processor/ChibiOS//os/hal/include/gpt.h"
 650              		.file 33 "../../lib/e-puck2_main-processor/ChibiOS//os/hal/ports/STM32/LLD/TIMv1/gpt_lld.h"
 651              		.file 34 "../../lib/e-puck2_main-processor/ChibiOS//os/hal/ports/STM32/LLD/TIMv1/stm32_tim.h"
 652              		.file 35 "../../lib/e-puck2_main-processor/ChibiOS//os/hal/include/i2c.h"
 653              		.file 36 "../../lib/e-puck2_main-processor/ChibiOS//os/hal/ports/STM32/LLD/I2Cv1/i2c_lld.h"
 654              		.file 37 "../../lib/e-puck2_main-processor/ChibiOS//os/hal/include/i2s.h"
 655              		.file 38 "../../lib/e-puck2_main-processor/ChibiOS//os/hal/ports/STM32/LLD/SPIv1/i2s_lld.h"
 656              		.file 39 "../../lib/e-puck2_main-processor/ChibiOS//os/hal/include/pwm.h"
 657              		.file 40 "../../lib/e-puck2_main-processor/ChibiOS//os/hal/ports/STM32/LLD/TIMv1/pwm_lld.h"
 658              		.file 41 "../../lib/e-puck2_main-processor/ChibiOS//os/hal/include/serial.h"
 659              		.file 42 "../../lib/e-puck2_main-processor/ChibiOS//os/hal/ports/STM32/LLD/USARTv1/serial_lld.h"
 660              		.file 43 "../../lib/e-puck2_main-processor/ChibiOS//os/hal/include/sdc.h"
 661              		.file 44 "../../lib/e-puck2_main-processor/ChibiOS//os/hal/ports/STM32/LLD/sdc_lld.h"
 662              		.file 45 "../../lib/e-puck2_main-processor/ChibiOS//os/hal/include/spi.h"
 663              		.file 46 "../../lib/e-puck2_main-processor/ChibiOS//os/hal/ports/STM32/LLD/SPIv1/spi_lld.h"
 664              		.file 47 "../../lib/e-puck2_main-processor/ChibiOS//os/hal/include/usb.h"
 665              		.file 48 "../../lib/e-puck2_main-processor/ChibiOS//os/hal/ports/STM32/LLD/OTGv1/usb_lld.h"
 666              		.file 49 "../../lib/e-puck2_main-processor/ChibiOS//os/hal/ports/STM32/LLD/OTGv1/stm32_otg.h"
 667              		.file 50 "../../lib/e-puck2_main-processor/src/leds.h"
 668              		.file 51 "c:\\users\\osour\\desktop\\robotique\\eclipse_e-puck2\\tools\\gcc-arm-none-eabi-7-2017-q
 669              		.file 52 "c:\\users\\osour\\desktop\\robotique\\eclipse_e-puck2\\tools\\gcc-arm-none-eabi-7-2017-q
 670              		.file 53 "c:\\users\\osour\\desktop\\robotique\\eclipse_e-puck2\\tools\\gcc-arm-none-eabi-7-2017-q