ARM GAS  C:\Users\osour\AppData\Local\Temp\cc4wVWcH.s 			page 1


   1              		.cpu cortex-m4
   2              		.eabi_attribute 27, 1
   3              		.eabi_attribute 28, 1
   4              		.eabi_attribute 20, 1
   5              		.eabi_attribute 21, 1
   6              		.eabi_attribute 23, 3
   7              		.eabi_attribute 24, 1
   8              		.eabi_attribute 25, 1
   9              		.eabi_attribute 26, 1
  10              		.eabi_attribute 30, 2
  11              		.eabi_attribute 34, 1
  12              		.eabi_attribute 18, 4
  13              		.file	"main.c"
  14              		.text
  15              	.Ltext0:
  16              		.cfi_sections	.debug_frame
  17              		.section	.text.startup.main,"ax",%progbits
  18              		.align	1
  19              		.p2align 4,,15
  20              		.global	main
  21              		.syntax unified
  22              		.thumb
  23              		.thumb_func
  24              		.fpu fpv4-sp-d16
  25              		.type	main, %function
  26              	main:
  27              	.LFB294:
  28              		.file 1 "main.c"
  29              		.loc 1 38 0
  30              		.cfi_startproc
  31              		@ Volatile: function does not return.
  32              		@ args = 0, pretend = 0, frame = 8
  33              		@ frame_needed = 0, uses_anonymous_args = 0
  34 0000 00B5     		push	{lr}
  35              		.cfi_def_cfa_offset 4
  36              		.cfi_offset 14, -4
  37 0002 0C4B     		ldr	r3, .L6
  38 0004 83B0     		sub	sp, sp, #12
  39              		.cfi_def_cfa_offset 16
  40              		.loc 1 38 0
  41 0006 1B68     		ldr	r3, [r3]
  42 0008 0193     		str	r3, [sp, #4]
  43              		.loc 1 39 0
  44 000a FFF7FEFF 		bl	halInit
  45              	.LVL0:
  46              		.loc 1 40 0
  47 000e FFF7FEFF 		bl	chSysInit
  48              	.LVL1:
  49              		.loc 1 41 0
  50 0012 FFF7FEFF 		bl	mpu_init
  51              	.LVL2:
  52              	.LBB4:
  53              	.LBB5:
  54              		.loc 1 34 0
  55 0016 0849     		ldr	r1, .L6+4
  56 0018 0848     		ldr	r0, .L6+8
  57 001a FFF7FEFF 		bl	sdStart
ARM GAS  C:\Users\osour\AppData\Local\Temp\cc4wVWcH.s 			page 2


  58              	.LVL3:
  59              	.LBE5:
  60              	.LBE4:
  61              		.loc 1 43 0
  62 001e FFF7FEFF 		bl	usb_start
  63              	.LVL4:
  64              		.loc 1 44 0
  65 0022 FFF7FEFF 		bl	dcmi_start
  66              	.LVL5:
  67              		.loc 1 45 0
  68 0026 FFF7FEFF 		bl	po8030_start
  69              	.LVL6:
  70              		.loc 1 46 0
  71 002a FFF7FEFF 		bl	dac_start
  72              	.LVL7:
  73              		.loc 1 53 0
  74 002e FFF7FEFF 		bl	init_pathing
  75              	.LVL8:
  76              	.L2:
  77 0032 FEE7     		b	.L2
  78              	.L7:
  79              		.align	2
  80              	.L6:
  81 0034 00000000 		.word	__stack_chk_guard
  82 0038 00000000 		.word	.LANCHOR0
  83 003c 00000000 		.word	SD3
  84              		.cfi_endproc
  85              	.LFE294:
  86              		.size	main, .-main
  87              		.section	.text.__stack_chk_fail,"ax",%progbits
  88              		.align	1
  89              		.p2align 4,,15
  90              		.global	__stack_chk_fail
  91              		.syntax unified
  92              		.thumb
  93              		.thumb_func
  94              		.fpu fpv4-sp-d16
  95              		.type	__stack_chk_fail, %function
  96              	__stack_chk_fail:
  97              	.LFB295:
  98              		.loc 1 65 0
  99              		.cfi_startproc
 100              		@ args = 0, pretend = 0, frame = 8
 101              		@ frame_needed = 0, uses_anonymous_args = 0
 102 0000 00B5     		push	{lr}
 103              		.cfi_def_cfa_offset 4
 104              		.cfi_offset 14, -4
 105 0002 084B     		ldr	r3, .L13
 106 0004 83B0     		sub	sp, sp, #12
 107              		.cfi_def_cfa_offset 16
 108              		.loc 1 65 0
 109 0006 1A68     		ldr	r2, [r3]
 110 0008 0192     		str	r2, [sp, #4]
 111              		.loc 1 66 0
 112 000a 019A     		ldr	r2, [sp, #4]
 113 000c 1B68     		ldr	r3, [r3]
 114 000e 9A42     		cmp	r2, r3
ARM GAS  C:\Users\osour\AppData\Local\Temp\cc4wVWcH.s 			page 3


 115 0010 05D1     		bne	.L12
 116 0012 0548     		ldr	r0, .L13+4
 117              		.loc 1 67 0
 118 0014 03B0     		add	sp, sp, #12
 119              		.cfi_remember_state
 120              		.cfi_def_cfa_offset 4
 121              		@ sp needed
 122 0016 5DF804EB 		ldr	lr, [sp], #4
 123              		.cfi_restore 14
 124              		.cfi_def_cfa_offset 0
 125              		.loc 1 66 0
 126 001a FFF7FEBF 		b	chSysHalt
 127              	.LVL9:
 128              	.L12:
 129              		.cfi_restore_state
 130 001e FFF7FEFF 		bl	__stack_chk_fail
 131              	.LVL10:
 132              	.L14:
 133 0022 00BF     		.align	2
 134              	.L13:
 135 0024 00000000 		.word	__stack_chk_guard
 136 0028 00000000 		.word	.LC0
 137              		.cfi_endproc
 138              	.LFE295:
 139              		.size	__stack_chk_fail, .-__stack_chk_fail
 140              		.global	__stack_chk_guard
 141              		.section	.data.__stack_chk_guard,"aw",%progbits
 142              		.align	2
 143              		.type	__stack_chk_guard, %object
 144              		.size	__stack_chk_guard, 4
 145              	__stack_chk_guard:
 146 0000 96E3DEE2 		.word	-488709226
 147              		.section	.data.ser_cfg.15027,"aw",%progbits
 148              		.align	2
 149              		.set	.LANCHOR0,. + 0
 150              		.type	ser_cfg.15027, %object
 151              		.size	ser_cfg.15027, 12
 152              	ser_cfg.15027:
 153 0000 00C20100 		.word	115200
 154 0004 0000     		.short	0
 155 0006 0000     		.short	0
 156 0008 0000     		.short	0
 157 000a 0000     		.space	2
 158              		.section	.rodata.__stack_chk_fail.str1.4,"aMS",%progbits,1
 159              		.align	2
 160              	.LC0:
 161 0000 53746163 		.ascii	"Stack smashing detected\000"
 161      6B20736D 
 161      61736869 
 161      6E672064 
 161      65746563 
 162              		.text
 163              	.Letext0:
 164              		.file 2 "c:\\users\\osour\\desktop\\robotique\\eclipse_e-puck2\\tools\\gcc-arm-none-eabi-7-2017-q4
 165              		.file 3 "c:\\users\\osour\\desktop\\robotique\\eclipse_e-puck2\\tools\\gcc-arm-none-eabi-7-2017-q4
 166              		.file 4 "c:\\users\\osour\\desktop\\robotique\\eclipse_e-puck2\\tools\\gcc-arm-none-eabi-7-2017-q4
 167              		.file 5 "c:\\users\\osour\\desktop\\robotique\\eclipse_e-puck2\\tools\\gcc-arm-none-eabi-7-2017-q4
ARM GAS  C:\Users\osour\AppData\Local\Temp\cc4wVWcH.s 			page 4


 168              		.file 6 "c:\\users\\osour\\desktop\\robotique\\eclipse_e-puck2\\tools\\gcc-arm-none-eabi-7-2017-q4
 169              		.file 7 "c:\\users\\osour\\desktop\\robotique\\eclipse_e-puck2\\tools\\gcc-arm-none-eabi-7-2017-q4
 170              		.file 8 "c:\\users\\osour\\desktop\\robotique\\eclipse_e-puck2\\tools\\gcc-arm-none-eabi-7-2017-q4
 171              		.file 9 "../lib/e-puck2_main-processor/ChibiOS//os/rt/ports/ARMCMx/compilers/GCC/chtypes.h"
 172              		.file 10 "../lib/e-puck2_main-processor/ChibiOS//os/rt/include/chsystypes.h"
 173              		.file 11 "../lib/e-puck2_main-processor/ChibiOS//os/rt/include/chschd.h"
 174              		.file 12 "../lib/e-puck2_main-processor/ChibiOS//os/ext/CMSIS/include/core_cm4.h"
 175              		.file 13 "../lib/e-puck2_main-processor/ChibiOS//os/ext/CMSIS/ST/system_stm32f4xx.h"
 176              		.file 14 "../lib/e-puck2_main-processor/ChibiOS//os/ext/CMSIS/ST/stm32f407xx.h"
 177              		.file 15 "../lib/e-puck2_main-processor/ChibiOS//os/rt/ports/ARMCMx/chcore.h"
 178              		.file 16 "../lib/e-puck2_main-processor/ChibiOS//os/rt/ports/ARMCMx/chcore_v7m.h"
 179              		.file 17 "../lib/e-puck2_main-processor/ChibiOS//os/rt/include/chdebug.h"
 180              		.file 18 "../lib/e-puck2_main-processor/ChibiOS//os/rt/include/chtm.h"
 181              		.file 19 "../lib/e-puck2_main-processor/ChibiOS//os/rt/include/chstats.h"
 182              		.file 20 "../lib/e-puck2_main-processor/ChibiOS//os/rt/include/chsem.h"
 183              		.file 21 "../lib/e-puck2_main-processor/ChibiOS//os/rt/include/chmtx.h"
 184              		.file 22 "../lib/e-puck2_main-processor/ChibiOS//os/rt/include/chregistry.h"
 185              		.file 23 "../lib/e-puck2_main-processor/ChibiOS//os/rt/include/chevents.h"
 186              		.file 24 "../lib/e-puck2_main-processor/ChibiOS//os/rt/include/chqueues.h"
 187              		.file 25 "../lib/e-puck2_main-processor/ChibiOS//os/hal/ports/STM32/STM32F4xx/stm32_dma.h"
 188              		.file 26 "../lib/e-puck2_main-processor/ChibiOS//os/hal/include/hal_ioblock.h"
 189              		.file 27 "../lib/e-puck2_main-processor/ChibiOS//os/hal/ports/STM32/LLD/GPIOv2/pal_lld.h"
 190              		.file 28 "../lib/e-puck2_main-processor/ChibiOS//os/hal/include/adc.h"
 191              		.file 29 "../lib/e-puck2_main-processor/ChibiOS//os/hal/ports/STM32/STM32F4xx/adc_lld.h"
 192              		.file 30 "../lib/e-puck2_main-processor/ChibiOS//os/hal/include/can.h"
 193              		.file 31 "../lib/e-puck2_main-processor/ChibiOS//os/hal/ports/STM32/LLD/can_lld.h"
 194              		.file 32 "../lib/e-puck2_main-processor/ChibiOS//os/hal/include/dac.h"
 195              		.file 33 "../lib/e-puck2_main-processor/ChibiOS//os/hal/ports/STM32/LLD/DACv1/dac_lld.h"
 196              		.file 34 "../lib/e-puck2_main-processor/ChibiOS//os/hal/include/ext.h"
 197              		.file 35 "../lib/e-puck2_main-processor/ChibiOS//os/hal/ports/STM32/LLD/ext_lld.h"
 198              		.file 36 "../lib/e-puck2_main-processor/ChibiOS//os/hal/include/gpt.h"
 199              		.file 37 "../lib/e-puck2_main-processor/ChibiOS//os/hal/ports/STM32/LLD/TIMv1/gpt_lld.h"
 200              		.file 38 "../lib/e-puck2_main-processor/ChibiOS//os/hal/ports/STM32/LLD/TIMv1/stm32_tim.h"
 201              		.file 39 "../lib/e-puck2_main-processor/ChibiOS//os/hal/include/i2c.h"
 202              		.file 40 "../lib/e-puck2_main-processor/ChibiOS//os/hal/ports/STM32/LLD/I2Cv1/i2c_lld.h"
 203              		.file 41 "../lib/e-puck2_main-processor/ChibiOS//os/hal/include/i2s.h"
 204              		.file 42 "../lib/e-puck2_main-processor/ChibiOS//os/hal/ports/STM32/LLD/SPIv1/i2s_lld.h"
 205              		.file 43 "../lib/e-puck2_main-processor/ChibiOS//os/hal/include/pwm.h"
 206              		.file 44 "../lib/e-puck2_main-processor/ChibiOS//os/hal/ports/STM32/LLD/TIMv1/pwm_lld.h"
 207              		.file 45 "../lib/e-puck2_main-processor/ChibiOS//os/hal/include/serial.h"
 208              		.file 46 "../lib/e-puck2_main-processor/ChibiOS//os/hal/ports/STM32/LLD/USARTv1/serial_lld.h"
 209              		.file 47 "../lib/e-puck2_main-processor/ChibiOS//os/hal/include/sdc.h"
 210              		.file 48 "../lib/e-puck2_main-processor/ChibiOS//os/hal/ports/STM32/LLD/sdc_lld.h"
 211              		.file 49 "../lib/e-puck2_main-processor/ChibiOS//os/hal/include/spi.h"
 212              		.file 50 "../lib/e-puck2_main-processor/ChibiOS//os/hal/ports/STM32/LLD/SPIv1/spi_lld.h"
 213              		.file 51 "../lib/e-puck2_main-processor/ChibiOS//os/hal/include/usb.h"
 214              		.file 52 "../lib/e-puck2_main-processor/ChibiOS//os/hal/ports/STM32/LLD/OTGv1/usb_lld.h"
 215              		.file 53 "../lib/e-puck2_main-processor/ChibiOS//os/hal/ports/STM32/LLD/OTGv1/stm32_otg.h"
 216              		.file 54 "../lib/e-puck2_main-processor/ChibiOS//os/hal/include/serial_usb.h"
 217              		.file 55 "../lib/e-puck2_main-processor/src/usbcfg.h"
 218              		.file 56 "../lib/e-puck2_main-processor/ChibiOS_ext/os/hal/include/../ports/STM32/STM32F4xx/dcmi_l
 219              		.file 57 "c:\\users\\osour\\desktop\\robotique\\eclipse_e-puck2\\tools\\gcc-arm-none-eabi-7-2017-q
 220              		.file 58 "../lib/e-puck2_main-processor/src/msgbus/messagebus.h"
 221              		.file 59 "../lib/e-puck2_main-processor/src/parameter/parameter.h"
 222              		.file 60 "./main.h"
 223              		.file 61 "c:\\users\\osour\\desktop\\robotique\\eclipse_e-puck2\\tools\\gcc-arm-none-eabi-7-2017-q
 224              		.file 62 "./audio_processing.h"
ARM GAS  C:\Users\osour\AppData\Local\Temp\cc4wVWcH.s 			page 5


 225              		.file 63 "../lib/e-puck2_main-processor/ChibiOS//os/rt/include/chsys.h"
 226              		.file 64 "../lib/e-puck2_main-processor/ChibiOS//os/hal/include/hal.h"
 227              		.file 65 "../lib/e-puck2_main-processor/src/memory_protection.h"
 228              		.file 66 "../lib/e-puck2_main-processor/src/camera/dcmi_camera.h"
 229              		.file 67 "../lib/e-puck2_main-processor/src/camera/po8030.h"
 230              		.file 68 "../lib/e-puck2_main-processor/src/audio/audio_thread.h"
 231              		.file 69 "./pathing.h"