ARM GAS  C:\Users\osour\AppData\Local\Temp\ccE84h0V.s 			page 1


   1              		.cpu cortex-m4
   2              		.eabi_attribute 27, 1
   3              		.eabi_attribute 28, 1
   4              		.eabi_attribute 20, 1
   5              		.eabi_attribute 21, 1
   6              		.eabi_attribute 23, 3
   7              		.eabi_attribute 24, 1
   8              		.eabi_attribute 25, 1
   9              		.eabi_attribute 26, 1
  10              		.eabi_attribute 30, 2
  11              		.eabi_attribute 34, 1
  12              		.eabi_attribute 18, 4
  13              		.file	"mp45dt02_processing.c"
  14              		.text
  15              	.Ltext0:
  16              		.cfi_sections	.debug_frame
  17              		.section	.text.mp45dt02SPICb,"ax",%progbits
  18              		.align	1
  19              		.p2align 4,,15
  20              		.global	mp45dt02SPICb
  21              		.syntax unified
  22              		.thumb
  23              		.thumb_func
  24              		.fpu fpv4-sp-d16
  25              		.type	mp45dt02SPICb, %function
  26              	mp45dt02SPICb:
  27              	.LFB259:
  28              		.file 1 "../../lib/e-puck2_main-processor/src/audio/mp45dt02_processing.c"
  29              		.loc 1 343 0
  30              		.cfi_startproc
  31              		@ args = 0, pretend = 0, frame = 8
  32              		@ frame_needed = 0, uses_anonymous_args = 0
  33              	.LVL0:
  34 0000 70B5     		push	{r4, r5, r6, lr}
  35              		.cfi_def_cfa_offset 16
  36              		.cfi_offset 4, -16
  37              		.cfi_offset 5, -12
  38              		.cfi_offset 6, -8
  39              		.cfi_offset 14, -4
  40 0002 114C     		ldr	r4, .L6
  41 0004 82B0     		sub	sp, sp, #8
  42              		.cfi_def_cfa_offset 24
  43              		.loc 1 343 0
  44 0006 2368     		ldr	r3, [r4]
  45 0008 0193     		str	r3, [sp, #4]
  46              	.LVL1:
  47 000a 0E46     		mov	r6, r1
  48 000c 1546     		mov	r5, r2
  49              	.LBB62:
  50              	.LBB63:
  51              	.LBB64:
  52              	.LBB65:
  53              	.LBB66:
  54              	.LBB67:
  55              		.file 2 "../../lib/e-puck2_main-processor/ChibiOS//os/ext/CMSIS/include/core_cmFunc.h"
  56              		.loc 2 546 0
  57 000e 2023     		movs	r3, #32
ARM GAS  C:\Users\osour\AppData\Local\Temp\ccE84h0V.s 			page 2


  58              		.syntax unified
  59              	@ 546 "../../lib/e-puck2_main-processor/ChibiOS//os/ext/CMSIS/include/core_cmFunc.h" 1
  60 0010 83F31188 		MSR basepri, r3
  61              	@ 0 "" 2
  62              	.LVL2:
  63              		.thumb
  64              		.syntax unified
  65              	.LBE67:
  66              	.LBE66:
  67              	.LBE65:
  68              	.LBE64:
  69              		.file 3 "../../lib/e-puck2_main-processor/ChibiOS//os/rt/include/chsys.h"
  70              		.loc 3 389 0
  71 0014 FFF7FEFF 		bl	_stats_start_measure_crit_isr
  72              	.LVL3:
  73              		.loc 3 390 0
  74 0018 FFF7FEFF 		bl	_dbg_check_lock_from_isr
  75              	.LVL4:
  76              	.LBE63:
  77              	.LBE62:
  78              		.loc 1 347 0
  79 001c 0B4B     		ldr	r3, .L6+4
  80              		.loc 1 349 0
  81 001e 0C48     		ldr	r0, .L6+8
  82              		.loc 1 348 0
  83 0020 C3E90065 		strd	r6, r5, [r3]
  84              		.loc 1 349 0
  85 0024 FFF7FEFF 		bl	chSemSignalI
  86              	.LVL5:
  87              	.LBB68:
  88              	.LBB69:
  89              		.loc 3 408 0
  90 0028 FFF7FEFF 		bl	_dbg_check_unlock_from_isr
  91              	.LVL6:
  92              		.loc 3 409 0
  93 002c FFF7FEFF 		bl	_stats_stop_measure_crit_isr
  94              	.LVL7:
  95              	.LBB70:
  96              	.LBB71:
  97              	.LBB72:
  98              	.LBB73:
  99              		.loc 2 546 0
 100 0030 0023     		movs	r3, #0
 101              		.syntax unified
 102              	@ 546 "../../lib/e-puck2_main-processor/ChibiOS//os/ext/CMSIS/include/core_cmFunc.h" 1
 103 0032 83F31188 		MSR basepri, r3
 104              	@ 0 "" 2
 105              	.LVL8:
 106              		.thumb
 107              		.syntax unified
 108              	.LBE73:
 109              	.LBE72:
 110              	.LBE71:
 111              	.LBE70:
 112              	.LBE69:
 113              	.LBE68:
 114              		.loc 1 351 0
ARM GAS  C:\Users\osour\AppData\Local\Temp\ccE84h0V.s 			page 3


 115 0036 019A     		ldr	r2, [sp, #4]
 116 0038 2368     		ldr	r3, [r4]
 117 003a 9A42     		cmp	r2, r3
 118 003c 01D1     		bne	.L5
 119 003e 02B0     		add	sp, sp, #8
 120              		.cfi_remember_state
 121              		.cfi_def_cfa_offset 16
 122              		@ sp needed
 123 0040 70BD     		pop	{r4, r5, r6, pc}
 124              	.LVL9:
 125              	.L5:
 126              		.cfi_restore_state
 127 0042 FFF7FEFF 		bl	__stack_chk_fail
 128              	.LVL10:
 129              	.L7:
 130 0046 00BF     		.align	2
 131              	.L6:
 132 0048 00000000 		.word	__stack_chk_guard
 133 004c 00000000 		.word	.LANCHOR0
 134 0050 00000000 		.word	.LANCHOR1
 135              		.cfi_endproc
 136              	.LFE259:
 137              		.size	mp45dt02SPICb, .-mp45dt02SPICb
 138              		.section	.text.mp45dt02I2SCb,"ax",%progbits
 139              		.align	1
 140              		.p2align 4,,15
 141              		.syntax unified
 142              		.thumb
 143              		.thumb_func
 144              		.fpu fpv4-sp-d16
 145              		.type	mp45dt02I2SCb, %function
 146              	mp45dt02I2SCb:
 147              	.LFB258:
 148              		.loc 1 334 0
 149              		.cfi_startproc
 150              		@ args = 0, pretend = 0, frame = 8
 151              		@ frame_needed = 0, uses_anonymous_args = 0
 152              	.LVL11:
 153 0000 70B5     		push	{r4, r5, r6, lr}
 154              		.cfi_def_cfa_offset 16
 155              		.cfi_offset 4, -16
 156              		.cfi_offset 5, -12
 157              		.cfi_offset 6, -8
 158              		.cfi_offset 14, -4
 159 0002 114C     		ldr	r4, .L12
 160 0004 82B0     		sub	sp, sp, #8
 161              		.cfi_def_cfa_offset 24
 162              		.loc 1 334 0
 163 0006 2368     		ldr	r3, [r4]
 164 0008 0193     		str	r3, [sp, #4]
 165              	.LVL12:
 166 000a 0E46     		mov	r6, r1
 167 000c 1546     		mov	r5, r2
 168              	.LBB74:
 169              	.LBB75:
 170              	.LBB76:
 171              	.LBB77:
ARM GAS  C:\Users\osour\AppData\Local\Temp\ccE84h0V.s 			page 4


 172              	.LBB78:
 173              	.LBB79:
 174              		.loc 2 546 0
 175 000e 2023     		movs	r3, #32
 176              		.syntax unified
 177              	@ 546 "../../lib/e-puck2_main-processor/ChibiOS//os/ext/CMSIS/include/core_cmFunc.h" 1
 178 0010 83F31188 		MSR basepri, r3
 179              	@ 0 "" 2
 180              	.LVL13:
 181              		.thumb
 182              		.syntax unified
 183              	.LBE79:
 184              	.LBE78:
 185              	.LBE77:
 186              	.LBE76:
 187              		.loc 3 389 0
 188 0014 FFF7FEFF 		bl	_stats_start_measure_crit_isr
 189              	.LVL14:
 190              		.loc 3 390 0
 191 0018 FFF7FEFF 		bl	_dbg_check_lock_from_isr
 192              	.LVL15:
 193              	.LBE75:
 194              	.LBE74:
 195              		.loc 1 337 0
 196 001c 0B4B     		ldr	r3, .L12+4
 197              		.loc 1 339 0
 198 001e 0C48     		ldr	r0, .L12+8
 199              		.loc 1 338 0
 200 0020 C3E90065 		strd	r6, r5, [r3]
 201              		.loc 1 339 0
 202 0024 FFF7FEFF 		bl	chSemSignalI
 203              	.LVL16:
 204              	.LBB80:
 205              	.LBB81:
 206              		.loc 3 408 0
 207 0028 FFF7FEFF 		bl	_dbg_check_unlock_from_isr
 208              	.LVL17:
 209              		.loc 3 409 0
 210 002c FFF7FEFF 		bl	_stats_stop_measure_crit_isr
 211              	.LVL18:
 212              	.LBB82:
 213              	.LBB83:
 214              	.LBB84:
 215              	.LBB85:
 216              		.loc 2 546 0
 217 0030 0023     		movs	r3, #0
 218              		.syntax unified
 219              	@ 546 "../../lib/e-puck2_main-processor/ChibiOS//os/ext/CMSIS/include/core_cmFunc.h" 1
 220 0032 83F31188 		MSR basepri, r3
 221              	@ 0 "" 2
 222              	.LVL19:
 223              		.thumb
 224              		.syntax unified
 225              	.LBE85:
 226              	.LBE84:
 227              	.LBE83:
 228              	.LBE82:
ARM GAS  C:\Users\osour\AppData\Local\Temp\ccE84h0V.s 			page 5


 229              	.LBE81:
 230              	.LBE80:
 231              		.loc 1 341 0
 232 0036 019A     		ldr	r2, [sp, #4]
 233 0038 2368     		ldr	r3, [r4]
 234 003a 9A42     		cmp	r2, r3
 235 003c 01D1     		bne	.L11
 236 003e 02B0     		add	sp, sp, #8
 237              		.cfi_remember_state
 238              		.cfi_def_cfa_offset 16
 239              		@ sp needed
 240 0040 70BD     		pop	{r4, r5, r6, pc}
 241              	.LVL20:
 242              	.L11:
 243              		.cfi_restore_state
 244 0042 FFF7FEFF 		bl	__stack_chk_fail
 245              	.LVL21:
 246              	.L13:
 247 0046 00BF     		.align	2
 248              	.L12:
 249 0048 00000000 		.word	__stack_chk_guard
 250 004c 00000000 		.word	.LANCHOR2
 251 0050 00000000 		.word	.LANCHOR1
 252              		.cfi_endproc
 253              	.LFE258:
 254              		.size	mp45dt02I2SCb, .-mp45dt02I2SCb
 255              		.section	.text.DataProcessing,"ax",%progbits
 256              		.align	1
 257              		.p2align 4,,15
 258              		.syntax unified
 259              		.thumb
 260              		.thumb_func
 261              		.fpu fpv4-sp-d16
 262              		.type	DataProcessing, %function
 263              	DataProcessing:
 264              	.LFB257:
 265              		.loc 1 216 0
 266              		.cfi_startproc
 267              		@ args = 0, pretend = 0, frame = 16
 268              		@ frame_needed = 0, uses_anonymous_args = 0
 269              	.LVL22:
 270 0000 2DE9F04F 		push	{r4, r5, r6, r7, r8, r9, r10, fp, lr}
 271              		.cfi_def_cfa_offset 36
 272              		.cfi_offset 4, -36
 273              		.cfi_offset 5, -32
 274              		.cfi_offset 6, -28
 275              		.cfi_offset 7, -24
 276              		.cfi_offset 8, -20
 277              		.cfi_offset 9, -16
 278              		.cfi_offset 10, -12
 279              		.cfi_offset 11, -8
 280              		.cfi_offset 14, -4
 281              	.LBB86:
 282              	.LBB87:
 283              		.file 4 "../../lib/e-puck2_main-processor/ChibiOS//os/rt/include/chregistry.h"
 284              		.loc 4 135 0
 285 0004 624B     		ldr	r3, .L33
ARM GAS  C:\Users\osour\AppData\Local\Temp\ccE84h0V.s 			page 6


 286 0006 6349     		ldr	r1, .L33+4
 287 0008 9A69     		ldr	r2, [r3, #24]
 288              	.LBE87:
 289              	.LBE86:
 290              		.loc 1 216 0
 291 000a 634B     		ldr	r3, .L33+8
 292              	.LBB89:
 293              	.LBB88:
 294              		.loc 4 135 0
 295 000c 9161     		str	r1, [r2, #24]
 296              	.LBE88:
 297              	.LBE89:
 298              		.loc 1 216 0
 299 000e 85B0     		sub	sp, sp, #20
 300              		.cfi_def_cfa_offset 56
 301              		.loc 1 216 0
 302 0010 1B68     		ldr	r3, [r3]
 303 0012 0393     		str	r3, [sp, #12]
 304              	.LVL23:
 305              	.L15:
 306              	.LBB90:
 307              	.LBB91:
 308              		.file 5 "../../lib/e-puck2_main-processor/ChibiOS//os/rt/include/chthreads.h"
 309              		.loc 5 233 0
 310 0014 5E4B     		ldr	r3, .L33
 311 0016 9B69     		ldr	r3, [r3, #24]
 312              	.LBE91:
 313              	.LBE90:
 314              		.loc 1 226 0
 315 0018 93F82130 		ldrb	r3, [r3, #33]	@ zero_extendqisi2
 316 001c 5B07     		lsls	r3, r3, #29
 317 001e 00F1AD80 		bmi	.L14
 318              		.loc 1 229 0
 319 0022 5E48     		ldr	r0, .L33+12
 320 0024 FFF7FEFF 		bl	chSemWait
 321              	.LVL24:
 322              		.loc 1 230 0
 323 0028 5C48     		ldr	r0, .L33+12
 324 002a FFF7FEFF 		bl	chSemWait
 325              	.LVL25:
 326              	.LBB92:
 327              	.LBB93:
 328              		.loc 5 233 0
 329 002e 584B     		ldr	r3, .L33
 330 0030 9B69     		ldr	r3, [r3, #24]
 331              	.LBE93:
 332              	.LBE92:
 333              		.loc 1 232 0
 334 0032 93F82120 		ldrb	r2, [r3, #33]	@ zero_extendqisi2
 335 0036 12F00402 		ands	r2, r2, #4
 336 003a 40F09F80 		bne	.L14
 337              		.loc 1 240 0
 338 003e 584D     		ldr	r5, .L33+16
 339              		.loc 1 239 0
 340 0040 5848     		ldr	r0, .L33+20
 341              		.loc 1 240 0
 342 0042 2B68     		ldr	r3, [r5]
ARM GAS  C:\Users\osour\AppData\Local\Temp\ccE84h0V.s 			page 7


 343              		.loc 1 239 0
 344 0044 0168     		ldr	r1, [r0]
 345              		.loc 1 247 0
 346 0046 0446     		mov	r4, r0
 347 0048 4068     		ldr	r0, [r0, #4]
 348              		.loc 1 240 0
 349 004a 05EB8303 		add	r3, r5, r3, lsl #2
 350              		.loc 1 239 0
 351 004e 04EB8101 		add	r1, r4, r1, lsl #2
 352              		.loc 1 240 0
 353 0052 03F50279 		add	r9, r3, #520
 354              		.loc 1 247 0
 355 0056 4300     		lsls	r3, r0, #1
 356              		.loc 1 239 0
 357 0058 01F10808 		add	r8, r1, #8
 358              	.LVL26:
 359              		.loc 1 247 0
 360 005c 0193     		str	r3, [sp, #4]
 361 005e 43D0     		beq	.L17
 362 0060 DFF850B1 		ldr	fp, .L33+36
 363 0064 504B     		ldr	r3, .L33+24
 364 0066 DFF85CA1 		ldr	r10, .L33+52
 365 006a 0120     		movs	r0, #1
 366              	.LVL27:
 367              	.L18:
 368              		.loc 1 248 0 discriminator 3
 369 006c 18F81250 		ldrb	r5, [r8, r2, lsl #1]	@ zero_extendqisi2
 370              	.LVL28:
 371              		.loc 1 249 0 discriminator 3
 372 0070 18F80060 		ldrb	r6, [r8, r0]	@ zero_extendqisi2
 373              	.LVL29:
 374              		.loc 1 253 0 discriminator 3
 375 0074 19F81210 		ldrb	r1, [r9, r2, lsl #1]	@ zero_extendqisi2
 376              	.LVL30:
 377              		.loc 1 254 0 discriminator 3
 378 0078 19F80040 		ldrb	r4, [r9, r0]	@ zero_extendqisi2
 379              	.LVL31:
 380              		.loc 1 250 0 discriminator 3
 381 007c 05F0550C 		and	ip, r5, #85
 382              		.loc 1 251 0 discriminator 3
 383 0080 7708     		lsrs	r7, r6, #1
 384              		.loc 1 250 0 discriminator 3
 385 0082 06F05506 		and	r6, r6, #85
 386 0086 13F80CC0 		ldrb	ip, [r3, ip]	@ zero_extendqisi2
 387 008a 9E5D     		ldrb	r6, [r3, r6]	@ zero_extendqisi2
 388              		.loc 1 255 0 discriminator 3
 389 008c 01F0550E 		and	lr, r1, #85
 390              		.loc 1 250 0 discriminator 3
 391 0090 4CEA0616 		orr	r6, ip, r6, lsl #4
 392              		.loc 1 256 0 discriminator 3
 393 0094 4908     		lsrs	r1, r1, #1
 394              	.LVL32:
 395 0096 4FEA540C 		lsr	ip, r4, #1
 396 009a 01F05501 		and	r1, r1, #85
 397              		.loc 1 255 0 discriminator 3
 398 009e 04F05504 		and	r4, r4, #85
 399              	.LVL33:
ARM GAS  C:\Users\osour\AppData\Local\Temp\ccE84h0V.s 			page 8


 400              		.loc 1 256 0 discriminator 3
 401 00a2 0CF0550C 		and	ip, ip, #85
 402              		.loc 1 251 0 discriminator 3
 403 00a6 6D08     		lsrs	r5, r5, #1
 404              		.loc 1 255 0 discriminator 3
 405 00a8 13F80EE0 		ldrb	lr, [r3, lr]	@ zero_extendqisi2
 406              		.loc 1 256 0 discriminator 3
 407 00ac 595C     		ldrb	r1, [r3, r1]	@ zero_extendqisi2
 408              		.loc 1 255 0 discriminator 3
 409 00ae 1C5D     		ldrb	r4, [r3, r4]	@ zero_extendqisi2
 410              		.loc 1 256 0 discriminator 3
 411 00b0 13F80CC0 		ldrb	ip, [r3, ip]	@ zero_extendqisi2
 412              		.loc 1 250 0 discriminator 3
 413 00b4 0BF81260 		strb	r6, [fp, r2, lsl #1]
 414              		.loc 1 251 0 discriminator 3
 415 00b8 05F05505 		and	r5, r5, #85
 416 00bc 07F05507 		and	r7, r7, #85
 417              		.loc 1 256 0 discriminator 3
 418 00c0 41EA0C11 		orr	r1, r1, ip, lsl #4
 419              		.loc 1 255 0 discriminator 3
 420 00c4 4EEA041E 		orr	lr, lr, r4, lsl #4
 421 00c8 0AF812E0 		strb	lr, [r10, r2, lsl #1]
 422              		.loc 1 251 0 discriminator 3
 423 00cc 5D5D     		ldrb	r5, [r3, r5]	@ zero_extendqisi2
 424              		.loc 1 256 0 discriminator 3
 425 00ce 0AF80010 		strb	r1, [r10, r0]
 426              		.loc 1 251 0 discriminator 3
 427 00d2 DF5D     		ldrb	r7, [r3, r7]	@ zero_extendqisi2
 428              		.loc 1 247 0 discriminator 3
 429 00d4 0199     		ldr	r1, [sp, #4]
 430 00d6 0132     		adds	r2, r2, #1
 431              	.LVL34:
 432              		.loc 1 251 0 discriminator 3
 433 00d8 45EA0715 		orr	r5, r5, r7, lsl #4
 434              		.loc 1 247 0 discriminator 3
 435 00dc 9142     		cmp	r1, r2
 436              		.loc 1 251 0 discriminator 3
 437 00de 0BF80050 		strb	r5, [fp, r0]
 438 00e2 00F10200 		add	r0, r0, #2
 439              	.LVL35:
 440              		.loc 1 247 0 discriminator 3
 441 00e6 C1D1     		bne	.L18
 442              	.LVL36:
 443              	.L17:
 444              		.loc 1 302 0
 445 00e8 304B     		ldr	r3, .L33+28
 446 00ea 3149     		ldr	r1, .L33+32
 447 00ec 3148     		ldr	r0, .L33+36
 448              		.loc 1 309 0
 449 00ee 324D     		ldr	r5, .L33+40
 450              		.loc 1 302 0
 451 00f0 0422     		movs	r2, #4
 452 00f2 FFF7FEFF 		bl	PDM_Filter_64_LSB
 453              	.LVL37:
 454              		.loc 1 304 0
 455 00f6 314B     		ldr	r3, .L33+44
 456 00f8 3149     		ldr	r1, .L33+48
ARM GAS  C:\Users\osour\AppData\Local\Temp\ccE84h0V.s 			page 9


 457 00fa 3248     		ldr	r0, .L33+52
 458 00fc 0422     		movs	r2, #4
 459 00fe FFF7FEFF 		bl	PDM_Filter_64_LSB
 460              	.LVL38:
 461              		.loc 1 302 0
 462 0102 314B     		ldr	r3, .L33+56
 463 0104 3149     		ldr	r1, .L33+60
 464 0106 3248     		ldr	r0, .L33+64
 465 0108 0422     		movs	r2, #4
 466 010a FFF7FEFF 		bl	PDM_Filter_64_LSB
 467              	.LVL39:
 468              		.loc 1 304 0
 469 010e 314B     		ldr	r3, .L33+68
 470 0110 3149     		ldr	r1, .L33+72
 471 0112 3248     		ldr	r0, .L33+76
 472 0114 0422     		movs	r2, #4
 473 0116 FFF7FEFF 		bl	PDM_Filter_64_LSB
 474              	.LVL40:
 475              		.loc 1 309 0
 476 011a DFF8D4C0 		ldr	ip, .L33+96
 477 011e 2868     		ldr	r0, [r5]
 478 0120 9CF80070 		ldrb	r7, [ip]	@ zero_extendqisi2
 479 0124 224A     		ldr	r2, .L33+32
 480 0126 2649     		ldr	r1, .L33+48
 481 0128 00EBC713 		add	r3, r0, r7, lsl #7
 482 012c 02F14006 		add	r6, r2, #64
 483              	.LVL41:
 484              	.L19:
 485              		.loc 1 309 0 is_stmt 0 discriminator 3
 486 0130 1488     		ldrh	r4, [r2]
 487 0132 1C80     		strh	r4, [r3]	@ movhi
 488              		.loc 1 310 0 is_stmt 1 discriminator 3
 489 0134 5488     		ldrh	r4, [r2, #2]
 490 0136 5C80     		strh	r4, [r3, #2]	@ movhi
 491              		.loc 1 311 0 discriminator 3
 492 0138 4C88     		ldrh	r4, [r1, #2]
 493 013a 9C80     		strh	r4, [r3, #4]	@ movhi
 494 013c 0432     		adds	r2, r2, #4
 495              		.loc 1 312 0 discriminator 3
 496 013e 31F8044B 		ldrh	r4, [r1], #4
 497 0142 DC80     		strh	r4, [r3, #6]	@ movhi
 498              		.loc 1 308 0 discriminator 3
 499 0144 9642     		cmp	r6, r2
 500 0146 03F10803 		add	r3, r3, #8
 501 014a F1D1     		bne	.L19
 502              		.loc 1 315 0
 503 014c 092F     		cmp	r7, #9
 504 014e 11D1     		bne	.L20
 505              		.loc 1 318 0
 506 0150 234B     		ldr	r3, .L33+80
 507              		.loc 1 316 0
 508 0152 0022     		movs	r2, #0
 509              		.loc 1 318 0
 510 0154 1B68     		ldr	r3, [r3]
 511              		.loc 1 316 0
 512 0156 8CF80020 		strb	r2, [ip]
 513              		.loc 1 318 0
ARM GAS  C:\Users\osour\AppData\Local\Temp\ccE84h0V.s 			page 10


 514 015a 4FF42071 		mov	r1, #640
 515 015e 9847     		blx	r3
 516              	.LVL42:
 517              		.loc 1 320 0
 518 0160 2B68     		ldr	r3, [r5]
 519              		.loc 1 321 0
 520 0162 204A     		ldr	r2, .L33+84
 521              		.loc 1 320 0
 522 0164 2049     		ldr	r1, .L33+88
 523              		.loc 1 321 0
 524 0166 9342     		cmp	r3, r2
 525              		.loc 1 320 0
 526 0168 0B60     		str	r3, [r1]
 527              		.loc 1 322 0
 528 016a 06BF     		itte	eq
 529 016c 1F4B     		ldreq	r3, .L33+92
 530 016e 2B60     		streq	r3, [r5]
 531              		.loc 1 324 0
 532 0170 2A60     		strne	r2, [r5]
 533 0172 4FE7     		b	.L15
 534              	.L20:
 535              		.loc 1 327 0
 536 0174 0137     		adds	r7, r7, #1
 537 0176 8CF80070 		strb	r7, [ip]
 538 017a 4BE7     		b	.L15
 539              	.LVL43:
 540              	.L14:
 541              		.loc 1 330 0
 542 017c 064B     		ldr	r3, .L33+8
 543 017e 039A     		ldr	r2, [sp, #12]
 544 0180 1B68     		ldr	r3, [r3]
 545 0182 9A42     		cmp	r2, r3
 546 0184 02D1     		bne	.L32
 547 0186 05B0     		add	sp, sp, #20
 548              		.cfi_remember_state
 549              		.cfi_def_cfa_offset 36
 550              		@ sp needed
 551 0188 BDE8F08F 		pop	{r4, r5, r6, r7, r8, r9, r10, fp, pc}
 552              	.L32:
 553              		.cfi_restore_state
 554 018c FFF7FEFF 		bl	__stack_chk_fail
 555              	.LVL44:
 556              	.L34:
 557              		.align	2
 558              	.L33:
 559 0190 00000000 		.word	ch
 560 0194 00000000 		.word	.LANCHOR3
 561 0198 00000000 		.word	__stack_chk_guard
 562 019c 00000000 		.word	.LANCHOR1
 563 01a0 00000000 		.word	.LANCHOR0
 564 01a4 00000000 		.word	.LANCHOR2
 565 01a8 00000000 		.word	.LANCHOR5
 566 01ac 00000000 		.word	.LANCHOR7
 567 01b0 00000000 		.word	.LANCHOR8
 568 01b4 00000000 		.word	.LANCHOR4
 569 01b8 00000000 		.word	.LANCHOR11
 570 01bc 00000000 		.word	.LANCHOR9
ARM GAS  C:\Users\osour\AppData\Local\Temp\ccE84h0V.s 			page 11


 571 01c0 00000000 		.word	.LANCHOR10
 572 01c4 00000000 		.word	.LANCHOR6
 573 01c8 34000000 		.word	.LANCHOR7+52
 574 01cc 02000000 		.word	.LANCHOR8+2
 575 01d0 01000000 		.word	.LANCHOR4+1
 576 01d4 34000000 		.word	.LANCHOR9+52
 577 01d8 02000000 		.word	.LANCHOR10+2
 578 01dc 01000000 		.word	.LANCHOR6+1
 579 01e0 00000000 		.word	.LANCHOR13
 580 01e4 00000000 		.word	.LANCHOR15
 581 01e8 00000000 		.word	.LANCHOR14
 582 01ec 00000000 		.word	.LANCHOR16
 583 01f0 00000000 		.word	.LANCHOR12
 584              		.cfi_endproc
 585              	.LFE257:
 586              		.size	DataProcessing, .-DataProcessing
 587              		.section	.text.mp45dt02Init,"ax",%progbits
 588              		.align	1
 589              		.p2align 4,,15
 590              		.global	mp45dt02Init
 591              		.syntax unified
 592              		.thumb
 593              		.thumb_func
 594              		.fpu fpv4-sp-d16
 595              		.type	mp45dt02Init, %function
 596              	mp45dt02Init:
 597              	.LFB261:
 598              		.loc 1 373 0
 599              		.cfi_startproc
 600              		@ args = 0, pretend = 0, frame = 8
 601              		@ frame_needed = 0, uses_anonymous_args = 0
 602              	.LVL45:
 603 0000 2DE9F04F 		push	{r4, r5, r6, r7, r8, r9, r10, fp, lr}
 604              		.cfi_def_cfa_offset 36
 605              		.cfi_offset 4, -36
 606              		.cfi_offset 5, -32
 607              		.cfi_offset 6, -28
 608              		.cfi_offset 7, -24
 609              		.cfi_offset 8, -20
 610              		.cfi_offset 9, -16
 611              		.cfi_offset 10, -12
 612              		.cfi_offset 11, -8
 613              		.cfi_offset 14, -4
 614              		.loc 1 375 0
 615 0004 494A     		ldr	r2, .L40
 616 0006 0168     		ldr	r1, [r0]
 617              		.loc 1 373 0
 618 0008 494B     		ldr	r3, .L40+4
 619              		.loc 1 375 0
 620 000a 1160     		str	r1, [r2]
 621              		.loc 1 373 0
 622 000c 85B0     		sub	sp, sp, #20
 623              		.cfi_def_cfa_offset 56
 624              		.loc 1 377 0
 625 000e 0021     		movs	r1, #0
 626              		.loc 1 379 0
 627 0010 0E46     		mov	r6, r1
ARM GAS  C:\Users\osour\AppData\Local\Temp\ccE84h0V.s 			page 12


 628              		.loc 1 373 0
 629 0012 1B68     		ldr	r3, [r3]
 630              		.loc 1 377 0
 631 0014 4748     		ldr	r0, .L40+8
 632              	.LVL46:
 633              		.loc 1 373 0
 634 0016 0393     		str	r3, [sp, #12]
 635              		.loc 1 377 0
 636 0018 FFF7FEFF 		bl	chSemObjectInit
 637              	.LVL47:
 638              		.loc 1 379 0
 639 001c 4FF4AF61 		mov	r1, #1400
 640 0020 454B     		ldr	r3, .L40+12
 641 0022 0096     		str	r6, [sp]
 642 0024 4122     		movs	r2, #65
 643 0026 4548     		ldr	r0, .L40+16
 644              	.LBB96:
 645              	.LBB97:
 646              		.loc 1 161 0
 647 0028 454D     		ldr	r5, .L40+20
 648              		.loc 1 159 0
 649 002a DFF84891 		ldr	r9, .L40+72
 650              		.loc 1 168 0
 651 002e 454C     		ldr	r4, .L40+24
 652              		.loc 1 159 0
 653 0030 DFF844A1 		ldr	r10, .L40+76
 654              	.LBE97:
 655              	.LBE96:
 656              		.loc 1 391 0
 657 0034 444F     		ldr	r7, .L40+28
 658              		.loc 1 379 0
 659 0036 FFF7FEFF 		bl	chThdCreateStatic
 660              	.LVL48:
 661 003a 444B     		ldr	r3, .L40+32
 662              	.LBB101:
 663              	.LBB98:
 664              		.loc 1 155 0
 665 003c 444A     		ldr	r2, .L40+36
 666              	.LBE98:
 667              	.LBE101:
 668              		.loc 1 379 0
 669 003e 1860     		str	r0, [r3]
 670              	.LVL49:
 671              	.LBB102:
 672              	.LBB99:
 673              		.loc 1 155 0
 674 0040 136B     		ldr	r3, [r2, #48]
 675              		.loc 1 159 0
 676 0042 C5F804A0 		str	r10, [r5, #4]
 677              		.loc 1 155 0
 678 0046 43F48053 		orr	r3, r3, #4096
 679              		.loc 1 160 0
 680 004a 4FF00218 		mov	r8, #131074
 681              		.loc 1 161 0
 682 004e 4FF47A5B 		mov	fp, #16000
 683              		.loc 1 155 0
 684 0052 1363     		str	r3, [r2, #48]
ARM GAS  C:\Users\osour\AppData\Local\Temp\ccE84h0V.s 			page 13


 685              		.loc 1 164 0
 686 0054 2846     		mov	r0, r5
 687              		.loc 1 160 0
 688 0056 C5E90298 		strd	r9, r8, [r5, #8]
 689              		.loc 1 161 0
 690 005a A5F800B0 		strh	fp, [r5]	@ movhi
 691              		.loc 1 164 0
 692 005e FFF7FEFF 		bl	PDM_Filter_Init
 693              	.LVL50:
 694              		.loc 1 171 0
 695 0062 2046     		mov	r0, r4
 696              		.loc 1 166 0
 697 0064 C4E901A9 		strd	r10, r9, [r4, #4]
 698              		.loc 1 167 0
 699 0068 C4F80C80 		str	r8, [r4, #12]
 700              		.loc 1 168 0
 701 006c A4F800B0 		strh	fp, [r4]	@ movhi
 702              		.loc 1 171 0
 703 0070 FFF7FEFF 		bl	PDM_Filter_Init
 704              	.LVL51:
 705              		.loc 1 164 0
 706 0074 05F13400 		add	r0, r5, #52
 707              		.loc 1 159 0
 708 0078 C5E90EA9 		strd	r10, r9, [r5, #56]
 709              		.loc 1 160 0
 710 007c C5F84080 		str	r8, [r5, #64]
 711              		.loc 1 161 0
 712 0080 A5F834B0 		strh	fp, [r5, #52]	@ movhi
 713              		.loc 1 164 0
 714 0084 FFF7FEFF 		bl	PDM_Filter_Init
 715              	.LVL52:
 716              	.LBE99:
 717              	.LBE102:
 718              		.loc 1 394 0
 719 0088 324D     		ldr	r5, .L40+40
 720              	.LBB103:
 721              	.LBB100:
 722              		.loc 1 167 0
 723 008a C4F84080 		str	r8, [r4, #64]
 724              		.loc 1 171 0
 725 008e 04F13400 		add	r0, r4, #52
 726              		.loc 1 166 0
 727 0092 C4E90EA9 		strd	r10, r9, [r4, #56]
 728              		.loc 1 168 0
 729 0096 A4F834B0 		strh	fp, [r4, #52]	@ movhi
 730              		.loc 1 171 0
 731 009a FFF7FEFF 		bl	PDM_Filter_Init
 732              	.LVL53:
 733              	.LBE100:
 734              	.LBE103:
 735              		.loc 1 391 0
 736 009e 3146     		mov	r1, r6
 737 00a0 40F20C42 		movw	r2, #1036
 738 00a4 3846     		mov	r0, r7
 739 00a6 FFF7FEFF 		bl	memset
 740              	.LVL54:
 741              		.loc 1 392 0
ARM GAS  C:\Users\osour\AppData\Local\Temp\ccE84h0V.s 			page 14


 742 00aa DFF8D090 		ldr	r9, .L40+80
 743              		.loc 1 395 0
 744 00ae 2A4A     		ldr	r2, .L40+44
 745              		.loc 1 394 0
 746 00b0 6E60     		str	r6, [r5, #4]
 747              		.loc 1 399 0
 748 00b2 4FF40063 		mov	r3, #2048
 749              		.loc 1 398 0
 750 00b6 4FF08008 		mov	r8, #128
 751              		.loc 1 394 0
 752 00ba 2E81     		strh	r6, [r5, #8]	@ movhi
 753              		.loc 1 395 0
 754 00bc 2A60     		str	r2, [r5]
 755              		.loc 1 399 0
 756 00be 6B81     		strh	r3, [r5, #10]	@ movhi
 757              		.loc 1 408 0
 758 00c0 264C     		ldr	r4, .L40+48
 759              		.loc 1 398 0
 760 00c2 C5F80C80 		str	r8, [r5, #12]
 761              		.loc 1 392 0
 762 00c6 C7F80894 		str	r9, [r7, #1032]
 763              		.loc 1 401 0
 764 00ca FFF7FEFF 		bl	spi3SlaveInit
 765              	.LVL55:
 766              		.loc 1 402 0
 767 00ce 2946     		mov	r1, r5
 768 00d0 2348     		ldr	r0, .L40+52
 769              		.loc 1 415 0
 770 00d2 244D     		ldr	r5, .L40+56
 771              		.loc 1 402 0
 772 00d4 FFF7FEFF 		bl	spi3SlaveStart
 773              	.LVL56:
 774              		.loc 1 403 0
 775 00d8 07F50273 		add	r3, r7, #520
 776 00dc 07F10802 		add	r2, r7, #8
 777 00e0 4FF48071 		mov	r1, #256
 778 00e4 1E48     		ldr	r0, .L40+52
 779 00e6 FFF7FEFF 		bl	spi3SlaveStartExchange
 780              	.LVL57:
 781              		.loc 1 408 0
 782 00ea 3146     		mov	r1, r6
 783 00ec 2046     		mov	r0, r4
 784 00ee 4FF40372 		mov	r2, #524
 785 00f2 FFF7FEFF 		bl	memset
 786              	.LVL58:
 787              		.loc 1 411 0
 788 00f6 1C4B     		ldr	r3, .L40+60
 789              		.loc 1 417 0
 790 00f8 1C4A     		ldr	r2, .L40+64
 791              		.loc 1 409 0
 792 00fa C4F80892 		str	r9, [r4, #520]
 793              		.loc 1 413 0
 794 00fe 0834     		adds	r4, r4, #8
 795              		.loc 1 417 0
 796 0100 1A61     		str	r2, [r3, #16]
 797              		.loc 1 425 0
 798 0102 1946     		mov	r1, r3
ARM GAS  C:\Users\osour\AppData\Local\Temp\ccE84h0V.s 			page 15


 799              		.loc 1 411 0
 800 0104 C3E90064 		strd	r6, r4, [r3]
 801              		.loc 1 425 0
 802 0108 1948     		ldr	r0, .L40+68
 803              		.loc 1 415 0
 804 010a C3E90285 		strd	r8, r5, [r3, #8]
 805              		.loc 1 425 0
 806 010e FFF7FEFF 		bl	i2sStart
 807              	.LVL59:
 808              		.loc 1 426 0
 809 0112 074B     		ldr	r3, .L40+4
 810 0114 039A     		ldr	r2, [sp, #12]
 811 0116 1B68     		ldr	r3, [r3]
 812 0118 9A42     		cmp	r2, r3
 813 011a 05D1     		bne	.L39
 814 011c 1448     		ldr	r0, .L40+68
 815              		.loc 1 427 0
 816 011e 05B0     		add	sp, sp, #20
 817              		.cfi_remember_state
 818              		.cfi_def_cfa_offset 36
 819              		@ sp needed
 820 0120 BDE8F04F 		pop	{r4, r5, r6, r7, r8, r9, r10, fp, lr}
 821              		.cfi_restore 14
 822              		.cfi_restore 11
 823              		.cfi_restore 10
 824              		.cfi_restore 9
 825              		.cfi_restore 8
 826              		.cfi_restore 7
 827              		.cfi_restore 6
 828              		.cfi_restore 5
 829              		.cfi_restore 4
 830              		.cfi_def_cfa_offset 0
 831              		.loc 1 426 0
 832 0124 FFF7FEBF 		b	i2sStartExchange
 833              	.LVL60:
 834              	.L39:
 835              		.cfi_restore_state
 836 0128 FFF7FEFF 		bl	__stack_chk_fail
 837              	.LVL61:
 838              	.L41:
 839              		.align	2
 840              	.L40:
 841 012c 00000000 		.word	.LANCHOR13
 842 0130 00000000 		.word	__stack_chk_guard
 843 0134 00000000 		.word	.LANCHOR1
 844 0138 00000000 		.word	DataProcessing
 845 013c 00000000 		.word	.LANCHOR17
 846 0140 00000000 		.word	.LANCHOR7
 847 0144 00000000 		.word	.LANCHOR9
 848 0148 00000000 		.word	.LANCHOR0
 849 014c 00000000 		.word	.LANCHOR18
 850 0150 00380240 		.word	1073887232
 851 0154 00000000 		.word	.LANCHOR19
 852 0158 00000000 		.word	mp45dt02SPICb
 853 015c 00000000 		.word	.LANCHOR2
 854 0160 00000000 		.word	SPISLAVED3
 855 0164 00000000 		.word	mp45dt02I2SCb
ARM GAS  C:\Users\osour\AppData\Local\Temp\ccE84h0V.s 			page 16


 856 0168 00000000 		.word	.LANCHOR20
 857 016c 2C030800 		.word	525100
 858 0170 00000000 		.word	I2SD2
 859 0174 00002041 		.word	1092616192
 860 0178 0000FA45 		.word	1174011904
 861 017c EFBEADDE 		.word	-559038737
 862              		.cfi_endproc
 863              	.LFE261:
 864              		.size	mp45dt02Init, .-mp45dt02Init
 865              		.section	.text.mp45dt02Shutdown,"ax",%progbits
 866              		.align	1
 867              		.p2align 4,,15
 868              		.global	mp45dt02Shutdown
 869              		.syntax unified
 870              		.thumb
 871              		.thumb_func
 872              		.fpu fpv4-sp-d16
 873              		.type	mp45dt02Shutdown, %function
 874              	mp45dt02Shutdown:
 875              	.LFB262:
 876              		.loc 1 430 0
 877              		.cfi_startproc
 878              		@ args = 0, pretend = 0, frame = 8
 879              		@ frame_needed = 0, uses_anonymous_args = 0
 880 0000 30B5     		push	{r4, r5, lr}
 881              		.cfi_def_cfa_offset 12
 882              		.cfi_offset 4, -12
 883              		.cfi_offset 5, -8
 884              		.cfi_offset 14, -4
 885 0002 124D     		ldr	r5, .L46
 886              		.loc 1 431 0
 887 0004 1248     		ldr	r0, .L46+4
 888              		.loc 1 430 0
 889 0006 2B68     		ldr	r3, [r5]
 890              		.loc 1 437 0
 891 0008 124C     		ldr	r4, .L46+8
 892              		.loc 1 430 0
 893 000a 83B0     		sub	sp, sp, #12
 894              		.cfi_def_cfa_offset 24
 895              		.loc 1 430 0
 896 000c 0193     		str	r3, [sp, #4]
 897              		.loc 1 431 0
 898 000e FFF7FEFF 		bl	i2sStopExchange
 899              	.LVL62:
 900              		.loc 1 432 0
 901 0012 0F48     		ldr	r0, .L46+4
 902 0014 FFF7FEFF 		bl	i2sStop
 903              	.LVL63:
 904              		.loc 1 434 0
 905 0018 0F48     		ldr	r0, .L46+12
 906 001a FFF7FEFF 		bl	spi3SlaveStopExchange
 907              	.LVL64:
 908              		.loc 1 435 0
 909 001e 0E48     		ldr	r0, .L46+12
 910 0020 FFF7FEFF 		bl	spi3SlaveStop
 911              	.LVL65:
 912              		.loc 1 437 0
ARM GAS  C:\Users\osour\AppData\Local\Temp\ccE84h0V.s 			page 17


 913 0024 2068     		ldr	r0, [r4]
 914 0026 FFF7FEFF 		bl	chThdTerminate
 915              	.LVL66:
 916              		.loc 1 438 0
 917 002a 0021     		movs	r1, #0
 918 002c 0B48     		ldr	r0, .L46+16
 919 002e FFF7FEFF 		bl	chSemReset
 920              	.LVL67:
 921              		.loc 1 439 0
 922 0032 2068     		ldr	r0, [r4]
 923 0034 FFF7FEFF 		bl	chThdWait
 924              	.LVL68:
 925              		.loc 1 441 0
 926 0038 019A     		ldr	r2, [sp, #4]
 927 003a 2B68     		ldr	r3, [r5]
 928              		.loc 1 440 0
 929 003c 0021     		movs	r1, #0
 930              		.loc 1 441 0
 931 003e 9A42     		cmp	r2, r3
 932              		.loc 1 440 0
 933 0040 2160     		str	r1, [r4]
 934              		.loc 1 441 0
 935 0042 01D1     		bne	.L45
 936 0044 03B0     		add	sp, sp, #12
 937              		.cfi_remember_state
 938              		.cfi_def_cfa_offset 12
 939              		@ sp needed
 940 0046 30BD     		pop	{r4, r5, pc}
 941              	.L45:
 942              		.cfi_restore_state
 943 0048 FFF7FEFF 		bl	__stack_chk_fail
 944              	.LVL69:
 945              	.L47:
 946              		.align	2
 947              	.L46:
 948 004c 00000000 		.word	__stack_chk_guard
 949 0050 00000000 		.word	I2SD2
 950 0054 00000000 		.word	.LANCHOR18
 951 0058 00000000 		.word	SPISLAVED3
 952 005c 00000000 		.word	.LANCHOR1
 953              		.cfi_endproc
 954              	.LFE262:
 955              		.size	mp45dt02Shutdown, .-mp45dt02Shutdown
 956              		.section	.text.mp45dt02BufferPtr,"ax",%progbits
 957              		.align	1
 958              		.p2align 4,,15
 959              		.global	mp45dt02BufferPtr
 960              		.syntax unified
 961              		.thumb
 962              		.thumb_func
 963              		.fpu fpv4-sp-d16
 964              		.type	mp45dt02BufferPtr, %function
 965              	mp45dt02BufferPtr:
 966              	.LFB263:
 967              		.loc 1 443 0
 968              		.cfi_startproc
 969              		@ args = 0, pretend = 0, frame = 8
ARM GAS  C:\Users\osour\AppData\Local\Temp\ccE84h0V.s 			page 18


 970              		@ frame_needed = 0, uses_anonymous_args = 0
 971 0000 00B5     		push	{lr}
 972              		.cfi_def_cfa_offset 4
 973              		.cfi_offset 14, -4
 974 0002 074B     		ldr	r3, .L52
 975              		.loc 1 444 0
 976 0004 0749     		ldr	r1, .L52+4
 977              		.loc 1 443 0
 978 0006 1A68     		ldr	r2, [r3]
 979              		.loc 1 445 0
 980 0008 0868     		ldr	r0, [r1]
 981              		.loc 1 443 0
 982 000a 83B0     		sub	sp, sp, #12
 983              		.cfi_def_cfa_offset 16
 984              		.loc 1 443 0
 985 000c 0192     		str	r2, [sp, #4]
 986              		.loc 1 445 0
 987 000e 019A     		ldr	r2, [sp, #4]
 988 0010 1B68     		ldr	r3, [r3]
 989 0012 9A42     		cmp	r2, r3
 990 0014 02D1     		bne	.L51
 991 0016 03B0     		add	sp, sp, #12
 992              		.cfi_remember_state
 993              		.cfi_def_cfa_offset 4
 994              		@ sp needed
 995 0018 5DF804FB 		ldr	pc, [sp], #4
 996              	.L51:
 997              		.cfi_restore_state
 998 001c FFF7FEFF 		bl	__stack_chk_fail
 999              	.LVL70:
 1000              	.L53:
 1001              		.align	2
 1002              	.L52:
 1003 0020 00000000 		.word	__stack_chk_guard
 1004 0024 00000000 		.word	.LANCHOR14
 1005              		.cfi_endproc
 1006              	.LFE263:
 1007              		.size	mp45dt02BufferPtr, .-mp45dt02BufferPtr
 1008              		.global	PDM_filter_SPI
 1009              		.global	PDM_filter_I2S
 1010              		.global	Channel_Demux
 1011              		.section	.bss.DataProcessingSem,"aw",%nobits
 1012              		.align	2
 1013              		.set	.LANCHOR1,. + 0
 1014              		.type	DataProcessingSem, %object
 1015              		.size	DataProcessingSem, 12
 1016              	DataProcessingSem:
 1017 0000 00000000 		.space	12
 1017      00000000 
 1017      00000000 
 1018              		.section	.bss.DataProcessingThd,"aw",%nobits
 1019              		.align	2
 1020              		.set	.LANCHOR18,. + 0
 1021              		.type	DataProcessingThd, %object
 1022              		.size	DataProcessingThd, 4
 1023              	DataProcessingThd:
 1024 0000 00000000 		.space	4
ARM GAS  C:\Users\osour\AppData\Local\Temp\ccE84h0V.s 			page 19


 1025              		.section	.bss.DataProcessingThdWA,"aw",%nobits
 1026              		.align	3
 1027              		.set	.LANCHOR17,. + 0
 1028              		.type	DataProcessingThdWA, %object
 1029              		.size	DataProcessingThdWA, 1400
 1030              	DataProcessingThdWA:
 1031 0000 00000000 		.space	1400
 1031      00000000 
 1031      00000000 
 1031      00000000 
 1031      00000000 
 1032              		.section	.bss.I2S_PCM_samples,"aw",%nobits
 1033              		.align	2
 1034              		.set	.LANCHOR8,. + 0
 1035              		.type	I2S_PCM_samples, %object
 1036              		.size	I2S_PCM_samples, 64
 1037              	I2S_PCM_samples:
 1038 0000 00000000 		.space	64
 1038      00000000 
 1038      00000000 
 1038      00000000 
 1038      00000000 
 1039              		.section	.bss.I2S_PDM_samples,"aw",%nobits
 1040              		.align	2
 1041              		.set	.LANCHOR4,. + 0
 1042              		.type	I2S_PDM_samples, %object
 1043              		.size	I2S_PDM_samples, 256
 1044              	I2S_PDM_samples:
 1045 0000 00000000 		.space	256
 1045      00000000 
 1045      00000000 
 1045      00000000 
 1045      00000000 
 1046              		.section	.bss.PCM_buffer1,"aw",%nobits
 1047              		.align	2
 1048              		.set	.LANCHOR15,. + 0
 1049              		.type	PCM_buffer1, %object
 1050              		.size	PCM_buffer1, 1280
 1051              	PCM_buffer1:
 1052 0000 00000000 		.space	1280
 1052      00000000 
 1052      00000000 
 1052      00000000 
 1052      00000000 
 1053              		.section	.bss.PCM_buffer2,"aw",%nobits
 1054              		.align	2
 1055              		.set	.LANCHOR16,. + 0
 1056              		.type	PCM_buffer2, %object
 1057              		.size	PCM_buffer2, 1280
 1058              	PCM_buffer2:
 1059 0000 00000000 		.space	1280
 1059      00000000 
 1059      00000000 
 1059      00000000 
 1059      00000000 
 1060              		.section	.bss.PCM_buffer_index,"aw",%nobits
 1061              		.set	.LANCHOR12,. + 0
ARM GAS  C:\Users\osour\AppData\Local\Temp\ccE84h0V.s 			page 20


 1062              		.type	PCM_buffer_index, %object
 1063              		.size	PCM_buffer_index, 1
 1064              	PCM_buffer_index:
 1065 0000 00       		.space	1
 1066              		.section	.bss.PDM_filter_I2S,"aw",%nobits
 1067              		.align	2
 1068              		.set	.LANCHOR7,. + 0
 1069              		.type	PDM_filter_I2S, %object
 1070              		.size	PDM_filter_I2S, 104
 1071              	PDM_filter_I2S:
 1072 0000 00000000 		.space	104
 1072      00000000 
 1072      00000000 
 1072      00000000 
 1072      00000000 
 1073              		.section	.bss.PDM_filter_SPI,"aw",%nobits
 1074              		.align	2
 1075              		.set	.LANCHOR9,. + 0
 1076              		.type	PDM_filter_SPI, %object
 1077              		.size	PDM_filter_SPI, 104
 1078              	PDM_filter_SPI:
 1079 0000 00000000 		.space	104
 1079      00000000 
 1079      00000000 
 1079      00000000 
 1079      00000000 
 1080              		.section	.bss.SPI_PCM_samples,"aw",%nobits
 1081              		.align	2
 1082              		.set	.LANCHOR10,. + 0
 1083              		.type	SPI_PCM_samples, %object
 1084              		.size	SPI_PCM_samples, 64
 1085              	SPI_PCM_samples:
 1086 0000 00000000 		.space	64
 1086      00000000 
 1086      00000000 
 1086      00000000 
 1086      00000000 
 1087              		.section	.bss.SPI_PDM_samples,"aw",%nobits
 1088              		.align	2
 1089              		.set	.LANCHOR6,. + 0
 1090              		.type	SPI_PDM_samples, %object
 1091              		.size	SPI_PDM_samples, 256
 1092              	SPI_PDM_samples:
 1093 0000 00000000 		.space	256
 1093      00000000 
 1093      00000000 
 1093      00000000 
 1093      00000000 
 1094              		.section	.bss.initConfig,"aw",%nobits
 1095              		.align	2
 1096              		.set	.LANCHOR13,. + 0
 1097              		.type	initConfig, %object
 1098              		.size	initConfig, 4
 1099              	initConfig:
 1100 0000 00000000 		.space	4
 1101              		.section	.bss.mp45dt02I2SConfig,"aw",%nobits
 1102              		.align	2
ARM GAS  C:\Users\osour\AppData\Local\Temp\ccE84h0V.s 			page 21


 1103              		.set	.LANCHOR20,. + 0
 1104              		.type	mp45dt02I2SConfig, %object
 1105              		.size	mp45dt02I2SConfig, 20
 1106              	mp45dt02I2SConfig:
 1107 0000 00000000 		.space	20
 1107      00000000 
 1107      00000000 
 1107      00000000 
 1107      00000000 
 1108              		.section	.bss.mp45dt02I2sData,"aw",%nobits
 1109              		.align	2
 1110              		.set	.LANCHOR2,. + 0
 1111              		.type	mp45dt02I2sData, %object
 1112              		.size	mp45dt02I2sData, 524
 1113              	mp45dt02I2sData:
 1114 0000 00000000 		.space	524
 1114      00000000 
 1114      00000000 
 1114      00000000 
 1114      00000000 
 1115              		.section	.bss.mp45dt02SPIConfig,"aw",%nobits
 1116              		.align	2
 1117              		.set	.LANCHOR19,. + 0
 1118              		.type	mp45dt02SPIConfig, %object
 1119              		.size	mp45dt02SPIConfig, 16
 1120              	mp45dt02SPIConfig:
 1121 0000 00000000 		.space	16
 1121      00000000 
 1121      00000000 
 1121      00000000 
 1122              		.section	.bss.mp45dt02SPIData,"aw",%nobits
 1123              		.align	2
 1124              		.set	.LANCHOR0,. + 0
 1125              		.type	mp45dt02SPIData, %object
 1126              		.size	mp45dt02SPIData, 1036
 1127              	mp45dt02SPIData:
 1128 0000 00000000 		.space	1036
 1128      00000000 
 1128      00000000 
 1128      00000000 
 1128      00000000 
 1129              		.section	.data.Channel_Demux,"aw",%progbits
 1130              		.align	2
 1131              		.set	.LANCHOR5,. + 0
 1132              		.type	Channel_Demux, %object
 1133              		.size	Channel_Demux, 128
 1134              	Channel_Demux:
 1135 0000 00       		.byte	0
 1136 0001 01       		.byte	1
 1137 0002 00       		.byte	0
 1138 0003 01       		.byte	1
 1139 0004 02       		.byte	2
 1140 0005 03       		.byte	3
 1141 0006 02       		.byte	2
 1142 0007 03       		.byte	3
 1143 0008 00       		.byte	0
 1144 0009 01       		.byte	1
ARM GAS  C:\Users\osour\AppData\Local\Temp\ccE84h0V.s 			page 22


 1145 000a 00       		.byte	0
 1146 000b 01       		.byte	1
 1147 000c 02       		.byte	2
 1148 000d 03       		.byte	3
 1149 000e 02       		.byte	2
 1150 000f 03       		.byte	3
 1151 0010 04       		.byte	4
 1152 0011 05       		.byte	5
 1153 0012 04       		.byte	4
 1154 0013 05       		.byte	5
 1155 0014 06       		.byte	6
 1156 0015 07       		.byte	7
 1157 0016 06       		.byte	6
 1158 0017 07       		.byte	7
 1159 0018 04       		.byte	4
 1160 0019 05       		.byte	5
 1161 001a 04       		.byte	4
 1162 001b 05       		.byte	5
 1163 001c 06       		.byte	6
 1164 001d 07       		.byte	7
 1165 001e 06       		.byte	6
 1166 001f 07       		.byte	7
 1167 0020 00       		.byte	0
 1168 0021 01       		.byte	1
 1169 0022 00       		.byte	0
 1170 0023 01       		.byte	1
 1171 0024 02       		.byte	2
 1172 0025 03       		.byte	3
 1173 0026 02       		.byte	2
 1174 0027 03       		.byte	3
 1175 0028 00       		.byte	0
 1176 0029 01       		.byte	1
 1177 002a 00       		.byte	0
 1178 002b 01       		.byte	1
 1179 002c 02       		.byte	2
 1180 002d 03       		.byte	3
 1181 002e 02       		.byte	2
 1182 002f 03       		.byte	3
 1183 0030 04       		.byte	4
 1184 0031 05       		.byte	5
 1185 0032 04       		.byte	4
 1186 0033 05       		.byte	5
 1187 0034 06       		.byte	6
 1188 0035 07       		.byte	7
 1189 0036 06       		.byte	6
 1190 0037 07       		.byte	7
 1191 0038 04       		.byte	4
 1192 0039 05       		.byte	5
 1193 003a 04       		.byte	4
 1194 003b 05       		.byte	5
 1195 003c 06       		.byte	6
 1196 003d 07       		.byte	7
 1197 003e 06       		.byte	6
 1198 003f 07       		.byte	7
 1199 0040 08       		.byte	8
 1200 0041 09       		.byte	9
 1201 0042 08       		.byte	8
ARM GAS  C:\Users\osour\AppData\Local\Temp\ccE84h0V.s 			page 23


 1202 0043 09       		.byte	9
 1203 0044 0A       		.byte	10
 1204 0045 0B       		.byte	11
 1205 0046 0A       		.byte	10
 1206 0047 0B       		.byte	11
 1207 0048 08       		.byte	8
 1208 0049 09       		.byte	9
 1209 004a 08       		.byte	8
 1210 004b 09       		.byte	9
 1211 004c 0A       		.byte	10
 1212 004d 0B       		.byte	11
 1213 004e 0A       		.byte	10
 1214 004f 0B       		.byte	11
 1215 0050 0C       		.byte	12
 1216 0051 0D       		.byte	13
 1217 0052 0C       		.byte	12
 1218 0053 0D       		.byte	13
 1219 0054 0E       		.byte	14
 1220 0055 0F       		.byte	15
 1221 0056 0E       		.byte	14
 1222 0057 0F       		.byte	15
 1223 0058 0C       		.byte	12
 1224 0059 0D       		.byte	13
 1225 005a 0C       		.byte	12
 1226 005b 0D       		.byte	13
 1227 005c 0E       		.byte	14
 1228 005d 0F       		.byte	15
 1229 005e 0E       		.byte	14
 1230 005f 0F       		.byte	15
 1231 0060 08       		.byte	8
 1232 0061 09       		.byte	9
 1233 0062 08       		.byte	8
 1234 0063 09       		.byte	9
 1235 0064 0A       		.byte	10
 1236 0065 0B       		.byte	11
 1237 0066 0A       		.byte	10
 1238 0067 0B       		.byte	11
 1239 0068 08       		.byte	8
 1240 0069 09       		.byte	9
 1241 006a 08       		.byte	8
 1242 006b 09       		.byte	9
 1243 006c 0A       		.byte	10
 1244 006d 0B       		.byte	11
 1245 006e 0A       		.byte	10
 1246 006f 0B       		.byte	11
 1247 0070 0C       		.byte	12
 1248 0071 0D       		.byte	13
 1249 0072 0C       		.byte	12
 1250 0073 0D       		.byte	13
 1251 0074 0E       		.byte	14
 1252 0075 0F       		.byte	15
 1253 0076 0E       		.byte	14
 1254 0077 0F       		.byte	15
 1255 0078 0C       		.byte	12
 1256 0079 0D       		.byte	13
 1257 007a 0C       		.byte	12
 1258 007b 0D       		.byte	13
ARM GAS  C:\Users\osour\AppData\Local\Temp\ccE84h0V.s 			page 24


 1259 007c 0E       		.byte	14
 1260 007d 0F       		.byte	15
 1261 007e 0E       		.byte	14
 1262 007f 0F       		.byte	15
 1263              		.section	.data.PCM_buffer_ptr_curr,"aw",%progbits
 1264              		.align	2
 1265              		.set	.LANCHOR11,. + 0
 1266              		.type	PCM_buffer_ptr_curr, %object
 1267              		.size	PCM_buffer_ptr_curr, 4
 1268              	PCM_buffer_ptr_curr:
 1269 0000 00000000 		.word	PCM_buffer1
 1270              		.section	.data.PCM_buffer_ptr_last,"aw",%progbits
 1271              		.align	2
 1272              		.set	.LANCHOR14,. + 0
 1273              		.type	PCM_buffer_ptr_last, %object
 1274              		.size	PCM_buffer_ptr_last, 4
 1275              	PCM_buffer_ptr_last:
 1276 0000 00000000 		.word	PCM_buffer2
 1277              		.section	.rodata.__FUNCTION__.10410,"a",%progbits
 1278              		.align	2
 1279              		.set	.LANCHOR3,. + 0
 1280              		.type	__FUNCTION__.10410, %object
 1281              		.size	__FUNCTION__.10410, 15
 1282              	__FUNCTION__.10410:
 1283 0000 44617461 		.ascii	"DataProcessing\000"
 1283      50726F63 
 1283      65737369 
 1283      6E6700
 1284              		.text
 1285              	.Letext0:
 1286              		.file 6 "c:\\users\\osour\\desktop\\robotique\\eclipse_e-puck2\\tools\\gcc-arm-none-eabi-7-2017-q4
 1287              		.file 7 "c:\\users\\osour\\desktop\\robotique\\eclipse_e-puck2\\tools\\gcc-arm-none-eabi-7-2017-q4
 1288              		.file 8 "c:\\users\\osour\\desktop\\robotique\\eclipse_e-puck2\\tools\\gcc-arm-none-eabi-7-2017-q4
 1289              		.file 9 "c:\\users\\osour\\desktop\\robotique\\eclipse_e-puck2\\tools\\gcc-arm-none-eabi-7-2017-q4
 1290              		.file 10 "c:\\users\\osour\\desktop\\robotique\\eclipse_e-puck2\\tools\\gcc-arm-none-eabi-7-2017-q
 1291              		.file 11 "c:\\users\\osour\\desktop\\robotique\\eclipse_e-puck2\\tools\\gcc-arm-none-eabi-7-2017-q
 1292              		.file 12 "../../lib/e-puck2_main-processor/ChibiOS//os/rt/ports/ARMCMx/compilers/GCC/chtypes.h"
 1293              		.file 13 "../../lib/e-puck2_main-processor/ChibiOS//os/rt/include/chsystypes.h"
 1294              		.file 14 "../../lib/e-puck2_main-processor/ChibiOS//os/rt/include/chschd.h"
 1295              		.file 15 "../../lib/e-puck2_main-processor/ChibiOS//os/ext/CMSIS/include/core_cm4.h"
 1296              		.file 16 "../../lib/e-puck2_main-processor/ChibiOS//os/ext/CMSIS/ST/system_stm32f4xx.h"
 1297              		.file 17 "../../lib/e-puck2_main-processor/ChibiOS//os/ext/CMSIS/ST/stm32f407xx.h"
 1298              		.file 18 "../../lib/e-puck2_main-processor/ChibiOS//os/rt/ports/ARMCMx/chcore.h"
 1299              		.file 19 "../../lib/e-puck2_main-processor/ChibiOS//os/rt/ports/ARMCMx/chcore_v7m.h"
 1300              		.file 20 "../../lib/e-puck2_main-processor/ChibiOS//os/rt/include/chdebug.h"
 1301              		.file 21 "../../lib/e-puck2_main-processor/ChibiOS//os/rt/include/chtm.h"
 1302              		.file 22 "../../lib/e-puck2_main-processor/ChibiOS//os/rt/include/chstats.h"
 1303              		.file 23 "../../lib/e-puck2_main-processor/ChibiOS//os/rt/include/chsem.h"
 1304              		.file 24 "../../lib/e-puck2_main-processor/ChibiOS//os/rt/include/chmtx.h"
 1305              		.file 25 "../../lib/e-puck2_main-processor/ChibiOS//os/rt/include/chevents.h"
 1306              		.file 26 "../../lib/e-puck2_main-processor/ChibiOS//os/rt/include/chqueues.h"
 1307              		.file 27 "../../lib/e-puck2_main-processor/ChibiOS//os/hal/ports/STM32/STM32F4xx/stm32_dma.h"
 1308              		.file 28 "../../lib/e-puck2_main-processor/ChibiOS//os/hal/include/hal_ioblock.h"
 1309              		.file 29 "../../lib/e-puck2_main-processor/ChibiOS//os/hal/ports/STM32/LLD/GPIOv2/pal_lld.h"
 1310              		.file 30 "../../lib/e-puck2_main-processor/ChibiOS//os/hal/include/adc.h"
 1311              		.file 31 "../../lib/e-puck2_main-processor/ChibiOS//os/hal/ports/STM32/STM32F4xx/adc_lld.h"
 1312              		.file 32 "../../lib/e-puck2_main-processor/ChibiOS//os/hal/include/can.h"
ARM GAS  C:\Users\osour\AppData\Local\Temp\ccE84h0V.s 			page 25


 1313              		.file 33 "../../lib/e-puck2_main-processor/ChibiOS//os/hal/ports/STM32/LLD/can_lld.h"
 1314              		.file 34 "../../lib/e-puck2_main-processor/ChibiOS//os/hal/include/dac.h"
 1315              		.file 35 "../../lib/e-puck2_main-processor/ChibiOS//os/hal/ports/STM32/LLD/DACv1/dac_lld.h"
 1316              		.file 36 "../../lib/e-puck2_main-processor/ChibiOS//os/hal/include/ext.h"
 1317              		.file 37 "../../lib/e-puck2_main-processor/ChibiOS//os/hal/ports/STM32/LLD/ext_lld.h"
 1318              		.file 38 "../../lib/e-puck2_main-processor/ChibiOS//os/hal/include/gpt.h"
 1319              		.file 39 "../../lib/e-puck2_main-processor/ChibiOS//os/hal/ports/STM32/LLD/TIMv1/gpt_lld.h"
 1320              		.file 40 "../../lib/e-puck2_main-processor/ChibiOS//os/hal/ports/STM32/LLD/TIMv1/stm32_tim.h"
 1321              		.file 41 "../../lib/e-puck2_main-processor/ChibiOS//os/hal/include/i2c.h"
 1322              		.file 42 "../../lib/e-puck2_main-processor/ChibiOS//os/hal/ports/STM32/LLD/I2Cv1/i2c_lld.h"
 1323              		.file 43 "../../lib/e-puck2_main-processor/ChibiOS//os/hal/include/i2s.h"
 1324              		.file 44 "../../lib/e-puck2_main-processor/ChibiOS//os/hal/ports/STM32/LLD/SPIv1/i2s_lld.h"
 1325              		.file 45 "../../lib/e-puck2_main-processor/ChibiOS//os/hal/include/pwm.h"
 1326              		.file 46 "../../lib/e-puck2_main-processor/ChibiOS//os/hal/ports/STM32/LLD/TIMv1/pwm_lld.h"
 1327              		.file 47 "../../lib/e-puck2_main-processor/ChibiOS//os/hal/include/serial.h"
 1328              		.file 48 "../../lib/e-puck2_main-processor/ChibiOS//os/hal/ports/STM32/LLD/USARTv1/serial_lld.h"
 1329              		.file 49 "../../lib/e-puck2_main-processor/ChibiOS//os/hal/include/sdc.h"
 1330              		.file 50 "../../lib/e-puck2_main-processor/ChibiOS//os/hal/ports/STM32/LLD/sdc_lld.h"
 1331              		.file 51 "../../lib/e-puck2_main-processor/ChibiOS//os/hal/include/spi.h"
 1332              		.file 52 "../../lib/e-puck2_main-processor/ChibiOS//os/hal/ports/STM32/LLD/SPIv1/spi_lld.h"
 1333              		.file 53 "../../lib/e-puck2_main-processor/ChibiOS//os/hal/include/usb.h"
 1334              		.file 54 "../../lib/e-puck2_main-processor/ChibiOS//os/hal/ports/STM32/LLD/OTGv1/usb_lld.h"
 1335              		.file 55 "../../lib/e-puck2_main-processor/ChibiOS//os/hal/ports/STM32/LLD/OTGv1/stm32_otg.h"
 1336              		.file 56 "../../lib/e-puck2_main-processor/ChibiOS_ext/os/hal/include/spi3_slave.h"
 1337              		.file 57 "../../lib/e-puck2_main-processor/src/audio/mp45dt02_processing.h"
 1338              		.file 58 "../../lib/e-puck2_main-processor/src/audio/pdm_filter.h"
 1339              		.file 59 "<built-in>"