ARM GAS  C:\Users\osour\AppData\Local\Temp\ccYVCgIB.s 			page 1


   1              		.cpu cortex-m4
   2              		.eabi_attribute 27, 1
   3              		.eabi_attribute 28, 1
   4              		.eabi_attribute 20, 1
   5              		.eabi_attribute 21, 1
   6              		.eabi_attribute 23, 3
   7              		.eabi_attribute 24, 1
   8              		.eabi_attribute 25, 1
   9              		.eabi_attribute 26, 1
  10              		.eabi_attribute 30, 2
  11              		.eabi_attribute 34, 1
  12              		.eabi_attribute 18, 4
  13              		.file	"music.c"
  14              		.text
  15              	.Ltext0:
  16              		.cfi_sections	.debug_frame
  17              		.section	.text.chprintf.constprop.1,"ax",%progbits
  18              		.align	1
  19              		.p2align 4,,15
  20              		.syntax unified
  21              		.thumb
  22              		.thumb_func
  23              		.fpu fpv4-sp-d16
  24              		.type	chprintf.constprop.1, %function
  25              	chprintf.constprop.1:
  26              	.LFB264:
  27              		.file 1 "../../lib/e-puck2_main-processor/ChibiOS//os/hal/lib/streams/chprintf.h"
  28              		.loc 1 69 0
  29              		.cfi_startproc
  30              		@ args = 4, pretend = 12, frame = 8
  31              		@ frame_needed = 0, uses_anonymous_args = 1
  32              	.LVL0:
  33 0000 0EB4     		push	{r1, r2, r3}
  34              		.cfi_def_cfa_offset 12
  35              		.cfi_offset 1, -12
  36              		.cfi_offset 2, -8
  37              		.cfi_offset 3, -4
  38 0002 10B5     		push	{r4, lr}
  39              		.cfi_def_cfa_offset 20
  40              		.cfi_offset 4, -20
  41              		.cfi_offset 14, -16
  42 0004 0A4C     		ldr	r4, .L6
  43              		.loc 1 74 0
  44 0006 0B49     		ldr	r1, .L6+4
  45              		.loc 1 69 0
  46 0008 2368     		ldr	r3, [r4]
  47              		.loc 1 74 0
  48 000a 0B48     		ldr	r0, .L6+8
  49              	.LVL1:
  50              		.loc 1 69 0
  51 000c 83B0     		sub	sp, sp, #12
  52              		.cfi_def_cfa_offset 32
  53              		.loc 1 69 0
  54 000e 0193     		str	r3, [sp, #4]
  55              	.LVL2:
  56              		.loc 1 73 0
  57 0010 06AB     		add	r3, sp, #24
ARM GAS  C:\Users\osour\AppData\Local\Temp\ccYVCgIB.s 			page 2


  58              		.loc 1 74 0
  59 0012 1A46     		mov	r2, r3
  60              		.loc 1 73 0
  61 0014 0093     		str	r3, [sp]
  62              		.loc 1 74 0
  63 0016 FFF7FEFF 		bl	chvprintf
  64              	.LVL3:
  65              		.loc 1 78 0
  66 001a 019A     		ldr	r2, [sp, #4]
  67 001c 2368     		ldr	r3, [r4]
  68 001e 9A42     		cmp	r2, r3
  69 0020 04D1     		bne	.L5
  70 0022 03B0     		add	sp, sp, #12
  71              		.cfi_remember_state
  72              		.cfi_def_cfa_offset 20
  73              		@ sp needed
  74 0024 BDE81040 		pop	{r4, lr}
  75              		.cfi_restore 14
  76              		.cfi_restore 4
  77              		.cfi_def_cfa_offset 12
  78 0028 03B0     		add	sp, sp, #12
  79              		.cfi_restore 3
  80              		.cfi_restore 2
  81              		.cfi_restore 1
  82              		.cfi_def_cfa_offset 0
  83 002a 7047     		bx	lr
  84              	.L5:
  85              		.cfi_restore_state
  86 002c FFF7FEFF 		bl	__stack_chk_fail
  87              	.LVL4:
  88              	.L7:
  89              		.align	2
  90              	.L6:
  91 0030 00000000 		.word	__stack_chk_guard
  92 0034 00000000 		.word	.LC0
  93 0038 00000000 		.word	SD3
  94              		.cfi_endproc
  95              	.LFE264:
  96              		.size	chprintf.constprop.1, .-chprintf.constprop.1
  97              		.section	.text.music,"ax",%progbits
  98              		.align	1
  99              		.p2align 4,,15
 100              		.syntax unified
 101              		.thumb
 102              		.thumb_func
 103              		.fpu fpv4-sp-d16
 104              		.type	music, %function
 105              	music:
 106              	.LFB260:
 107              		.file 2 "music.c"
 108              		.loc 2 191 0
 109              		.cfi_startproc
 110              		@ args = 0, pretend = 0, frame = 8
 111              		@ frame_needed = 0, uses_anonymous_args = 0
 112              	.LVL5:
 113 0000 2DE9F04F 		push	{r4, r5, r6, r7, r8, r9, r10, fp, lr}
 114              		.cfi_def_cfa_offset 36
ARM GAS  C:\Users\osour\AppData\Local\Temp\ccYVCgIB.s 			page 3


 115              		.cfi_offset 4, -36
 116              		.cfi_offset 5, -32
 117              		.cfi_offset 6, -28
 118              		.cfi_offset 7, -24
 119              		.cfi_offset 8, -20
 120              		.cfi_offset 9, -16
 121              		.cfi_offset 10, -12
 122              		.cfi_offset 11, -8
 123              		.cfi_offset 14, -4
 124 0004 4C4B     		ldr	r3, .L39
 125              	.LBB25:
 126              	.LBB26:
 127              	.LBB27:
 128              	.LBB28:
 129              		.loc 2 144 0
 130 0006 DFF84481 		ldr	r8, .L39+20
 131              	.LBE28:
 132              	.LBE27:
 133              	.LBE26:
 134              	.LBE25:
 135              		.loc 2 191 0
 136 000a 1B68     		ldr	r3, [r3]
 137 000c 83B0     		sub	sp, sp, #12
 138              		.cfi_def_cfa_offset 48
 139              		.loc 2 191 0
 140 000e 0193     		str	r3, [sp, #4]
 141              	.LVL6:
 142              	.L25:
 143              	.LBB57:
 144              		.loc 2 194 0 discriminator 1
 145 0010 FFF7FEFF 		bl	wait_finish_playing
 146              	.LVL7:
 147              		.loc 2 195 0 discriminator 1
 148 0014 FFF7FEFF 		bl	get_recording
 149              	.LVL8:
 150              	.LBB38:
 151              	.LBB34:
 152              	.LBB29:
 153              		.loc 2 143 0 discriminator 1
 154 0018 4849     		ldr	r1, .L39+4
 155              	.LBE29:
 156              	.LBE34:
 157              	.LBE38:
 158              	.LBB39:
 159              	.LBB40:
 160              		.loc 2 238 0 discriminator 1
 161 001a 494B     		ldr	r3, .L39+8
 162              	.LBE40:
 163              	.LBE39:
 164              	.LBB42:
 165              	.LBB35:
 166              	.LBB30:
 167              		.loc 2 143 0 discriminator 1
 168 001c 4A89     		ldrh	r2, [r1, #10]
 169              	.LBE30:
 170              	.LBE35:
 171              	.LBE42:
ARM GAS  C:\Users\osour\AppData\Local\Temp\ccYVCgIB.s 			page 4


 172              	.LBB43:
 173              	.LBB41:
 174              		.loc 2 238 0 discriminator 1
 175 001e 1860     		str	r0, [r3]
 176              	.LVL9:
 177              	.LBE41:
 178              	.LBE43:
 179              	.LBB44:
 180              	.LBB36:
 181              	.LBB31:
 182              		.loc 2 143 0 discriminator 1
 183 0020 002A     		cmp	r2, #0
 184 0022 6FD0     		beq	.L9
 185              		.loc 2 144 0
 186 0024 0E68     		ldr	r6, [r1]
 187 0026 0478     		ldrb	r4, [r0]	@ zero_extendqisi2
 188 0028 3378     		ldrb	r3, [r6]	@ zero_extendqisi2
 189 002a A8FB0351 		umull	r5, r1, r8, r3
 190 002e C908     		lsrs	r1, r1, #3
 191 0030 01EB4101 		add	r1, r1, r1, lsl #1
 192 0034 A3EB8103 		sub	r3, r3, r1, lsl #2
 193 0038 DBB2     		uxtb	r3, r3
 194 003a 9C42     		cmp	r4, r3
 195 003c 15D0     		beq	.L10
 196 003e B446     		mov	ip, r6
 197 0040 0546     		mov	r5, r0
 198              		.loc 2 143 0
 199 0042 0024     		movs	r4, #0
 200 0044 0DE0     		b	.L12
 201              	.LVL10:
 202              	.L15:
 203              		.loc 2 144 0
 204 0046 1CF8013F 		ldrb	r3, [ip, #1]!	@ zero_extendqisi2
 205 004a 15F801EF 		ldrb	lr, [r5, #1]!	@ zero_extendqisi2
 206 004e A8FB0391 		umull	r9, r1, r8, r3
 207 0052 C908     		lsrs	r1, r1, #3
 208 0054 01EB4101 		add	r1, r1, r1, lsl #1
 209 0058 A3EB8103 		sub	r3, r3, r1, lsl #2
 210 005c DBB2     		uxtb	r3, r3
 211 005e 9E45     		cmp	lr, r3
 212 0060 63D0     		beq	.L37
 213              	.LVL11:
 214              	.L12:
 215              		.loc 2 143 0
 216 0062 0134     		adds	r4, r4, #1
 217              	.LVL12:
 218 0064 A4B2     		uxth	r4, r4
 219              	.LVL13:
 220 0066 9442     		cmp	r4, r2
 221 0068 EDD1     		bne	.L15
 222              	.LVL14:
 223              	.L10:
 224              	.LBE31:
 225              	.LBB32:
 226              		.loc 2 152 0
 227 006a 9646     		mov	lr, r2
 228 006c 0024     		movs	r4, #0
ARM GAS  C:\Users\osour\AppData\Local\Temp\ccYVCgIB.s 			page 5


 229              	.LVL15:
 230              	.L13:
 231 006e 0025     		movs	r5, #0
 232              	.LVL16:
 233              	.L18:
 234              		.loc 2 153 0
 235 0070 335D     		ldrb	r3, [r6, r4]	@ zero_extendqisi2
 236 0072 10F804C0 		ldrb	ip, [r0, r4]	@ zero_extendqisi2
 237 0076 A8FB0391 		umull	r9, r1, r8, r3
 238 007a C908     		lsrs	r1, r1, #3
 239 007c 01EB4101 		add	r1, r1, r1, lsl #1
 240 0080 A3EB8103 		sub	r3, r3, r1, lsl #2
 241 0084 DBB2     		uxtb	r3, r3
 242              		.loc 2 152 0
 243 0086 0134     		adds	r4, r4, #1
 244              	.LVL17:
 245 0088 ADB2     		uxth	r5, r5
 246              		.loc 2 153 0
 247 008a 9C45     		cmp	ip, r3
 248              		.loc 2 152 0
 249 008c A4B2     		uxth	r4, r4
 250              		.loc 2 154 0
 251 008e 0CBF     		ite	eq
 252 0090 0135     		addeq	r5, r5, #1
 253              		.loc 2 156 0
 254 0092 05F1FF35 		addne	r5, r5, #-1
 255              	.LVL18:
 256              		.loc 2 152 0
 257 0096 7445     		cmp	r4, lr
 258              		.loc 2 156 0
 259 0098 2DB2     		sxth	r5, r5
 260              	.LVL19:
 261              		.loc 2 152 0
 262 009a E9DB     		blt	.L18
 263 009c ADB2     		uxth	r5, r5
 264              	.LVL20:
 265              	.L14:
 266              	.LBE32:
 267              	.LBE36:
 268              	.LBE44:
 269              	.LBB45:
 270              	.LBB46:
 271              	.LBB47:
 272              	.LBB48:
 273              		.loc 2 172 0
 274 009e 4FF0000C 		mov	ip, #0
 275 00a2 02F1FF39 		add	r9, r2, #-1
 276 00a6 CB46     		mov	fp, r9
 277 00a8 00F1010A 		add	r10, r0, #1
 278 00ac B146     		mov	r9, r6
 279              	.LBE48:
 280              	.LBE47:
 281              		.loc 2 168 0
 282 00ae E646     		mov	lr, ip
 283 00b0 6346     		mov	r3, ip
 284 00b2 1646     		mov	r6, r2
 285              	.LVL21:
ARM GAS  C:\Users\osour\AppData\Local\Temp\ccYVCgIB.s 			page 6


 286              	.L19:
 287              	.LBB52:
 288              	.LBB49:
 289              		.loc 2 171 0
 290 00b4 B342     		cmp	r3, r6
 291 00b6 1BD2     		bcs	.L21
 292              		.loc 2 172 0
 293 00b8 19F80C20 		ldrb	r2, [r9, ip]	@ zero_extendqisi2
 294 00bc 0478     		ldrb	r4, [r0]	@ zero_extendqisi2
 295 00be A8FB0271 		umull	r7, r1, r8, r2
 296 00c2 C908     		lsrs	r1, r1, #3
 297 00c4 01EB4101 		add	r1, r1, r1, lsl #1
 298 00c8 A2EB8102 		sub	r2, r2, r1, lsl #2
 299 00cc D2B2     		uxtb	r2, r2
 300 00ce 9442     		cmp	r4, r2
 301 00d0 1ED0     		beq	.L23
 302 00d2 0AEB0C04 		add	r4, r10, ip
 303 00d6 ABEB0303 		sub	r3, fp, r3
 304 00da 013C     		subs	r4, r4, #1
 305 00dc 14FA83F4 		uxtah	r4, r4, r3
 306 00e0 0346     		mov	r3, r0
 307 00e2 03E0     		b	.L20
 308              	.LVL22:
 309              	.L22:
 310 00e4 13F8011F 		ldrb	r1, [r3, #1]!	@ zero_extendqisi2
 311              	.LVL23:
 312 00e8 9142     		cmp	r1, r2
 313 00ea 11D0     		beq	.L23
 314              	.L20:
 315              	.LVL24:
 316              		.loc 2 171 0
 317 00ec 9C42     		cmp	r4, r3
 318 00ee F9D1     		bne	.L22
 319              	.LVL25:
 320              	.L21:
 321 00f0 0CF1010C 		add	ip, ip, #1
 322              	.LVL26:
 323              	.LBE49:
 324              		.loc 2 170 0
 325 00f4 1FFA8CF3 		uxth	r3, ip
 326 00f8 B342     		cmp	r3, r6
 327 00fa 00F10100 		add	r0, r0, #1
 328 00fe D9D3     		bcc	.L19
 329              	.L38:
 330 0100 7544     		add	r5, r5, lr
 331 0102 AAB2     		uxth	r2, r5
 332              	.LVL27:
 333              	.L9:
 334              	.LBE52:
 335              	.LBE46:
 336              	.LBE45:
 337              		.loc 2 200 0
 338 0104 12B2     		sxth	r2, r2
 339 0106 0F49     		ldr	r1, .L39+12
 340 0108 0F48     		ldr	r0, .L39+16
 341 010a FFF7FEFF 		bl	chprintf.constprop.1
 342              	.LVL28:
ARM GAS  C:\Users\osour\AppData\Local\Temp\ccYVCgIB.s 			page 7


 343              	.LBE57:
 344              		.loc 2 192 0
 345 010e 7FE7     		b	.L25
 346              	.LVL29:
 347              	.L23:
 348 0110 0CF1010C 		add	ip, ip, #1
 349              	.LVL30:
 350              	.LBB58:
 351              	.LBB55:
 352              	.LBB54:
 353              	.LBB53:
 354              		.loc 2 170 0
 355 0114 1FFA8CF3 		uxth	r3, ip
 356              	.LBB50:
 357              		.loc 2 173 0
 358 0118 0EF1010E 		add	lr, lr, #1
 359              	.LVL31:
 360              	.LBE50:
 361              		.loc 2 170 0
 362 011c B342     		cmp	r3, r6
 363              	.LBB51:
 364              		.loc 2 173 0
 365 011e 0FFA8EFE 		sxth	lr, lr
 366              	.LVL32:
 367 0122 00F10100 		add	r0, r0, #1
 368              	.LBE51:
 369              		.loc 2 170 0
 370 0126 C5D3     		bcc	.L19
 371 0128 EAE7     		b	.L38
 372              	.LVL33:
 373              	.L37:
 374              	.LBE53:
 375              	.LBE54:
 376              	.LBE55:
 377              	.LBB56:
 378              	.LBB37:
 379              	.LBB33:
 380              		.loc 2 152 0
 381 012a 02EB040E 		add	lr, r2, r4
 382 012e A645     		cmp	lr, r4
 383 0130 9DDC     		bgt	.L13
 384 0132 0025     		movs	r5, #0
 385 0134 B3E7     		b	.L14
 386              	.L40:
 387 0136 00BF     		.align	2
 388              	.L39:
 389 0138 00000000 		.word	__stack_chk_guard
 390 013c 00000000 		.word	.LANCHOR1
 391 0140 00000000 		.word	.LANCHOR0
 392 0144 00000000 		.word	.LC0
 393 0148 00000000 		.word	SD3
 394 014c ABAAAAAA 		.word	-1431655765
 395              	.LBE33:
 396              	.LBE37:
 397              	.LBE56:
 398              	.LBE58:
 399              		.cfi_endproc
ARM GAS  C:\Users\osour\AppData\Local\Temp\ccYVCgIB.s 			page 8


 400              	.LFE260:
 401              		.size	music, .-music
 402              		.section	.text.init_music,"ax",%progbits
 403              		.align	1
 404              		.p2align 4,,15
 405              		.global	init_music
 406              		.syntax unified
 407              		.thumb
 408              		.thumb_func
 409              		.fpu fpv4-sp-d16
 410              		.type	init_music, %function
 411              	init_music:
 412              	.LFB261:
 413              		.loc 2 221 0
 414              		.cfi_startproc
 415              		@ args = 0, pretend = 0, frame = 8
 416              		@ frame_needed = 0, uses_anonymous_args = 0
 417 0000 10B5     		push	{r4, lr}
 418              		.cfi_def_cfa_offset 8
 419              		.cfi_offset 4, -8
 420              		.cfi_offset 14, -4
 421 0002 0D4C     		ldr	r4, .L45
 422              		.loc 2 222 0
 423 0004 0D48     		ldr	r0, .L45+4
 424              		.loc 2 221 0
 425 0006 2368     		ldr	r3, [r4]
 426 0008 84B0     		sub	sp, sp, #16
 427              		.cfi_def_cfa_offset 24
 428              		.loc 2 221 0
 429 000a 0393     		str	r3, [sp, #12]
 430              		.loc 2 222 0
 431 000c FFF7FEFF 		bl	mic_start
 432              	.LVL34:
 433              		.loc 2 223 0
 434 0010 FFF7FEFF 		bl	dac_start
 435              	.LVL35:
 436              		.loc 2 224 0
 437 0014 0023     		movs	r3, #0
 438 0016 0093     		str	r3, [sp]
 439 0018 4022     		movs	r2, #64
 440 001a 094B     		ldr	r3, .L45+8
 441 001c 0948     		ldr	r0, .L45+12
 442 001e 4FF4FC71 		mov	r1, #504
 443 0022 FFF7FEFF 		bl	chThdCreateStatic
 444              	.LVL36:
 445              		.loc 2 225 0
 446 0026 039A     		ldr	r2, [sp, #12]
 447 0028 2368     		ldr	r3, [r4]
 448 002a 9A42     		cmp	r2, r3
 449 002c 01D1     		bne	.L44
 450 002e 04B0     		add	sp, sp, #16
 451              		.cfi_remember_state
 452              		.cfi_def_cfa_offset 8
 453              		@ sp needed
 454 0030 10BD     		pop	{r4, pc}
 455              	.L44:
 456              		.cfi_restore_state
ARM GAS  C:\Users\osour\AppData\Local\Temp\ccYVCgIB.s 			page 9


 457 0032 FFF7FEFF 		bl	__stack_chk_fail
 458              	.LVL37:
 459              	.L46:
 460 0036 00BF     		.align	2
 461              	.L45:
 462 0038 00000000 		.word	__stack_chk_guard
 463 003c 00000000 		.word	processAudioDataCmplx
 464 0040 00000000 		.word	music
 465 0044 00000000 		.word	.LANCHOR2
 466              		.cfi_endproc
 467              	.LFE261:
 468              		.size	init_music, .-init_music
 469              		.section	.text.play_song,"ax",%progbits
 470              		.align	1
 471              		.p2align 4,,15
 472              		.global	play_song
 473              		.syntax unified
 474              		.thumb
 475              		.thumb_func
 476              		.fpu fpv4-sp-d16
 477              		.type	play_song, %function
 478              	play_song:
 479              	.LFB262:
 480              		.loc 2 227 0
 481              		.cfi_startproc
 482              		@ args = 0, pretend = 0, frame = 8
 483              		@ frame_needed = 0, uses_anonymous_args = 0
 484              	.LVL38:
 485 0000 2DE9F041 		push	{r4, r5, r6, r7, r8, lr}
 486              		.cfi_def_cfa_offset 24
 487              		.cfi_offset 4, -24
 488              		.cfi_offset 5, -20
 489              		.cfi_offset 6, -16
 490              		.cfi_offset 7, -12
 491              		.cfi_offset 8, -8
 492              		.cfi_offset 14, -4
 493              	.LBB59:
 494              		.loc 2 228 0
 495 0004 204B     		ldr	r3, .L57
 496              	.LBE59:
 497              		.loc 2 227 0
 498 0006 214F     		ldr	r7, .L57+4
 499              	.LBB64:
 500              		.loc 2 228 0
 501 0008 00EB4000 		add	r0, r0, r0, lsl #1
 502              	.LVL39:
 503 000c 03EB8008 		add	r8, r3, r0, lsl #2
 504              	.LBE64:
 505              		.loc 2 227 0
 506 0010 82B0     		sub	sp, sp, #8
 507              		.cfi_def_cfa_offset 32
 508              	.LBB65:
 509              		.loc 2 228 0
 510 0012 B8F80A30 		ldrh	r3, [r8, #10]
 511              	.LBE65:
 512              		.loc 2 227 0
 513 0016 3A68     		ldr	r2, [r7]
ARM GAS  C:\Users\osour\AppData\Local\Temp\ccYVCgIB.s 			page 10


 514 0018 0192     		str	r2, [sp, #4]
 515              	.LVL40:
 516              	.LBB66:
 517              		.loc 2 228 0
 518 001a 5BB3     		cbz	r3, .L47
 519 001c 1C4E     		ldr	r6, .L57+8
 520              		.loc 2 231 0
 521 001e 1D4D     		ldr	r5, .L57+12
 522              		.loc 2 228 0
 523 0020 0024     		movs	r4, #0
 524              	.LVL41:
 525              	.L49:
 526              		.loc 2 229 0 discriminator 3
 527 0022 D8F80030 		ldr	r3, [r8]
 528 0026 1B5D     		ldrb	r3, [r3, r4]	@ zero_extendqisi2
 529 0028 36F81300 		ldrh	r0, [r6, r3, lsl #1]
 530 002c FFF7FEFF 		bl	dac_play
 531              	.LVL42:
 532              		.loc 2 231 0 discriminator 3
 533 0030 D8F80430 		ldr	r3, [r8, #4]
 534              	.LBB60:
 535              	.LBB61:
 536              		.loc 2 183 0 discriminator 3
 537 0034 B8F80820 		ldrh	r2, [r8, #8]
 538 0038 195D     		ldrb	r1, [r3, r4]	@ zero_extendqisi2
 539              	.LBE61:
 540              	.LBE60:
 541              		.loc 2 231 0 discriminator 3
 542 003a 4FF47A70 		mov	r0, #1000
 543              	.LBB63:
 544              	.LBB62:
 545              		.loc 2 183 0 discriminator 3
 546 003e 4EF66023 		movw	r3, #60000
 547 0042 03FB01F3 		mul	r3, r3, r1
 548 0046 1201     		lsls	r2, r2, #4
 549 0048 93FBF2F3 		sdiv	r3, r3, r2
 550              	.LBE62:
 551              	.LBE63:
 552              		.loc 2 231 0 discriminator 3
 553 004c 00FB03F0 		mul	r0, r0, r3
 554 0050 00F2E730 		addw	r0, r0, #999
 555 0054 A5FB0030 		umull	r3, r0, r5, r0
 556 0058 8009     		lsrs	r0, r0, #6
 557 005a FFF7FEFF 		bl	chThdSleep
 558              	.LVL43:
 559              		.loc 2 232 0 discriminator 3
 560 005e FFF7FEFF 		bl	dac_stop
 561              	.LVL44:
 562              		.loc 2 233 0 discriminator 3
 563 0062 3220     		movs	r0, #50
 564 0064 FFF7FEFF 		bl	chThdSleep
 565              	.LVL45:
 566              		.loc 2 228 0 discriminator 3
 567 0068 0134     		adds	r4, r4, #1
 568              	.LVL46:
 569 006a B8F80A30 		ldrh	r3, [r8, #10]
 570 006e E4B2     		uxtb	r4, r4
ARM GAS  C:\Users\osour\AppData\Local\Temp\ccYVCgIB.s 			page 11


 571              	.LVL47:
 572 0070 A342     		cmp	r3, r4
 573 0072 D6D8     		bhi	.L49
 574              	.LVL48:
 575              	.L47:
 576              	.LBE66:
 577              		.loc 2 235 0
 578 0074 019A     		ldr	r2, [sp, #4]
 579 0076 3B68     		ldr	r3, [r7]
 580 0078 9A42     		cmp	r2, r3
 581 007a 02D1     		bne	.L56
 582 007c 02B0     		add	sp, sp, #8
 583              		.cfi_remember_state
 584              		.cfi_def_cfa_offset 24
 585              		@ sp needed
 586 007e BDE8F081 		pop	{r4, r5, r6, r7, r8, pc}
 587              	.L56:
 588              		.cfi_restore_state
 589 0082 FFF7FEFF 		bl	__stack_chk_fail
 590              	.LVL49:
 591              	.L58:
 592 0086 00BF     		.align	2
 593              	.L57:
 594 0088 00000000 		.word	.LANCHOR1
 595 008c 00000000 		.word	__stack_chk_guard
 596 0090 00000000 		.word	.LANCHOR3
 597 0094 D34D6210 		.word	274877907
 598              		.cfi_endproc
 599              	.LFE262:
 600              		.size	play_song, .-play_song
 601              		.section	.text.set_recording,"ax",%progbits
 602              		.align	1
 603              		.p2align 4,,15
 604              		.global	set_recording
 605              		.syntax unified
 606              		.thumb
 607              		.thumb_func
 608              		.fpu fpv4-sp-d16
 609              		.type	set_recording, %function
 610              	set_recording:
 611              	.LFB263:
 612              		.loc 2 237 0
 613              		.cfi_startproc
 614              		@ args = 0, pretend = 0, frame = 8
 615              		@ frame_needed = 0, uses_anonymous_args = 0
 616              	.LVL50:
 617 0000 00B5     		push	{lr}
 618              		.cfi_def_cfa_offset 4
 619              		.cfi_offset 14, -4
 620 0002 074B     		ldr	r3, .L63
 621              		.loc 2 238 0
 622 0004 0749     		ldr	r1, .L63+4
 623              		.loc 2 237 0
 624 0006 1A68     		ldr	r2, [r3]
 625              		.loc 2 238 0
 626 0008 0860     		str	r0, [r1]
 627              		.loc 2 237 0
ARM GAS  C:\Users\osour\AppData\Local\Temp\ccYVCgIB.s 			page 12


 628 000a 83B0     		sub	sp, sp, #12
 629              		.cfi_def_cfa_offset 16
 630              		.loc 2 237 0
 631 000c 0192     		str	r2, [sp, #4]
 632              		.loc 2 239 0
 633 000e 019A     		ldr	r2, [sp, #4]
 634 0010 1B68     		ldr	r3, [r3]
 635 0012 9A42     		cmp	r2, r3
 636 0014 02D1     		bne	.L62
 637 0016 03B0     		add	sp, sp, #12
 638              		.cfi_remember_state
 639              		.cfi_def_cfa_offset 4
 640              		@ sp needed
 641 0018 5DF804FB 		ldr	pc, [sp], #4
 642              	.L62:
 643              		.cfi_restore_state
 644 001c FFF7FEFF 		bl	__stack_chk_fail
 645              	.LVL51:
 646              	.L64:
 647              		.align	2
 648              	.L63:
 649 0020 00000000 		.word	__stack_chk_guard
 650 0024 00000000 		.word	.LANCHOR0
 651              		.cfi_endproc
 652              	.LFE263:
 653              		.size	set_recording, .-set_recording
 654              		.global	songs
 655              		.section	.bss.musicWorkingArea,"aw",%nobits
 656              		.align	3
 657              		.set	.LANCHOR2,. + 0
 658              		.type	musicWorkingArea, %object
 659              		.size	musicWorkingArea, 504
 660              	musicWorkingArea:
 661 0000 00000000 		.space	504
 661      00000000 
 661      00000000 
 661      00000000 
 661      00000000 
 662              		.section	.bss.recording,"aw",%nobits
 663              		.align	2
 664              		.set	.LANCHOR0,. + 0
 665              		.type	recording, %object
 666              		.size	recording, 4
 667              	recording:
 668 0000 00000000 		.space	4
 669              		.section	.data.duration_COME_AS_YOU_ARE,"aw",%progbits
 670              		.align	2
 671              		.type	duration_COME_AS_YOU_ARE, %object
 672              		.size	duration_COME_AS_YOU_ARE, 15
 673              	duration_COME_AS_YOU_ARE:
 674 0000 02       		.byte	2
 675 0001 02       		.byte	2
 676 0002 02       		.byte	2
 677 0003 04       		.byte	4
 678 0004 02       		.byte	2
 679 0005 02       		.byte	2
 680 0006 02       		.byte	2
ARM GAS  C:\Users\osour\AppData\Local\Temp\ccYVCgIB.s 			page 13


 681 0007 02       		.byte	2
 682 0008 02       		.byte	2
 683 0009 02       		.byte	2
 684 000a 02       		.byte	2
 685 000b 02       		.byte	2
 686 000c 02       		.byte	2
 687 000d 02       		.byte	2
 688 000e 02       		.byte	2
 689              		.section	.data.duration_GOOD_TIMES,"aw",%progbits
 690              		.align	2
 691              		.type	duration_GOOD_TIMES, %object
 692              		.size	duration_GOOD_TIMES, 27
 693              	duration_GOOD_TIMES:
 694 0000 02       		.byte	2
 695 0001 02       		.byte	2
 696 0002 01       		.byte	1
 697 0003 01       		.byte	1
 698 0004 01       		.byte	1
 699 0005 02       		.byte	2
 700 0006 02       		.byte	2
 701 0007 02       		.byte	2
 702 0008 02       		.byte	2
 703 0009 02       		.byte	2
 704 000a 02       		.byte	2
 705 000b 01       		.byte	1
 706 000c 01       		.byte	1
 707 000d 02       		.byte	2
 708 000e 02       		.byte	2
 709 000f 01       		.byte	1
 710 0010 01       		.byte	1
 711 0011 01       		.byte	1
 712 0012 01       		.byte	1
 713 0013 02       		.byte	2
 714 0014 02       		.byte	2
 715 0015 02       		.byte	2
 716 0016 01       		.byte	1
 717 0017 01       		.byte	1
 718 0018 01       		.byte	1
 719 0019 01       		.byte	1
 720 001a 01       		.byte	1
 721              		.section	.data.duration_KILLING_IN_THE_NAME_OF,"aw",%progbits
 722              		.align	2
 723              		.type	duration_KILLING_IN_THE_NAME_OF, %object
 724              		.size	duration_KILLING_IN_THE_NAME_OF, 20
 725              	duration_KILLING_IN_THE_NAME_OF:
 726 0000 04       		.byte	4
 727 0001 02       		.byte	2
 728 0002 02       		.byte	2
 729 0003 02       		.byte	2
 730 0004 02       		.byte	2
 731 0005 02       		.byte	2
 732 0006 04       		.byte	4
 733 0007 04       		.byte	4
 734 0008 04       		.byte	4
 735 0009 04       		.byte	4
 736 000a 04       		.byte	4
 737 000b 02       		.byte	2
ARM GAS  C:\Users\osour\AppData\Local\Temp\ccYVCgIB.s 			page 14


 738 000c 02       		.byte	2
 739 000d 02       		.byte	2
 740 000e 02       		.byte	2
 741 000f 02       		.byte	2
 742 0010 04       		.byte	4
 743 0011 04       		.byte	4
 744 0012 04       		.byte	4
 745 0013 04       		.byte	4
 746              		.section	.data.duration_MISS_YOU,"aw",%progbits
 747              		.align	2
 748              		.type	duration_MISS_YOU, %object
 749              		.size	duration_MISS_YOU, 18
 750              	duration_MISS_YOU:
 751 0000 02       		.byte	2
 752 0001 02       		.byte	2
 753 0002 02       		.byte	2
 754 0003 02       		.byte	2
 755 0004 01       		.byte	1
 756 0005 01       		.byte	1
 757 0006 06       		.byte	6
 758 0007 02       		.byte	2
 759 0008 02       		.byte	2
 760 0009 02       		.byte	2
 761 000a 02       		.byte	2
 762 000b 01       		.byte	1
 763 000c 01       		.byte	1
 764 000d 06       		.byte	6
 765 000e 02       		.byte	2
 766 000f 02       		.byte	2
 767 0010 02       		.byte	2
 768 0011 0A       		.byte	10
 769              		.section	.data.duration_SOLD_THE_WORLD,"aw",%progbits
 770              		.align	2
 771              		.type	duration_SOLD_THE_WORLD, %object
 772              		.size	duration_SOLD_THE_WORLD, 17
 773              	duration_SOLD_THE_WORLD:
 774 0000 02       		.byte	2
 775 0001 02       		.byte	2
 776 0002 02       		.byte	2
 777 0003 04       		.byte	4
 778 0004 01       		.byte	1
 779 0005 01       		.byte	1
 780 0006 02       		.byte	2
 781 0007 02       		.byte	2
 782 0008 02       		.byte	2
 783 0009 02       		.byte	2
 784 000a 02       		.byte	2
 785 000b 04       		.byte	4
 786 000c 01       		.byte	1
 787 000d 01       		.byte	1
 788 000e 02       		.byte	2
 789 000f 02       		.byte	2
 790 0010 0F       		.byte	15
 791              		.section	.data.melody_COME_AS_YOU_ARE,"aw",%progbits
 792              		.align	2
 793              		.type	melody_COME_AS_YOU_ARE, %object
 794              		.size	melody_COME_AS_YOU_ARE, 15
ARM GAS  C:\Users\osour\AppData\Local\Temp\ccYVCgIB.s 			page 15


 795              	melody_COME_AS_YOU_ARE:
 796 0000 07       		.byte	7
 797 0001 07       		.byte	7
 798 0002 08       		.byte	8
 799 0003 09       		.byte	9
 800 0004 0C       		.byte	12
 801 0005 09       		.byte	9
 802 0006 0C       		.byte	12
 803 0007 09       		.byte	9
 804 0008 09       		.byte	9
 805 0009 08       		.byte	8
 806 000a 07       		.byte	7
 807 000b 0E       		.byte	14
 808 000c 07       		.byte	7
 809 000d 07       		.byte	7
 810 000e 0E       		.byte	14
 811              		.section	.data.melody_GOOD_TIMES,"aw",%progbits
 812              		.align	2
 813              		.type	melody_GOOD_TIMES, %object
 814              		.size	melody_GOOD_TIMES, 27
 815              	melody_GOOD_TIMES:
 816 0000 13       		.byte	19
 817 0001 13       		.byte	19
 818 0002 13       		.byte	19
 819 0003 13       		.byte	19
 820 0004 13       		.byte	19
 821 0005 15       		.byte	21
 822 0006 16       		.byte	22
 823 0007 18       		.byte	24
 824 0008 1A       		.byte	26
 825 0009 1C       		.byte	28
 826 000a 1D       		.byte	29
 827 000b 1F       		.byte	31
 828 000c 0C       		.byte	12
 829 000d 0C       		.byte	12
 830 000e 0C       		.byte	12
 831 000f 0C       		.byte	12
 832 0010 0C       		.byte	12
 833 0011 21       		.byte	33
 834 0012 0C       		.byte	12
 835 0013 22       		.byte	34
 836 0014 21       		.byte	33
 837 0015 0C       		.byte	12
 838 0016 13       		.byte	19
 839 0017 1A       		.byte	26
 840 0018 13       		.byte	19
 841 0019 15       		.byte	21
 842 001a 16       		.byte	22
 843              		.section	.data.melody_KILLING_IN_THE_NAME_OF,"aw",%progbits
 844              		.align	2
 845              		.type	melody_KILLING_IN_THE_NAME_OF, %object
 846              		.size	melody_KILLING_IN_THE_NAME_OF, 20
 847              	melody_KILLING_IN_THE_NAME_OF:
 848 0000 07       		.byte	7
 849 0001 0F       		.byte	15
 850 0002 11       		.byte	17
 851 0003 14       		.byte	20
ARM GAS  C:\Users\osour\AppData\Local\Temp\ccYVCgIB.s 			page 16


 852 0004 15       		.byte	21
 853 0005 11       		.byte	17
 854 0006 07       		.byte	7
 855 0007 09       		.byte	9
 856 0008 0A       		.byte	10
 857 0009 09       		.byte	9
 858 000a 07       		.byte	7
 859 000b 0F       		.byte	15
 860 000c 11       		.byte	17
 861 000d 14       		.byte	20
 862 000e 15       		.byte	21
 863 000f 11       		.byte	17
 864 0010 07       		.byte	7
 865 0011 09       		.byte	9
 866 0012 0A       		.byte	10
 867 0013 09       		.byte	9
 868              		.section	.data.melody_MISS_YOU,"aw",%progbits
 869              		.align	2
 870              		.type	melody_MISS_YOU, %object
 871              		.size	melody_MISS_YOU, 18
 872              	melody_MISS_YOU:
 873 0000 05       		.byte	5
 874 0001 07       		.byte	7
 875 0002 16       		.byte	22
 876 0003 0C       		.byte	12
 877 0004 07       		.byte	7
 878 0005 05       		.byte	5
 879 0006 07       		.byte	7
 880 0007 05       		.byte	5
 881 0008 07       		.byte	7
 882 0009 16       		.byte	22
 883 000a 0C       		.byte	12
 884 000b 07       		.byte	7
 885 000c 05       		.byte	5
 886 000d 07       		.byte	7
 887 000e 05       		.byte	5
 888 000f 07       		.byte	7
 889 0010 0C       		.byte	12
 890 0011 07       		.byte	7
 891              		.section	.data.melody_SOLD_THE_WORLD,"aw",%progbits
 892              		.align	2
 893              		.type	melody_SOLD_THE_WORLD, %object
 894              		.size	melody_SOLD_THE_WORLD, 17
 895              	melody_SOLD_THE_WORLD:
 896 0000 16       		.byte	22
 897 0001 16       		.byte	22
 898 0002 16       		.byte	22
 899 0003 14       		.byte	20
 900 0004 16       		.byte	22
 901 0005 17       		.byte	23
 902 0006 16       		.byte	22
 903 0007 14       		.byte	20
 904 0008 16       		.byte	22
 905 0009 16       		.byte	22
 906 000a 16       		.byte	22
 907 000b 14       		.byte	20
 908 000c 16       		.byte	22
ARM GAS  C:\Users\osour\AppData\Local\Temp\ccYVCgIB.s 			page 17


 909 000d 17       		.byte	23
 910 000e 16       		.byte	22
 911 000f 14       		.byte	20
 912 0010 16       		.byte	22
 913              		.section	.data.songs,"aw",%progbits
 914              		.align	2
 915              		.set	.LANCHOR1,. + 0
 916              		.type	songs, %object
 917              		.size	songs, 60
 918              	songs:
 919 0000 00000000 		.word	melody_COME_AS_YOU_ARE
 920 0004 00000000 		.word	duration_COME_AS_YOU_ARE
 921 0008 3200     		.short	50
 922 000a 0F00     		.short	15
 923 000c 00000000 		.word	melody_MISS_YOU
 924 0010 00000000 		.word	duration_MISS_YOU
 925 0014 3200     		.short	50
 926 0016 1200     		.short	18
 927 0018 00000000 		.word	melody_KILLING_IN_THE_NAME_OF
 928 001c 00000000 		.word	duration_KILLING_IN_THE_NAME_OF
 929 0020 3200     		.short	50
 930 0022 1400     		.short	20
 931 0024 00000000 		.word	melody_SOLD_THE_WORLD
 932 0028 00000000 		.word	duration_SOLD_THE_WORLD
 933 002c 3200     		.short	50
 934 002e 1100     		.short	17
 935 0030 00000000 		.word	melody_GOOD_TIMES
 936 0034 00000000 		.word	duration_GOOD_TIMES
 937 0038 1E00     		.short	30
 938 003a 1B00     		.short	27
 939              		.section	.rodata.chprintf.constprop.1.str1.4,"aMS",%progbits,1
 940              		.align	2
 941              	.LC0:
 942 0000 2564200D 		.ascii	"%d \015 \012\000"
 942      200A00
 943              		.section	.rodata.note_frequency,"a",%progbits
 944              		.align	2
 945              		.set	.LANCHOR3,. + 0
 946              		.type	note_frequency, %object
 947              		.size	note_frequency, 96
 948              	note_frequency:
 949 0000 3700     		.short	55
 950 0002 3A00     		.short	58
 951 0004 3E00     		.short	62
 952 0006 4100     		.short	65
 953 0008 4500     		.short	69
 954 000a 4900     		.short	73
 955 000c 4D00     		.short	77
 956 000e 5200     		.short	82
 957 0010 5700     		.short	87
 958 0012 5C00     		.short	92
 959 0014 6200     		.short	98
 960 0016 6800     		.short	104
 961 0018 6E00     		.short	110
 962 001a 7400     		.short	116
 963 001c 7C00     		.short	124
 964 001e 8300     		.short	131
ARM GAS  C:\Users\osour\AppData\Local\Temp\ccYVCgIB.s 			page 18


 965 0020 8A00     		.short	138
 966 0022 9200     		.short	146
 967 0024 9B00     		.short	155
 968 0026 A500     		.short	165
 969 0028 AF00     		.short	175
 970 002a B900     		.short	185
 971 002c C400     		.short	196
 972 002e D000     		.short	208
 973 0030 DC00     		.short	220
 974 0032 E900     		.short	233
 975 0034 F700     		.short	247
 976 0036 0601     		.short	262
 977 0038 1501     		.short	277
 978 003a 2601     		.short	294
 979 003c 3701     		.short	311
 980 003e 4A01     		.short	330
 981 0040 5D01     		.short	349
 982 0042 7201     		.short	370
 983 0044 8801     		.short	392
 984 0046 9F01     		.short	415
 985 0048 B801     		.short	440
 986 004a D201     		.short	466
 987 004c EE01     		.short	494
 988 004e 0B02     		.short	523
 989 0050 2A02     		.short	554
 990 0052 4B02     		.short	587
 991 0054 6E02     		.short	622
 992 0056 9302     		.short	659
 993 0058 BA02     		.short	698
 994 005a E402     		.short	740
 995 005c 1003     		.short	784
 996 005e 3F03     		.short	831
 997              		.text
 998              	.Letext0:
 999              		.file 3 "c:\\users\\osour\\desktop\\robotique\\eclipse_e-puck2\\tools\\gcc-arm-none-eabi-7-2017-q4
 1000              		.file 4 "c:\\users\\osour\\desktop\\robotique\\eclipse_e-puck2\\tools\\gcc-arm-none-eabi-7-2017-q4
 1001              		.file 5 "c:\\users\\osour\\desktop\\robotique\\eclipse_e-puck2\\tools\\gcc-arm-none-eabi-7-2017-q4
 1002              		.file 6 "../../lib/e-puck2_main-processor/ChibiOS//os/rt/ports/ARMCMx/compilers/GCC/chtypes.h"
 1003              		.file 7 "../../lib/e-puck2_main-processor/ChibiOS//os/rt/include/chsystypes.h"
 1004              		.file 8 "../../lib/e-puck2_main-processor/ChibiOS//os/rt/include/chschd.h"
 1005              		.file 9 "../../lib/e-puck2_main-processor/ChibiOS//os/ext/CMSIS/include/core_cm4.h"
 1006              		.file 10 "../../lib/e-puck2_main-processor/ChibiOS//os/ext/CMSIS/ST/system_stm32f4xx.h"
 1007              		.file 11 "../../lib/e-puck2_main-processor/ChibiOS//os/ext/CMSIS/ST/stm32f407xx.h"
 1008              		.file 12 "../../lib/e-puck2_main-processor/ChibiOS//os/rt/ports/ARMCMx/chcore.h"
 1009              		.file 13 "../../lib/e-puck2_main-processor/ChibiOS//os/rt/ports/ARMCMx/chcore_v7m.h"
 1010              		.file 14 "../../lib/e-puck2_main-processor/ChibiOS//os/rt/include/chdebug.h"
 1011              		.file 15 "../../lib/e-puck2_main-processor/ChibiOS//os/rt/include/chtm.h"
 1012              		.file 16 "../../lib/e-puck2_main-processor/ChibiOS//os/rt/include/chstats.h"
 1013              		.file 17 "../../lib/e-puck2_main-processor/ChibiOS//os/rt/include/chsem.h"
 1014              		.file 18 "../../lib/e-puck2_main-processor/ChibiOS//os/rt/include/chmtx.h"
 1015              		.file 19 "../../lib/e-puck2_main-processor/ChibiOS//os/rt/include/chregistry.h"
 1016              		.file 20 "../../lib/e-puck2_main-processor/ChibiOS//os/rt/include/chevents.h"
 1017              		.file 21 "../../lib/e-puck2_main-processor/ChibiOS//os/rt/include/chqueues.h"
 1018              		.file 22 "../../lib/e-puck2_main-processor/ChibiOS//os/rt/include/chstreams.h"
 1019              		.file 23 "../../lib/e-puck2_main-processor/ChibiOS//os/hal/ports/STM32/STM32F4xx/stm32_dma.h"
 1020              		.file 24 "../../lib/e-puck2_main-processor/ChibiOS//os/hal/include/hal_ioblock.h"
 1021              		.file 25 "../../lib/e-puck2_main-processor/ChibiOS//os/hal/ports/STM32/LLD/GPIOv2/pal_lld.h"
ARM GAS  C:\Users\osour\AppData\Local\Temp\ccYVCgIB.s 			page 19


 1022              		.file 26 "../../lib/e-puck2_main-processor/ChibiOS//os/hal/include/adc.h"
 1023              		.file 27 "../../lib/e-puck2_main-processor/ChibiOS//os/hal/ports/STM32/STM32F4xx/adc_lld.h"
 1024              		.file 28 "../../lib/e-puck2_main-processor/ChibiOS//os/hal/include/can.h"
 1025              		.file 29 "../../lib/e-puck2_main-processor/ChibiOS//os/hal/ports/STM32/LLD/can_lld.h"
 1026              		.file 30 "../../lib/e-puck2_main-processor/ChibiOS//os/hal/include/dac.h"
 1027              		.file 31 "../../lib/e-puck2_main-processor/ChibiOS//os/hal/ports/STM32/LLD/DACv1/dac_lld.h"
 1028              		.file 32 "../../lib/e-puck2_main-processor/ChibiOS//os/hal/include/ext.h"
 1029              		.file 33 "../../lib/e-puck2_main-processor/ChibiOS//os/hal/ports/STM32/LLD/ext_lld.h"
 1030              		.file 34 "../../lib/e-puck2_main-processor/ChibiOS//os/hal/include/gpt.h"
 1031              		.file 35 "../../lib/e-puck2_main-processor/ChibiOS//os/hal/ports/STM32/LLD/TIMv1/gpt_lld.h"
 1032              		.file 36 "../../lib/e-puck2_main-processor/ChibiOS//os/hal/ports/STM32/LLD/TIMv1/stm32_tim.h"
 1033              		.file 37 "../../lib/e-puck2_main-processor/ChibiOS//os/hal/include/i2c.h"
 1034              		.file 38 "../../lib/e-puck2_main-processor/ChibiOS//os/hal/ports/STM32/LLD/I2Cv1/i2c_lld.h"
 1035              		.file 39 "../../lib/e-puck2_main-processor/ChibiOS//os/hal/include/i2s.h"
 1036              		.file 40 "../../lib/e-puck2_main-processor/ChibiOS//os/hal/ports/STM32/LLD/SPIv1/i2s_lld.h"
 1037              		.file 41 "../../lib/e-puck2_main-processor/ChibiOS//os/hal/include/pwm.h"
 1038              		.file 42 "../../lib/e-puck2_main-processor/ChibiOS//os/hal/ports/STM32/LLD/TIMv1/pwm_lld.h"
 1039              		.file 43 "../../lib/e-puck2_main-processor/ChibiOS//os/hal/include/serial.h"
 1040              		.file 44 "../../lib/e-puck2_main-processor/ChibiOS//os/hal/ports/STM32/LLD/USARTv1/serial_lld.h"
 1041              		.file 45 "../../lib/e-puck2_main-processor/ChibiOS//os/hal/include/sdc.h"
 1042              		.file 46 "../../lib/e-puck2_main-processor/ChibiOS//os/hal/ports/STM32/LLD/sdc_lld.h"
 1043              		.file 47 "../../lib/e-puck2_main-processor/ChibiOS//os/hal/include/spi.h"
 1044              		.file 48 "../../lib/e-puck2_main-processor/ChibiOS//os/hal/ports/STM32/LLD/SPIv1/spi_lld.h"
 1045              		.file 49 "../../lib/e-puck2_main-processor/ChibiOS//os/hal/include/usb.h"
 1046              		.file 50 "../../lib/e-puck2_main-processor/ChibiOS//os/hal/ports/STM32/LLD/OTGv1/usb_lld.h"
 1047              		.file 51 "../../lib/e-puck2_main-processor/ChibiOS//os/hal/ports/STM32/LLD/OTGv1/stm32_otg.h"
 1048              		.file 52 "../../lib/e-puck2_main-processor/ChibiOS//os/hal/include/serial_usb.h"
 1049              		.file 53 "../../lib/e-puck2_main-processor/ChibiOS_ext/os/hal/include/../ports/STM32/STM32F4xx/dcm
 1050              		.file 54 "c:\\users\\osour\\desktop\\robotique\\eclipse_e-puck2\\tools\\gcc-arm-none-eabi-7-2017-q
 1051              		.file 55 "c:\\users\\osour\\desktop\\robotique\\eclipse_e-puck2\\tools\\gcc-arm-none-eabi-7-2017-q
 1052              		.file 56 "<built-in>"
 1053              		.file 57 "c:\\users\\osour\\desktop\\robotique\\eclipse_e-puck2\\tools\\gcc-arm-none-eabi-7-2017-q
 1054              		.file 58 "../../lib/e-puck2_main-processor/src/msgbus/messagebus.h"
 1055              		.file 59 "c:\\users\\osour\\desktop\\robotique\\eclipse_e-puck2\\tools\\gcc-arm-none-eabi-7-2017-q
 1056              		.file 60 "c:\\users\\osour\\desktop\\robotique\\eclipse_e-puck2\\tools\\gcc-arm-none-eabi-7-2017-q
 1057              		.file 61 "../../lib/e-puck2_main-processor/src/parameter/parameter.h"
 1058              		.file 62 "./main.h"
 1059              		.file 63 "../../lib/e-puck2_main-processor/src/usbcfg.h"
 1060              		.file 64 "c:\\users\\osour\\desktop\\robotique\\eclipse_e-puck2\\tools\\gcc-arm-none-eabi-7-2017-q
 1061              		.file 65 "./audio_processing.h"
 1062              		.file 66 "../../lib/e-puck2_main-processor/src/audio/audio_thread.h"
 1063              		.file 67 "../../lib/e-puck2_main-processor/ChibiOS//os/rt/include/chthreads.h"
 1064              		.file 68 "../../lib/e-puck2_main-processor/src/audio/custom_microphone.h"