ARM GAS  C:\Users\osour\AppData\Local\Temp\cchV7A6m.s 			page 1


   1              		.cpu cortex-m4
   2              		.eabi_attribute 27, 1
   3              		.eabi_attribute 28, 1
   4              		.eabi_attribute 20, 1
   5              		.eabi_attribute 21, 1
   6              		.eabi_attribute 23, 3
   7              		.eabi_attribute 24, 1
   8              		.eabi_attribute 25, 1
   9              		.eabi_attribute 26, 1
  10              		.eabi_attribute 30, 2
  11              		.eabi_attribute 34, 1
  12              		.eabi_attribute 18, 4
  13              		.file	"pathing.c"
  14              		.text
  15              	.Ltext0:
  16              		.cfi_sections	.debug_frame
  17              		.section	.text.chprintf.constprop.0,"ax",%progbits
  18              		.align	1
  19              		.p2align 4,,15
  20              		.syntax unified
  21              		.thumb
  22              		.thumb_func
  23              		.fpu fpv4-sp-d16
  24              		.type	chprintf.constprop.0, %function
  25              	chprintf.constprop.0:
  26              	.LFB295:
  27              		.file 1 "../../lib/e-puck2_main-processor/ChibiOS//os/hal/lib/streams/chprintf.h"
  28              		.loc 1 69 0
  29              		.cfi_startproc
  30              		@ args = 4, pretend = 12, frame = 8
  31              		@ frame_needed = 0, uses_anonymous_args = 1
  32              	.LVL0:
  33 0000 0EB4     		push	{r1, r2, r3}
  34              		.cfi_def_cfa_offset 12
  35              		.cfi_offset 1, -12
  36              		.cfi_offset 2, -8
  37              		.cfi_offset 3, -4
  38 0002 10B5     		push	{r4, lr}
  39              		.cfi_def_cfa_offset 20
  40              		.cfi_offset 4, -20
  41              		.cfi_offset 14, -16
  42 0004 0A4C     		ldr	r4, .L6
  43              		.loc 1 74 0
  44 0006 0B49     		ldr	r1, .L6+4
  45              		.loc 1 69 0
  46 0008 2368     		ldr	r3, [r4]
  47              		.loc 1 74 0
  48 000a 0B48     		ldr	r0, .L6+8
  49              	.LVL1:
  50              		.loc 1 69 0
  51 000c 83B0     		sub	sp, sp, #12
  52              		.cfi_def_cfa_offset 32
  53              		.loc 1 69 0
  54 000e 0193     		str	r3, [sp, #4]
  55              	.LVL2:
  56              		.loc 1 73 0
  57 0010 06AB     		add	r3, sp, #24
ARM GAS  C:\Users\osour\AppData\Local\Temp\cchV7A6m.s 			page 2


  58              		.loc 1 74 0
  59 0012 1A46     		mov	r2, r3
  60              		.loc 1 73 0
  61 0014 0093     		str	r3, [sp]
  62              		.loc 1 74 0
  63 0016 FFF7FEFF 		bl	chvprintf
  64              	.LVL3:
  65              		.loc 1 78 0
  66 001a 019A     		ldr	r2, [sp, #4]
  67 001c 2368     		ldr	r3, [r4]
  68 001e 9A42     		cmp	r2, r3
  69 0020 04D1     		bne	.L5
  70 0022 03B0     		add	sp, sp, #12
  71              		.cfi_remember_state
  72              		.cfi_def_cfa_offset 20
  73              		@ sp needed
  74 0024 BDE81040 		pop	{r4, lr}
  75              		.cfi_restore 14
  76              		.cfi_restore 4
  77              		.cfi_def_cfa_offset 12
  78 0028 03B0     		add	sp, sp, #12
  79              		.cfi_restore 3
  80              		.cfi_restore 2
  81              		.cfi_restore 1
  82              		.cfi_def_cfa_offset 0
  83 002a 7047     		bx	lr
  84              	.L5:
  85              		.cfi_restore_state
  86 002c FFF7FEFF 		bl	__stack_chk_fail
  87              	.LVL4:
  88              	.L7:
  89              		.align	2
  90              	.L6:
  91 0030 00000000 		.word	__stack_chk_guard
  92 0034 00000000 		.word	.LC0
  93 0038 00000000 		.word	SD3
  94              		.cfi_endproc
  95              	.LFE295:
  96              		.size	chprintf.constprop.0, .-chprintf.constprop.0
  97              		.section	.text.radar,"ax",%progbits
  98              		.align	1
  99              		.p2align 4,,15
 100              		.global	radar
 101              		.syntax unified
 102              		.thumb
 103              		.thumb_func
 104              		.fpu fpv4-sp-d16
 105              		.type	radar, %function
 106              	radar:
 107              	.LFB291:
 108              		.file 2 "pathing.c"
 109              		.loc 2 99 0
 110              		.cfi_startproc
 111              		@ args = 0, pretend = 0, frame = 8
 112              		@ frame_needed = 0, uses_anonymous_args = 0
 113              	.LVL5:
 114 0000 2DE9F047 		push	{r4, r5, r6, r7, r8, r9, r10, lr}
ARM GAS  C:\Users\osour\AppData\Local\Temp\cchV7A6m.s 			page 3


 115              		.cfi_def_cfa_offset 32
 116              		.cfi_offset 4, -32
 117              		.cfi_offset 5, -28
 118              		.cfi_offset 6, -24
 119              		.cfi_offset 7, -20
 120              		.cfi_offset 8, -16
 121              		.cfi_offset 9, -12
 122              		.cfi_offset 10, -8
 123              		.cfi_offset 14, -4
 124 0004 DFF87C80 		ldr	r8, .L21
 125 0008 82B0     		sub	sp, sp, #8
 126              		.cfi_def_cfa_offset 40
 127              		.loc 2 99 0
 128 000a D8F80030 		ldr	r3, [r8]
 129 000e 0193     		str	r3, [sp, #4]
 130 0010 8246     		mov	r10, r0
 131              		.loc 2 101 0
 132 0012 0520     		movs	r0, #5
 133              	.LVL6:
 134 0014 FFF7FEFF 		bl	get_prox
 135              	.LVL7:
 136 0018 8146     		mov	r9, r0
 137 001a 0620     		movs	r0, #6
 138 001c FFF7FEFF 		bl	get_prox
 139              	.LVL8:
 140 0020 0746     		mov	r7, r0
 141 0022 0720     		movs	r0, #7
 142 0024 FFF7FEFF 		bl	get_prox
 143              	.LVL9:
 144 0028 0646     		mov	r6, r0
 145              		.loc 2 102 0
 146 002a 0020     		movs	r0, #0
 147 002c FFF7FEFF 		bl	get_prox
 148              	.LVL10:
 149 0030 0546     		mov	r5, r0
 150 0032 0120     		movs	r0, #1
 151 0034 FFF7FEFF 		bl	get_prox
 152              	.LVL11:
 153 0038 0446     		mov	r4, r0
 154 003a 0220     		movs	r0, #2
 155 003c FFF7FEFF 		bl	get_prox
 156              	.LVL12:
 157              	.LBB6:
 158              		.loc 2 108 0
 159 0040 B945     		cmp	r9, r7
 160 0042 A6BF     		itte	ge
 161 0044 4F46     		movge	r7, r9
 162              	.LBE6:
 163              		.loc 2 105 0
 164 0046 0020     		movge	r0, #0
 165              	.LBB7:
 166              		.loc 2 107 0
 167 0048 0120     		movlt	r0, #1
 168              	.LVL13:
 169              		.loc 2 108 0
 170 004a BE42     		cmp	r6, r7
 171 004c D4BF     		ite	le
ARM GAS  C:\Users\osour\AppData\Local\Temp\cchV7A6m.s 			page 4


 172 004e 3E46     		movle	r6, r7
 173              		.loc 2 107 0
 174 0050 0220     		movgt	r0, #2
 175              	.LVL14:
 176              		.loc 2 108 0
 177 0052 B542     		cmp	r5, r6
 178 0054 D4BF     		ite	le
 179 0056 3546     		movle	r5, r6
 180              		.loc 2 107 0
 181 0058 0320     		movgt	r0, #3
 182              	.LVL15:
 183              		.loc 2 108 0
 184 005a AC42     		cmp	r4, r5
 185 005c D8BF     		it	le
 186 005e 2C46     		movle	r4, r5
 187              	.LBE7:
 188              		.loc 2 113 0
 189 0060 CAF80040 		str	r4, [r10]
 190              		.loc 2 120 0
 191 0064 019A     		ldr	r2, [sp, #4]
 192 0066 D8F80030 		ldr	r3, [r8]
 193              	.LBB8:
 194              		.loc 2 107 0
 195 006a C8BF     		it	gt
 196 006c 0420     		movgt	r0, #4
 197              	.LVL16:
 198              	.LBE8:
 199              		.loc 2 115 0
 200 006e F92C     		cmp	r4, #249
 201              		.loc 2 120 0
 202 0070 D8BF     		it	le
 203 0072 0620     		movle	r0, #6
 204              	.LVL17:
 205 0074 9A42     		cmp	r2, r3
 206 0076 02D1     		bne	.L20
 207 0078 02B0     		add	sp, sp, #8
 208              		.cfi_remember_state
 209              		.cfi_def_cfa_offset 32
 210              		@ sp needed
 211 007a BDE8F087 		pop	{r4, r5, r6, r7, r8, r9, r10, pc}
 212              	.LVL18:
 213              	.L20:
 214              		.cfi_restore_state
 215 007e FFF7FEFF 		bl	__stack_chk_fail
 216              	.LVL19:
 217              	.L22:
 218 0082 00BF     		.align	2
 219              	.L21:
 220 0084 00000000 		.word	__stack_chk_guard
 221              		.cfi_endproc
 222              	.LFE291:
 223              		.size	radar, .-radar
 224              		.global	__aeabi_f2d
 225              		.section	.text.register_path,"ax",%progbits
 226              		.align	1
 227              		.p2align 4,,15
 228              		.global	register_path
ARM GAS  C:\Users\osour\AppData\Local\Temp\cchV7A6m.s 			page 5


 229              		.syntax unified
 230              		.thumb
 231              		.thumb_func
 232              		.fpu fpv4-sp-d16
 233              		.type	register_path, %function
 234              	register_path:
 235              	.LFB293:
 236              		.loc 2 190 0
 237              		.cfi_startproc
 238              		@ args = 0, pretend = 0, frame = 16
 239              		@ frame_needed = 0, uses_anonymous_args = 0
 240              	.LVL20:
 241              		.loc 2 194 0
 242 0000 70EEC06A 		vsub.f32	s13, s1, s0
 243 0004 9FED307A 		vldr.32	s14, .L34
 244 0008 C6EE877A 		vdiv.f32	s15, s13, s14
 245              		.loc 2 190 0
 246 000c 30B5     		push	{r4, r5, lr}
 247              		.cfi_def_cfa_offset 12
 248              		.cfi_offset 4, -12
 249              		.cfi_offset 5, -8
 250              		.cfi_offset 14, -4
 251 000e 2F4D     		ldr	r5, .L34+4
 252              		.loc 2 194 0
 253 0010 2F4C     		ldr	r4, .L34+8
 254              		.loc 2 190 0
 255 0012 2B68     		ldr	r3, [r5]
 256 0014 85B0     		sub	sp, sp, #20
 257              		.cfi_def_cfa_offset 32
 258              		.loc 2 190 0
 259 0016 0393     		str	r3, [sp, #12]
 260              		.loc 2 191 0
 261 0018 30EE200A 		vadd.f32	s0, s0, s1
 262              	.LVL21:
 263 001c F6EE000A 		vmov.f32	s1, #5.0e-1
 264              	.LVL22:
 265 0020 20EE200A 		vmul.f32	s0, s0, s1
 266              		.loc 2 199 0
 267 0024 9FED2B7A 		vldr.32	s14, .L34+12
 268              		.loc 2 191 0
 269 0028 8DED000A 		vstr.32	s0, [sp]
 270              		.loc 2 194 0
 271 002c D4ED006A 		vldr.32	s13, [r4]
 272 0030 77EEA67A 		vadd.f32	s15, s15, s13
 273 0034 C4ED007A 		vstr.32	s15, [r4]
 274              		.loc 2 199 0
 275 0038 D4ED007A 		vldr.32	s15, [r4]
 276 003c F4EEC77A 		vcmpe.f32	s15, s14
 277 0040 F1EE10FA 		vmrs	APSR_nzcv, FPSCR
 278              		.loc 2 200 0
 279 0044 44BF     		itt	mi
 280 0046 0023     		movmi	r3, #0
 281 0048 2360     		strmi	r3, [r4]	@ float
 282              		.loc 2 202 0
 283 004a 9DED007A 		vldr.32	s14, [sp]
 284 004e DFED217A 		vldr.32	s15, .L34+12
 285 0052 B4EEE77A 		vcmpe.f32	s14, s15
ARM GAS  C:\Users\osour\AppData\Local\Temp\cchV7A6m.s 			page 6


 286 0056 F1EE10FA 		vmrs	APSR_nzcv, FPSCR
 287              		.loc 2 203 0
 288 005a 44BF     		itt	mi
 289 005c 0023     		movmi	r3, #0
 290 005e 0093     		strmi	r3, [sp]	@ float
 291              		.loc 2 205 0
 292 0060 94ED000A 		vldr.32	s0, [r4]
 293 0064 FFF7FEFF 		bl	arm_cos_f32
 294              	.LVL23:
 295 0068 8DED020A 		vstr.32	s0, [sp, #8]
 296              		.loc 2 206 0
 297 006c 94ED000A 		vldr.32	s0, [r4]
 298 0070 FFF7FEFF 		bl	arm_sin_f32
 299              	.LVL24:
 300              		.loc 2 208 0
 301 0074 184A     		ldr	r2, .L34+16
 302              		.loc 2 206 0
 303 0076 8DED010A 		vstr.32	s0, [sp, #4]
 304              		.loc 2 208 0
 305 007a DDED006A 		vldr.32	s13, [sp]
 306 007e 9DED027A 		vldr.32	s14, [sp, #8]
 307 0082 D2ED007A 		vldr.32	s15, [r2]
 308              		.loc 2 209 0
 309 0086 154B     		ldr	r3, .L34+20
 310              		.loc 2 208 0
 311 0088 E6EE877A 		vfma.f32	s15, s13, s14
 312 008c C2ED007A 		vstr.32	s15, [r2]
 313              		.loc 2 209 0
 314 0090 DDED006A 		vldr.32	s13, [sp]
 315 0094 9DED017A 		vldr.32	s14, [sp, #4]
 316 0098 D3ED007A 		vldr.32	s15, [r3]
 317 009c E6EE877A 		vfma.f32	s15, s13, s14
 318 00a0 C3ED007A 		vstr.32	s15, [r3]
 319              		.loc 2 211 0
 320 00a4 2068     		ldr	r0, [r4]	@ float
 321 00a6 039A     		ldr	r2, [sp, #12]
 322 00a8 2B68     		ldr	r3, [r5]
 323 00aa 9A42     		cmp	r2, r3
 324 00ac 0AD1     		bne	.L33
 325 00ae FFF7FEFF 		bl	__aeabi_f2d
 326              	.LVL25:
 327 00b2 0246     		mov	r2, r0
 328 00b4 0B46     		mov	r3, r1
 329 00b6 0A48     		ldr	r0, .L34+24
 330 00b8 0A49     		ldr	r1, .L34+28
 331              		.loc 2 212 0
 332 00ba 05B0     		add	sp, sp, #20
 333              		.cfi_remember_state
 334              		.cfi_def_cfa_offset 12
 335              		@ sp needed
 336 00bc BDE83040 		pop	{r4, r5, lr}
 337              		.cfi_restore 14
 338              		.cfi_restore 5
 339              		.cfi_restore 4
 340              		.cfi_def_cfa_offset 0
 341              		.loc 2 211 0
 342 00c0 FFF7FEBF 		b	chprintf.constprop.0
ARM GAS  C:\Users\osour\AppData\Local\Temp\cchV7A6m.s 			page 7


 343              	.LVL26:
 344              	.L33:
 345              		.cfi_restore_state
 346 00c4 FFF7FEFF 		bl	__stack_chk_fail
 347              	.LVL27:
 348              	.L35:
 349              		.align	2
 350              	.L34:
 351 00c8 00005042 		.word	1112539136
 352 00cc 00000000 		.word	__stack_chk_guard
 353 00d0 00000000 		.word	.LANCHOR0
 354 00d4 6F12833A 		.word	981668463
 355 00d8 00000000 		.word	.LANCHOR1
 356 00dc 00000000 		.word	.LANCHOR2
 357 00e0 00000000 		.word	SD3
 358 00e4 00000000 		.word	.LC0
 359              		.cfi_endproc
 360              	.LFE293:
 361              		.size	register_path, .-register_path
 362              		.section	.text.move,"ax",%progbits
 363              		.align	1
 364              		.p2align 4,,15
 365              		.global	move
 366              		.syntax unified
 367              		.thumb
 368              		.thumb_func
 369              		.fpu fpv4-sp-d16
 370              		.type	move, %function
 371              	move:
 372              	.LFB292:
 373              		.loc 2 126 0
 374              		.cfi_startproc
 375              		@ args = 0, pretend = 0, frame = 24
 376              		@ frame_needed = 0, uses_anonymous_args = 0
 377              	.LVL28:
 378 0000 30B5     		push	{r4, r5, lr}
 379              		.cfi_def_cfa_offset 12
 380              		.cfi_offset 4, -12
 381              		.cfi_offset 5, -8
 382              		.cfi_offset 14, -4
 383 0002 2DED068B 		vpush.64	{d8, d9, d10}
 384              		.cfi_def_cfa_offset 36
 385              		.cfi_offset 80, -36
 386              		.cfi_offset 81, -32
 387              		.cfi_offset 82, -28
 388              		.cfi_offset 83, -24
 389              		.cfi_offset 84, -20
 390              		.cfi_offset 85, -16
 391 0006 834D     		ldr	r5, .L76
 392 0008 834C     		ldr	r4, .L76+4
 393 000a 2B68     		ldr	r3, [r5]
 394              		.loc 2 158 0
 395 000c 9FED83AA 		vldr.32	s20, .L76+8
 396              		.loc 2 126 0
 397 0010 87B0     		sub	sp, sp, #28
 398              		.cfi_def_cfa_offset 64
 399              		.loc 2 128 0
ARM GAS  C:\Users\osour\AppData\Local\Temp\cchV7A6m.s 			page 8


 400 0012 0020     		movs	r0, #0
 401              		.loc 2 126 0
 402 0014 0593     		str	r3, [sp, #20]
 403              	.LVL29:
 404 0016 B0EE408A 		vmov.f32	s16, s0
 405 001a F0EE608A 		vmov.f32	s17, s1
 406              		.loc 2 128 0
 407 001e FFF7FEFF 		bl	right_motor_set_pos
 408              	.LVL30:
 409              		.loc 2 129 0
 410 0022 0020     		movs	r0, #0
 411 0024 FFF7FEFF 		bl	left_motor_set_pos
 412              	.LVL31:
 413              		.loc 2 131 0
 414 0028 F0EE680A 		vmov.f32	s1, s17
 415 002c B0EE480A 		vmov.f32	s0, s16
 416 0030 FFF7FEFF 		bl	register_path
 417              	.LVL32:
 418              		.loc 2 133 0
 419 0034 9FED7A7A 		vldr.32	s14, .L76+12
 420 0038 DFED7A7A 		vldr.32	s15, .L76+16
 421 003c 68EE878A 		vmul.f32	s17, s17, s14
 422              	.LVL33:
 423              		.loc 2 134 0
 424 0040 28EE078A 		vmul.f32	s16, s16, s14
 425              	.LVL34:
 426              		.loc 2 136 0
 427 0044 0023     		movs	r3, #0
 428              		.loc 2 142 0
 429 0046 2046     		mov	r0, r4
 430              		.loc 2 136 0
 431 0048 0193     		str	r3, [sp, #4]	@ float
 432              		.loc 2 133 0
 433 004a C8EEA79A 		vdiv.f32	s19, s17, s15
 434              	.LVL35:
 435              		.loc 2 137 0
 436 004e 0293     		str	r3, [sp, #8]	@ float
 437              		.loc 2 139 0
 438 0050 0393     		str	r3, [sp, #12]	@ float
 439              		.loc 2 140 0
 440 0052 0493     		str	r3, [sp, #16]	@ float
 441              		.loc 2 134 0
 442 0054 88EE279A 		vdiv.f32	s18, s16, s15
 443              	.LVL36:
 444              		.loc 2 142 0
 445 0058 FFF7FEFF 		bl	arm_pid_reset_f32
 446              	.LVL37:
 447              		.loc 2 156 0
 448 005c DFED728A 		vldr.32	s17, .L76+20
 449              		.loc 2 155 0
 450 0060 B0EE008A 		vmov.f32	s16, #2.0e+0
 451              	.L68:
 452              		.loc 2 146 0
 453 0064 FFF7FEFF 		bl	left_motor_get_pos
 454              	.LVL38:
 455 0068 07EE900A 		vmov	s15, r0	@ int
 456 006c F8EEE77A 		vcvt.f32.s32	s15, s15
ARM GAS  C:\Users\osour\AppData\Local\Temp\cchV7A6m.s 			page 9


 457 0070 79EE677A 		vsub.f32	s15, s18, s15
 458 0074 CDED047A 		vstr.32	s15, [sp, #16]
 459              		.loc 2 147 0
 460 0078 FFF7FEFF 		bl	right_motor_get_pos
 461              	.LVL39:
 462 007c 07EE100A 		vmov	s14, r0	@ int
 463              	.LBB9:
 464              	.LBB10:
 465              		.file 3 "../../lib/e-puck2_main-processor/ChibiOS//os/ext/CMSIS/include/arm_math.h"
 466              		.loc 3 4888 0
 467 0080 D4ED035A 		vldr.32	s11, [r4, #12]
 468 0084 D4ED017A 		vldr.32	s15, [r4, #4]
 469              		.loc 3 4887 0
 470 0088 94ED005A 		vldr.32	s10, [r4]
 471              	.LBE10:
 472              	.LBE9:
 473              		.loc 2 150 0
 474 008c DDED044A 		vldr.32	s9, [sp, #16]
 475              	.LBB16:
 476              	.LBB11:
 477              		.loc 3 4888 0
 478 0090 94ED026A 		vldr.32	s12, [r4, #8]
 479 0094 D4ED043A 		vldr.32	s7, [r4, #16]
 480              		.loc 3 4887 0
 481 0098 94ED054A 		vldr.32	s8, [r4, #20]
 482              	.LBE11:
 483              	.LBE16:
 484              	.LBB17:
 485              	.LBB18:
 486              		.loc 3 4892 0
 487 009c C4ED034A 		vstr.32	s9, [r4, #12]
 488              	.LBE18:
 489              	.LBE17:
 490              		.loc 2 147 0
 491 00a0 F8EEC76A 		vcvt.f32.s32	s13, s14
 492              	.LBB25:
 493              	.LBB12:
 494              		.loc 3 4888 0
 495 00a4 27EEA57A 		vmul.f32	s14, s15, s11
 496              	.LBE12:
 497              	.LBE25:
 498              		.loc 2 147 0
 499 00a8 79EEE66A 		vsub.f32	s13, s19, s13
 500              		.loc 2 152 0
 501 00ac 03A9     		add	r1, sp, #12
 502              	.LBB26:
 503              	.LBB19:
 504              		.loc 3 4888 0
 505 00ae 66EEA77A 		vmul.f32	s15, s13, s15
 506              	.LBE19:
 507              	.LBE26:
 508              	.LBB27:
 509              	.LBB13:
 510              		.loc 3 4887 0
 511 00b2 A6EE857A 		vfma.f32	s14, s13, s10
 512              	.LBE13:
 513              	.LBE27:
ARM GAS  C:\Users\osour\AppData\Local\Temp\cchV7A6m.s 			page 10


 514              		.loc 2 152 0
 515 00b6 0846     		mov	r0, r1
 516 00b8 0122     		movs	r2, #1
 517              	.LBB28:
 518              	.LBB20:
 519              		.loc 3 4887 0
 520 00ba E4EE857A 		vfma.f32	s15, s9, s10
 521              	.LBE20:
 522              	.LBE28:
 523              	.LBB29:
 524              	.LBB14:
 525              		.loc 3 4888 0
 526 00be A6EE237A 		vfma.f32	s14, s12, s7
 527              	.LBE14:
 528              	.LBE29:
 529              	.LBB30:
 530              	.LBB21:
 531 00c2 E5EE867A 		vfma.f32	s15, s11, s12
 532              	.LBE21:
 533              	.LBE30:
 534              	.LBB31:
 535              	.LBB15:
 536              		.loc 3 4887 0
 537 00c6 37EE047A 		vadd.f32	s14, s14, s8
 538              	.LBE15:
 539              	.LBE31:
 540              		.loc 2 147 0
 541 00ca CDED036A 		vstr.32	s13, [sp, #12]
 542              	.LVL40:
 543              	.LBB32:
 544              	.LBB22:
 545              		.loc 3 4887 0
 546 00ce 77EE877A 		vadd.f32	s15, s15, s14
 547              	.LVL41:
 548              	.LBE22:
 549              	.LBE32:
 550              		.loc 2 149 0
 551 00d2 8DED017A 		vstr.32	s14, [sp, #4]
 552              	.LBB33:
 553              	.LBB23:
 554              		.loc 3 4893 0
 555 00d6 C4ED057A 		vstr.32	s15, [r4, #20]
 556              	.LVL42:
 557              	.LBE23:
 558              	.LBE33:
 559              		.loc 2 150 0
 560 00da CDED027A 		vstr.32	s15, [sp, #8]
 561              	.LBB34:
 562              	.LBB24:
 563              		.loc 3 4891 0
 564 00de C4ED046A 		vstr.32	s13, [r4, #16]
 565              	.LBE24:
 566              	.LBE34:
 567              		.loc 2 152 0
 568 00e2 FFF7FEFF 		bl	arm_abs_f32
 569              	.LVL43:
 570              		.loc 2 153 0
ARM GAS  C:\Users\osour\AppData\Local\Temp\cchV7A6m.s 			page 11


 571 00e6 04A9     		add	r1, sp, #16
 572 00e8 0122     		movs	r2, #1
 573 00ea 0846     		mov	r0, r1
 574 00ec FFF7FEFF 		bl	arm_abs_f32
 575              	.LVL44:
 576              		.loc 2 155 0
 577 00f0 DDED037A 		vldr.32	s15, [sp, #12]
 578 00f4 F4EEC87A 		vcmpe.f32	s15, s16
 579 00f8 F1EE10FA 		vmrs	APSR_nzcv, FPSCR
 580 00fc 23DB     		blt	.L41
 581              		.loc 2 156 0
 582 00fe DDED017A 		vldr.32	s15, [sp, #4]
 583 0102 F4EEE87A 		vcmpe.f32	s15, s17
 584 0106 F1EE10FA 		vmrs	APSR_nzcv, FPSCR
 585 010a 06D5     		bpl	.L38
 586              		.loc 2 156 0 is_stmt 0 discriminator 1
 587 010c DDED017A 		vldr.32	s15, [sp, #4]
 588 0110 F5EEC07A 		vcmpe.f32	s15, #0
 589 0114 F1EE10FA 		vmrs	APSR_nzcv, FPSCR
 590 0118 6ADC     		bgt	.L71
 591              	.L38:
 592              		.loc 2 158 0 is_stmt 1
 593 011a DDED017A 		vldr.32	s15, [sp, #4]
 594 011e F4EECA7A 		vcmpe.f32	s15, s20
 595 0122 F1EE10FA 		vmrs	APSR_nzcv, FPSCR
 596 0126 06DD     		ble	.L42
 597              		.loc 2 158 0 is_stmt 0 discriminator 1
 598 0128 DDED017A 		vldr.32	s15, [sp, #4]
 599 012c F5EEC07A 		vcmpe.f32	s15, #0
 600 0130 F1EE10FA 		vmrs	APSR_nzcv, FPSCR
 601 0134 67D4     		bmi	.L72
 602              	.L42:
 603              		.loc 2 161 0 is_stmt 1
 604 0136 DDED017A 		vldr.32	s15, [sp, #4]
 605 013a FDEEE77A 		vcvt.s32.f32	s15, s15
 606 013e 17EE900A 		vmov	r0, s15	@ int
 607 0142 FFF7FEFF 		bl	right_motor_set_speed
 608              	.LVL45:
 609              	.L41:
 610              		.loc 2 165 0
 611 0146 DDED047A 		vldr.32	s15, [sp, #16]
 612 014a F4EEC87A 		vcmpe.f32	s15, s16
 613 014e F1EE10FA 		vmrs	APSR_nzcv, FPSCR
 614 0152 25DB     		blt	.L45
 615              		.loc 2 166 0
 616 0154 DDED027A 		vldr.32	s15, [sp, #8]
 617 0158 F4EEE87A 		vcmpe.f32	s15, s17
 618 015c F1EE10FA 		vmrs	APSR_nzcv, FPSCR
 619 0160 06D5     		bpl	.L47
 620              		.loc 2 166 0 is_stmt 0 discriminator 1
 621 0162 DDED027A 		vldr.32	s15, [sp, #8]
 622 0166 F5EEC07A 		vcmpe.f32	s15, #0
 623 016a F1EE10FA 		vmrs	APSR_nzcv, FPSCR
 624 016e 39DC     		bgt	.L73
 625              	.L47:
 626              		.loc 2 168 0 is_stmt 1
 627 0170 DDED027A 		vldr.32	s15, [sp, #8]
ARM GAS  C:\Users\osour\AppData\Local\Temp\cchV7A6m.s 			page 12


 628 0174 F4EECA7A 		vcmpe.f32	s15, s20
 629 0178 F1EE10FA 		vmrs	APSR_nzcv, FPSCR
 630 017c 06D5     		bpl	.L50
 631              		.loc 2 168 0 is_stmt 0 discriminator 1
 632 017e DDED027A 		vldr.32	s15, [sp, #8]
 633 0182 F5EEC07A 		vcmpe.f32	s15, #0
 634 0186 F1EE10FA 		vmrs	APSR_nzcv, FPSCR
 635 018a 35D4     		bmi	.L74
 636              	.L50:
 637              		.loc 2 171 0 is_stmt 1
 638 018c DDED027A 		vldr.32	s15, [sp, #8]
 639 0190 FDEEE77A 		vcvt.s32.f32	s15, s15
 640 0194 17EE900A 		vmov	r0, s15	@ int
 641 0198 FFF7FEFF 		bl	left_motor_set_speed
 642              	.LVL46:
 643 019c DDED047A 		vldr.32	s15, [sp, #16]
 644              	.L45:
 645              		.loc 2 175 0
 646 01a0 F4EEC87A 		vcmpe.f32	s15, s16
 647 01a4 F1EE10FA 		vmrs	APSR_nzcv, FPSCR
 648 01a8 7FF55CAF 		bpl	.L68
 649              		.loc 2 175 0 is_stmt 0 discriminator 1
 650 01ac DDED037A 		vldr.32	s15, [sp, #12]
 651 01b0 F4EEC87A 		vcmpe.f32	s15, s16
 652 01b4 F1EE10FA 		vmrs	APSR_nzcv, FPSCR
 653 01b8 7FF554AF 		bpl	.L68
 654              	.LVL47:
 655              		.loc 2 177 0 is_stmt 1
 656 01bc 0020     		movs	r0, #0
 657 01be FFF7FEFF 		bl	right_motor_set_speed
 658              	.LVL48:
 659              		.loc 2 178 0
 660 01c2 0020     		movs	r0, #0
 661 01c4 FFF7FEFF 		bl	left_motor_set_speed
 662              	.LVL49:
 663              		.loc 2 179 0
 664 01c8 0020     		movs	r0, #0
 665 01ca FFF7FEFF 		bl	right_motor_set_pos
 666              	.LVL50:
 667              		.loc 2 180 0
 668 01ce 0020     		movs	r0, #0
 669 01d0 FFF7FEFF 		bl	left_motor_set_pos
 670              	.LVL51:
 671              		.loc 2 184 0
 672 01d4 059A     		ldr	r2, [sp, #20]
 673 01d6 2B68     		ldr	r3, [r5]
 674 01d8 9A42     		cmp	r2, r3
 675 01da 19D1     		bne	.L75
 676 01dc 07B0     		add	sp, sp, #28
 677              		.cfi_remember_state
 678              		.cfi_def_cfa_offset 36
 679              		@ sp needed
 680 01de BDEC068B 		vldm	sp!, {d8-d10}
 681              		.cfi_restore 84
 682              		.cfi_restore 85
 683              		.cfi_restore 82
 684              		.cfi_restore 83
ARM GAS  C:\Users\osour\AppData\Local\Temp\cchV7A6m.s 			page 13


 685              		.cfi_restore 80
 686              		.cfi_restore 81
 687              		.cfi_def_cfa_offset 12
 688              	.LVL52:
 689 01e2 30BD     		pop	{r4, r5, pc}
 690              	.LVL53:
 691              	.L73:
 692              		.cfi_restore_state
 693              		.loc 2 167 0
 694 01e4 FA20     		movs	r0, #250
 695 01e6 FFF7FEFF 		bl	left_motor_set_speed
 696              	.LVL54:
 697 01ea DDED047A 		vldr.32	s15, [sp, #16]
 698 01ee D7E7     		b	.L45
 699              	.L71:
 700              		.loc 2 157 0
 701 01f0 FA20     		movs	r0, #250
 702 01f2 FFF7FEFF 		bl	right_motor_set_speed
 703              	.LVL55:
 704 01f6 A6E7     		b	.L41
 705              	.L74:
 706              		.loc 2 169 0
 707 01f8 6FF0F900 		mvn	r0, #249
 708 01fc FFF7FEFF 		bl	left_motor_set_speed
 709              	.LVL56:
 710 0200 DDED047A 		vldr.32	s15, [sp, #16]
 711 0204 CCE7     		b	.L45
 712              	.L72:
 713              		.loc 2 159 0
 714 0206 6FF0F900 		mvn	r0, #249
 715 020a FFF7FEFF 		bl	right_motor_set_speed
 716              	.LVL57:
 717 020e 9AE7     		b	.L41
 718              	.LVL58:
 719              	.L75:
 720              		.loc 2 184 0
 721 0210 FFF7FEFF 		bl	__stack_chk_fail
 722              	.LVL59:
 723              	.L77:
 724              		.align	2
 725              	.L76:
 726 0214 00000000 		.word	__stack_chk_guard
 727 0218 00000000 		.word	.LANCHOR3
 728 021c 00007AC3 		.word	-1015414784
 729 0220 00007A44 		.word	1148846080
 730 0224 00000243 		.word	1124204544
 731 0228 00007A43 		.word	1132068864
 732              		.cfi_endproc
 733              	.LFE292:
 734              		.size	move, .-move
 735              		.section	.text.pathing,"ax",%progbits
 736              		.align	1
 737              		.p2align 4,,15
 738              		.syntax unified
 739              		.thumb
 740              		.thumb_func
 741              		.fpu fpv4-sp-d16
ARM GAS  C:\Users\osour\AppData\Local\Temp\cchV7A6m.s 			page 14


 742              		.type	pathing, %function
 743              	pathing:
 744              	.LFB290:
 745              		.loc 2 53 0
 746              		.cfi_startproc
 747              		@ args = 0, pretend = 0, frame = 8
 748              		@ frame_needed = 0, uses_anonymous_args = 0
 749              	.LVL60:
 750 0000 30B5     		push	{r4, r5, lr}
 751              		.cfi_def_cfa_offset 12
 752              		.cfi_offset 4, -12
 753              		.cfi_offset 5, -8
 754              		.cfi_offset 14, -4
 755 0002 2DED028B 		vpush.64	{d8}
 756              		.cfi_def_cfa_offset 20
 757              		.cfi_offset 80, -20
 758              		.cfi_offset 81, -16
 759 0006 2A4B     		ldr	r3, .L96
 760 0008 2A4C     		ldr	r4, .L96+4
 761 000a 1B68     		ldr	r3, [r3]
 762              		.loc 2 57 0
 763 000c 9FED2A8A 		vldr.32	s16, .L96+8
 764              	.LBB35:
 765              		.loc 2 86 0
 766 0010 DFED2A8A 		vldr.32	s17, .L96+12
 767              	.LBE35:
 768              		.loc 2 53 0
 769 0014 83B0     		sub	sp, sp, #12
 770              		.cfi_def_cfa_offset 32
 771              	.LBB36:
 772              		.loc 2 59 0
 773 0016 0025     		movs	r5, #0
 774              	.LBE36:
 775              		.loc 2 53 0
 776 0018 0193     		str	r3, [sp, #4]
 777              	.LVL61:
 778              	.L92:
 779              		.loc 2 57 0 discriminator 1
 780 001a D4ED007A 		vldr.32	s15, [r4]
 781 001e F4EEC87A 		vcmpe.f32	s15, s16
 782 0022 F1EE10FA 		vmrs	APSR_nzcv, FPSCR
 783 0026 F8D8     		bhi	.L92
 784              	.LBB37:
 785              		.loc 2 61 0
 786 0028 6846     		mov	r0, sp
 787              		.loc 2 59 0
 788 002a 0095     		str	r5, [sp]
 789              	.LVL62:
 790              		.loc 2 61 0
 791 002c FFF7FEFF 		bl	radar
 792              	.LVL63:
 793              		.loc 2 63 0
 794 0030 0628     		cmp	r0, #6
 795 0032 36D8     		bhi	.L81
 796 0034 DFE800F0 		tbb	[pc, r0]
 797              	.L83:
 798 0038 2E       		.byte	(.L82-.L83)/2
ARM GAS  C:\Users\osour\AppData\Local\Temp\cchV7A6m.s 			page 15


 799 0039 27       		.byte	(.L84-.L83)/2
 800 003a 20       		.byte	(.L85-.L83)/2
 801 003b 19       		.byte	(.L86-.L83)/2
 802 003c 12       		.byte	(.L87-.L83)/2
 803 003d 0B       		.byte	(.L88-.L83)/2
 804 003e 04       		.byte	(.L89-.L83)/2
 805 003f 00       		.p2align 1
 806              	.L89:
 807              		.loc 2 65 0
 808 0040 F2EE040A 		vmov.f32	s1, #1.0e+1
 809 0044 B0EE600A 		vmov.f32	s0, s1
 810 0048 FFF7FEFF 		bl	move
 811              	.LVL64:
 812              		.loc 2 66 0
 813 004c E5E7     		b	.L92
 814              	.LVL65:
 815              	.L88:
 816              		.loc 2 83 0
 817 004e F2EE040A 		vmov.f32	s1, #1.0e+1
 818 0052 B0EE680A 		vmov.f32	s0, s17
 819 0056 FFF7FEFF 		bl	move
 820              	.LVL66:
 821              		.loc 2 84 0
 822 005a DEE7     		b	.L92
 823              	.LVL67:
 824              	.L87:
 825              		.loc 2 80 0
 826 005c F1EE040A 		vmov.f32	s1, #5.0e+0
 827 0060 B0EE680A 		vmov.f32	s0, s17
 828 0064 FFF7FEFF 		bl	move
 829              	.LVL68:
 830              		.loc 2 81 0
 831 0068 D7E7     		b	.L92
 832              	.LVL69:
 833              	.L86:
 834              		.loc 2 77 0
 835 006a F2EE040A 		vmov.f32	s1, #1.0e+1
 836 006e BAEE040A 		vmov.f32	s0, #-1.0e+1
 837 0072 FFF7FEFF 		bl	move
 838              	.LVL70:
 839              		.loc 2 78 0
 840 0076 D0E7     		b	.L92
 841              	.LVL71:
 842              	.L85:
 843              		.loc 2 74 0
 844 0078 FAEE040A 		vmov.f32	s1, #-1.0e+1
 845 007c B2EE040A 		vmov.f32	s0, #1.0e+1
 846 0080 FFF7FEFF 		bl	move
 847              	.LVL72:
 848              		.loc 2 75 0
 849 0084 C9E7     		b	.L92
 850              	.LVL73:
 851              	.L84:
 852              		.loc 2 71 0
 853 0086 F0EE680A 		vmov.f32	s1, s17
 854 008a B1EE040A 		vmov.f32	s0, #5.0e+0
 855 008e FFF7FEFF 		bl	move
ARM GAS  C:\Users\osour\AppData\Local\Temp\cchV7A6m.s 			page 16


 856              	.LVL74:
 857              		.loc 2 72 0
 858 0092 C2E7     		b	.L92
 859              	.LVL75:
 860              	.L82:
 861              		.loc 2 68 0
 862 0094 F0EE680A 		vmov.f32	s1, s17
 863 0098 B2EE040A 		vmov.f32	s0, #1.0e+1
 864 009c FFF7FEFF 		bl	move
 865              	.LVL76:
 866              		.loc 2 69 0
 867 00a0 BBE7     		b	.L92
 868              	.LVL77:
 869              	.L81:
 870              		.loc 2 86 0
 871 00a2 F0EE680A 		vmov.f32	s1, s17
 872 00a6 9FED050A 		vldr.32	s0, .L96+12
 873 00aa FFF7FEFF 		bl	move
 874              	.LVL78:
 875              		.loc 2 87 0
 876 00ae B4E7     		b	.L92
 877              	.L97:
 878              		.align	2
 879              	.L96:
 880 00b0 00000000 		.word	__stack_chk_guard
 881 00b4 00000000 		.word	.LANCHOR1
 882 00b8 0000C842 		.word	1120403456
 883 00bc 00000000 		.word	0
 884              	.LBE37:
 885              		.cfi_endproc
 886              	.LFE290:
 887              		.size	pathing, .-pathing
 888              		.section	.text.init_pathing,"ax",%progbits
 889              		.align	1
 890              		.p2align 4,,15
 891              		.global	init_pathing
 892              		.syntax unified
 893              		.thumb
 894              		.thumb_func
 895              		.fpu fpv4-sp-d16
 896              		.type	init_pathing, %function
 897              	init_pathing:
 898              	.LFB294:
 899              		.loc 2 215 0
 900              		.cfi_startproc
 901              		@ args = 0, pretend = 0, frame = 8
 902              		@ frame_needed = 0, uses_anonymous_args = 0
 903 0000 30B5     		push	{r4, r5, lr}
 904              		.cfi_def_cfa_offset 12
 905              		.cfi_offset 4, -12
 906              		.cfi_offset 5, -8
 907              		.cfi_offset 14, -4
 908 0002 144C     		ldr	r4, .L102
 909 0004 85B0     		sub	sp, sp, #20
 910              		.cfi_def_cfa_offset 32
 911              		.loc 2 215 0
 912 0006 2368     		ldr	r3, [r4]
ARM GAS  C:\Users\osour\AppData\Local\Temp\cchV7A6m.s 			page 17


 913 0008 0393     		str	r3, [sp, #12]
 914              		.loc 2 216 0
 915 000a FFF7FEFF 		bl	motors_init
 916              	.LVL79:
 917              		.loc 2 218 0
 918 000e FFF7FEFF 		bl	proximity_start
 919              	.LVL80:
 920              		.loc 2 219 0
 921 0012 FFF7FEFF 		bl	calibrate_ir
 922              	.LVL81:
 923              		.loc 2 221 0
 924 0016 104B     		ldr	r3, .L102+4
 925 0018 4FF07C51 		mov	r1, #1056964608
 926              		.loc 2 223 0
 927 001c 4FF08042 		mov	r2, #1073741824
 928              		.loc 2 225 0
 929 0020 1846     		mov	r0, r3
 930              		.loc 2 221 0
 931 0022 1962     		str	r1, [r3, #32]	@ float
 932              		.loc 2 222 0
 933 0024 0025     		movs	r5, #0
 934              		.loc 2 225 0
 935 0026 0021     		movs	r1, #0
 936              		.loc 2 223 0
 937 0028 9A61     		str	r2, [r3, #24]	@ float
 938              		.loc 2 222 0
 939 002a DD61     		str	r5, [r3, #28]	@ float
 940              		.loc 2 225 0
 941 002c FFF7FEFF 		bl	arm_pid_init_f32
 942              	.LVL82:
 943              		.loc 2 227 0
 944 0030 0023     		movs	r3, #0
 945 0032 0093     		str	r3, [sp]
 946 0034 4022     		movs	r2, #64
 947 0036 094B     		ldr	r3, .L102+8
 948 0038 0948     		ldr	r0, .L102+12
 949 003a 4FF41E71 		mov	r1, #632
 950 003e FFF7FEFF 		bl	chThdCreateStatic
 951              	.LVL83:
 952              		.loc 2 229 0
 953 0042 039A     		ldr	r2, [sp, #12]
 954 0044 2368     		ldr	r3, [r4]
 955 0046 9A42     		cmp	r2, r3
 956 0048 01D1     		bne	.L101
 957 004a 05B0     		add	sp, sp, #20
 958              		.cfi_remember_state
 959              		.cfi_def_cfa_offset 12
 960              		@ sp needed
 961 004c 30BD     		pop	{r4, r5, pc}
 962              	.L101:
 963              		.cfi_restore_state
 964 004e FFF7FEFF 		bl	__stack_chk_fail
 965              	.LVL84:
 966              	.L103:
 967 0052 00BF     		.align	2
 968              	.L102:
 969 0054 00000000 		.word	__stack_chk_guard
ARM GAS  C:\Users\osour\AppData\Local\Temp\cchV7A6m.s 			page 18


 970 0058 00000000 		.word	.LANCHOR3
 971 005c 00000000 		.word	pathing
 972 0060 00000000 		.word	.LANCHOR4
 973              		.cfi_endproc
 974              	.LFE294:
 975              		.size	init_pathing, .-init_pathing
 976              		.section	.bss.angle,"aw",%nobits
 977              		.align	2
 978              		.set	.LANCHOR0,. + 0
 979              		.type	angle, %object
 980              		.size	angle, 4
 981              	angle:
 982 0000 00000000 		.space	4
 983              		.section	.bss.pathingWorkingArea,"aw",%nobits
 984              		.align	3
 985              		.set	.LANCHOR4,. + 0
 986              		.type	pathingWorkingArea, %object
 987              		.size	pathingWorkingArea, 632
 988              	pathingWorkingArea:
 989 0000 00000000 		.space	632
 989      00000000 
 989      00000000 
 989      00000000 
 989      00000000 
 990              		.section	.bss.pid,"aw",%nobits
 991              		.align	2
 992              		.set	.LANCHOR3,. + 0
 993              		.type	pid, %object
 994              		.size	pid, 36
 995              	pid:
 996 0000 00000000 		.space	36
 996      00000000 
 996      00000000 
 996      00000000 
 996      00000000 
 997              		.section	.bss.pos_x,"aw",%nobits
 998              		.align	2
 999              		.set	.LANCHOR1,. + 0
 1000              		.type	pos_x, %object
 1001              		.size	pos_x, 4
 1002              	pos_x:
 1003 0000 00000000 		.space	4
 1004              		.section	.bss.pos_y,"aw",%nobits
 1005              		.align	2
 1006              		.set	.LANCHOR2,. + 0
 1007              		.type	pos_y, %object
 1008              		.size	pos_y, 4
 1009              	pos_y:
 1010 0000 00000000 		.space	4
 1011              		.section	.rodata.chprintf.constprop.0.str1.4,"aMS",%progbits,1
 1012              		.align	2
 1013              	.LC0:
 1014 0000 20256620 		.ascii	" %f \015 \012\000"
 1014      0D200A00 
 1015              		.text
 1016              	.Letext0:
 1017              		.file 4 "c:\\users\\osour\\desktop\\robotique\\eclipse_e-puck2\\tools\\gcc-arm-none-eabi-7-2017-q4
ARM GAS  C:\Users\osour\AppData\Local\Temp\cchV7A6m.s 			page 19


 1018              		.file 5 "c:\\users\\osour\\desktop\\robotique\\eclipse_e-puck2\\tools\\gcc-arm-none-eabi-7-2017-q4
 1019              		.file 6 "c:\\users\\osour\\desktop\\robotique\\eclipse_e-puck2\\tools\\gcc-arm-none-eabi-7-2017-q4
 1020              		.file 7 "../../lib/e-puck2_main-processor/ChibiOS//os/rt/ports/ARMCMx/compilers/GCC/chtypes.h"
 1021              		.file 8 "../../lib/e-puck2_main-processor/ChibiOS//os/rt/include/chsystypes.h"
 1022              		.file 9 "../../lib/e-puck2_main-processor/ChibiOS//os/rt/include/chschd.h"
 1023              		.file 10 "../../lib/e-puck2_main-processor/ChibiOS//os/ext/CMSIS/include/core_cm4.h"
 1024              		.file 11 "../../lib/e-puck2_main-processor/ChibiOS//os/ext/CMSIS/ST/system_stm32f4xx.h"
 1025              		.file 12 "../../lib/e-puck2_main-processor/ChibiOS//os/ext/CMSIS/ST/stm32f407xx.h"
 1026              		.file 13 "../../lib/e-puck2_main-processor/ChibiOS//os/rt/ports/ARMCMx/chcore.h"
 1027              		.file 14 "../../lib/e-puck2_main-processor/ChibiOS//os/rt/ports/ARMCMx/chcore_v7m.h"
 1028              		.file 15 "../../lib/e-puck2_main-processor/ChibiOS//os/rt/include/chdebug.h"
 1029              		.file 16 "../../lib/e-puck2_main-processor/ChibiOS//os/rt/include/chtm.h"
 1030              		.file 17 "../../lib/e-puck2_main-processor/ChibiOS//os/rt/include/chstats.h"
 1031              		.file 18 "../../lib/e-puck2_main-processor/ChibiOS//os/rt/include/chsem.h"
 1032              		.file 19 "../../lib/e-puck2_main-processor/ChibiOS//os/rt/include/chmtx.h"
 1033              		.file 20 "../../lib/e-puck2_main-processor/ChibiOS//os/rt/include/chregistry.h"
 1034              		.file 21 "../../lib/e-puck2_main-processor/ChibiOS//os/rt/include/chevents.h"
 1035              		.file 22 "../../lib/e-puck2_main-processor/ChibiOS//os/rt/include/chqueues.h"
 1036              		.file 23 "../../lib/e-puck2_main-processor/ChibiOS//os/rt/include/chstreams.h"
 1037              		.file 24 "../../lib/e-puck2_main-processor/ChibiOS//os/hal/ports/STM32/STM32F4xx/stm32_dma.h"
 1038              		.file 25 "../../lib/e-puck2_main-processor/ChibiOS//os/hal/include/hal_ioblock.h"
 1039              		.file 26 "../../lib/e-puck2_main-processor/ChibiOS//os/hal/ports/STM32/LLD/GPIOv2/pal_lld.h"
 1040              		.file 27 "../../lib/e-puck2_main-processor/ChibiOS//os/hal/include/adc.h"
 1041              		.file 28 "../../lib/e-puck2_main-processor/ChibiOS//os/hal/ports/STM32/STM32F4xx/adc_lld.h"
 1042              		.file 29 "../../lib/e-puck2_main-processor/ChibiOS//os/hal/include/can.h"
 1043              		.file 30 "../../lib/e-puck2_main-processor/ChibiOS//os/hal/ports/STM32/LLD/can_lld.h"
 1044              		.file 31 "../../lib/e-puck2_main-processor/ChibiOS//os/hal/include/dac.h"
 1045              		.file 32 "../../lib/e-puck2_main-processor/ChibiOS//os/hal/ports/STM32/LLD/DACv1/dac_lld.h"
 1046              		.file 33 "../../lib/e-puck2_main-processor/ChibiOS//os/hal/include/ext.h"
 1047              		.file 34 "../../lib/e-puck2_main-processor/ChibiOS//os/hal/ports/STM32/LLD/ext_lld.h"
 1048              		.file 35 "../../lib/e-puck2_main-processor/ChibiOS//os/hal/include/gpt.h"
 1049              		.file 36 "../../lib/e-puck2_main-processor/ChibiOS//os/hal/ports/STM32/LLD/TIMv1/gpt_lld.h"
 1050              		.file 37 "../../lib/e-puck2_main-processor/ChibiOS//os/hal/ports/STM32/LLD/TIMv1/stm32_tim.h"
 1051              		.file 38 "../../lib/e-puck2_main-processor/ChibiOS//os/hal/include/i2c.h"
 1052              		.file 39 "../../lib/e-puck2_main-processor/ChibiOS//os/hal/ports/STM32/LLD/I2Cv1/i2c_lld.h"
 1053              		.file 40 "../../lib/e-puck2_main-processor/ChibiOS//os/hal/include/i2s.h"
 1054              		.file 41 "../../lib/e-puck2_main-processor/ChibiOS//os/hal/ports/STM32/LLD/SPIv1/i2s_lld.h"
 1055              		.file 42 "../../lib/e-puck2_main-processor/ChibiOS//os/hal/include/pwm.h"
 1056              		.file 43 "../../lib/e-puck2_main-processor/ChibiOS//os/hal/ports/STM32/LLD/TIMv1/pwm_lld.h"
 1057              		.file 44 "../../lib/e-puck2_main-processor/ChibiOS//os/hal/include/serial.h"
 1058              		.file 45 "../../lib/e-puck2_main-processor/ChibiOS//os/hal/ports/STM32/LLD/USARTv1/serial_lld.h"
 1059              		.file 46 "../../lib/e-puck2_main-processor/ChibiOS//os/hal/include/sdc.h"
 1060              		.file 47 "../../lib/e-puck2_main-processor/ChibiOS//os/hal/ports/STM32/LLD/sdc_lld.h"
 1061              		.file 48 "../../lib/e-puck2_main-processor/ChibiOS//os/hal/include/spi.h"
 1062              		.file 49 "../../lib/e-puck2_main-processor/ChibiOS//os/hal/ports/STM32/LLD/SPIv1/spi_lld.h"
 1063              		.file 50 "../../lib/e-puck2_main-processor/ChibiOS//os/hal/include/usb.h"
 1064              		.file 51 "../../lib/e-puck2_main-processor/ChibiOS//os/hal/ports/STM32/LLD/OTGv1/usb_lld.h"
 1065              		.file 52 "../../lib/e-puck2_main-processor/ChibiOS//os/hal/ports/STM32/LLD/OTGv1/stm32_otg.h"
 1066              		.file 53 "../../lib/e-puck2_main-processor/ChibiOS//os/hal/include/serial_usb.h"
 1067              		.file 54 "../../lib/e-puck2_main-processor/ChibiOS_ext/os/hal/include/../ports/STM32/STM32F4xx/dcm
 1068              		.file 55 "c:\\users\\osour\\desktop\\robotique\\eclipse_e-puck2\\tools\\gcc-arm-none-eabi-7-2017-q
 1069              		.file 56 "c:\\users\\osour\\desktop\\robotique\\eclipse_e-puck2\\tools\\gcc-arm-none-eabi-7-2017-q
 1070              		.file 57 "<built-in>"
 1071              		.file 58 "c:\\users\\osour\\desktop\\robotique\\eclipse_e-puck2\\tools\\gcc-arm-none-eabi-7-2017-q
 1072              		.file 59 "../../lib/e-puck2_main-processor/src/msgbus/messagebus.h"
 1073              		.file 60 "c:\\users\\osour\\desktop\\robotique\\eclipse_e-puck2\\tools\\gcc-arm-none-eabi-7-2017-q
 1074              		.file 61 "c:\\users\\osour\\desktop\\robotique\\eclipse_e-puck2\\tools\\gcc-arm-none-eabi-7-2017-q
ARM GAS  C:\Users\osour\AppData\Local\Temp\cchV7A6m.s 			page 20


 1075              		.file 62 "../../lib/e-puck2_main-processor/src/parameter/parameter.h"
 1076              		.file 63 "./main.h"
 1077              		.file 64 "../../lib/e-puck2_main-processor/src/usbcfg.h"
 1078              		.file 65 "c:\\users\\osour\\desktop\\robotique\\eclipse_e-puck2\\tools\\gcc-arm-none-eabi-7-2017-q
 1079              		.file 66 "c:\\users\\osour\\desktop\\robotique\\eclipse_e-puck2\\tools\\gcc-arm-none-eabi-7-2017-q
 1080              		.file 67 "../../lib/e-puck2_main-processor/src/motors.h"
 1081              		.file 68 "../../lib/e-puck2_main-processor/src/sensors/proximity.h"
 1082              		.file 69 "../../lib/e-puck2_main-processor/ChibiOS//os/rt/include/chthreads.h"