ARM GAS  C:\Users\osour\AppData\Local\Temp\ccxr6Ilk.s 			page 1


   1              		.cpu cortex-m4
   2              		.eabi_attribute 27, 1
   3              		.eabi_attribute 28, 1
   4              		.eabi_attribute 20, 1
   5              		.eabi_attribute 21, 1
   6              		.eabi_attribute 23, 3
   7              		.eabi_attribute 24, 1
   8              		.eabi_attribute 25, 1
   9              		.eabi_attribute 26, 1
  10              		.eabi_attribute 30, 2
  11              		.eabi_attribute 34, 1
  12              		.eabi_attribute 18, 4
  13              		.file	"serial.c"
  14              		.text
  15              	.Ltext0:
  16              		.cfi_sections	.debug_frame
  17              		.section	.text.readt,"ax",%progbits
  18              		.align	1
  19              		.p2align 4,,15
  20              		.syntax unified
  21              		.thumb
  22              		.thumb_func
  23              		.fpu fpv4-sp-d16
  24              		.type	readt, %function
  25              	readt:
  26              	.LFB263:
  27              		.file 1 "../../lib/e-puck2_main-processor/ChibiOS//os/hal/src/serial.c"
  28              		.loc 1 87 0
  29              		.cfi_startproc
  30              		@ args = 0, pretend = 0, frame = 8
  31              		@ frame_needed = 0, uses_anonymous_args = 0
  32              	.LVL0:
  33 0000 30B5     		push	{r4, r5, lr}
  34              		.cfi_def_cfa_offset 12
  35              		.cfi_offset 4, -12
  36              		.cfi_offset 5, -8
  37              		.cfi_offset 14, -4
  38 0002 084C     		ldr	r4, .L7
  39 0004 83B0     		sub	sp, sp, #12
  40              		.cfi_def_cfa_offset 24
  41              		.loc 1 87 0
  42 0006 2568     		ldr	r5, [r4]
  43 0008 0195     		str	r5, [sp, #4]
  44              		.loc 1 89 0
  45 000a 019D     		ldr	r5, [sp, #4]
  46 000c 2468     		ldr	r4, [r4]
  47 000e A542     		cmp	r5, r4
  48 0010 05D1     		bne	.L6
  49 0012 0C30     		adds	r0, r0, #12
  50              	.LVL1:
  51              		.loc 1 90 0
  52 0014 03B0     		add	sp, sp, #12
  53              		.cfi_remember_state
  54              		.cfi_def_cfa_offset 12
  55              		@ sp needed
  56 0016 BDE83040 		pop	{r4, r5, lr}
  57              		.cfi_restore 14
ARM GAS  C:\Users\osour\AppData\Local\Temp\ccxr6Ilk.s 			page 2


  58              		.cfi_restore 5
  59              		.cfi_restore 4
  60              		.cfi_def_cfa_offset 0
  61              		.loc 1 89 0
  62 001a FFF7FEBF 		b	chIQReadTimeout
  63              	.LVL2:
  64              	.L6:
  65              		.cfi_restore_state
  66 001e FFF7FEFF 		bl	__stack_chk_fail
  67              	.LVL3:
  68              	.L8:
  69 0022 00BF     		.align	2
  70              	.L7:
  71 0024 00000000 		.word	__stack_chk_guard
  72              		.cfi_endproc
  73              	.LFE263:
  74              		.size	readt, .-readt
  75              		.section	.text.read,"ax",%progbits
  76              		.align	1
  77              		.p2align 4,,15
  78              		.syntax unified
  79              		.thumb
  80              		.thumb_func
  81              		.fpu fpv4-sp-d16
  82              		.type	read, %function
  83              	read:
  84              	.LFB257:
  85              		.loc 1 56 0
  86              		.cfi_startproc
  87              		@ args = 0, pretend = 0, frame = 8
  88              		@ frame_needed = 0, uses_anonymous_args = 0
  89              	.LVL4:
  90 0000 10B5     		push	{r4, lr}
  91              		.cfi_def_cfa_offset 8
  92              		.cfi_offset 4, -8
  93              		.cfi_offset 14, -4
  94 0002 094B     		ldr	r3, .L14
  95 0004 82B0     		sub	sp, sp, #8
  96              		.cfi_def_cfa_offset 16
  97              		.loc 1 56 0
  98 0006 1C68     		ldr	r4, [r3]
  99 0008 0194     		str	r4, [sp, #4]
 100              		.loc 1 58 0
 101 000a 019C     		ldr	r4, [sp, #4]
 102 000c 1B68     		ldr	r3, [r3]
 103 000e 9C42     		cmp	r4, r3
 104 0010 07D1     		bne	.L13
 105 0012 0C30     		adds	r0, r0, #12
 106              	.LVL5:
 107 0014 4FF0FF33 		mov	r3, #-1
 108              		.loc 1 60 0
 109 0018 02B0     		add	sp, sp, #8
 110              		.cfi_remember_state
 111              		.cfi_def_cfa_offset 8
 112              		@ sp needed
 113 001a BDE81040 		pop	{r4, lr}
 114              		.cfi_restore 14
ARM GAS  C:\Users\osour\AppData\Local\Temp\ccxr6Ilk.s 			page 3


 115              		.cfi_restore 4
 116              		.cfi_def_cfa_offset 0
 117              		.loc 1 58 0
 118 001e FFF7FEBF 		b	chIQReadTimeout
 119              	.LVL6:
 120              	.L13:
 121              		.cfi_restore_state
 122 0022 FFF7FEFF 		bl	__stack_chk_fail
 123              	.LVL7:
 124              	.L15:
 125 0026 00BF     		.align	2
 126              	.L14:
 127 0028 00000000 		.word	__stack_chk_guard
 128              		.cfi_endproc
 129              	.LFE257:
 130              		.size	read, .-read
 131              		.section	.text.writet,"ax",%progbits
 132              		.align	1
 133              		.p2align 4,,15
 134              		.syntax unified
 135              		.thumb
 136              		.thumb_func
 137              		.fpu fpv4-sp-d16
 138              		.type	writet, %function
 139              	writet:
 140              	.LFB262:
 141              		.loc 1 82 0
 142              		.cfi_startproc
 143              		@ args = 0, pretend = 0, frame = 8
 144              		@ frame_needed = 0, uses_anonymous_args = 0
 145              	.LVL8:
 146 0000 30B5     		push	{r4, r5, lr}
 147              		.cfi_def_cfa_offset 12
 148              		.cfi_offset 4, -12
 149              		.cfi_offset 5, -8
 150              		.cfi_offset 14, -4
 151 0002 084C     		ldr	r4, .L21
 152 0004 83B0     		sub	sp, sp, #12
 153              		.cfi_def_cfa_offset 24
 154              		.loc 1 82 0
 155 0006 2568     		ldr	r5, [r4]
 156 0008 0195     		str	r5, [sp, #4]
 157              		.loc 1 84 0
 158 000a 019D     		ldr	r5, [sp, #4]
 159 000c 2468     		ldr	r4, [r4]
 160 000e A542     		cmp	r5, r4
 161 0010 05D1     		bne	.L20
 162 0012 3030     		adds	r0, r0, #48
 163              	.LVL9:
 164              		.loc 1 85 0
 165 0014 03B0     		add	sp, sp, #12
 166              		.cfi_remember_state
 167              		.cfi_def_cfa_offset 12
 168              		@ sp needed
 169 0016 BDE83040 		pop	{r4, r5, lr}
 170              		.cfi_restore 14
 171              		.cfi_restore 5
ARM GAS  C:\Users\osour\AppData\Local\Temp\ccxr6Ilk.s 			page 4


 172              		.cfi_restore 4
 173              		.cfi_def_cfa_offset 0
 174              		.loc 1 84 0
 175 001a FFF7FEBF 		b	chOQWriteTimeout
 176              	.LVL10:
 177              	.L20:
 178              		.cfi_restore_state
 179 001e FFF7FEFF 		bl	__stack_chk_fail
 180              	.LVL11:
 181              	.L22:
 182 0022 00BF     		.align	2
 183              	.L21:
 184 0024 00000000 		.word	__stack_chk_guard
 185              		.cfi_endproc
 186              	.LFE262:
 187              		.size	writet, .-writet
 188              		.section	.text.write,"ax",%progbits
 189              		.align	1
 190              		.p2align 4,,15
 191              		.syntax unified
 192              		.thumb
 193              		.thumb_func
 194              		.fpu fpv4-sp-d16
 195              		.type	write, %function
 196              	write:
 197              	.LFB256:
 198              		.loc 1 50 0
 199              		.cfi_startproc
 200              		@ args = 0, pretend = 0, frame = 8
 201              		@ frame_needed = 0, uses_anonymous_args = 0
 202              	.LVL12:
 203 0000 10B5     		push	{r4, lr}
 204              		.cfi_def_cfa_offset 8
 205              		.cfi_offset 4, -8
 206              		.cfi_offset 14, -4
 207 0002 094B     		ldr	r3, .L28
 208 0004 82B0     		sub	sp, sp, #8
 209              		.cfi_def_cfa_offset 16
 210              		.loc 1 50 0
 211 0006 1C68     		ldr	r4, [r3]
 212 0008 0194     		str	r4, [sp, #4]
 213              		.loc 1 52 0
 214 000a 019C     		ldr	r4, [sp, #4]
 215 000c 1B68     		ldr	r3, [r3]
 216 000e 9C42     		cmp	r4, r3
 217 0010 07D1     		bne	.L27
 218 0012 3030     		adds	r0, r0, #48
 219              	.LVL13:
 220 0014 4FF0FF33 		mov	r3, #-1
 221              		.loc 1 54 0
 222 0018 02B0     		add	sp, sp, #8
 223              		.cfi_remember_state
 224              		.cfi_def_cfa_offset 8
 225              		@ sp needed
 226 001a BDE81040 		pop	{r4, lr}
 227              		.cfi_restore 14
 228              		.cfi_restore 4
ARM GAS  C:\Users\osour\AppData\Local\Temp\ccxr6Ilk.s 			page 5


 229              		.cfi_def_cfa_offset 0
 230              		.loc 1 52 0
 231 001e FFF7FEBF 		b	chOQWriteTimeout
 232              	.LVL14:
 233              	.L27:
 234              		.cfi_restore_state
 235 0022 FFF7FEFF 		bl	__stack_chk_fail
 236              	.LVL15:
 237              	.L29:
 238 0026 00BF     		.align	2
 239              	.L28:
 240 0028 00000000 		.word	__stack_chk_guard
 241              		.cfi_endproc
 242              	.LFE256:
 243              		.size	write, .-write
 244              		.section	.text.gett,"ax",%progbits
 245              		.align	1
 246              		.p2align 4,,15
 247              		.syntax unified
 248              		.thumb
 249              		.thumb_func
 250              		.fpu fpv4-sp-d16
 251              		.type	gett, %function
 252              	gett:
 253              	.LFB261:
 254              		.loc 1 77 0
 255              		.cfi_startproc
 256              		@ args = 0, pretend = 0, frame = 8
 257              		@ frame_needed = 0, uses_anonymous_args = 0
 258              	.LVL16:
 259 0000 00B5     		push	{lr}
 260              		.cfi_def_cfa_offset 4
 261              		.cfi_offset 14, -4
 262 0002 084B     		ldr	r3, .L35
 263 0004 83B0     		sub	sp, sp, #12
 264              		.cfi_def_cfa_offset 16
 265              		.loc 1 77 0
 266 0006 1A68     		ldr	r2, [r3]
 267 0008 0192     		str	r2, [sp, #4]
 268              		.loc 1 79 0
 269 000a 019A     		ldr	r2, [sp, #4]
 270 000c 1B68     		ldr	r3, [r3]
 271 000e 9A42     		cmp	r2, r3
 272 0010 05D1     		bne	.L34
 273 0012 0C30     		adds	r0, r0, #12
 274              	.LVL17:
 275              		.loc 1 80 0
 276 0014 03B0     		add	sp, sp, #12
 277              		.cfi_remember_state
 278              		.cfi_def_cfa_offset 4
 279              		@ sp needed
 280 0016 5DF804EB 		ldr	lr, [sp], #4
 281              		.cfi_restore 14
 282              		.cfi_def_cfa_offset 0
 283              		.loc 1 79 0
 284 001a FFF7FEBF 		b	chIQGetTimeout
 285              	.LVL18:
ARM GAS  C:\Users\osour\AppData\Local\Temp\ccxr6Ilk.s 			page 6


 286              	.L34:
 287              		.cfi_restore_state
 288 001e FFF7FEFF 		bl	__stack_chk_fail
 289              	.LVL19:
 290              	.L36:
 291 0022 00BF     		.align	2
 292              	.L35:
 293 0024 00000000 		.word	__stack_chk_guard
 294              		.cfi_endproc
 295              	.LFE261:
 296              		.size	gett, .-gett
 297              		.section	.text.get,"ax",%progbits
 298              		.align	1
 299              		.p2align 4,,15
 300              		.syntax unified
 301              		.thumb
 302              		.thumb_func
 303              		.fpu fpv4-sp-d16
 304              		.type	get, %function
 305              	get:
 306              	.LFB259:
 307              		.loc 1 67 0
 308              		.cfi_startproc
 309              		@ args = 0, pretend = 0, frame = 8
 310              		@ frame_needed = 0, uses_anonymous_args = 0
 311              	.LVL20:
 312 0000 00B5     		push	{lr}
 313              		.cfi_def_cfa_offset 4
 314              		.cfi_offset 14, -4
 315 0002 094B     		ldr	r3, .L42
 316 0004 83B0     		sub	sp, sp, #12
 317              		.cfi_def_cfa_offset 16
 318              		.loc 1 67 0
 319 0006 1A68     		ldr	r2, [r3]
 320 0008 0192     		str	r2, [sp, #4]
 321              		.loc 1 69 0
 322 000a 019A     		ldr	r2, [sp, #4]
 323 000c 1B68     		ldr	r3, [r3]
 324 000e 9A42     		cmp	r2, r3
 325 0010 07D1     		bne	.L41
 326 0012 0C30     		adds	r0, r0, #12
 327              	.LVL21:
 328 0014 4FF0FF31 		mov	r1, #-1
 329              		.loc 1 70 0
 330 0018 03B0     		add	sp, sp, #12
 331              		.cfi_remember_state
 332              		.cfi_def_cfa_offset 4
 333              		@ sp needed
 334 001a 5DF804EB 		ldr	lr, [sp], #4
 335              		.cfi_restore 14
 336              		.cfi_def_cfa_offset 0
 337              		.loc 1 69 0
 338 001e FFF7FEBF 		b	chIQGetTimeout
 339              	.LVL22:
 340              	.L41:
 341              		.cfi_restore_state
 342 0022 FFF7FEFF 		bl	__stack_chk_fail
ARM GAS  C:\Users\osour\AppData\Local\Temp\ccxr6Ilk.s 			page 7


 343              	.LVL23:
 344              	.L43:
 345 0026 00BF     		.align	2
 346              	.L42:
 347 0028 00000000 		.word	__stack_chk_guard
 348              		.cfi_endproc
 349              	.LFE259:
 350              		.size	get, .-get
 351              		.section	.text.putt,"ax",%progbits
 352              		.align	1
 353              		.p2align 4,,15
 354              		.syntax unified
 355              		.thumb
 356              		.thumb_func
 357              		.fpu fpv4-sp-d16
 358              		.type	putt, %function
 359              	putt:
 360              	.LFB260:
 361              		.loc 1 72 0
 362              		.cfi_startproc
 363              		@ args = 0, pretend = 0, frame = 8
 364              		@ frame_needed = 0, uses_anonymous_args = 0
 365              	.LVL24:
 366 0000 10B5     		push	{r4, lr}
 367              		.cfi_def_cfa_offset 8
 368              		.cfi_offset 4, -8
 369              		.cfi_offset 14, -4
 370 0002 084B     		ldr	r3, .L49
 371 0004 82B0     		sub	sp, sp, #8
 372              		.cfi_def_cfa_offset 16
 373              		.loc 1 72 0
 374 0006 1C68     		ldr	r4, [r3]
 375 0008 0194     		str	r4, [sp, #4]
 376              		.loc 1 74 0
 377 000a 019C     		ldr	r4, [sp, #4]
 378 000c 1B68     		ldr	r3, [r3]
 379 000e 9C42     		cmp	r4, r3
 380 0010 05D1     		bne	.L48
 381 0012 3030     		adds	r0, r0, #48
 382              	.LVL25:
 383              		.loc 1 75 0
 384 0014 02B0     		add	sp, sp, #8
 385              		.cfi_remember_state
 386              		.cfi_def_cfa_offset 8
 387              		@ sp needed
 388 0016 BDE81040 		pop	{r4, lr}
 389              		.cfi_restore 14
 390              		.cfi_restore 4
 391              		.cfi_def_cfa_offset 0
 392              		.loc 1 74 0
 393 001a FFF7FEBF 		b	chOQPutTimeout
 394              	.LVL26:
 395              	.L48:
 396              		.cfi_restore_state
 397 001e FFF7FEFF 		bl	__stack_chk_fail
 398              	.LVL27:
 399              	.L50:
ARM GAS  C:\Users\osour\AppData\Local\Temp\ccxr6Ilk.s 			page 8


 400 0022 00BF     		.align	2
 401              	.L49:
 402 0024 00000000 		.word	__stack_chk_guard
 403              		.cfi_endproc
 404              	.LFE260:
 405              		.size	putt, .-putt
 406              		.section	.text.put,"ax",%progbits
 407              		.align	1
 408              		.p2align 4,,15
 409              		.syntax unified
 410              		.thumb
 411              		.thumb_func
 412              		.fpu fpv4-sp-d16
 413              		.type	put, %function
 414              	put:
 415              	.LFB258:
 416              		.loc 1 62 0
 417              		.cfi_startproc
 418              		@ args = 0, pretend = 0, frame = 8
 419              		@ frame_needed = 0, uses_anonymous_args = 0
 420              	.LVL28:
 421 0000 00B5     		push	{lr}
 422              		.cfi_def_cfa_offset 4
 423              		.cfi_offset 14, -4
 424 0002 094B     		ldr	r3, .L56
 425 0004 83B0     		sub	sp, sp, #12
 426              		.cfi_def_cfa_offset 16
 427              		.loc 1 62 0
 428 0006 1A68     		ldr	r2, [r3]
 429 0008 0192     		str	r2, [sp, #4]
 430              		.loc 1 64 0
 431 000a 019A     		ldr	r2, [sp, #4]
 432 000c 1B68     		ldr	r3, [r3]
 433 000e 9A42     		cmp	r2, r3
 434 0010 07D1     		bne	.L55
 435 0012 3030     		adds	r0, r0, #48
 436              	.LVL29:
 437 0014 4FF0FF32 		mov	r2, #-1
 438              		.loc 1 65 0
 439 0018 03B0     		add	sp, sp, #12
 440              		.cfi_remember_state
 441              		.cfi_def_cfa_offset 4
 442              		@ sp needed
 443 001a 5DF804EB 		ldr	lr, [sp], #4
 444              		.cfi_restore 14
 445              		.cfi_def_cfa_offset 0
 446              		.loc 1 64 0
 447 001e FFF7FEBF 		b	chOQPutTimeout
 448              	.LVL30:
 449              	.L55:
 450              		.cfi_restore_state
 451 0022 FFF7FEFF 		bl	__stack_chk_fail
 452              	.LVL31:
 453              	.L57:
 454 0026 00BF     		.align	2
 455              	.L56:
 456 0028 00000000 		.word	__stack_chk_guard
ARM GAS  C:\Users\osour\AppData\Local\Temp\ccxr6Ilk.s 			page 9


 457              		.cfi_endproc
 458              	.LFE258:
 459              		.size	put, .-put
 460              		.section	.text.sdInit,"ax",%progbits
 461              		.align	1
 462              		.p2align 4,,15
 463              		.global	sdInit
 464              		.syntax unified
 465              		.thumb
 466              		.thumb_func
 467              		.fpu fpv4-sp-d16
 468              		.type	sdInit, %function
 469              	sdInit:
 470              	.LFB264:
 471              		.loc 1 108 0
 472              		.cfi_startproc
 473              		@ args = 0, pretend = 0, frame = 8
 474              		@ frame_needed = 0, uses_anonymous_args = 0
 475 0000 00B5     		push	{lr}
 476              		.cfi_def_cfa_offset 4
 477              		.cfi_offset 14, -4
 478 0002 074B     		ldr	r3, .L63
 479 0004 83B0     		sub	sp, sp, #12
 480              		.cfi_def_cfa_offset 16
 481              		.loc 1 108 0
 482 0006 1A68     		ldr	r2, [r3]
 483 0008 0192     		str	r2, [sp, #4]
 484              		.loc 1 110 0
 485 000a 019A     		ldr	r2, [sp, #4]
 486 000c 1B68     		ldr	r3, [r3]
 487 000e 9A42     		cmp	r2, r3
 488 0010 04D1     		bne	.L62
 489              		.loc 1 111 0
 490 0012 03B0     		add	sp, sp, #12
 491              		.cfi_remember_state
 492              		.cfi_def_cfa_offset 4
 493              		@ sp needed
 494 0014 5DF804EB 		ldr	lr, [sp], #4
 495              		.cfi_restore 14
 496              		.cfi_def_cfa_offset 0
 497              		.loc 1 110 0
 498 0018 FFF7FEBF 		b	sd_lld_init
 499              	.LVL32:
 500              	.L62:
 501              		.cfi_restore_state
 502 001c FFF7FEFF 		bl	__stack_chk_fail
 503              	.LVL33:
 504              	.L64:
 505              		.align	2
 506              	.L63:
 507 0020 00000000 		.word	__stack_chk_guard
 508              		.cfi_endproc
 509              	.LFE264:
 510              		.size	sdInit, .-sdInit
 511              		.section	.text.sdObjectInit,"ax",%progbits
 512              		.align	1
 513              		.p2align 4,,15
ARM GAS  C:\Users\osour\AppData\Local\Temp\ccxr6Ilk.s 			page 10


 514              		.global	sdObjectInit
 515              		.syntax unified
 516              		.thumb
 517              		.thumb_func
 518              		.fpu fpv4-sp-d16
 519              		.type	sdObjectInit, %function
 520              	sdObjectInit:
 521              	.LFB265:
 522              		.loc 1 128 0
 523              		.cfi_startproc
 524              		@ args = 0, pretend = 0, frame = 8
 525              		@ frame_needed = 0, uses_anonymous_args = 0
 526              	.LVL34:
 527 0000 F0B5     		push	{r4, r5, r6, r7, lr}
 528              		.cfi_def_cfa_offset 20
 529              		.cfi_offset 4, -20
 530              		.cfi_offset 5, -16
 531              		.cfi_offset 6, -12
 532              		.cfi_offset 7, -8
 533              		.cfi_offset 14, -4
 534 0002 144D     		ldr	r5, .L69
 535              		.loc 1 130 0
 536 0004 144B     		ldr	r3, .L69+4
 537              		.loc 1 128 0
 538 0006 2F68     		ldr	r7, [r5]
 539 0008 0446     		mov	r4, r0
 540 000a 85B0     		sub	sp, sp, #20
 541              		.cfi_def_cfa_offset 40
 542              		.loc 1 130 0
 543 000c 40F8043B 		str	r3, [r0], #4
 544              	.LVL35:
 545              		.loc 1 132 0
 546 0010 4FF0010C 		mov	ip, #1
 547              		.loc 1 133 0
 548 0014 0094     		str	r4, [sp]
 549 0016 0B46     		mov	r3, r1
 550              		.loc 1 128 0
 551 0018 1646     		mov	r6, r2
 552              	.LBB53:
 553              	.LBB54:
 554              	.LBB55:
 555              		.file 2 "../../lib/e-puck2_main-processor/ChibiOS//os/rt/include/chevents.h"
 556              		.loc 2 172 0
 557 001a 6060     		str	r0, [r4, #4]
 558              	.LVL36:
 559              	.LBE55:
 560              	.LBE54:
 561              	.LBE53:
 562              		.loc 1 132 0
 563 001c 84F808C0 		strb	ip, [r4, #8]
 564              		.loc 1 133 0
 565 0020 04F15401 		add	r1, r4, #84
 566              	.LVL37:
 567 0024 04F10C00 		add	r0, r4, #12
 568 0028 1022     		movs	r2, #16
 569              	.LVL38:
 570              		.loc 1 128 0
ARM GAS  C:\Users\osour\AppData\Local\Temp\ccxr6Ilk.s 			page 11


 571 002a 0397     		str	r7, [sp, #12]
 572              		.loc 1 133 0
 573 002c FFF7FEFF 		bl	chIQObjectInit
 574              	.LVL39:
 575              		.loc 1 134 0
 576 0030 3346     		mov	r3, r6
 577 0032 1022     		movs	r2, #16
 578 0034 0094     		str	r4, [sp]
 579 0036 04F16401 		add	r1, r4, #100
 580 003a 04F13000 		add	r0, r4, #48
 581 003e FFF7FEFF 		bl	chOQObjectInit
 582              	.LVL40:
 583              		.loc 1 135 0
 584 0042 039A     		ldr	r2, [sp, #12]
 585 0044 2B68     		ldr	r3, [r5]
 586 0046 9A42     		cmp	r2, r3
 587 0048 01D1     		bne	.L68
 588 004a 05B0     		add	sp, sp, #20
 589              		.cfi_remember_state
 590              		.cfi_def_cfa_offset 20
 591              		@ sp needed
 592 004c F0BD     		pop	{r4, r5, r6, r7, pc}
 593              	.LVL41:
 594              	.L68:
 595              		.cfi_restore_state
 596 004e FFF7FEFF 		bl	__stack_chk_fail
 597              	.LVL42:
 598              	.L70:
 599 0052 00BF     		.align	2
 600              	.L69:
 601 0054 00000000 		.word	__stack_chk_guard
 602 0058 00000000 		.word	.LANCHOR0
 603              		.cfi_endproc
 604              	.LFE265:
 605              		.size	sdObjectInit, .-sdObjectInit
 606              		.section	.text.sdStart,"ax",%progbits
 607              		.align	1
 608              		.p2align 4,,15
 609              		.global	sdStart
 610              		.syntax unified
 611              		.thumb
 612              		.thumb_func
 613              		.fpu fpv4-sp-d16
 614              		.type	sdStart, %function
 615              	sdStart:
 616              	.LFB266:
 617              		.loc 1 147 0
 618              		.cfi_startproc
 619              		@ args = 0, pretend = 0, frame = 8
 620              		@ frame_needed = 0, uses_anonymous_args = 0
 621              	.LVL43:
 622 0000 70B5     		push	{r4, r5, r6, lr}
 623              		.cfi_def_cfa_offset 16
 624              		.cfi_offset 4, -16
 625              		.cfi_offset 5, -12
 626              		.cfi_offset 6, -8
 627              		.cfi_offset 14, -4
ARM GAS  C:\Users\osour\AppData\Local\Temp\ccxr6Ilk.s 			page 12


 628 0002 1D4D     		ldr	r5, .L80
 629 0004 82B0     		sub	sp, sp, #8
 630              		.cfi_def_cfa_offset 24
 631              		.loc 1 147 0
 632 0006 2B68     		ldr	r3, [r5]
 633 0008 0193     		str	r3, [sp, #4]
 634 000a 0E46     		mov	r6, r1
 635              		.loc 1 149 0
 636 000c 0446     		mov	r4, r0
 637 000e 68B3     		cbz	r0, .L77
 638              	.LVL44:
 639              	.L72:
 640              	.LBB69:
 641              	.LBB70:
 642              	.LBB71:
 643              	.LBB72:
 644              	.LBB73:
 645              	.LBB74:
 646              		.file 3 "../../lib/e-puck2_main-processor/ChibiOS//os/ext/CMSIS/include/core_cmFunc.h"
 647              		.loc 3 546 0
 648 0010 2023     		movs	r3, #32
 649              		.syntax unified
 650              	@ 546 "../../lib/e-puck2_main-processor/ChibiOS//os/ext/CMSIS/include/core_cmFunc.h" 1
 651 0012 83F31188 		MSR basepri, r3
 652              	@ 0 "" 2
 653              	.LVL45:
 654              		.thumb
 655              		.syntax unified
 656              	.LBE74:
 657              	.LBE73:
 658              	.LBE72:
 659              		.file 4 "../../lib/e-puck2_main-processor/ChibiOS//os/rt/include/chsys.h"
 660              		.loc 4 349 0
 661 0016 FFF7FEFF 		bl	_stats_start_measure_crit_thd
 662              	.LVL46:
 663              		.loc 4 350 0
 664 001a FFF7FEFF 		bl	_dbg_check_lock
 665              	.LVL47:
 666              	.LBE71:
 667              	.LBE70:
 668              	.LBE69:
 669              		.loc 1 152 0
 670 001e 237A     		ldrb	r3, [r4, #8]	@ zero_extendqisi2
 671 0020 013B     		subs	r3, r3, #1
 672 0022 012B     		cmp	r3, #1
 673 0024 02D9     		bls	.L73
 674              		.loc 1 152 0 is_stmt 0 discriminator 2
 675 0026 1548     		ldr	r0, .L80+4
 676 0028 FFF7FEFF 		bl	chSysHalt
 677              	.LVL48:
 678              	.L73:
 679              		.loc 1 154 0 is_stmt 1
 680 002c 3146     		mov	r1, r6
 681 002e 2046     		mov	r0, r4
 682 0030 FFF7FEFF 		bl	sd_lld_start
 683              	.LVL49:
 684              		.loc 1 155 0
ARM GAS  C:\Users\osour\AppData\Local\Temp\ccxr6Ilk.s 			page 13


 685 0034 0223     		movs	r3, #2
 686 0036 2372     		strb	r3, [r4, #8]
 687              	.LBB75:
 688              	.LBB76:
 689              	.LBB77:
 690              		.loc 4 360 0
 691 0038 FFF7FEFF 		bl	_dbg_check_unlock
 692              	.LVL50:
 693              		.loc 4 361 0
 694 003c FFF7FEFF 		bl	_stats_stop_measure_crit_thd
 695              	.LVL51:
 696              		.loc 4 367 0
 697 0040 0F4B     		ldr	r3, .L80+8
 698 0042 1A68     		ldr	r2, [r3]
 699 0044 9A42     		cmp	r2, r3
 700 0046 04D0     		beq	.L74
 701 0048 9969     		ldr	r1, [r3, #24]
 702 004a 9368     		ldr	r3, [r2, #8]
 703 004c 8A68     		ldr	r2, [r1, #8]
 704 004e 9A42     		cmp	r2, r3
 705 0050 08D3     		bcc	.L78
 706              	.L74:
 707              	.LVL52:
 708              	.LBB78:
 709              	.LBB79:
 710              	.LBB80:
 711              		.loc 3 546 0
 712 0052 0023     		movs	r3, #0
 713              		.syntax unified
 714              	@ 546 "../../lib/e-puck2_main-processor/ChibiOS//os/ext/CMSIS/include/core_cmFunc.h" 1
 715 0054 83F31188 		MSR basepri, r3
 716              	@ 0 "" 2
 717              	.LVL53:
 718              		.thumb
 719              		.syntax unified
 720              	.LBE80:
 721              	.LBE79:
 722              	.LBE78:
 723              	.LBE77:
 724              	.LBE76:
 725              	.LBE75:
 726              		.loc 1 157 0
 727 0058 019A     		ldr	r2, [sp, #4]
 728 005a 2B68     		ldr	r3, [r5]
 729 005c 9A42     		cmp	r2, r3
 730 005e 09D1     		bne	.L79
 731 0060 02B0     		add	sp, sp, #8
 732              		.cfi_remember_state
 733              		.cfi_def_cfa_offset 16
 734              		@ sp needed
 735 0062 70BD     		pop	{r4, r5, r6, pc}
 736              	.LVL54:
 737              	.L78:
 738              		.cfi_restore_state
 739              	.LBB83:
 740              	.LBB82:
 741              	.LBB81:
ARM GAS  C:\Users\osour\AppData\Local\Temp\ccxr6Ilk.s 			page 14


 742              		.loc 4 367 0
 743 0064 0748     		ldr	r0, .L80+12
 744 0066 FFF7FEFF 		bl	chSysHalt
 745              	.LVL55:
 746 006a F2E7     		b	.L74
 747              	.LVL56:
 748              	.L77:
 749              	.LBE81:
 750              	.LBE82:
 751              	.LBE83:
 752              		.loc 1 149 0 discriminator 2
 753 006c 0348     		ldr	r0, .L80+4
 754              	.LVL57:
 755 006e FFF7FEFF 		bl	chSysHalt
 756              	.LVL58:
 757 0072 CDE7     		b	.L72
 758              	.L79:
 759              		.loc 1 157 0
 760 0074 FFF7FEFF 		bl	__stack_chk_fail
 761              	.LVL59:
 762              	.L81:
 763              		.align	2
 764              	.L80:
 765 0078 00000000 		.word	__stack_chk_guard
 766 007c 00000000 		.word	.LANCHOR1
 767 0080 00000000 		.word	ch
 768 0084 00000000 		.word	.LANCHOR2
 769              		.cfi_endproc
 770              	.LFE266:
 771              		.size	sdStart, .-sdStart
 772              		.section	.text.sdStop,"ax",%progbits
 773              		.align	1
 774              		.p2align 4,,15
 775              		.global	sdStop
 776              		.syntax unified
 777              		.thumb
 778              		.thumb_func
 779              		.fpu fpv4-sp-d16
 780              		.type	sdStop, %function
 781              	sdStop:
 782              	.LFB267:
 783              		.loc 1 168 0
 784              		.cfi_startproc
 785              		@ args = 0, pretend = 0, frame = 8
 786              		@ frame_needed = 0, uses_anonymous_args = 0
 787              	.LVL60:
 788 0000 30B5     		push	{r4, r5, lr}
 789              		.cfi_def_cfa_offset 12
 790              		.cfi_offset 4, -12
 791              		.cfi_offset 5, -8
 792              		.cfi_offset 14, -4
 793 0002 224D     		ldr	r5, .L91
 794 0004 83B0     		sub	sp, sp, #12
 795              		.cfi_def_cfa_offset 24
 796              		.loc 1 168 0
 797 0006 2B68     		ldr	r3, [r5]
 798 0008 0193     		str	r3, [sp, #4]
ARM GAS  C:\Users\osour\AppData\Local\Temp\ccxr6Ilk.s 			page 15


 799              		.loc 1 170 0
 800 000a 0446     		mov	r4, r0
 801 000c 0028     		cmp	r0, #0
 802 000e 36D0     		beq	.L88
 803              	.LVL61:
 804              	.L83:
 805              	.LBB99:
 806              	.LBB100:
 807              	.LBB101:
 808              	.LBB102:
 809              	.LBB103:
 810              	.LBB104:
 811              		.loc 3 546 0
 812 0010 2023     		movs	r3, #32
 813              		.syntax unified
 814              	@ 546 "../../lib/e-puck2_main-processor/ChibiOS//os/ext/CMSIS/include/core_cmFunc.h" 1
 815 0012 83F31188 		MSR basepri, r3
 816              	@ 0 "" 2
 817              	.LVL62:
 818              		.thumb
 819              		.syntax unified
 820              	.LBE104:
 821              	.LBE103:
 822              	.LBE102:
 823              		.loc 4 349 0
 824 0016 FFF7FEFF 		bl	_stats_start_measure_crit_thd
 825              	.LVL63:
 826              		.loc 4 350 0
 827 001a FFF7FEFF 		bl	_dbg_check_lock
 828              	.LVL64:
 829              	.LBE101:
 830              	.LBE100:
 831              	.LBE99:
 832              		.loc 1 173 0
 833 001e 237A     		ldrb	r3, [r4, #8]	@ zero_extendqisi2
 834 0020 013B     		subs	r3, r3, #1
 835 0022 012B     		cmp	r3, #1
 836 0024 02D9     		bls	.L84
 837              		.loc 1 173 0 is_stmt 0 discriminator 2
 838 0026 1A48     		ldr	r0, .L91+4
 839 0028 FFF7FEFF 		bl	chSysHalt
 840              	.LVL65:
 841              	.L84:
 842              		.loc 1 175 0 is_stmt 1
 843 002c 2046     		mov	r0, r4
 844 002e FFF7FEFF 		bl	sd_lld_stop
 845              	.LVL66:
 846              		.loc 1 176 0
 847 0032 0123     		movs	r3, #1
 848 0034 2372     		strb	r3, [r4, #8]
 849              		.loc 1 177 0
 850 0036 04F13000 		add	r0, r4, #48
 851 003a FFF7FEFF 		bl	chOQResetI
 852              	.LVL67:
 853              		.loc 1 178 0
 854 003e 04F10C00 		add	r0, r4, #12
 855 0042 FFF7FEFF 		bl	chIQResetI
ARM GAS  C:\Users\osour\AppData\Local\Temp\ccxr6Ilk.s 			page 16


 856              	.LVL68:
 857              	.LBB105:
 858              	.LBB106:
 859              		.file 5 "../../lib/e-puck2_main-processor/ChibiOS//os/hal/osal/rt/osal.h"
 860              		.loc 5 554 0
 861 0046 FFF7FEFF 		bl	chSchRescheduleS
 862              	.LVL69:
 863              	.LBE106:
 864              	.LBE105:
 865              	.LBB107:
 866              	.LBB108:
 867              	.LBB109:
 868              		.loc 4 360 0
 869 004a FFF7FEFF 		bl	_dbg_check_unlock
 870              	.LVL70:
 871              		.loc 4 361 0
 872 004e FFF7FEFF 		bl	_stats_stop_measure_crit_thd
 873              	.LVL71:
 874              		.loc 4 367 0
 875 0052 104B     		ldr	r3, .L91+8
 876 0054 1A68     		ldr	r2, [r3]
 877 0056 9A42     		cmp	r2, r3
 878 0058 04D0     		beq	.L85
 879 005a 9969     		ldr	r1, [r3, #24]
 880 005c 9368     		ldr	r3, [r2, #8]
 881 005e 8A68     		ldr	r2, [r1, #8]
 882 0060 9A42     		cmp	r2, r3
 883 0062 08D3     		bcc	.L89
 884              	.L85:
 885              	.LVL72:
 886              	.LBB110:
 887              	.LBB111:
 888              	.LBB112:
 889              		.loc 3 546 0
 890 0064 0023     		movs	r3, #0
 891              		.syntax unified
 892              	@ 546 "../../lib/e-puck2_main-processor/ChibiOS//os/ext/CMSIS/include/core_cmFunc.h" 1
 893 0066 83F31188 		MSR basepri, r3
 894              	@ 0 "" 2
 895              	.LVL73:
 896              		.thumb
 897              		.syntax unified
 898              	.LBE112:
 899              	.LBE111:
 900              	.LBE110:
 901              	.LBE109:
 902              	.LBE108:
 903              	.LBE107:
 904              		.loc 1 181 0
 905 006a 019A     		ldr	r2, [sp, #4]
 906 006c 2B68     		ldr	r3, [r5]
 907 006e 9A42     		cmp	r2, r3
 908 0070 09D1     		bne	.L90
 909 0072 03B0     		add	sp, sp, #12
 910              		.cfi_remember_state
 911              		.cfi_def_cfa_offset 12
 912              		@ sp needed
ARM GAS  C:\Users\osour\AppData\Local\Temp\ccxr6Ilk.s 			page 17


 913 0074 30BD     		pop	{r4, r5, pc}
 914              	.LVL74:
 915              	.L89:
 916              		.cfi_restore_state
 917              	.LBB115:
 918              	.LBB114:
 919              	.LBB113:
 920              		.loc 4 367 0
 921 0076 0848     		ldr	r0, .L91+12
 922 0078 FFF7FEFF 		bl	chSysHalt
 923              	.LVL75:
 924 007c F2E7     		b	.L85
 925              	.LVL76:
 926              	.L88:
 927              	.LBE113:
 928              	.LBE114:
 929              	.LBE115:
 930              		.loc 1 170 0 discriminator 2
 931 007e 0448     		ldr	r0, .L91+4
 932              	.LVL77:
 933 0080 FFF7FEFF 		bl	chSysHalt
 934              	.LVL78:
 935 0084 C4E7     		b	.L83
 936              	.L90:
 937              		.loc 1 181 0
 938 0086 FFF7FEFF 		bl	__stack_chk_fail
 939              	.LVL79:
 940              	.L92:
 941 008a 00BF     		.align	2
 942              	.L91:
 943 008c 00000000 		.word	__stack_chk_guard
 944 0090 00000000 		.word	.LANCHOR3
 945 0094 00000000 		.word	ch
 946 0098 00000000 		.word	.LANCHOR2
 947              		.cfi_endproc
 948              	.LFE267:
 949              		.size	sdStop, .-sdStop
 950              		.section	.text.sdIncomingDataI,"ax",%progbits
 951              		.align	1
 952              		.p2align 4,,15
 953              		.global	sdIncomingDataI
 954              		.syntax unified
 955              		.thumb
 956              		.thumb_func
 957              		.fpu fpv4-sp-d16
 958              		.type	sdIncomingDataI, %function
 959              	sdIncomingDataI:
 960              	.LFB268:
 961              		.loc 1 199 0
 962              		.cfi_startproc
 963              		@ args = 0, pretend = 0, frame = 8
 964              		@ frame_needed = 0, uses_anonymous_args = 0
 965              	.LVL80:
 966 0000 70B5     		push	{r4, r5, r6, lr}
 967              		.cfi_def_cfa_offset 16
 968              		.cfi_offset 4, -16
 969              		.cfi_offset 5, -12
ARM GAS  C:\Users\osour\AppData\Local\Temp\ccxr6Ilk.s 			page 18


 970              		.cfi_offset 6, -8
 971              		.cfi_offset 14, -4
 972 0002 174D     		ldr	r5, .L104
 973 0004 82B0     		sub	sp, sp, #8
 974              		.cfi_def_cfa_offset 24
 975              		.loc 1 199 0
 976 0006 0446     		mov	r4, r0
 977 0008 2B68     		ldr	r3, [r5]
 978 000a 0193     		str	r3, [sp, #4]
 979 000c 0E46     		mov	r6, r1
 980              		.loc 1 201 0
 981 000e FFF7FEFF 		bl	chDbgCheckClassI
 982              	.LVL81:
 983              		.loc 1 202 0
 984 0012 F4B1     		cbz	r4, .L101
 985              	.L94:
 986              	.LVL82:
 987              	.LBB116:
 988              	.LBB117:
 989              		.file 6 "../../lib/e-puck2_main-processor/ChibiOS//os/rt/include/chqueues.h"
 990              		.loc 6 305 0
 991 0014 FFF7FEFF 		bl	chDbgCheckClassI
 992              	.LVL83:
 993              	.LBE117:
 994              	.LBE116:
 995              		.loc 1 204 0
 996 0018 6369     		ldr	r3, [r4, #20]
 997 001a 63B1     		cbz	r3, .L102
 998              	.L95:
 999              		.loc 1 206 0
 1000 001c 3146     		mov	r1, r6
 1001 001e 04F10C00 		add	r0, r4, #12
 1002 0022 FFF7FEFF 		bl	chIQPutI
 1003              	.LVL84:
 1004 0026 0028     		cmp	r0, #0
 1005              	.LBB118:
 1006              	.LBB119:
 1007              		.loc 5 798 0
 1008 0028 019A     		ldr	r2, [sp, #4]
 1009 002a 2B68     		ldr	r3, [r5]
 1010              	.LBE119:
 1011              	.LBE118:
 1012              		.loc 1 206 0
 1013 002c 08DB     		blt	.L103
 1014              		.loc 1 208 0
 1015 002e 9A42     		cmp	r2, r3
 1016 0030 13D1     		bne	.L100
 1017 0032 02B0     		add	sp, sp, #8
 1018              		.cfi_remember_state
 1019              		.cfi_def_cfa_offset 16
 1020              		@ sp needed
 1021 0034 70BD     		pop	{r4, r5, r6, pc}
 1022              	.LVL85:
 1023              	.L102:
 1024              		.cfi_restore_state
 1025              	.LBB122:
 1026              	.LBB123:
ARM GAS  C:\Users\osour\AppData\Local\Temp\ccxr6Ilk.s 			page 19


 1027              		.loc 5 798 0
 1028 0036 0421     		movs	r1, #4
 1029 0038 6018     		adds	r0, r4, r1
 1030              	.LVL86:
 1031 003a FFF7FEFF 		bl	chEvtBroadcastFlagsI
 1032              	.LVL87:
 1033 003e EDE7     		b	.L95
 1034              	.LVL88:
 1035              	.L103:
 1036              	.LBE123:
 1037              	.LBE122:
 1038              	.LBB124:
 1039              	.LBB120:
 1040 0040 9A42     		cmp	r2, r3
 1041 0042 0AD1     		bne	.L100
 1042 0044 201D     		adds	r0, r4, #4
 1043              	.LVL89:
 1044 0046 8021     		movs	r1, #128
 1045              	.LBE120:
 1046              	.LBE124:
 1047              		.loc 1 208 0
 1048 0048 02B0     		add	sp, sp, #8
 1049              		.cfi_remember_state
 1050              		.cfi_def_cfa_offset 16
 1051              		@ sp needed
 1052 004a BDE87040 		pop	{r4, r5, r6, lr}
 1053              		.cfi_restore 14
 1054              		.cfi_restore 6
 1055              		.cfi_restore 5
 1056              		.cfi_restore 4
 1057              		.cfi_def_cfa_offset 0
 1058              	.LVL90:
 1059              	.LBB125:
 1060              	.LBB121:
 1061              		.loc 5 798 0
 1062 004e FFF7FEBF 		b	chEvtBroadcastFlagsI
 1063              	.LVL91:
 1064              	.L101:
 1065              		.cfi_restore_state
 1066              	.LBE121:
 1067              	.LBE125:
 1068              		.loc 1 202 0 discriminator 2
 1069 0052 0448     		ldr	r0, .L104+4
 1070 0054 FFF7FEFF 		bl	chSysHalt
 1071              	.LVL92:
 1072 0058 DCE7     		b	.L94
 1073              	.LVL93:
 1074              	.L100:
 1075              		.loc 1 208 0
 1076 005a FFF7FEFF 		bl	__stack_chk_fail
 1077              	.LVL94:
 1078              	.L105:
 1079 005e 00BF     		.align	2
 1080              	.L104:
 1081 0060 00000000 		.word	__stack_chk_guard
 1082 0064 00000000 		.word	.LANCHOR4
 1083              		.cfi_endproc
ARM GAS  C:\Users\osour\AppData\Local\Temp\ccxr6Ilk.s 			page 20


 1084              	.LFE268:
 1085              		.size	sdIncomingDataI, .-sdIncomingDataI
 1086              		.section	.text.sdRequestDataI,"ax",%progbits
 1087              		.align	1
 1088              		.p2align 4,,15
 1089              		.global	sdRequestDataI
 1090              		.syntax unified
 1091              		.thumb
 1092              		.thumb_func
 1093              		.fpu fpv4-sp-d16
 1094              		.type	sdRequestDataI, %function
 1095              	sdRequestDataI:
 1096              	.LFB269:
 1097              		.loc 1 225 0
 1098              		.cfi_startproc
 1099              		@ args = 0, pretend = 0, frame = 8
 1100              		@ frame_needed = 0, uses_anonymous_args = 0
 1101              	.LVL95:
 1102 0000 70B5     		push	{r4, r5, r6, lr}
 1103              		.cfi_def_cfa_offset 16
 1104              		.cfi_offset 4, -16
 1105              		.cfi_offset 5, -12
 1106              		.cfi_offset 6, -8
 1107              		.cfi_offset 14, -4
 1108 0002 104D     		ldr	r5, .L114
 1109 0004 82B0     		sub	sp, sp, #8
 1110              		.cfi_def_cfa_offset 24
 1111              		.loc 1 225 0
 1112 0006 0446     		mov	r4, r0
 1113 0008 2B68     		ldr	r3, [r5]
 1114 000a 0193     		str	r3, [sp, #4]
 1115              		.loc 1 228 0
 1116 000c FFF7FEFF 		bl	chDbgCheckClassI
 1117              	.LVL96:
 1118              		.loc 1 229 0
 1119 0010 8CB1     		cbz	r4, .L111
 1120              	.L107:
 1121              		.loc 1 231 0
 1122 0012 04F13000 		add	r0, r4, #48
 1123 0016 FFF7FEFF 		bl	chOQGetI
 1124              	.LVL97:
 1125              		.loc 1 232 0
 1126 001a 061E     		subs	r6, r0, #0
 1127 001c 06DB     		blt	.L112
 1128              	.LVL98:
 1129              	.L106:
 1130              		.loc 1 235 0
 1131 001e 019A     		ldr	r2, [sp, #4]
 1132 0020 2B68     		ldr	r3, [r5]
 1133 0022 9A42     		cmp	r2, r3
 1134 0024 3046     		mov	r0, r6
 1135 0026 0AD1     		bne	.L113
 1136              	.LVL99:
 1137 0028 02B0     		add	sp, sp, #8
 1138              		.cfi_remember_state
 1139              		.cfi_def_cfa_offset 16
 1140              		@ sp needed
ARM GAS  C:\Users\osour\AppData\Local\Temp\ccxr6Ilk.s 			page 21


 1141 002a 70BD     		pop	{r4, r5, r6, pc}
 1142              	.LVL100:
 1143              	.L112:
 1144              		.cfi_restore_state
 1145              	.LBB126:
 1146              	.LBB127:
 1147              		.loc 5 798 0
 1148 002c 201D     		adds	r0, r4, #4
 1149              	.LVL101:
 1150 002e 0821     		movs	r1, #8
 1151 0030 FFF7FEFF 		bl	chEvtBroadcastFlagsI
 1152              	.LVL102:
 1153              	.LBE127:
 1154              	.LBE126:
 1155              		.loc 1 234 0
 1156 0034 F3E7     		b	.L106
 1157              	.LVL103:
 1158              	.L111:
 1159              		.loc 1 229 0 discriminator 2
 1160 0036 0448     		ldr	r0, .L114+4
 1161 0038 FFF7FEFF 		bl	chSysHalt
 1162              	.LVL104:
 1163 003c E9E7     		b	.L107
 1164              	.LVL105:
 1165              	.L113:
 1166              		.loc 1 235 0
 1167 003e FFF7FEFF 		bl	__stack_chk_fail
 1168              	.LVL106:
 1169              	.L115:
 1170 0042 00BF     		.align	2
 1171              	.L114:
 1172 0044 00000000 		.word	__stack_chk_guard
 1173 0048 00000000 		.word	.LANCHOR5
 1174              		.cfi_endproc
 1175              	.LFE269:
 1176              		.size	sdRequestDataI, .-sdRequestDataI
 1177              		.section	.rodata.__func__.7153,"a",%progbits
 1178              		.align	2
 1179              		.set	.LANCHOR2,. + 0
 1180              		.type	__func__.7153, %object
 1181              		.size	__func__.7153, 12
 1182              	__func__.7153:
 1183 0000 63685379 		.ascii	"chSysUnlock\000"
 1183      73556E6C 
 1183      6F636B00 
 1184              		.section	.rodata.__func__.9890,"a",%progbits
 1185              		.align	2
 1186              		.set	.LANCHOR1,. + 0
 1187              		.type	__func__.9890, %object
 1188              		.size	__func__.9890, 8
 1189              	__func__.9890:
 1190 0000 73645374 		.ascii	"sdStart\000"
 1190      61727400 
 1191              		.section	.rodata.__func__.9894,"a",%progbits
 1192              		.align	2
 1193              		.set	.LANCHOR3,. + 0
 1194              		.type	__func__.9894, %object
ARM GAS  C:\Users\osour\AppData\Local\Temp\ccxr6Ilk.s 			page 22


 1195              		.size	__func__.9894, 7
 1196              	__func__.9894:
 1197 0000 73645374 		.ascii	"sdStop\000"
 1197      6F7000
 1198              		.section	.rodata.__func__.9899,"a",%progbits
 1199              		.align	2
 1200              		.set	.LANCHOR4,. + 0
 1201              		.type	__func__.9899, %object
 1202              		.size	__func__.9899, 16
 1203              	__func__.9899:
 1204 0000 7364496E 		.ascii	"sdIncomingDataI\000"
 1204      636F6D69 
 1204      6E674461 
 1204      74614900 
 1205              		.section	.rodata.__func__.9904,"a",%progbits
 1206              		.align	2
 1207              		.set	.LANCHOR5,. + 0
 1208              		.type	__func__.9904, %object
 1209              		.size	__func__.9904, 15
 1210              	__func__.9904:
 1211 0000 73645265 		.ascii	"sdRequestDataI\000"
 1211      71756573 
 1211      74446174 
 1211      614900
 1212              		.section	.rodata.vmt,"a",%progbits
 1213              		.align	2
 1214              		.set	.LANCHOR0,. + 0
 1215              		.type	vmt, %object
 1216              		.size	vmt, 32
 1217              	vmt:
 1218 0000 00000000 		.word	write
 1219 0004 00000000 		.word	read
 1220 0008 00000000 		.word	put
 1221 000c 00000000 		.word	get
 1222 0010 00000000 		.word	putt
 1223 0014 00000000 		.word	gett
 1224 0018 00000000 		.word	writet
 1225 001c 00000000 		.word	readt
 1226              		.text
 1227              	.Letext0:
 1228              		.file 7 "c:\\users\\osour\\desktop\\robotique\\eclipse_e-puck2\\tools\\gcc-arm-none-eabi-7-2017-q4
 1229              		.file 8 "c:\\users\\osour\\desktop\\robotique\\eclipse_e-puck2\\tools\\gcc-arm-none-eabi-7-2017-q4
 1230              		.file 9 "c:\\users\\osour\\desktop\\robotique\\eclipse_e-puck2\\tools\\gcc-arm-none-eabi-7-2017-q4
 1231              		.file 10 "../../lib/e-puck2_main-processor/ChibiOS//os/rt/ports/ARMCMx/compilers/GCC/chtypes.h"
 1232              		.file 11 "../../lib/e-puck2_main-processor/ChibiOS//os/rt/include/chsystypes.h"
 1233              		.file 12 "../../lib/e-puck2_main-processor/ChibiOS//os/rt/include/chschd.h"
 1234              		.file 13 "../../lib/e-puck2_main-processor/ChibiOS//os/ext/CMSIS/include/core_cm4.h"
 1235              		.file 14 "../../lib/e-puck2_main-processor/ChibiOS//os/ext/CMSIS/ST/system_stm32f4xx.h"
 1236              		.file 15 "../../lib/e-puck2_main-processor/ChibiOS//os/ext/CMSIS/ST/stm32f407xx.h"
 1237              		.file 16 "../../lib/e-puck2_main-processor/ChibiOS//os/rt/ports/ARMCMx/chcore.h"
 1238              		.file 17 "../../lib/e-puck2_main-processor/ChibiOS//os/rt/ports/ARMCMx/chcore_v7m.h"
 1239              		.file 18 "../../lib/e-puck2_main-processor/ChibiOS//os/rt/include/chdebug.h"
 1240              		.file 19 "../../lib/e-puck2_main-processor/ChibiOS//os/rt/include/chtm.h"
 1241              		.file 20 "../../lib/e-puck2_main-processor/ChibiOS//os/rt/include/chstats.h"
 1242              		.file 21 "../../lib/e-puck2_main-processor/ChibiOS//os/rt/include/chsem.h"
 1243              		.file 22 "../../lib/e-puck2_main-processor/ChibiOS//os/rt/include/chmtx.h"
 1244              		.file 23 "../../lib/e-puck2_main-processor/ChibiOS//os/rt/include/chregistry.h"
ARM GAS  C:\Users\osour\AppData\Local\Temp\ccxr6Ilk.s 			page 23


 1245              		.file 24 "../../lib/e-puck2_main-processor/ChibiOS//os/hal/ports/STM32/STM32F4xx/stm32_dma.h"
 1246              		.file 25 "../../lib/e-puck2_main-processor/ChibiOS//os/hal/include/hal_ioblock.h"
 1247              		.file 26 "../../lib/e-puck2_main-processor/ChibiOS//os/hal/ports/STM32/LLD/GPIOv2/pal_lld.h"
 1248              		.file 27 "../../lib/e-puck2_main-processor/ChibiOS//os/hal/include/adc.h"
 1249              		.file 28 "../../lib/e-puck2_main-processor/ChibiOS//os/hal/ports/STM32/STM32F4xx/adc_lld.h"
 1250              		.file 29 "../../lib/e-puck2_main-processor/ChibiOS//os/hal/include/can.h"
 1251              		.file 30 "../../lib/e-puck2_main-processor/ChibiOS//os/hal/ports/STM32/LLD/can_lld.h"
 1252              		.file 31 "../../lib/e-puck2_main-processor/ChibiOS//os/hal/include/dac.h"
 1253              		.file 32 "../../lib/e-puck2_main-processor/ChibiOS//os/hal/ports/STM32/LLD/DACv1/dac_lld.h"
 1254              		.file 33 "../../lib/e-puck2_main-processor/ChibiOS//os/hal/include/ext.h"
 1255              		.file 34 "../../lib/e-puck2_main-processor/ChibiOS//os/hal/ports/STM32/LLD/ext_lld.h"
 1256              		.file 35 "../../lib/e-puck2_main-processor/ChibiOS//os/hal/include/gpt.h"
 1257              		.file 36 "../../lib/e-puck2_main-processor/ChibiOS//os/hal/ports/STM32/LLD/TIMv1/gpt_lld.h"
 1258              		.file 37 "../../lib/e-puck2_main-processor/ChibiOS//os/hal/ports/STM32/LLD/TIMv1/stm32_tim.h"
 1259              		.file 38 "../../lib/e-puck2_main-processor/ChibiOS//os/hal/include/i2c.h"
 1260              		.file 39 "../../lib/e-puck2_main-processor/ChibiOS//os/hal/ports/STM32/LLD/I2Cv1/i2c_lld.h"
 1261              		.file 40 "../../lib/e-puck2_main-processor/ChibiOS//os/hal/include/i2s.h"
 1262              		.file 41 "../../lib/e-puck2_main-processor/ChibiOS//os/hal/ports/STM32/LLD/SPIv1/i2s_lld.h"
 1263              		.file 42 "../../lib/e-puck2_main-processor/ChibiOS//os/hal/include/pwm.h"
 1264              		.file 43 "../../lib/e-puck2_main-processor/ChibiOS//os/hal/ports/STM32/LLD/TIMv1/pwm_lld.h"
 1265              		.file 44 "../../lib/e-puck2_main-processor/ChibiOS//os/hal/include/serial.h"
 1266              		.file 45 "../../lib/e-puck2_main-processor/ChibiOS//os/hal/ports/STM32/LLD/USARTv1/serial_lld.h"
 1267              		.file 46 "../../lib/e-puck2_main-processor/ChibiOS//os/hal/include/sdc.h"
 1268              		.file 47 "../../lib/e-puck2_main-processor/ChibiOS//os/hal/ports/STM32/LLD/sdc_lld.h"
 1269              		.file 48 "../../lib/e-puck2_main-processor/ChibiOS//os/hal/include/spi.h"
 1270              		.file 49 "../../lib/e-puck2_main-processor/ChibiOS//os/hal/ports/STM32/LLD/SPIv1/spi_lld.h"
 1271              		.file 50 "../../lib/e-puck2_main-processor/ChibiOS//os/hal/include/usb.h"
 1272              		.file 51 "../../lib/e-puck2_main-processor/ChibiOS//os/hal/ports/STM32/LLD/OTGv1/usb_lld.h"
 1273              		.file 52 "../../lib/e-puck2_main-processor/ChibiOS//os/hal/ports/STM32/LLD/OTGv1/stm32_otg.h"