ARM GAS  C:\Users\osour\AppData\Local\Temp\ccp8yaTg.s 			page 1


   1              		.cpu cortex-m4
   2              		.eabi_attribute 27, 1
   3              		.eabi_attribute 28, 1
   4              		.eabi_attribute 20, 1
   5              		.eabi_attribute 21, 1
   6              		.eabi_attribute 23, 3
   7              		.eabi_attribute 24, 1
   8              		.eabi_attribute 25, 1
   9              		.eabi_attribute 26, 1
  10              		.eabi_attribute 30, 2
  11              		.eabi_attribute 34, 1
  12              		.eabi_attribute 18, 4
  13              		.file	"stm32_dma.c"
  14              		.text
  15              	.Ltext0:
  16              		.cfi_sections	.debug_frame
  17              		.section	.text.Vector6C,"ax",%progbits
  18              		.align	1
  19              		.p2align 4,,15
  20              		.global	Vector6C
  21              		.syntax unified
  22              		.thumb
  23              		.thumb_func
  24              		.fpu fpv4-sp-d16
  25              		.type	Vector6C, %function
  26              	Vector6C:
  27              	.LFB256:
  28              		.file 1 "../../lib/e-puck2_main-processor/ChibiOS//os/hal/ports/STM32/STM32F4xx/stm32_dma.c"
  29              		.loc 1 127 0
  30              		.cfi_startproc
  31              		@ args = 0, pretend = 0, frame = 8
  32              		@ frame_needed = 0, uses_anonymous_args = 0
  33 0000 10B5     		push	{r4, lr}
  34              		.cfi_def_cfa_offset 8
  35              		.cfi_offset 4, -8
  36              		.cfi_offset 14, -4
  37 0002 0F4C     		ldr	r4, .L11
  38 0004 82B0     		sub	sp, sp, #8
  39              		.cfi_def_cfa_offset 16
  40              		.loc 1 127 0
  41 0006 2368     		ldr	r3, [r4]
  42 0008 0193     		str	r3, [sp, #4]
  43              		.loc 1 130 0
  44 000a FFF7FEFF 		bl	_stats_increase_irq
  45              	.LVL0:
  46 000e FFF7FEFF 		bl	_dbg_check_enter_isr
  47              	.LVL1:
  48              		.loc 1 132 0
  49 0012 0C4B     		ldr	r3, .L11+4
  50              		.loc 1 134 0
  51 0014 0C4A     		ldr	r2, .L11+8
  52              		.loc 1 132 0
  53 0016 1968     		ldr	r1, [r3]
  54 0018 01F03D01 		and	r1, r1, #61
  55              	.LVL2:
  56              		.loc 1 133 0
  57 001c 9960     		str	r1, [r3, #8]
ARM GAS  C:\Users\osour\AppData\Local\Temp\ccp8yaTg.s 			page 2


  58              		.loc 1 134 0
  59 001e 1368     		ldr	r3, [r2]
  60 0020 0BB1     		cbz	r3, .L2
  61              		.loc 1 135 0
  62 0022 5068     		ldr	r0, [r2, #4]
  63 0024 9847     		blx	r3
  64              	.LVL3:
  65              	.L2:
  66              		.loc 1 137 0
  67 0026 FFF7FEFF 		bl	_dbg_check_leave_isr
  68              	.LVL4:
  69 002a 019A     		ldr	r2, [sp, #4]
  70 002c 2368     		ldr	r3, [r4]
  71 002e 9A42     		cmp	r2, r3
  72 0030 04D1     		bne	.L10
  73              		.loc 1 138 0
  74 0032 02B0     		add	sp, sp, #8
  75              		.cfi_remember_state
  76              		.cfi_def_cfa_offset 8
  77              		@ sp needed
  78 0034 BDE81040 		pop	{r4, lr}
  79              		.cfi_restore 14
  80              		.cfi_restore 4
  81              		.cfi_def_cfa_offset 0
  82              		.loc 1 137 0
  83 0038 FFF7FEBF 		b	_port_irq_epilogue
  84              	.LVL5:
  85              	.L10:
  86              		.cfi_restore_state
  87 003c FFF7FEFF 		bl	__stack_chk_fail
  88              	.LVL6:
  89              	.L12:
  90              		.align	2
  91              	.L11:
  92 0040 00000000 		.word	__stack_chk_guard
  93 0044 00600240 		.word	1073897472
  94 0048 00000000 		.word	.LANCHOR0
  95              		.cfi_endproc
  96              	.LFE256:
  97              		.size	Vector6C, .-Vector6C
  98              		.section	.text.Vector70,"ax",%progbits
  99              		.align	1
 100              		.p2align 4,,15
 101              		.global	Vector70
 102              		.syntax unified
 103              		.thumb
 104              		.thumb_func
 105              		.fpu fpv4-sp-d16
 106              		.type	Vector70, %function
 107              	Vector70:
 108              	.LFB257:
 109              		.loc 1 145 0
 110              		.cfi_startproc
 111              		@ args = 0, pretend = 0, frame = 8
 112              		@ frame_needed = 0, uses_anonymous_args = 0
 113 0000 30B5     		push	{r4, r5, lr}
 114              		.cfi_def_cfa_offset 12
ARM GAS  C:\Users\osour\AppData\Local\Temp\ccp8yaTg.s 			page 3


 115              		.cfi_offset 4, -12
 116              		.cfi_offset 5, -8
 117              		.cfi_offset 14, -4
 118 0002 104C     		ldr	r4, .L22
 119 0004 83B0     		sub	sp, sp, #12
 120              		.cfi_def_cfa_offset 24
 121              		.loc 1 145 0
 122 0006 2368     		ldr	r3, [r4]
 123 0008 0193     		str	r3, [sp, #4]
 124              		.loc 1 148 0
 125 000a FFF7FEFF 		bl	_stats_increase_irq
 126              	.LVL7:
 127 000e FFF7FEFF 		bl	_dbg_check_enter_isr
 128              	.LVL8:
 129              		.loc 1 150 0
 130 0012 0D4B     		ldr	r3, .L22+4
 131              		.loc 1 152 0
 132 0014 0D48     		ldr	r0, .L22+8
 133              		.loc 1 150 0
 134 0016 1968     		ldr	r1, [r3]
 135              		.loc 1 152 0
 136 0018 8268     		ldr	r2, [r0, #8]
 137              		.loc 1 150 0
 138 001a 8909     		lsrs	r1, r1, #6
 139 001c 01F03D01 		and	r1, r1, #61
 140              	.LVL9:
 141              		.loc 1 151 0
 142 0020 8D01     		lsls	r5, r1, #6
 143 0022 9D60     		str	r5, [r3, #8]
 144              		.loc 1 152 0
 145 0024 0AB1     		cbz	r2, .L14
 146              		.loc 1 153 0
 147 0026 C068     		ldr	r0, [r0, #12]
 148 0028 9047     		blx	r2
 149              	.LVL10:
 150              	.L14:
 151              		.loc 1 155 0
 152 002a FFF7FEFF 		bl	_dbg_check_leave_isr
 153              	.LVL11:
 154 002e 019A     		ldr	r2, [sp, #4]
 155 0030 2368     		ldr	r3, [r4]
 156 0032 9A42     		cmp	r2, r3
 157 0034 04D1     		bne	.L21
 158              		.loc 1 156 0
 159 0036 03B0     		add	sp, sp, #12
 160              		.cfi_remember_state
 161              		.cfi_def_cfa_offset 12
 162              		@ sp needed
 163 0038 BDE83040 		pop	{r4, r5, lr}
 164              		.cfi_restore 14
 165              		.cfi_restore 5
 166              		.cfi_restore 4
 167              		.cfi_def_cfa_offset 0
 168              		.loc 1 155 0
 169 003c FFF7FEBF 		b	_port_irq_epilogue
 170              	.LVL12:
 171              	.L21:
ARM GAS  C:\Users\osour\AppData\Local\Temp\ccp8yaTg.s 			page 4


 172              		.cfi_restore_state
 173 0040 FFF7FEFF 		bl	__stack_chk_fail
 174              	.LVL13:
 175              	.L23:
 176              		.align	2
 177              	.L22:
 178 0044 00000000 		.word	__stack_chk_guard
 179 0048 00600240 		.word	1073897472
 180 004c 00000000 		.word	.LANCHOR0
 181              		.cfi_endproc
 182              	.LFE257:
 183              		.size	Vector70, .-Vector70
 184              		.section	.text.Vector74,"ax",%progbits
 185              		.align	1
 186              		.p2align 4,,15
 187              		.global	Vector74
 188              		.syntax unified
 189              		.thumb
 190              		.thumb_func
 191              		.fpu fpv4-sp-d16
 192              		.type	Vector74, %function
 193              	Vector74:
 194              	.LFB258:
 195              		.loc 1 163 0
 196              		.cfi_startproc
 197              		@ args = 0, pretend = 0, frame = 8
 198              		@ frame_needed = 0, uses_anonymous_args = 0
 199 0000 30B5     		push	{r4, r5, lr}
 200              		.cfi_def_cfa_offset 12
 201              		.cfi_offset 4, -12
 202              		.cfi_offset 5, -8
 203              		.cfi_offset 14, -4
 204 0002 104C     		ldr	r4, .L33
 205 0004 83B0     		sub	sp, sp, #12
 206              		.cfi_def_cfa_offset 24
 207              		.loc 1 163 0
 208 0006 2368     		ldr	r3, [r4]
 209 0008 0193     		str	r3, [sp, #4]
 210              		.loc 1 166 0
 211 000a FFF7FEFF 		bl	_stats_increase_irq
 212              	.LVL14:
 213 000e FFF7FEFF 		bl	_dbg_check_enter_isr
 214              	.LVL15:
 215              		.loc 1 168 0
 216 0012 0D4B     		ldr	r3, .L33+4
 217              		.loc 1 170 0
 218 0014 0D48     		ldr	r0, .L33+8
 219              		.loc 1 168 0
 220 0016 1968     		ldr	r1, [r3]
 221              		.loc 1 170 0
 222 0018 0269     		ldr	r2, [r0, #16]
 223              		.loc 1 168 0
 224 001a 090C     		lsrs	r1, r1, #16
 225 001c 01F03D01 		and	r1, r1, #61
 226              	.LVL16:
 227              		.loc 1 169 0
 228 0020 0D04     		lsls	r5, r1, #16
ARM GAS  C:\Users\osour\AppData\Local\Temp\ccp8yaTg.s 			page 5


 229 0022 9D60     		str	r5, [r3, #8]
 230              		.loc 1 170 0
 231 0024 0AB1     		cbz	r2, .L25
 232              		.loc 1 171 0
 233 0026 4069     		ldr	r0, [r0, #20]
 234 0028 9047     		blx	r2
 235              	.LVL17:
 236              	.L25:
 237              		.loc 1 173 0
 238 002a FFF7FEFF 		bl	_dbg_check_leave_isr
 239              	.LVL18:
 240 002e 019A     		ldr	r2, [sp, #4]
 241 0030 2368     		ldr	r3, [r4]
 242 0032 9A42     		cmp	r2, r3
 243 0034 04D1     		bne	.L32
 244              		.loc 1 174 0
 245 0036 03B0     		add	sp, sp, #12
 246              		.cfi_remember_state
 247              		.cfi_def_cfa_offset 12
 248              		@ sp needed
 249 0038 BDE83040 		pop	{r4, r5, lr}
 250              		.cfi_restore 14
 251              		.cfi_restore 5
 252              		.cfi_restore 4
 253              		.cfi_def_cfa_offset 0
 254              		.loc 1 173 0
 255 003c FFF7FEBF 		b	_port_irq_epilogue
 256              	.LVL19:
 257              	.L32:
 258              		.cfi_restore_state
 259 0040 FFF7FEFF 		bl	__stack_chk_fail
 260              	.LVL20:
 261              	.L34:
 262              		.align	2
 263              	.L33:
 264 0044 00000000 		.word	__stack_chk_guard
 265 0048 00600240 		.word	1073897472
 266 004c 00000000 		.word	.LANCHOR0
 267              		.cfi_endproc
 268              	.LFE258:
 269              		.size	Vector74, .-Vector74
 270              		.section	.text.Vector78,"ax",%progbits
 271              		.align	1
 272              		.p2align 4,,15
 273              		.global	Vector78
 274              		.syntax unified
 275              		.thumb
 276              		.thumb_func
 277              		.fpu fpv4-sp-d16
 278              		.type	Vector78, %function
 279              	Vector78:
 280              	.LFB259:
 281              		.loc 1 181 0
 282              		.cfi_startproc
 283              		@ args = 0, pretend = 0, frame = 8
 284              		@ frame_needed = 0, uses_anonymous_args = 0
 285 0000 30B5     		push	{r4, r5, lr}
ARM GAS  C:\Users\osour\AppData\Local\Temp\ccp8yaTg.s 			page 6


 286              		.cfi_def_cfa_offset 12
 287              		.cfi_offset 4, -12
 288              		.cfi_offset 5, -8
 289              		.cfi_offset 14, -4
 290 0002 104C     		ldr	r4, .L44
 291 0004 83B0     		sub	sp, sp, #12
 292              		.cfi_def_cfa_offset 24
 293              		.loc 1 181 0
 294 0006 2368     		ldr	r3, [r4]
 295 0008 0193     		str	r3, [sp, #4]
 296              		.loc 1 184 0
 297 000a FFF7FEFF 		bl	_stats_increase_irq
 298              	.LVL21:
 299 000e FFF7FEFF 		bl	_dbg_check_enter_isr
 300              	.LVL22:
 301              		.loc 1 186 0
 302 0012 0D4B     		ldr	r3, .L44+4
 303              		.loc 1 188 0
 304 0014 0D48     		ldr	r0, .L44+8
 305              		.loc 1 186 0
 306 0016 1968     		ldr	r1, [r3]
 307              		.loc 1 188 0
 308 0018 8269     		ldr	r2, [r0, #24]
 309              		.loc 1 186 0
 310 001a 890D     		lsrs	r1, r1, #22
 311 001c 01F03D01 		and	r1, r1, #61
 312              	.LVL23:
 313              		.loc 1 187 0
 314 0020 8D05     		lsls	r5, r1, #22
 315 0022 9D60     		str	r5, [r3, #8]
 316              		.loc 1 188 0
 317 0024 0AB1     		cbz	r2, .L36
 318              		.loc 1 189 0
 319 0026 C069     		ldr	r0, [r0, #28]
 320 0028 9047     		blx	r2
 321              	.LVL24:
 322              	.L36:
 323              		.loc 1 191 0
 324 002a FFF7FEFF 		bl	_dbg_check_leave_isr
 325              	.LVL25:
 326 002e 019A     		ldr	r2, [sp, #4]
 327 0030 2368     		ldr	r3, [r4]
 328 0032 9A42     		cmp	r2, r3
 329 0034 04D1     		bne	.L43
 330              		.loc 1 192 0
 331 0036 03B0     		add	sp, sp, #12
 332              		.cfi_remember_state
 333              		.cfi_def_cfa_offset 12
 334              		@ sp needed
 335 0038 BDE83040 		pop	{r4, r5, lr}
 336              		.cfi_restore 14
 337              		.cfi_restore 5
 338              		.cfi_restore 4
 339              		.cfi_def_cfa_offset 0
 340              		.loc 1 191 0
 341 003c FFF7FEBF 		b	_port_irq_epilogue
 342              	.LVL26:
ARM GAS  C:\Users\osour\AppData\Local\Temp\ccp8yaTg.s 			page 7


 343              	.L43:
 344              		.cfi_restore_state
 345 0040 FFF7FEFF 		bl	__stack_chk_fail
 346              	.LVL27:
 347              	.L45:
 348              		.align	2
 349              	.L44:
 350 0044 00000000 		.word	__stack_chk_guard
 351 0048 00600240 		.word	1073897472
 352 004c 00000000 		.word	.LANCHOR0
 353              		.cfi_endproc
 354              	.LFE259:
 355              		.size	Vector78, .-Vector78
 356              		.section	.text.Vector7C,"ax",%progbits
 357              		.align	1
 358              		.p2align 4,,15
 359              		.global	Vector7C
 360              		.syntax unified
 361              		.thumb
 362              		.thumb_func
 363              		.fpu fpv4-sp-d16
 364              		.type	Vector7C, %function
 365              	Vector7C:
 366              	.LFB260:
 367              		.loc 1 199 0
 368              		.cfi_startproc
 369              		@ args = 0, pretend = 0, frame = 8
 370              		@ frame_needed = 0, uses_anonymous_args = 0
 371 0000 10B5     		push	{r4, lr}
 372              		.cfi_def_cfa_offset 8
 373              		.cfi_offset 4, -8
 374              		.cfi_offset 14, -4
 375 0002 0F4C     		ldr	r4, .L55
 376 0004 82B0     		sub	sp, sp, #8
 377              		.cfi_def_cfa_offset 16
 378              		.loc 1 199 0
 379 0006 2368     		ldr	r3, [r4]
 380 0008 0193     		str	r3, [sp, #4]
 381              		.loc 1 202 0
 382 000a FFF7FEFF 		bl	_stats_increase_irq
 383              	.LVL28:
 384 000e FFF7FEFF 		bl	_dbg_check_enter_isr
 385              	.LVL29:
 386              		.loc 1 204 0
 387 0012 0C4B     		ldr	r3, .L55+4
 388              		.loc 1 206 0
 389 0014 0C48     		ldr	r0, .L55+8
 390              		.loc 1 204 0
 391 0016 5968     		ldr	r1, [r3, #4]
 392              		.loc 1 206 0
 393 0018 026A     		ldr	r2, [r0, #32]
 394              		.loc 1 204 0
 395 001a 01F03D01 		and	r1, r1, #61
 396              	.LVL30:
 397              		.loc 1 205 0
 398 001e D960     		str	r1, [r3, #12]
 399              		.loc 1 206 0
ARM GAS  C:\Users\osour\AppData\Local\Temp\ccp8yaTg.s 			page 8


 400 0020 0AB1     		cbz	r2, .L47
 401              		.loc 1 207 0
 402 0022 406A     		ldr	r0, [r0, #36]
 403 0024 9047     		blx	r2
 404              	.LVL31:
 405              	.L47:
 406              		.loc 1 209 0
 407 0026 FFF7FEFF 		bl	_dbg_check_leave_isr
 408              	.LVL32:
 409 002a 019A     		ldr	r2, [sp, #4]
 410 002c 2368     		ldr	r3, [r4]
 411 002e 9A42     		cmp	r2, r3
 412 0030 04D1     		bne	.L54
 413              		.loc 1 210 0
 414 0032 02B0     		add	sp, sp, #8
 415              		.cfi_remember_state
 416              		.cfi_def_cfa_offset 8
 417              		@ sp needed
 418 0034 BDE81040 		pop	{r4, lr}
 419              		.cfi_restore 14
 420              		.cfi_restore 4
 421              		.cfi_def_cfa_offset 0
 422              		.loc 1 209 0
 423 0038 FFF7FEBF 		b	_port_irq_epilogue
 424              	.LVL33:
 425              	.L54:
 426              		.cfi_restore_state
 427 003c FFF7FEFF 		bl	__stack_chk_fail
 428              	.LVL34:
 429              	.L56:
 430              		.align	2
 431              	.L55:
 432 0040 00000000 		.word	__stack_chk_guard
 433 0044 00600240 		.word	1073897472
 434 0048 00000000 		.word	.LANCHOR0
 435              		.cfi_endproc
 436              	.LFE260:
 437              		.size	Vector7C, .-Vector7C
 438              		.section	.text.Vector80,"ax",%progbits
 439              		.align	1
 440              		.p2align 4,,15
 441              		.global	Vector80
 442              		.syntax unified
 443              		.thumb
 444              		.thumb_func
 445              		.fpu fpv4-sp-d16
 446              		.type	Vector80, %function
 447              	Vector80:
 448              	.LFB261:
 449              		.loc 1 217 0
 450              		.cfi_startproc
 451              		@ args = 0, pretend = 0, frame = 8
 452              		@ frame_needed = 0, uses_anonymous_args = 0
 453 0000 30B5     		push	{r4, r5, lr}
 454              		.cfi_def_cfa_offset 12
 455              		.cfi_offset 4, -12
 456              		.cfi_offset 5, -8
ARM GAS  C:\Users\osour\AppData\Local\Temp\ccp8yaTg.s 			page 9


 457              		.cfi_offset 14, -4
 458 0002 104C     		ldr	r4, .L66
 459 0004 83B0     		sub	sp, sp, #12
 460              		.cfi_def_cfa_offset 24
 461              		.loc 1 217 0
 462 0006 2368     		ldr	r3, [r4]
 463 0008 0193     		str	r3, [sp, #4]
 464              		.loc 1 220 0
 465 000a FFF7FEFF 		bl	_stats_increase_irq
 466              	.LVL35:
 467 000e FFF7FEFF 		bl	_dbg_check_enter_isr
 468              	.LVL36:
 469              		.loc 1 222 0
 470 0012 0D4B     		ldr	r3, .L66+4
 471              		.loc 1 224 0
 472 0014 0D48     		ldr	r0, .L66+8
 473              		.loc 1 222 0
 474 0016 5968     		ldr	r1, [r3, #4]
 475              		.loc 1 224 0
 476 0018 826A     		ldr	r2, [r0, #40]
 477              		.loc 1 222 0
 478 001a 8909     		lsrs	r1, r1, #6
 479 001c 01F03D01 		and	r1, r1, #61
 480              	.LVL37:
 481              		.loc 1 223 0
 482 0020 8D01     		lsls	r5, r1, #6
 483 0022 DD60     		str	r5, [r3, #12]
 484              		.loc 1 224 0
 485 0024 0AB1     		cbz	r2, .L58
 486              		.loc 1 225 0
 487 0026 C06A     		ldr	r0, [r0, #44]
 488 0028 9047     		blx	r2
 489              	.LVL38:
 490              	.L58:
 491              		.loc 1 227 0
 492 002a FFF7FEFF 		bl	_dbg_check_leave_isr
 493              	.LVL39:
 494 002e 019A     		ldr	r2, [sp, #4]
 495 0030 2368     		ldr	r3, [r4]
 496 0032 9A42     		cmp	r2, r3
 497 0034 04D1     		bne	.L65
 498              		.loc 1 228 0
 499 0036 03B0     		add	sp, sp, #12
 500              		.cfi_remember_state
 501              		.cfi_def_cfa_offset 12
 502              		@ sp needed
 503 0038 BDE83040 		pop	{r4, r5, lr}
 504              		.cfi_restore 14
 505              		.cfi_restore 5
 506              		.cfi_restore 4
 507              		.cfi_def_cfa_offset 0
 508              		.loc 1 227 0
 509 003c FFF7FEBF 		b	_port_irq_epilogue
 510              	.LVL40:
 511              	.L65:
 512              		.cfi_restore_state
 513 0040 FFF7FEFF 		bl	__stack_chk_fail
ARM GAS  C:\Users\osour\AppData\Local\Temp\ccp8yaTg.s 			page 10


 514              	.LVL41:
 515              	.L67:
 516              		.align	2
 517              	.L66:
 518 0044 00000000 		.word	__stack_chk_guard
 519 0048 00600240 		.word	1073897472
 520 004c 00000000 		.word	.LANCHOR0
 521              		.cfi_endproc
 522              	.LFE261:
 523              		.size	Vector80, .-Vector80
 524              		.section	.text.Vector84,"ax",%progbits
 525              		.align	1
 526              		.p2align 4,,15
 527              		.global	Vector84
 528              		.syntax unified
 529              		.thumb
 530              		.thumb_func
 531              		.fpu fpv4-sp-d16
 532              		.type	Vector84, %function
 533              	Vector84:
 534              	.LFB262:
 535              		.loc 1 235 0
 536              		.cfi_startproc
 537              		@ args = 0, pretend = 0, frame = 8
 538              		@ frame_needed = 0, uses_anonymous_args = 0
 539 0000 30B5     		push	{r4, r5, lr}
 540              		.cfi_def_cfa_offset 12
 541              		.cfi_offset 4, -12
 542              		.cfi_offset 5, -8
 543              		.cfi_offset 14, -4
 544 0002 104C     		ldr	r4, .L77
 545 0004 83B0     		sub	sp, sp, #12
 546              		.cfi_def_cfa_offset 24
 547              		.loc 1 235 0
 548 0006 2368     		ldr	r3, [r4]
 549 0008 0193     		str	r3, [sp, #4]
 550              		.loc 1 238 0
 551 000a FFF7FEFF 		bl	_stats_increase_irq
 552              	.LVL42:
 553 000e FFF7FEFF 		bl	_dbg_check_enter_isr
 554              	.LVL43:
 555              		.loc 1 240 0
 556 0012 0D4B     		ldr	r3, .L77+4
 557              		.loc 1 242 0
 558 0014 0D48     		ldr	r0, .L77+8
 559              		.loc 1 240 0
 560 0016 5968     		ldr	r1, [r3, #4]
 561              		.loc 1 242 0
 562 0018 026B     		ldr	r2, [r0, #48]
 563              		.loc 1 240 0
 564 001a 090C     		lsrs	r1, r1, #16
 565 001c 01F03D01 		and	r1, r1, #61
 566              	.LVL44:
 567              		.loc 1 241 0
 568 0020 0D04     		lsls	r5, r1, #16
 569 0022 DD60     		str	r5, [r3, #12]
 570              		.loc 1 242 0
ARM GAS  C:\Users\osour\AppData\Local\Temp\ccp8yaTg.s 			page 11


 571 0024 0AB1     		cbz	r2, .L69
 572              		.loc 1 243 0
 573 0026 406B     		ldr	r0, [r0, #52]
 574 0028 9047     		blx	r2
 575              	.LVL45:
 576              	.L69:
 577              		.loc 1 245 0
 578 002a FFF7FEFF 		bl	_dbg_check_leave_isr
 579              	.LVL46:
 580 002e 019A     		ldr	r2, [sp, #4]
 581 0030 2368     		ldr	r3, [r4]
 582 0032 9A42     		cmp	r2, r3
 583 0034 04D1     		bne	.L76
 584              		.loc 1 246 0
 585 0036 03B0     		add	sp, sp, #12
 586              		.cfi_remember_state
 587              		.cfi_def_cfa_offset 12
 588              		@ sp needed
 589 0038 BDE83040 		pop	{r4, r5, lr}
 590              		.cfi_restore 14
 591              		.cfi_restore 5
 592              		.cfi_restore 4
 593              		.cfi_def_cfa_offset 0
 594              		.loc 1 245 0
 595 003c FFF7FEBF 		b	_port_irq_epilogue
 596              	.LVL47:
 597              	.L76:
 598              		.cfi_restore_state
 599 0040 FFF7FEFF 		bl	__stack_chk_fail
 600              	.LVL48:
 601              	.L78:
 602              		.align	2
 603              	.L77:
 604 0044 00000000 		.word	__stack_chk_guard
 605 0048 00600240 		.word	1073897472
 606 004c 00000000 		.word	.LANCHOR0
 607              		.cfi_endproc
 608              	.LFE262:
 609              		.size	Vector84, .-Vector84
 610              		.section	.text.VectorFC,"ax",%progbits
 611              		.align	1
 612              		.p2align 4,,15
 613              		.global	VectorFC
 614              		.syntax unified
 615              		.thumb
 616              		.thumb_func
 617              		.fpu fpv4-sp-d16
 618              		.type	VectorFC, %function
 619              	VectorFC:
 620              	.LFB263:
 621              		.loc 1 253 0
 622              		.cfi_startproc
 623              		@ args = 0, pretend = 0, frame = 8
 624              		@ frame_needed = 0, uses_anonymous_args = 0
 625 0000 30B5     		push	{r4, r5, lr}
 626              		.cfi_def_cfa_offset 12
 627              		.cfi_offset 4, -12
ARM GAS  C:\Users\osour\AppData\Local\Temp\ccp8yaTg.s 			page 12


 628              		.cfi_offset 5, -8
 629              		.cfi_offset 14, -4
 630 0002 104C     		ldr	r4, .L88
 631 0004 83B0     		sub	sp, sp, #12
 632              		.cfi_def_cfa_offset 24
 633              		.loc 1 253 0
 634 0006 2368     		ldr	r3, [r4]
 635 0008 0193     		str	r3, [sp, #4]
 636              		.loc 1 256 0
 637 000a FFF7FEFF 		bl	_stats_increase_irq
 638              	.LVL49:
 639 000e FFF7FEFF 		bl	_dbg_check_enter_isr
 640              	.LVL50:
 641              		.loc 1 258 0
 642 0012 0D4B     		ldr	r3, .L88+4
 643              		.loc 1 260 0
 644 0014 0D48     		ldr	r0, .L88+8
 645              		.loc 1 258 0
 646 0016 5968     		ldr	r1, [r3, #4]
 647              		.loc 1 260 0
 648 0018 826B     		ldr	r2, [r0, #56]
 649              		.loc 1 258 0
 650 001a 890D     		lsrs	r1, r1, #22
 651 001c 01F03D01 		and	r1, r1, #61
 652              	.LVL51:
 653              		.loc 1 259 0
 654 0020 8D05     		lsls	r5, r1, #22
 655 0022 DD60     		str	r5, [r3, #12]
 656              		.loc 1 260 0
 657 0024 0AB1     		cbz	r2, .L80
 658              		.loc 1 261 0
 659 0026 C06B     		ldr	r0, [r0, #60]
 660 0028 9047     		blx	r2
 661              	.LVL52:
 662              	.L80:
 663              		.loc 1 263 0
 664 002a FFF7FEFF 		bl	_dbg_check_leave_isr
 665              	.LVL53:
 666 002e 019A     		ldr	r2, [sp, #4]
 667 0030 2368     		ldr	r3, [r4]
 668 0032 9A42     		cmp	r2, r3
 669 0034 04D1     		bne	.L87
 670              		.loc 1 264 0
 671 0036 03B0     		add	sp, sp, #12
 672              		.cfi_remember_state
 673              		.cfi_def_cfa_offset 12
 674              		@ sp needed
 675 0038 BDE83040 		pop	{r4, r5, lr}
 676              		.cfi_restore 14
 677              		.cfi_restore 5
 678              		.cfi_restore 4
 679              		.cfi_def_cfa_offset 0
 680              		.loc 1 263 0
 681 003c FFF7FEBF 		b	_port_irq_epilogue
 682              	.LVL54:
 683              	.L87:
 684              		.cfi_restore_state
ARM GAS  C:\Users\osour\AppData\Local\Temp\ccp8yaTg.s 			page 13


 685 0040 FFF7FEFF 		bl	__stack_chk_fail
 686              	.LVL55:
 687              	.L89:
 688              		.align	2
 689              	.L88:
 690 0044 00000000 		.word	__stack_chk_guard
 691 0048 00600240 		.word	1073897472
 692 004c 00000000 		.word	.LANCHOR0
 693              		.cfi_endproc
 694              	.LFE263:
 695              		.size	VectorFC, .-VectorFC
 696              		.section	.text.Vector120,"ax",%progbits
 697              		.align	1
 698              		.p2align 4,,15
 699              		.global	Vector120
 700              		.syntax unified
 701              		.thumb
 702              		.thumb_func
 703              		.fpu fpv4-sp-d16
 704              		.type	Vector120, %function
 705              	Vector120:
 706              	.LFB264:
 707              		.loc 1 271 0
 708              		.cfi_startproc
 709              		@ args = 0, pretend = 0, frame = 8
 710              		@ frame_needed = 0, uses_anonymous_args = 0
 711 0000 10B5     		push	{r4, lr}
 712              		.cfi_def_cfa_offset 8
 713              		.cfi_offset 4, -8
 714              		.cfi_offset 14, -4
 715 0002 0F4C     		ldr	r4, .L99
 716 0004 82B0     		sub	sp, sp, #8
 717              		.cfi_def_cfa_offset 16
 718              		.loc 1 271 0
 719 0006 2368     		ldr	r3, [r4]
 720 0008 0193     		str	r3, [sp, #4]
 721              		.loc 1 274 0
 722 000a FFF7FEFF 		bl	_stats_increase_irq
 723              	.LVL56:
 724 000e FFF7FEFF 		bl	_dbg_check_enter_isr
 725              	.LVL57:
 726              		.loc 1 276 0
 727 0012 0C4B     		ldr	r3, .L99+4
 728              		.loc 1 278 0
 729 0014 0C48     		ldr	r0, .L99+8
 730              		.loc 1 276 0
 731 0016 1968     		ldr	r1, [r3]
 732              		.loc 1 278 0
 733 0018 026C     		ldr	r2, [r0, #64]
 734              		.loc 1 276 0
 735 001a 01F03D01 		and	r1, r1, #61
 736              	.LVL58:
 737              		.loc 1 277 0
 738 001e 9960     		str	r1, [r3, #8]
 739              		.loc 1 278 0
 740 0020 0AB1     		cbz	r2, .L91
 741              		.loc 1 279 0
ARM GAS  C:\Users\osour\AppData\Local\Temp\ccp8yaTg.s 			page 14


 742 0022 406C     		ldr	r0, [r0, #68]
 743 0024 9047     		blx	r2
 744              	.LVL59:
 745              	.L91:
 746              		.loc 1 281 0
 747 0026 FFF7FEFF 		bl	_dbg_check_leave_isr
 748              	.LVL60:
 749 002a 019A     		ldr	r2, [sp, #4]
 750 002c 2368     		ldr	r3, [r4]
 751 002e 9A42     		cmp	r2, r3
 752 0030 04D1     		bne	.L98
 753              		.loc 1 282 0
 754 0032 02B0     		add	sp, sp, #8
 755              		.cfi_remember_state
 756              		.cfi_def_cfa_offset 8
 757              		@ sp needed
 758 0034 BDE81040 		pop	{r4, lr}
 759              		.cfi_restore 14
 760              		.cfi_restore 4
 761              		.cfi_def_cfa_offset 0
 762              		.loc 1 281 0
 763 0038 FFF7FEBF 		b	_port_irq_epilogue
 764              	.LVL61:
 765              	.L98:
 766              		.cfi_restore_state
 767 003c FFF7FEFF 		bl	__stack_chk_fail
 768              	.LVL62:
 769              	.L100:
 770              		.align	2
 771              	.L99:
 772 0040 00000000 		.word	__stack_chk_guard
 773 0044 00640240 		.word	1073898496
 774 0048 00000000 		.word	.LANCHOR0
 775              		.cfi_endproc
 776              	.LFE264:
 777              		.size	Vector120, .-Vector120
 778              		.section	.text.Vector124,"ax",%progbits
 779              		.align	1
 780              		.p2align 4,,15
 781              		.global	Vector124
 782              		.syntax unified
 783              		.thumb
 784              		.thumb_func
 785              		.fpu fpv4-sp-d16
 786              		.type	Vector124, %function
 787              	Vector124:
 788              	.LFB265:
 789              		.loc 1 289 0
 790              		.cfi_startproc
 791              		@ args = 0, pretend = 0, frame = 8
 792              		@ frame_needed = 0, uses_anonymous_args = 0
 793 0000 30B5     		push	{r4, r5, lr}
 794              		.cfi_def_cfa_offset 12
 795              		.cfi_offset 4, -12
 796              		.cfi_offset 5, -8
 797              		.cfi_offset 14, -4
 798 0002 104C     		ldr	r4, .L110
ARM GAS  C:\Users\osour\AppData\Local\Temp\ccp8yaTg.s 			page 15


 799 0004 83B0     		sub	sp, sp, #12
 800              		.cfi_def_cfa_offset 24
 801              		.loc 1 289 0
 802 0006 2368     		ldr	r3, [r4]
 803 0008 0193     		str	r3, [sp, #4]
 804              		.loc 1 292 0
 805 000a FFF7FEFF 		bl	_stats_increase_irq
 806              	.LVL63:
 807 000e FFF7FEFF 		bl	_dbg_check_enter_isr
 808              	.LVL64:
 809              		.loc 1 294 0
 810 0012 0D4B     		ldr	r3, .L110+4
 811              		.loc 1 296 0
 812 0014 0D48     		ldr	r0, .L110+8
 813              		.loc 1 294 0
 814 0016 1968     		ldr	r1, [r3]
 815              		.loc 1 296 0
 816 0018 826C     		ldr	r2, [r0, #72]
 817              		.loc 1 294 0
 818 001a 8909     		lsrs	r1, r1, #6
 819 001c 01F03D01 		and	r1, r1, #61
 820              	.LVL65:
 821              		.loc 1 295 0
 822 0020 8D01     		lsls	r5, r1, #6
 823 0022 9D60     		str	r5, [r3, #8]
 824              		.loc 1 296 0
 825 0024 0AB1     		cbz	r2, .L102
 826              		.loc 1 297 0
 827 0026 C06C     		ldr	r0, [r0, #76]
 828 0028 9047     		blx	r2
 829              	.LVL66:
 830              	.L102:
 831              		.loc 1 299 0
 832 002a FFF7FEFF 		bl	_dbg_check_leave_isr
 833              	.LVL67:
 834 002e 019A     		ldr	r2, [sp, #4]
 835 0030 2368     		ldr	r3, [r4]
 836 0032 9A42     		cmp	r2, r3
 837 0034 04D1     		bne	.L109
 838              		.loc 1 300 0
 839 0036 03B0     		add	sp, sp, #12
 840              		.cfi_remember_state
 841              		.cfi_def_cfa_offset 12
 842              		@ sp needed
 843 0038 BDE83040 		pop	{r4, r5, lr}
 844              		.cfi_restore 14
 845              		.cfi_restore 5
 846              		.cfi_restore 4
 847              		.cfi_def_cfa_offset 0
 848              		.loc 1 299 0
 849 003c FFF7FEBF 		b	_port_irq_epilogue
 850              	.LVL68:
 851              	.L109:
 852              		.cfi_restore_state
 853 0040 FFF7FEFF 		bl	__stack_chk_fail
 854              	.LVL69:
 855              	.L111:
ARM GAS  C:\Users\osour\AppData\Local\Temp\ccp8yaTg.s 			page 16


 856              		.align	2
 857              	.L110:
 858 0044 00000000 		.word	__stack_chk_guard
 859 0048 00640240 		.word	1073898496
 860 004c 00000000 		.word	.LANCHOR0
 861              		.cfi_endproc
 862              	.LFE265:
 863              		.size	Vector124, .-Vector124
 864              		.section	.text.Vector128,"ax",%progbits
 865              		.align	1
 866              		.p2align 4,,15
 867              		.global	Vector128
 868              		.syntax unified
 869              		.thumb
 870              		.thumb_func
 871              		.fpu fpv4-sp-d16
 872              		.type	Vector128, %function
 873              	Vector128:
 874              	.LFB266:
 875              		.loc 1 307 0
 876              		.cfi_startproc
 877              		@ args = 0, pretend = 0, frame = 8
 878              		@ frame_needed = 0, uses_anonymous_args = 0
 879 0000 30B5     		push	{r4, r5, lr}
 880              		.cfi_def_cfa_offset 12
 881              		.cfi_offset 4, -12
 882              		.cfi_offset 5, -8
 883              		.cfi_offset 14, -4
 884 0002 104C     		ldr	r4, .L121
 885 0004 83B0     		sub	sp, sp, #12
 886              		.cfi_def_cfa_offset 24
 887              		.loc 1 307 0
 888 0006 2368     		ldr	r3, [r4]
 889 0008 0193     		str	r3, [sp, #4]
 890              		.loc 1 310 0
 891 000a FFF7FEFF 		bl	_stats_increase_irq
 892              	.LVL70:
 893 000e FFF7FEFF 		bl	_dbg_check_enter_isr
 894              	.LVL71:
 895              		.loc 1 312 0
 896 0012 0D4B     		ldr	r3, .L121+4
 897              		.loc 1 314 0
 898 0014 0D48     		ldr	r0, .L121+8
 899              		.loc 1 312 0
 900 0016 1968     		ldr	r1, [r3]
 901              		.loc 1 314 0
 902 0018 026D     		ldr	r2, [r0, #80]
 903              		.loc 1 312 0
 904 001a 090C     		lsrs	r1, r1, #16
 905 001c 01F03D01 		and	r1, r1, #61
 906              	.LVL72:
 907              		.loc 1 313 0
 908 0020 0D04     		lsls	r5, r1, #16
 909 0022 9D60     		str	r5, [r3, #8]
 910              		.loc 1 314 0
 911 0024 0AB1     		cbz	r2, .L113
 912              		.loc 1 315 0
ARM GAS  C:\Users\osour\AppData\Local\Temp\ccp8yaTg.s 			page 17


 913 0026 406D     		ldr	r0, [r0, #84]
 914 0028 9047     		blx	r2
 915              	.LVL73:
 916              	.L113:
 917              		.loc 1 317 0
 918 002a FFF7FEFF 		bl	_dbg_check_leave_isr
 919              	.LVL74:
 920 002e 019A     		ldr	r2, [sp, #4]
 921 0030 2368     		ldr	r3, [r4]
 922 0032 9A42     		cmp	r2, r3
 923 0034 04D1     		bne	.L120
 924              		.loc 1 318 0
 925 0036 03B0     		add	sp, sp, #12
 926              		.cfi_remember_state
 927              		.cfi_def_cfa_offset 12
 928              		@ sp needed
 929 0038 BDE83040 		pop	{r4, r5, lr}
 930              		.cfi_restore 14
 931              		.cfi_restore 5
 932              		.cfi_restore 4
 933              		.cfi_def_cfa_offset 0
 934              		.loc 1 317 0
 935 003c FFF7FEBF 		b	_port_irq_epilogue
 936              	.LVL75:
 937              	.L120:
 938              		.cfi_restore_state
 939 0040 FFF7FEFF 		bl	__stack_chk_fail
 940              	.LVL76:
 941              	.L122:
 942              		.align	2
 943              	.L121:
 944 0044 00000000 		.word	__stack_chk_guard
 945 0048 00640240 		.word	1073898496
 946 004c 00000000 		.word	.LANCHOR0
 947              		.cfi_endproc
 948              	.LFE266:
 949              		.size	Vector128, .-Vector128
 950              		.section	.text.Vector12C,"ax",%progbits
 951              		.align	1
 952              		.p2align 4,,15
 953              		.global	Vector12C
 954              		.syntax unified
 955              		.thumb
 956              		.thumb_func
 957              		.fpu fpv4-sp-d16
 958              		.type	Vector12C, %function
 959              	Vector12C:
 960              	.LFB267:
 961              		.loc 1 325 0
 962              		.cfi_startproc
 963              		@ args = 0, pretend = 0, frame = 8
 964              		@ frame_needed = 0, uses_anonymous_args = 0
 965 0000 30B5     		push	{r4, r5, lr}
 966              		.cfi_def_cfa_offset 12
 967              		.cfi_offset 4, -12
 968              		.cfi_offset 5, -8
 969              		.cfi_offset 14, -4
ARM GAS  C:\Users\osour\AppData\Local\Temp\ccp8yaTg.s 			page 18


 970 0002 104C     		ldr	r4, .L132
 971 0004 83B0     		sub	sp, sp, #12
 972              		.cfi_def_cfa_offset 24
 973              		.loc 1 325 0
 974 0006 2368     		ldr	r3, [r4]
 975 0008 0193     		str	r3, [sp, #4]
 976              		.loc 1 328 0
 977 000a FFF7FEFF 		bl	_stats_increase_irq
 978              	.LVL77:
 979 000e FFF7FEFF 		bl	_dbg_check_enter_isr
 980              	.LVL78:
 981              		.loc 1 330 0
 982 0012 0D4B     		ldr	r3, .L132+4
 983              		.loc 1 332 0
 984 0014 0D48     		ldr	r0, .L132+8
 985              		.loc 1 330 0
 986 0016 1968     		ldr	r1, [r3]
 987              		.loc 1 332 0
 988 0018 826D     		ldr	r2, [r0, #88]
 989              		.loc 1 330 0
 990 001a 890D     		lsrs	r1, r1, #22
 991 001c 01F03D01 		and	r1, r1, #61
 992              	.LVL79:
 993              		.loc 1 331 0
 994 0020 8D05     		lsls	r5, r1, #22
 995 0022 9D60     		str	r5, [r3, #8]
 996              		.loc 1 332 0
 997 0024 0AB1     		cbz	r2, .L124
 998              		.loc 1 333 0
 999 0026 C06D     		ldr	r0, [r0, #92]
 1000 0028 9047     		blx	r2
 1001              	.LVL80:
 1002              	.L124:
 1003              		.loc 1 335 0
 1004 002a FFF7FEFF 		bl	_dbg_check_leave_isr
 1005              	.LVL81:
 1006 002e 019A     		ldr	r2, [sp, #4]
 1007 0030 2368     		ldr	r3, [r4]
 1008 0032 9A42     		cmp	r2, r3
 1009 0034 04D1     		bne	.L131
 1010              		.loc 1 336 0
 1011 0036 03B0     		add	sp, sp, #12
 1012              		.cfi_remember_state
 1013              		.cfi_def_cfa_offset 12
 1014              		@ sp needed
 1015 0038 BDE83040 		pop	{r4, r5, lr}
 1016              		.cfi_restore 14
 1017              		.cfi_restore 5
 1018              		.cfi_restore 4
 1019              		.cfi_def_cfa_offset 0
 1020              		.loc 1 335 0
 1021 003c FFF7FEBF 		b	_port_irq_epilogue
 1022              	.LVL82:
 1023              	.L131:
 1024              		.cfi_restore_state
 1025 0040 FFF7FEFF 		bl	__stack_chk_fail
 1026              	.LVL83:
ARM GAS  C:\Users\osour\AppData\Local\Temp\ccp8yaTg.s 			page 19


 1027              	.L133:
 1028              		.align	2
 1029              	.L132:
 1030 0044 00000000 		.word	__stack_chk_guard
 1031 0048 00640240 		.word	1073898496
 1032 004c 00000000 		.word	.LANCHOR0
 1033              		.cfi_endproc
 1034              	.LFE267:
 1035              		.size	Vector12C, .-Vector12C
 1036              		.section	.text.Vector130,"ax",%progbits
 1037              		.align	1
 1038              		.p2align 4,,15
 1039              		.global	Vector130
 1040              		.syntax unified
 1041              		.thumb
 1042              		.thumb_func
 1043              		.fpu fpv4-sp-d16
 1044              		.type	Vector130, %function
 1045              	Vector130:
 1046              	.LFB268:
 1047              		.loc 1 343 0
 1048              		.cfi_startproc
 1049              		@ args = 0, pretend = 0, frame = 8
 1050              		@ frame_needed = 0, uses_anonymous_args = 0
 1051 0000 10B5     		push	{r4, lr}
 1052              		.cfi_def_cfa_offset 8
 1053              		.cfi_offset 4, -8
 1054              		.cfi_offset 14, -4
 1055 0002 0F4C     		ldr	r4, .L143
 1056 0004 82B0     		sub	sp, sp, #8
 1057              		.cfi_def_cfa_offset 16
 1058              		.loc 1 343 0
 1059 0006 2368     		ldr	r3, [r4]
 1060 0008 0193     		str	r3, [sp, #4]
 1061              		.loc 1 346 0
 1062 000a FFF7FEFF 		bl	_stats_increase_irq
 1063              	.LVL84:
 1064 000e FFF7FEFF 		bl	_dbg_check_enter_isr
 1065              	.LVL85:
 1066              		.loc 1 348 0
 1067 0012 0C4B     		ldr	r3, .L143+4
 1068              		.loc 1 350 0
 1069 0014 0C48     		ldr	r0, .L143+8
 1070              		.loc 1 348 0
 1071 0016 5968     		ldr	r1, [r3, #4]
 1072              		.loc 1 350 0
 1073 0018 026E     		ldr	r2, [r0, #96]
 1074              		.loc 1 348 0
 1075 001a 01F03D01 		and	r1, r1, #61
 1076              	.LVL86:
 1077              		.loc 1 349 0
 1078 001e D960     		str	r1, [r3, #12]
 1079              		.loc 1 350 0
 1080 0020 0AB1     		cbz	r2, .L135
 1081              		.loc 1 351 0
 1082 0022 406E     		ldr	r0, [r0, #100]
 1083 0024 9047     		blx	r2
ARM GAS  C:\Users\osour\AppData\Local\Temp\ccp8yaTg.s 			page 20


 1084              	.LVL87:
 1085              	.L135:
 1086              		.loc 1 353 0
 1087 0026 FFF7FEFF 		bl	_dbg_check_leave_isr
 1088              	.LVL88:
 1089 002a 019A     		ldr	r2, [sp, #4]
 1090 002c 2368     		ldr	r3, [r4]
 1091 002e 9A42     		cmp	r2, r3
 1092 0030 04D1     		bne	.L142
 1093              		.loc 1 354 0
 1094 0032 02B0     		add	sp, sp, #8
 1095              		.cfi_remember_state
 1096              		.cfi_def_cfa_offset 8
 1097              		@ sp needed
 1098 0034 BDE81040 		pop	{r4, lr}
 1099              		.cfi_restore 14
 1100              		.cfi_restore 4
 1101              		.cfi_def_cfa_offset 0
 1102              		.loc 1 353 0
 1103 0038 FFF7FEBF 		b	_port_irq_epilogue
 1104              	.LVL89:
 1105              	.L142:
 1106              		.cfi_restore_state
 1107 003c FFF7FEFF 		bl	__stack_chk_fail
 1108              	.LVL90:
 1109              	.L144:
 1110              		.align	2
 1111              	.L143:
 1112 0040 00000000 		.word	__stack_chk_guard
 1113 0044 00640240 		.word	1073898496
 1114 0048 00000000 		.word	.LANCHOR0
 1115              		.cfi_endproc
 1116              	.LFE268:
 1117              		.size	Vector130, .-Vector130
 1118              		.section	.text.Vector150,"ax",%progbits
 1119              		.align	1
 1120              		.p2align 4,,15
 1121              		.global	Vector150
 1122              		.syntax unified
 1123              		.thumb
 1124              		.thumb_func
 1125              		.fpu fpv4-sp-d16
 1126              		.type	Vector150, %function
 1127              	Vector150:
 1128              	.LFB269:
 1129              		.loc 1 361 0
 1130              		.cfi_startproc
 1131              		@ args = 0, pretend = 0, frame = 8
 1132              		@ frame_needed = 0, uses_anonymous_args = 0
 1133 0000 30B5     		push	{r4, r5, lr}
 1134              		.cfi_def_cfa_offset 12
 1135              		.cfi_offset 4, -12
 1136              		.cfi_offset 5, -8
 1137              		.cfi_offset 14, -4
 1138 0002 104C     		ldr	r4, .L154
 1139 0004 83B0     		sub	sp, sp, #12
 1140              		.cfi_def_cfa_offset 24
ARM GAS  C:\Users\osour\AppData\Local\Temp\ccp8yaTg.s 			page 21


 1141              		.loc 1 361 0
 1142 0006 2368     		ldr	r3, [r4]
 1143 0008 0193     		str	r3, [sp, #4]
 1144              		.loc 1 364 0
 1145 000a FFF7FEFF 		bl	_stats_increase_irq
 1146              	.LVL91:
 1147 000e FFF7FEFF 		bl	_dbg_check_enter_isr
 1148              	.LVL92:
 1149              		.loc 1 366 0
 1150 0012 0D4B     		ldr	r3, .L154+4
 1151              		.loc 1 368 0
 1152 0014 0D48     		ldr	r0, .L154+8
 1153              		.loc 1 366 0
 1154 0016 5968     		ldr	r1, [r3, #4]
 1155              		.loc 1 368 0
 1156 0018 826E     		ldr	r2, [r0, #104]
 1157              		.loc 1 366 0
 1158 001a 8909     		lsrs	r1, r1, #6
 1159 001c 01F03D01 		and	r1, r1, #61
 1160              	.LVL93:
 1161              		.loc 1 367 0
 1162 0020 8D01     		lsls	r5, r1, #6
 1163 0022 DD60     		str	r5, [r3, #12]
 1164              		.loc 1 368 0
 1165 0024 0AB1     		cbz	r2, .L146
 1166              		.loc 1 369 0
 1167 0026 C06E     		ldr	r0, [r0, #108]
 1168 0028 9047     		blx	r2
 1169              	.LVL94:
 1170              	.L146:
 1171              		.loc 1 371 0
 1172 002a FFF7FEFF 		bl	_dbg_check_leave_isr
 1173              	.LVL95:
 1174 002e 019A     		ldr	r2, [sp, #4]
 1175 0030 2368     		ldr	r3, [r4]
 1176 0032 9A42     		cmp	r2, r3
 1177 0034 04D1     		bne	.L153
 1178              		.loc 1 372 0
 1179 0036 03B0     		add	sp, sp, #12
 1180              		.cfi_remember_state
 1181              		.cfi_def_cfa_offset 12
 1182              		@ sp needed
 1183 0038 BDE83040 		pop	{r4, r5, lr}
 1184              		.cfi_restore 14
 1185              		.cfi_restore 5
 1186              		.cfi_restore 4
 1187              		.cfi_def_cfa_offset 0
 1188              		.loc 1 371 0
 1189 003c FFF7FEBF 		b	_port_irq_epilogue
 1190              	.LVL96:
 1191              	.L153:
 1192              		.cfi_restore_state
 1193 0040 FFF7FEFF 		bl	__stack_chk_fail
 1194              	.LVL97:
 1195              	.L155:
 1196              		.align	2
 1197              	.L154:
ARM GAS  C:\Users\osour\AppData\Local\Temp\ccp8yaTg.s 			page 22


 1198 0044 00000000 		.word	__stack_chk_guard
 1199 0048 00640240 		.word	1073898496
 1200 004c 00000000 		.word	.LANCHOR0
 1201              		.cfi_endproc
 1202              	.LFE269:
 1203              		.size	Vector150, .-Vector150
 1204              		.section	.text.Vector154,"ax",%progbits
 1205              		.align	1
 1206              		.p2align 4,,15
 1207              		.global	Vector154
 1208              		.syntax unified
 1209              		.thumb
 1210              		.thumb_func
 1211              		.fpu fpv4-sp-d16
 1212              		.type	Vector154, %function
 1213              	Vector154:
 1214              	.LFB270:
 1215              		.loc 1 379 0
 1216              		.cfi_startproc
 1217              		@ args = 0, pretend = 0, frame = 8
 1218              		@ frame_needed = 0, uses_anonymous_args = 0
 1219 0000 30B5     		push	{r4, r5, lr}
 1220              		.cfi_def_cfa_offset 12
 1221              		.cfi_offset 4, -12
 1222              		.cfi_offset 5, -8
 1223              		.cfi_offset 14, -4
 1224 0002 104C     		ldr	r4, .L165
 1225 0004 83B0     		sub	sp, sp, #12
 1226              		.cfi_def_cfa_offset 24
 1227              		.loc 1 379 0
 1228 0006 2368     		ldr	r3, [r4]
 1229 0008 0193     		str	r3, [sp, #4]
 1230              		.loc 1 382 0
 1231 000a FFF7FEFF 		bl	_stats_increase_irq
 1232              	.LVL98:
 1233 000e FFF7FEFF 		bl	_dbg_check_enter_isr
 1234              	.LVL99:
 1235              		.loc 1 384 0
 1236 0012 0D4B     		ldr	r3, .L165+4
 1237              		.loc 1 386 0
 1238 0014 0D48     		ldr	r0, .L165+8
 1239              		.loc 1 384 0
 1240 0016 5968     		ldr	r1, [r3, #4]
 1241              		.loc 1 386 0
 1242 0018 026F     		ldr	r2, [r0, #112]
 1243              		.loc 1 384 0
 1244 001a 090C     		lsrs	r1, r1, #16
 1245 001c 01F03D01 		and	r1, r1, #61
 1246              	.LVL100:
 1247              		.loc 1 385 0
 1248 0020 0D04     		lsls	r5, r1, #16
 1249 0022 DD60     		str	r5, [r3, #12]
 1250              		.loc 1 386 0
 1251 0024 0AB1     		cbz	r2, .L157
 1252              		.loc 1 387 0
 1253 0026 406F     		ldr	r0, [r0, #116]
 1254 0028 9047     		blx	r2
ARM GAS  C:\Users\osour\AppData\Local\Temp\ccp8yaTg.s 			page 23


 1255              	.LVL101:
 1256              	.L157:
 1257              		.loc 1 389 0
 1258 002a FFF7FEFF 		bl	_dbg_check_leave_isr
 1259              	.LVL102:
 1260 002e 019A     		ldr	r2, [sp, #4]
 1261 0030 2368     		ldr	r3, [r4]
 1262 0032 9A42     		cmp	r2, r3
 1263 0034 04D1     		bne	.L164
 1264              		.loc 1 390 0
 1265 0036 03B0     		add	sp, sp, #12
 1266              		.cfi_remember_state
 1267              		.cfi_def_cfa_offset 12
 1268              		@ sp needed
 1269 0038 BDE83040 		pop	{r4, r5, lr}
 1270              		.cfi_restore 14
 1271              		.cfi_restore 5
 1272              		.cfi_restore 4
 1273              		.cfi_def_cfa_offset 0
 1274              		.loc 1 389 0
 1275 003c FFF7FEBF 		b	_port_irq_epilogue
 1276              	.LVL103:
 1277              	.L164:
 1278              		.cfi_restore_state
 1279 0040 FFF7FEFF 		bl	__stack_chk_fail
 1280              	.LVL104:
 1281              	.L166:
 1282              		.align	2
 1283              	.L165:
 1284 0044 00000000 		.word	__stack_chk_guard
 1285 0048 00640240 		.word	1073898496
 1286 004c 00000000 		.word	.LANCHOR0
 1287              		.cfi_endproc
 1288              	.LFE270:
 1289              		.size	Vector154, .-Vector154
 1290              		.section	.text.Vector158,"ax",%progbits
 1291              		.align	1
 1292              		.p2align 4,,15
 1293              		.global	Vector158
 1294              		.syntax unified
 1295              		.thumb
 1296              		.thumb_func
 1297              		.fpu fpv4-sp-d16
 1298              		.type	Vector158, %function
 1299              	Vector158:
 1300              	.LFB271:
 1301              		.loc 1 397 0
 1302              		.cfi_startproc
 1303              		@ args = 0, pretend = 0, frame = 8
 1304              		@ frame_needed = 0, uses_anonymous_args = 0
 1305 0000 30B5     		push	{r4, r5, lr}
 1306              		.cfi_def_cfa_offset 12
 1307              		.cfi_offset 4, -12
 1308              		.cfi_offset 5, -8
 1309              		.cfi_offset 14, -4
 1310 0002 104C     		ldr	r4, .L176
 1311 0004 83B0     		sub	sp, sp, #12
ARM GAS  C:\Users\osour\AppData\Local\Temp\ccp8yaTg.s 			page 24


 1312              		.cfi_def_cfa_offset 24
 1313              		.loc 1 397 0
 1314 0006 2368     		ldr	r3, [r4]
 1315 0008 0193     		str	r3, [sp, #4]
 1316              		.loc 1 400 0
 1317 000a FFF7FEFF 		bl	_stats_increase_irq
 1318              	.LVL105:
 1319 000e FFF7FEFF 		bl	_dbg_check_enter_isr
 1320              	.LVL106:
 1321              		.loc 1 402 0
 1322 0012 0D4B     		ldr	r3, .L176+4
 1323              		.loc 1 404 0
 1324 0014 0D48     		ldr	r0, .L176+8
 1325              		.loc 1 402 0
 1326 0016 5968     		ldr	r1, [r3, #4]
 1327              		.loc 1 404 0
 1328 0018 826F     		ldr	r2, [r0, #120]
 1329              		.loc 1 402 0
 1330 001a 890D     		lsrs	r1, r1, #22
 1331 001c 01F03D01 		and	r1, r1, #61
 1332              	.LVL107:
 1333              		.loc 1 403 0
 1334 0020 8D05     		lsls	r5, r1, #22
 1335 0022 DD60     		str	r5, [r3, #12]
 1336              		.loc 1 404 0
 1337 0024 0AB1     		cbz	r2, .L168
 1338              		.loc 1 405 0
 1339 0026 C06F     		ldr	r0, [r0, #124]
 1340 0028 9047     		blx	r2
 1341              	.LVL108:
 1342              	.L168:
 1343              		.loc 1 407 0
 1344 002a FFF7FEFF 		bl	_dbg_check_leave_isr
 1345              	.LVL109:
 1346 002e 019A     		ldr	r2, [sp, #4]
 1347 0030 2368     		ldr	r3, [r4]
 1348 0032 9A42     		cmp	r2, r3
 1349 0034 04D1     		bne	.L175
 1350              		.loc 1 408 0
 1351 0036 03B0     		add	sp, sp, #12
 1352              		.cfi_remember_state
 1353              		.cfi_def_cfa_offset 12
 1354              		@ sp needed
 1355 0038 BDE83040 		pop	{r4, r5, lr}
 1356              		.cfi_restore 14
 1357              		.cfi_restore 5
 1358              		.cfi_restore 4
 1359              		.cfi_def_cfa_offset 0
 1360              		.loc 1 407 0
 1361 003c FFF7FEBF 		b	_port_irq_epilogue
 1362              	.LVL110:
 1363              	.L175:
 1364              		.cfi_restore_state
 1365 0040 FFF7FEFF 		bl	__stack_chk_fail
 1366              	.LVL111:
 1367              	.L177:
 1368              		.align	2
ARM GAS  C:\Users\osour\AppData\Local\Temp\ccp8yaTg.s 			page 25


 1369              	.L176:
 1370 0044 00000000 		.word	__stack_chk_guard
 1371 0048 00640240 		.word	1073898496
 1372 004c 00000000 		.word	.LANCHOR0
 1373              		.cfi_endproc
 1374              	.LFE271:
 1375              		.size	Vector158, .-Vector158
 1376              		.section	.text.dmaInit,"ax",%progbits
 1377              		.align	1
 1378              		.p2align 4,,15
 1379              		.global	dmaInit
 1380              		.syntax unified
 1381              		.thumb
 1382              		.thumb_func
 1383              		.fpu fpv4-sp-d16
 1384              		.type	dmaInit, %function
 1385              	dmaInit:
 1386              	.LFB272:
 1387              		.loc 1 419 0
 1388              		.cfi_startproc
 1389              		@ args = 0, pretend = 0, frame = 8
 1390              		@ frame_needed = 0, uses_anonymous_args = 0
 1391 0000 70B5     		push	{r4, r5, r6, lr}
 1392              		.cfi_def_cfa_offset 16
 1393              		.cfi_offset 4, -16
 1394              		.cfi_offset 5, -12
 1395              		.cfi_offset 6, -8
 1396              		.cfi_offset 14, -4
 1397 0002 134D     		ldr	r5, .L186
 1398              		.loc 1 422 0
 1399 0004 134E     		ldr	r6, .L186+4
 1400              		.loc 1 419 0
 1401 0006 2B68     		ldr	r3, [r5]
 1402 0008 134A     		ldr	r2, .L186+8
 1403              		.loc 1 422 0
 1404 000a 1448     		ldr	r0, .L186+12
 1405 000c 144C     		ldr	r4, .L186+16
 1406              		.loc 1 419 0
 1407 000e 82B0     		sub	sp, sp, #8
 1408              		.cfi_def_cfa_offset 24
 1409              		.loc 1 422 0
 1410 0010 0021     		movs	r1, #0
 1411              		.loc 1 419 0
 1412 0012 0193     		str	r3, [sp, #4]
 1413              		.loc 1 422 0
 1414 0014 3160     		str	r1, [r6]
 1415              	.LVL112:
 1416              		.loc 1 423 0
 1417 0016 0B46     		mov	r3, r1
 1418 0018 01E0     		b	.L180
 1419              	.LVL113:
 1420              	.L184:
 1421 001a 52F80C0C 		ldr	r0, [r2, #-12]
 1422              	.LVL114:
 1423              	.L180:
 1424              		.loc 1 424 0 discriminator 3
 1425 001e 0160     		str	r1, [r0]
ARM GAS  C:\Users\osour\AppData\Local\Temp\ccp8yaTg.s 			page 26


 1426              		.loc 1 425 0 discriminator 3
 1427 0020 44F83310 		str	r1, [r4, r3, lsl #3]
 1428              		.loc 1 423 0 discriminator 3
 1429 0024 0133     		adds	r3, r3, #1
 1430              	.LVL115:
 1431 0026 102B     		cmp	r3, #16
 1432 0028 02F10C02 		add	r2, r2, #12
 1433 002c F5D1     		bne	.L184
 1434              		.loc 1 429 0
 1435 002e 0D4A     		ldr	r2, .L186+20
 1436              		.loc 1 427 0
 1437 0030 0D49     		ldr	r1, .L186+24
 1438 0032 4FF0FF33 		mov	r3, #-1
 1439              	.LVL116:
 1440 0036 8B60     		str	r3, [r1, #8]
 1441              		.loc 1 428 0
 1442 0038 CB60     		str	r3, [r1, #12]
 1443              		.loc 1 429 0
 1444 003a 9360     		str	r3, [r2, #8]
 1445              		.loc 1 430 0
 1446 003c D360     		str	r3, [r2, #12]
 1447              		.loc 1 431 0
 1448 003e 019A     		ldr	r2, [sp, #4]
 1449 0040 2B68     		ldr	r3, [r5]
 1450 0042 9A42     		cmp	r2, r3
 1451 0044 01D1     		bne	.L185
 1452 0046 02B0     		add	sp, sp, #8
 1453              		.cfi_remember_state
 1454              		.cfi_def_cfa_offset 16
 1455              		@ sp needed
 1456 0048 70BD     		pop	{r4, r5, r6, pc}
 1457              	.L185:
 1458              		.cfi_restore_state
 1459 004a FFF7FEFF 		bl	__stack_chk_fail
 1460              	.LVL117:
 1461              	.L187:
 1462 004e 00BF     		.align	2
 1463              	.L186:
 1464 0050 00000000 		.word	__stack_chk_guard
 1465 0054 00000000 		.word	.LANCHOR1
 1466 0058 0C000000 		.word	.LANCHOR2+12
 1467 005c 10600240 		.word	1073897488
 1468 0060 00000000 		.word	.LANCHOR0
 1469 0064 00640240 		.word	1073898496
 1470 0068 00600240 		.word	1073897472
 1471              		.cfi_endproc
 1472              	.LFE272:
 1473              		.size	dmaInit, .-dmaInit
 1474              		.section	.text.dmaStreamAllocate,"ax",%progbits
 1475              		.align	1
 1476              		.p2align 4,,15
 1477              		.global	dmaStreamAllocate
 1478              		.syntax unified
 1479              		.thumb
 1480              		.thumb_func
 1481              		.fpu fpv4-sp-d16
 1482              		.type	dmaStreamAllocate, %function
ARM GAS  C:\Users\osour\AppData\Local\Temp\ccp8yaTg.s 			page 27


 1483              	dmaStreamAllocate:
 1484              	.LFB273:
 1485              		.loc 1 460 0
 1486              		.cfi_startproc
 1487              		@ args = 0, pretend = 0, frame = 24
 1488              		@ frame_needed = 0, uses_anonymous_args = 0
 1489              	.LVL118:
 1490 0000 F0B5     		push	{r4, r5, r6, r7, lr}
 1491              		.cfi_def_cfa_offset 20
 1492              		.cfi_offset 4, -20
 1493              		.cfi_offset 5, -16
 1494              		.cfi_offset 6, -12
 1495              		.cfi_offset 7, -8
 1496              		.cfi_offset 14, -4
 1497 0002 2E4E     		ldr	r6, .L208
 1498 0004 87B0     		sub	sp, sp, #28
 1499              		.cfi_def_cfa_offset 48
 1500              		.loc 1 460 0
 1501 0006 3468     		ldr	r4, [r6]
 1502 0008 0594     		str	r4, [sp, #20]
 1503              		.loc 1 462 0
 1504 000a 0546     		mov	r5, r0
 1505 000c 0028     		cmp	r0, #0
 1506 000e 49D0     		beq	.L205
 1507              	.LVL119:
 1508              	.L189:
 1509              		.loc 1 465 0
 1510 0010 2B4F     		ldr	r7, .L208+4
 1511 0012 95F809E0 		ldrb	lr, [r5, #9]	@ zero_extendqisi2
 1512 0016 D7F800C0 		ldr	ip, [r7]
 1513 001a 0120     		movs	r0, #1
 1514 001c 00FA0EF4 		lsl	r4, r0, lr
 1515 0020 14EA0C0F 		tst	r4, ip
 1516 0024 30D1     		bne	.L190
 1517              		.loc 1 469 0
 1518 0026 274C     		ldr	r4, .L208+8
 1519 0028 44F83E20 		str	r2, [r4, lr, lsl #3]
 1520              		.loc 1 470 0
 1521 002c 95F809E0 		ldrb	lr, [r5, #9]	@ zero_extendqisi2
 1522 0030 04EBCE04 		add	r4, r4, lr, lsl #3
 1523 0034 6360     		str	r3, [r4, #4]
 1524              		.loc 1 471 0
 1525 0036 6B7A     		ldrb	r3, [r5, #9]	@ zero_extendqisi2
 1526 0038 9840     		lsls	r0, r0, r3
 1527 003a 40EA0C03 		orr	r3, r0, ip
 1528              		.loc 1 474 0
 1529 003e 13F0FF0F 		tst	r3, #255
 1530              		.loc 1 471 0
 1531 0042 3B60     		str	r3, [r7]
 1532              		.loc 1 474 0
 1533 0044 04D0     		beq	.L191
 1534              		.loc 1 475 0
 1535 0046 204C     		ldr	r4, .L208+12
 1536 0048 206B     		ldr	r0, [r4, #48]
 1537 004a 40F40010 		orr	r0, r0, #2097152
 1538 004e 2063     		str	r0, [r4, #48]
 1539              	.L191:
ARM GAS  C:\Users\osour\AppData\Local\Temp\ccp8yaTg.s 			page 28


 1540              		.loc 1 476 0
 1541 0050 13F47F4F 		tst	r3, #65280
 1542 0054 1ED1     		bne	.L206
 1543              	.L192:
 1544              		.loc 1 480 0
 1545 0056 2868     		ldr	r0, [r5]
 1546 0058 0368     		ldr	r3, [r0]
 1547 005a 23F01F03 		bic	r3, r3, #31
 1548 005e 0360     		str	r3, [r0]
 1549 0060 2B68     		ldr	r3, [r5]
 1550              	.L193:
 1551              		.loc 1 480 0 is_stmt 0 discriminator 2
 1552 0062 1C68     		ldr	r4, [r3]
 1553 0064 14F00104 		ands	r4, r4, #1
 1554 0068 FBD1     		bne	.L193
 1555              		.loc 1 480 0 discriminator 3
 1556 006a 2F7A     		ldrb	r7, [r5, #8]	@ zero_extendqisi2
 1557 006c 6868     		ldr	r0, [r5, #4]
 1558 006e 3D23     		movs	r3, #61
 1559 0070 BB40     		lsls	r3, r3, r7
 1560 0072 0360     		str	r3, [r0]
 1561              		.loc 1 481 0 is_stmt 1 discriminator 3
 1562 0074 2B68     		ldr	r3, [r5]
 1563 0076 1C60     		str	r4, [r3]
 1564              		.loc 1 482 0 discriminator 3
 1565 0078 2B68     		ldr	r3, [r5]
 1566 007a 2120     		movs	r0, #33
 1567 007c 5861     		str	r0, [r3, #20]
 1568              		.loc 1 485 0 discriminator 3
 1569 007e 7AB1     		cbz	r2, .L196
 1570              		.loc 1 486 0
 1571 0080 A87A     		ldrb	r0, [r5, #10]	@ zero_extendqisi2
 1572 0082 FFF7FEFF 		bl	nvicEnableVector
 1573              	.LVL120:
 1574              		.loc 1 488 0
 1575 0086 2046     		mov	r0, r4
 1576              	.L190:
 1577              		.loc 1 489 0
 1578 0088 059A     		ldr	r2, [sp, #20]
 1579 008a 3368     		ldr	r3, [r6]
 1580 008c 9A42     		cmp	r2, r3
 1581 008e 13D1     		bne	.L207
 1582 0090 07B0     		add	sp, sp, #28
 1583              		.cfi_remember_state
 1584              		.cfi_def_cfa_offset 20
 1585              		@ sp needed
 1586 0092 F0BD     		pop	{r4, r5, r6, r7, pc}
 1587              	.LVL121:
 1588              	.L206:
 1589              		.cfi_restore_state
 1590              		.loc 1 477 0
 1591 0094 0C48     		ldr	r0, .L208+12
 1592 0096 036B     		ldr	r3, [r0, #48]
 1593 0098 43F48003 		orr	r3, r3, #4194304
 1594 009c 0363     		str	r3, [r0, #48]
 1595 009e DAE7     		b	.L192
 1596              	.L196:
ARM GAS  C:\Users\osour\AppData\Local\Temp\ccp8yaTg.s 			page 29


 1597              		.loc 1 488 0
 1598 00a0 1046     		mov	r0, r2
 1599 00a2 F1E7     		b	.L190
 1600              	.LVL122:
 1601              	.L205:
 1602              		.loc 1 462 0 discriminator 2
 1603 00a4 0948     		ldr	r0, .L208+16
 1604              	.LVL123:
 1605 00a6 0191     		str	r1, [sp, #4]
 1606 00a8 CDE90223 		strd	r2, r3, [sp, #8]
 1607 00ac FFF7FEFF 		bl	chSysHalt
 1608              	.LVL124:
 1609 00b0 DDE90223 		ldrd	r2, r3, [sp, #8]
 1610 00b4 0199     		ldr	r1, [sp, #4]
 1611 00b6 ABE7     		b	.L189
 1612              	.LVL125:
 1613              	.L207:
 1614              		.loc 1 489 0
 1615 00b8 FFF7FEFF 		bl	__stack_chk_fail
 1616              	.LVL126:
 1617              	.L209:
 1618              		.align	2
 1619              	.L208:
 1620 00bc 00000000 		.word	__stack_chk_guard
 1621 00c0 00000000 		.word	.LANCHOR1
 1622 00c4 00000000 		.word	.LANCHOR0
 1623 00c8 00380240 		.word	1073887232
 1624 00cc 00000000 		.word	.LANCHOR3
 1625              		.cfi_endproc
 1626              	.LFE273:
 1627              		.size	dmaStreamAllocate, .-dmaStreamAllocate
 1628              		.section	.text.dmaStreamRelease,"ax",%progbits
 1629              		.align	1
 1630              		.p2align 4,,15
 1631              		.global	dmaStreamRelease
 1632              		.syntax unified
 1633              		.thumb
 1634              		.thumb_func
 1635              		.fpu fpv4-sp-d16
 1636              		.type	dmaStreamRelease, %function
 1637              	dmaStreamRelease:
 1638              	.LFB274:
 1639              		.loc 1 504 0
 1640              		.cfi_startproc
 1641              		@ args = 0, pretend = 0, frame = 8
 1642              		@ frame_needed = 0, uses_anonymous_args = 0
 1643              	.LVL127:
 1644 0000 70B5     		push	{r4, r5, r6, lr}
 1645              		.cfi_def_cfa_offset 16
 1646              		.cfi_offset 4, -16
 1647              		.cfi_offset 5, -12
 1648              		.cfi_offset 6, -8
 1649              		.cfi_offset 14, -4
 1650 0002 1B4E     		ldr	r6, .L220
 1651 0004 82B0     		sub	sp, sp, #8
 1652              		.cfi_def_cfa_offset 24
 1653              		.loc 1 504 0
ARM GAS  C:\Users\osour\AppData\Local\Temp\ccp8yaTg.s 			page 30


 1654 0006 3368     		ldr	r3, [r6]
 1655 0008 0193     		str	r3, [sp, #4]
 1656              		.loc 1 506 0
 1657 000a 0446     		mov	r4, r0
 1658 000c 50B3     		cbz	r0, .L217
 1659              	.LVL128:
 1660              	.L211:
 1661              		.loc 1 509 0 discriminator 1
 1662 000e 194D     		ldr	r5, .L220+4
 1663 0010 617A     		ldrb	r1, [r4, #9]	@ zero_extendqisi2
 1664 0012 2A68     		ldr	r2, [r5]
 1665 0014 0123     		movs	r3, #1
 1666 0016 8B40     		lsls	r3, r3, r1
 1667 0018 1342     		tst	r3, r2
 1668 001a 1FD0     		beq	.L218
 1669              	.L212:
 1670              		.loc 1 513 0
 1671 001c A07A     		ldrb	r0, [r4, #10]	@ zero_extendqisi2
 1672 001e FFF7FEFF 		bl	nvicDisableVector
 1673              	.LVL129:
 1674              		.loc 1 516 0
 1675 0022 617A     		ldrb	r1, [r4, #9]	@ zero_extendqisi2
 1676 0024 2B68     		ldr	r3, [r5]
 1677 0026 0122     		movs	r2, #1
 1678 0028 8A40     		lsls	r2, r2, r1
 1679 002a 23EA0203 		bic	r3, r3, r2
 1680              		.loc 1 519 0
 1681 002e 13F0FF0F 		tst	r3, #255
 1682              		.loc 1 516 0
 1683 0032 2B60     		str	r3, [r5]
 1684              		.loc 1 519 0
 1685 0034 04D1     		bne	.L213
 1686              		.loc 1 520 0
 1687 0036 1049     		ldr	r1, .L220+8
 1688 0038 0A6B     		ldr	r2, [r1, #48]
 1689 003a 22F40012 		bic	r2, r2, #2097152
 1690 003e 0A63     		str	r2, [r1, #48]
 1691              	.L213:
 1692              		.loc 1 521 0
 1693 0040 13F47F4F 		tst	r3, #65280
 1694 0044 04D1     		bne	.L210
 1695              		.loc 1 522 0
 1696 0046 0C4A     		ldr	r2, .L220+8
 1697 0048 136B     		ldr	r3, [r2, #48]
 1698 004a 23F48003 		bic	r3, r3, #4194304
 1699 004e 1363     		str	r3, [r2, #48]
 1700              	.L210:
 1701              		.loc 1 523 0
 1702 0050 019A     		ldr	r2, [sp, #4]
 1703 0052 3368     		ldr	r3, [r6]
 1704 0054 9A42     		cmp	r2, r3
 1705 0056 09D1     		bne	.L219
 1706 0058 02B0     		add	sp, sp, #8
 1707              		.cfi_remember_state
 1708              		.cfi_def_cfa_offset 16
 1709              		@ sp needed
 1710 005a 70BD     		pop	{r4, r5, r6, pc}
ARM GAS  C:\Users\osour\AppData\Local\Temp\ccp8yaTg.s 			page 31


 1711              	.LVL130:
 1712              	.L218:
 1713              		.cfi_restore_state
 1714              		.loc 1 509 0 discriminator 2
 1715 005c 0748     		ldr	r0, .L220+12
 1716 005e FFF7FEFF 		bl	chSysHalt
 1717              	.LVL131:
 1718 0062 DBE7     		b	.L212
 1719              	.LVL132:
 1720              	.L217:
 1721              		.loc 1 506 0 discriminator 2
 1722 0064 0548     		ldr	r0, .L220+12
 1723              	.LVL133:
 1724 0066 FFF7FEFF 		bl	chSysHalt
 1725              	.LVL134:
 1726 006a D0E7     		b	.L211
 1727              	.L219:
 1728              		.loc 1 523 0
 1729 006c FFF7FEFF 		bl	__stack_chk_fail
 1730              	.LVL135:
 1731              	.L221:
 1732              		.align	2
 1733              	.L220:
 1734 0070 00000000 		.word	__stack_chk_guard
 1735 0074 00000000 		.word	.LANCHOR1
 1736 0078 00380240 		.word	1073887232
 1737 007c 00000000 		.word	.LANCHOR4
 1738              		.cfi_endproc
 1739              	.LFE274:
 1740              		.size	dmaStreamRelease, .-dmaStreamRelease
 1741              		.global	_stm32_dma_streams
 1742              		.section	.bss.dma_isr_redir,"aw",%nobits
 1743              		.align	2
 1744              		.set	.LANCHOR0,. + 0
 1745              		.type	dma_isr_redir, %object
 1746              		.size	dma_isr_redir, 128
 1747              	dma_isr_redir:
 1748 0000 00000000 		.space	128
 1748      00000000 
 1748      00000000 
 1748      00000000 
 1748      00000000 
 1749              		.section	.bss.dma_streams_mask,"aw",%nobits
 1750              		.align	2
 1751              		.set	.LANCHOR1,. + 0
 1752              		.type	dma_streams_mask, %object
 1753              		.size	dma_streams_mask, 4
 1754              	dma_streams_mask:
 1755 0000 00000000 		.space	4
 1756              		.section	.rodata.__func__.9923,"a",%progbits
 1757              		.align	2
 1758              		.set	.LANCHOR3,. + 0
 1759              		.type	__func__.9923, %object
 1760              		.size	__func__.9923, 18
 1761              	__func__.9923:
 1762 0000 646D6153 		.ascii	"dmaStreamAllocate\000"
 1762      74726561 
ARM GAS  C:\Users\osour\AppData\Local\Temp\ccp8yaTg.s 			page 32


 1762      6D416C6C 
 1762      6F636174 
 1762      6500
 1763              		.section	.rodata.__func__.9930,"a",%progbits
 1764              		.align	2
 1765              		.set	.LANCHOR4,. + 0
 1766              		.type	__func__.9930, %object
 1767              		.size	__func__.9930, 17
 1768              	__func__.9930:
 1769 0000 646D6153 		.ascii	"dmaStreamRelease\000"
 1769      74726561 
 1769      6D52656C 
 1769      65617365 
 1769      00
 1770              		.section	.rodata._stm32_dma_streams,"a",%progbits
 1771              		.align	2
 1772              		.set	.LANCHOR2,. + 0
 1773              		.type	_stm32_dma_streams, %object
 1774              		.size	_stm32_dma_streams, 192
 1775              	_stm32_dma_streams:
 1776 0000 10600240 		.word	1073897488
 1777 0004 08600240 		.word	1073897480
 1778 0008 00       		.byte	0
 1779 0009 00       		.byte	0
 1780 000a 0B       		.byte	11
 1781 000b 00       		.space	1
 1782 000c 28600240 		.word	1073897512
 1783 0010 08600240 		.word	1073897480
 1784 0014 06       		.byte	6
 1785 0015 01       		.byte	1
 1786 0016 0C       		.byte	12
 1787 0017 00       		.space	1
 1788 0018 40600240 		.word	1073897536
 1789 001c 08600240 		.word	1073897480
 1790 0020 10       		.byte	16
 1791 0021 02       		.byte	2
 1792 0022 0D       		.byte	13
 1793 0023 00       		.space	1
 1794 0024 58600240 		.word	1073897560
 1795 0028 08600240 		.word	1073897480
 1796 002c 16       		.byte	22
 1797 002d 03       		.byte	3
 1798 002e 0E       		.byte	14
 1799 002f 00       		.space	1
 1800 0030 70600240 		.word	1073897584
 1801 0034 0C600240 		.word	1073897484
 1802 0038 00       		.byte	0
 1803 0039 04       		.byte	4
 1804 003a 0F       		.byte	15
 1805 003b 00       		.space	1
 1806 003c 88600240 		.word	1073897608
 1807 0040 0C600240 		.word	1073897484
 1808 0044 06       		.byte	6
 1809 0045 05       		.byte	5
 1810 0046 10       		.byte	16
 1811 0047 00       		.space	1
 1812 0048 A0600240 		.word	1073897632
ARM GAS  C:\Users\osour\AppData\Local\Temp\ccp8yaTg.s 			page 33


 1813 004c 0C600240 		.word	1073897484
 1814 0050 10       		.byte	16
 1815 0051 06       		.byte	6
 1816 0052 11       		.byte	17
 1817 0053 00       		.space	1
 1818 0054 B8600240 		.word	1073897656
 1819 0058 0C600240 		.word	1073897484
 1820 005c 16       		.byte	22
 1821 005d 07       		.byte	7
 1822 005e 2F       		.byte	47
 1823 005f 00       		.space	1
 1824 0060 10640240 		.word	1073898512
 1825 0064 08640240 		.word	1073898504
 1826 0068 00       		.byte	0
 1827 0069 08       		.byte	8
 1828 006a 38       		.byte	56
 1829 006b 00       		.space	1
 1830 006c 28640240 		.word	1073898536
 1831 0070 08640240 		.word	1073898504
 1832 0074 06       		.byte	6
 1833 0075 09       		.byte	9
 1834 0076 39       		.byte	57
 1835 0077 00       		.space	1
 1836 0078 40640240 		.word	1073898560
 1837 007c 08640240 		.word	1073898504
 1838 0080 10       		.byte	16
 1839 0081 0A       		.byte	10
 1840 0082 3A       		.byte	58
 1841 0083 00       		.space	1
 1842 0084 58640240 		.word	1073898584
 1843 0088 08640240 		.word	1073898504
 1844 008c 16       		.byte	22
 1845 008d 0B       		.byte	11
 1846 008e 3B       		.byte	59
 1847 008f 00       		.space	1
 1848 0090 70640240 		.word	1073898608
 1849 0094 0C640240 		.word	1073898508
 1850 0098 00       		.byte	0
 1851 0099 0C       		.byte	12
 1852 009a 3C       		.byte	60
 1853 009b 00       		.space	1
 1854 009c 88640240 		.word	1073898632
 1855 00a0 0C640240 		.word	1073898508
 1856 00a4 06       		.byte	6
 1857 00a5 0D       		.byte	13
 1858 00a6 44       		.byte	68
 1859 00a7 00       		.space	1
 1860 00a8 A0640240 		.word	1073898656
 1861 00ac 0C640240 		.word	1073898508
 1862 00b0 10       		.byte	16
 1863 00b1 0E       		.byte	14
 1864 00b2 45       		.byte	69
 1865 00b3 00       		.space	1
 1866 00b4 B8640240 		.word	1073898680
 1867 00b8 0C640240 		.word	1073898508
 1868 00bc 16       		.byte	22
 1869 00bd 0F       		.byte	15
ARM GAS  C:\Users\osour\AppData\Local\Temp\ccp8yaTg.s 			page 34


 1870 00be 46       		.byte	70
 1871 00bf 00       		.space	1
 1872              		.text
 1873              	.Letext0:
 1874              		.file 2 "c:\\users\\osour\\desktop\\robotique\\eclipse_e-puck2\\tools\\gcc-arm-none-eabi-7-2017-q4
 1875              		.file 3 "c:\\users\\osour\\desktop\\robotique\\eclipse_e-puck2\\tools\\gcc-arm-none-eabi-7-2017-q4
 1876              		.file 4 "c:\\users\\osour\\desktop\\robotique\\eclipse_e-puck2\\tools\\gcc-arm-none-eabi-7-2017-q4
 1877              		.file 5 "../../lib/e-puck2_main-processor/ChibiOS//os/rt/ports/ARMCMx/compilers/GCC/chtypes.h"
 1878              		.file 6 "../../lib/e-puck2_main-processor/ChibiOS//os/rt/include/chsystypes.h"
 1879              		.file 7 "../../lib/e-puck2_main-processor/ChibiOS//os/rt/include/chschd.h"
 1880              		.file 8 "../../lib/e-puck2_main-processor/ChibiOS//os/ext/CMSIS/include/core_cm4.h"
 1881              		.file 9 "../../lib/e-puck2_main-processor/ChibiOS//os/ext/CMSIS/ST/system_stm32f4xx.h"
 1882              		.file 10 "../../lib/e-puck2_main-processor/ChibiOS//os/ext/CMSIS/ST/stm32f407xx.h"
 1883              		.file 11 "../../lib/e-puck2_main-processor/ChibiOS//os/rt/ports/ARMCMx/chcore.h"
 1884              		.file 12 "../../lib/e-puck2_main-processor/ChibiOS//os/rt/ports/ARMCMx/chcore_v7m.h"
 1885              		.file 13 "../../lib/e-puck2_main-processor/ChibiOS//os/rt/include/chdebug.h"
 1886              		.file 14 "../../lib/e-puck2_main-processor/ChibiOS//os/rt/include/chtm.h"
 1887              		.file 15 "../../lib/e-puck2_main-processor/ChibiOS//os/rt/include/chstats.h"
 1888              		.file 16 "../../lib/e-puck2_main-processor/ChibiOS//os/rt/include/chsem.h"
 1889              		.file 17 "../../lib/e-puck2_main-processor/ChibiOS//os/rt/include/chmtx.h"
 1890              		.file 18 "../../lib/e-puck2_main-processor/ChibiOS//os/rt/include/chregistry.h"
 1891              		.file 19 "../../lib/e-puck2_main-processor/ChibiOS//os/rt/include/chevents.h"
 1892              		.file 20 "../../lib/e-puck2_main-processor/ChibiOS//os/rt/include/chqueues.h"
 1893              		.file 21 "../../lib/e-puck2_main-processor/ChibiOS//os/hal/ports/STM32/STM32F4xx/stm32_dma.h"
 1894              		.file 22 "../../lib/e-puck2_main-processor/ChibiOS//os/hal/include/hal_ioblock.h"
 1895              		.file 23 "../../lib/e-puck2_main-processor/ChibiOS//os/hal/ports/STM32/LLD/GPIOv2/pal_lld.h"
 1896              		.file 24 "../../lib/e-puck2_main-processor/ChibiOS//os/hal/include/adc.h"
 1897              		.file 25 "../../lib/e-puck2_main-processor/ChibiOS//os/hal/ports/STM32/STM32F4xx/adc_lld.h"
 1898              		.file 26 "../../lib/e-puck2_main-processor/ChibiOS//os/hal/include/can.h"
 1899              		.file 27 "../../lib/e-puck2_main-processor/ChibiOS//os/hal/ports/STM32/LLD/can_lld.h"
 1900              		.file 28 "../../lib/e-puck2_main-processor/ChibiOS//os/hal/include/dac.h"
 1901              		.file 29 "../../lib/e-puck2_main-processor/ChibiOS//os/hal/ports/STM32/LLD/DACv1/dac_lld.h"
 1902              		.file 30 "../../lib/e-puck2_main-processor/ChibiOS//os/hal/include/ext.h"
 1903              		.file 31 "../../lib/e-puck2_main-processor/ChibiOS//os/hal/ports/STM32/LLD/ext_lld.h"
 1904              		.file 32 "../../lib/e-puck2_main-processor/ChibiOS//os/hal/include/gpt.h"
 1905              		.file 33 "../../lib/e-puck2_main-processor/ChibiOS//os/hal/ports/STM32/LLD/TIMv1/gpt_lld.h"
 1906              		.file 34 "../../lib/e-puck2_main-processor/ChibiOS//os/hal/ports/STM32/LLD/TIMv1/stm32_tim.h"
 1907              		.file 35 "../../lib/e-puck2_main-processor/ChibiOS//os/hal/include/i2c.h"
 1908              		.file 36 "../../lib/e-puck2_main-processor/ChibiOS//os/hal/ports/STM32/LLD/I2Cv1/i2c_lld.h"
 1909              		.file 37 "../../lib/e-puck2_main-processor/ChibiOS//os/hal/include/i2s.h"
 1910              		.file 38 "../../lib/e-puck2_main-processor/ChibiOS//os/hal/ports/STM32/LLD/SPIv1/i2s_lld.h"
 1911              		.file 39 "../../lib/e-puck2_main-processor/ChibiOS//os/hal/include/pwm.h"
 1912              		.file 40 "../../lib/e-puck2_main-processor/ChibiOS//os/hal/ports/STM32/LLD/TIMv1/pwm_lld.h"
 1913              		.file 41 "../../lib/e-puck2_main-processor/ChibiOS//os/hal/include/serial.h"
 1914              		.file 42 "../../lib/e-puck2_main-processor/ChibiOS//os/hal/ports/STM32/LLD/USARTv1/serial_lld.h"
 1915              		.file 43 "../../lib/e-puck2_main-processor/ChibiOS//os/hal/include/sdc.h"
 1916              		.file 44 "../../lib/e-puck2_main-processor/ChibiOS//os/hal/ports/STM32/LLD/sdc_lld.h"
 1917              		.file 45 "../../lib/e-puck2_main-processor/ChibiOS//os/hal/include/spi.h"
 1918              		.file 46 "../../lib/e-puck2_main-processor/ChibiOS//os/hal/ports/STM32/LLD/SPIv1/spi_lld.h"
 1919              		.file 47 "../../lib/e-puck2_main-processor/ChibiOS//os/hal/include/usb.h"
 1920              		.file 48 "../../lib/e-puck2_main-processor/ChibiOS//os/hal/ports/STM32/LLD/OTGv1/usb_lld.h"
 1921              		.file 49 "../../lib/e-puck2_main-processor/ChibiOS//os/hal/ports/STM32/LLD/OTGv1/stm32_otg.h"
 1922              		.file 50 "../../lib/e-puck2_main-processor/ChibiOS//os/hal/ports/common/ARMCMx/nvic.h"
 1923              		.file 51 "../../lib/e-puck2_main-processor/ChibiOS//os/rt/include/chsys.h"