ARM GAS  C:\Users\osour\AppData\Local\Temp\cck6cmEt.s 			page 1


   1              		.cpu cortex-m4
   2              		.eabi_attribute 27, 1
   3              		.eabi_attribute 28, 1
   4              		.eabi_attribute 20, 1
   5              		.eabi_attribute 21, 1
   6              		.eabi_attribute 23, 3
   7              		.eabi_attribute 24, 1
   8              		.eabi_attribute 25, 1
   9              		.eabi_attribute 26, 1
  10              		.eabi_attribute 30, 2
  11              		.eabi_attribute 34, 1
  12              		.eabi_attribute 18, 4
  13              		.file	"uc_usage.c"
  14              		.text
  15              	.Ltext0:
  16              		.cfi_sections	.debug_frame
  17              		.section	.text.chprintf,"ax",%progbits
  18              		.align	1
  19              		.p2align 4,,15
  20              		.syntax unified
  21              		.thumb
  22              		.thumb_func
  23              		.fpu fpv4-sp-d16
  24              		.type	chprintf, %function
  25              	chprintf:
  26              	.LFB219:
  27              		.file 1 "../../lib/e-puck2_main-processor/ChibiOS//os/hal/lib/streams/chprintf.h"
  28              		.loc 1 69 0
  29              		.cfi_startproc
  30              		@ args = 4, pretend = 12, frame = 8
  31              		@ frame_needed = 0, uses_anonymous_args = 1
  32              	.LVL0:
  33 0000 0EB4     		push	{r1, r2, r3}
  34              		.cfi_def_cfa_offset 12
  35              		.cfi_offset 1, -12
  36              		.cfi_offset 2, -8
  37              		.cfi_offset 3, -4
  38 0002 10B5     		push	{r4, lr}
  39              		.cfi_def_cfa_offset 20
  40              		.cfi_offset 4, -20
  41              		.cfi_offset 14, -16
  42 0004 83B0     		sub	sp, sp, #12
  43              		.cfi_def_cfa_offset 32
  44              		.loc 1 69 0
  45 0006 05AA     		add	r2, sp, #20
  46 0008 094C     		ldr	r4, .L6
  47 000a 52F8041B 		ldr	r1, [r2], #4
  48 000e 2368     		ldr	r3, [r4]
  49              		.loc 1 73 0
  50 0010 0092     		str	r2, [sp]
  51              		.loc 1 69 0
  52 0012 0193     		str	r3, [sp, #4]
  53              		.loc 1 74 0
  54 0014 FFF7FEFF 		bl	chvprintf
  55              	.LVL1:
  56              		.loc 1 78 0
  57 0018 019A     		ldr	r2, [sp, #4]
ARM GAS  C:\Users\osour\AppData\Local\Temp\cck6cmEt.s 			page 2


  58 001a 2368     		ldr	r3, [r4]
  59 001c 9A42     		cmp	r2, r3
  60 001e 04D1     		bne	.L5
  61 0020 03B0     		add	sp, sp, #12
  62              		.cfi_remember_state
  63              		.cfi_def_cfa_offset 20
  64              		@ sp needed
  65 0022 BDE81040 		pop	{r4, lr}
  66              		.cfi_restore 14
  67              		.cfi_restore 4
  68              		.cfi_def_cfa_offset 12
  69 0026 03B0     		add	sp, sp, #12
  70              		.cfi_restore 3
  71              		.cfi_restore 2
  72              		.cfi_restore 1
  73              		.cfi_def_cfa_offset 0
  74 0028 7047     		bx	lr
  75              	.L5:
  76              		.cfi_restore_state
  77 002a FFF7FEFF 		bl	__stack_chk_fail
  78              	.LVL2:
  79              	.L7:
  80 002e 00BF     		.align	2
  81              	.L6:
  82 0030 00000000 		.word	__stack_chk_guard
  83              		.cfi_endproc
  84              	.LFE219:
  85              		.size	chprintf, .-chprintf
  86              		.global	__aeabi_uldivmod
  87              		.section	.text.printUcUsage,"ax",%progbits
  88              		.align	1
  89              		.p2align 4,,15
  90              		.global	printUcUsage
  91              		.syntax unified
  92              		.thumb
  93              		.thumb_func
  94              		.fpu fpv4-sp-d16
  95              		.type	printUcUsage, %function
  96              	printUcUsage:
  97              	.LFB220:
  98              		.file 2 "../../lib/e-puck2_main-processor/src/uc_usage.c"
  99              		.loc 2 13 0
 100              		.cfi_startproc
 101              		@ args = 0, pretend = 0, frame = 8
 102              		@ frame_needed = 0, uses_anonymous_args = 0
 103              	.LVL3:
 104 0000 2DE9F04F 		push	{r4, r5, r6, r7, r8, r9, r10, fp, lr}
 105              		.cfi_def_cfa_offset 36
 106              		.cfi_offset 4, -36
 107              		.cfi_offset 5, -32
 108              		.cfi_offset 6, -28
 109              		.cfi_offset 7, -24
 110              		.cfi_offset 8, -20
 111              		.cfi_offset 9, -16
 112              		.cfi_offset 10, -12
 113              		.cfi_offset 11, -8
 114              		.cfi_offset 14, -4
ARM GAS  C:\Users\osour\AppData\Local\Temp\cck6cmEt.s 			page 3


 115 0004 764B     		ldr	r3, .L17
 116              		.loc 2 19 0
 117 0006 774E     		ldr	r6, .L17+4
 118              		.loc 2 13 0
 119 0008 1B68     		ldr	r3, [r3]
 120 000a 85B0     		sub	sp, sp, #20
 121              		.cfi_def_cfa_offset 56
 122              		.loc 2 19 0
 123 000c 0022     		movs	r2, #0
 124              		.loc 2 13 0
 125 000e 0393     		str	r3, [sp, #12]
 126              		.loc 2 19 0
 127 0010 0023     		movs	r3, #0
 128              		.loc 2 13 0
 129 0012 0546     		mov	r5, r0
 130              		.loc 2 19 0
 131 0014 C6E90023 		strd	r2, [r6]
 132              		.loc 2 21 0
 133 0018 FFF7FEFF 		bl	chRegFirstThread
 134              	.LVL4:
 135              	.L9:
 136              		.loc 2 24 0 discriminator 1
 137 001c D6E90023 		ldrd	r2, [r6]
 138 0020 D0E91889 		ldrd	r8, [r0, #96]
 139 0024 12EB080A 		adds	r10, r2, r8
 140 0028 43EB090B 		adc	fp, r3, r9
 141 002c C6E900AB 		strd	r10, [r6]
 142              		.loc 2 25 0 discriminator 1
 143 0030 FFF7FEFF 		bl	chRegNextThread
 144              	.LVL5:
 145              		.loc 2 26 0 discriminator 1
 146 0034 0028     		cmp	r0, #0
 147 0036 F1D1     		bne	.L9
 148              		.loc 2 27 0
 149 0038 6B4B     		ldr	r3, .L17+8
 150              		.loc 2 35 0
 151 003a 6C4C     		ldr	r4, .L17+12
 152              		.loc 2 27 0
 153 003c D3E90023 		ldrd	r2, [r3]
 154 0040 D6E90001 		ldrd	r0, [r6]
 155              	.LVL6:
 156 0044 1718     		adds	r7, r2, r0
 157 0046 43EB0108 		adc	r8, r3, r1
 158              		.loc 2 28 0
 159 004a 6949     		ldr	r1, .L17+16
 160 004c D1E900AB 		ldrd	r10, [r1]
 161 0050 17EB0A02 		adds	r2, r7, r10
 162 0054 48EB0B03 		adc	r3, r8, fp
 163 0058 C6E90023 		strd	r2, [r6]
 164              		.loc 2 31 0
 165 005c FFF7FEFF 		bl	chRegFirstThread
 166              	.LVL7:
 167              		.loc 2 35 0
 168 0060 DFF898B1 		ldr	fp, .L17+28
 169 0064 4FF0640A 		mov	r10, #100
 170              		.loc 2 31 0
 171 0068 8146     		mov	r9, r0
ARM GAS  C:\Users\osour\AppData\Local\Temp\cck6cmEt.s 			page 4


 172              	.LVL8:
 173              	.L10:
 174              		.loc 2 34 0 discriminator 1
 175 006a D9E91801 		ldrd	r0, [r9, #96]
 176              	.LVL9:
 177 006e 4FEA810C 		lsl	ip, r1, #2
 178 0072 8200     		lsls	r2, r0, #2
 179 0074 1718     		adds	r7, r2, r0
 180 0076 4CEA9073 		orr	r3, ip, r0, lsr #30
 181 007a 43EB0108 		adc	r8, r3, r1
 182 007e 4FEAC70E 		lsl	lr, r7, #3
 183 0082 4FEAC80C 		lsl	ip, r8, #3
 184 0086 BEEB0002 		subs	r2, lr, r0
 185 008a 4CEA577C 		orr	ip, ip, r7, lsr #29
 186 008e 6CEB0103 		sbc	r3, ip, r1
 187 0092 4FEA021E 		lsl	lr, r2, #4
 188 0096 4FEA031C 		lsl	ip, r3, #4
 189 009a 10EB0E07 		adds	r7, r0, lr
 190 009e 4CEA127C 		orr	ip, ip, r2, lsr #28
 191 00a2 41EB0C08 		adc	r8, r1, ip
 192 00a6 4146     		mov	r1, r8
 193 00a8 0B01     		lsls	r3, r1, #4
 194 00aa 43EA1773 		orr	r3, r3, r7, lsr #28
 195 00ae 3A01     		lsls	r2, r7, #4
 196 00b0 1046     		mov	r0, r2
 197 00b2 1946     		mov	r1, r3
 198 00b4 D6E90023 		ldrd	r2, [r6]
 199 00b8 FFF7FEFF 		bl	__aeabi_uldivmod
 200              	.LVL10:
 201 00bc 80B2     		uxth	r0, r0
 202              		.loc 2 35 0 discriminator 1
 203 00be A4FB0023 		umull	r2, r3, r4, r0
 204 00c2 5B09     		lsrs	r3, r3, #5
 205 00c4 0AFB1300 		mls	r0, r10, r3, r0
 206 00c8 80B2     		uxth	r0, r0
 207 00ca D9F81820 		ldr	r2, [r9, #24]
 208 00ce 0090     		str	r0, [sp]
 209 00d0 5946     		mov	r1, fp
 210 00d2 2846     		mov	r0, r5
 211 00d4 FFF7FEFF 		bl	chprintf
 212              	.LVL11:
 213              		.loc 2 36 0 discriminator 1
 214 00d8 4846     		mov	r0, r9
 215 00da FFF7FEFF 		bl	chRegNextThread
 216              	.LVL12:
 217              		.loc 2 37 0 discriminator 1
 218 00de 8146     		mov	r9, r0
 219 00e0 0028     		cmp	r0, #0
 220 00e2 C2D1     		bne	.L10
 221              		.loc 2 39 0
 222 00e4 404B     		ldr	r3, .L17+8
 223 00e6 D3E90001 		ldrd	r0, [r3]
 224              	.LVL13:
 225 00ea 8F00     		lsls	r7, r1, #2
 226 00ec 8200     		lsls	r2, r0, #2
 227 00ee 47EA9073 		orr	r3, r7, r0, lsr #30
 228 00f2 1718     		adds	r7, r2, r0
ARM GAS  C:\Users\osour\AppData\Local\Temp\cck6cmEt.s 			page 5


 229 00f4 43EB0108 		adc	r8, r3, r1
 230 00f8 C146     		mov	r9, r8
 231              	.LVL14:
 232 00fa 4B46     		mov	r3, r9
 233 00fc B846     		mov	r8, r7
 234 00fe 4FEAC80C 		lsl	ip, r8, #3
 235 0102 DF00     		lsls	r7, r3, #3
 236 0104 BCEB0002 		subs	r2, ip, r0
 237 0108 47EA5877 		orr	r7, r7, r8, lsr #29
 238 010c 67EB0103 		sbc	r3, r7, r1
 239 0110 4FEA021C 		lsl	ip, r2, #4
 240 0114 1F01     		lsls	r7, r3, #4
 241 0116 10EB0C0B 		adds	fp, r0, ip
 242 011a 47EA1277 		orr	r7, r7, r2, lsr #28
 243 011e 41EB070C 		adc	ip, r1, r7
 244 0122 D6E90067 		ldrd	r6, [r6]
 245 0126 4FEA0C13 		lsl	r3, ip, #4
 246 012a 43EA1B73 		orr	r3, r3, fp, lsr #28
 247 012e 4FEA0B12 		lsl	r2, fp, #4
 248 0132 1046     		mov	r0, r2
 249 0134 1946     		mov	r1, r3
 250 0136 3246     		mov	r2, r6
 251 0138 3B46     		mov	r3, r7
 252 013a FFF7FEFF 		bl	__aeabi_uldivmod
 253              	.LVL15:
 254              		.loc 2 40 0
 255 013e 2C4B     		ldr	r3, .L17+16
 256 0140 D3E90089 		ldrd	r8, [r3]
 257 0144 4FEA8901 		lsl	r1, r9, #2
 258 0148 4FEA8802 		lsl	r2, r8, #2
 259 014c 12EB080B 		adds	fp, r2, r8
 260 0150 41EA9873 		orr	r3, r1, r8, lsr #30
 261 0154 43EB090C 		adc	ip, r3, r9
 262 0158 6346     		mov	r3, ip
 263 015a D900     		lsls	r1, r3, #3
 264 015c 4FEACB0C 		lsl	ip, fp, #3
 265 0160 BCEB0802 		subs	r2, ip, r8
 266 0164 41EA5B71 		orr	r1, r1, fp, lsr #29
 267 0168 61EB0903 		sbc	r3, r1, r9
 268 016c 4FEA021C 		lsl	ip, r2, #4
 269 0170 1901     		lsls	r1, r3, #4
 270 0172 1CEB080B 		adds	fp, ip, r8
 271 0176 41EA1271 		orr	r1, r1, r2, lsr #28
 272 017a 41EB090C 		adc	ip, r1, r9
 273 017e 4FEA0C13 		lsl	r3, ip, #4
 274 0182 43EA1B73 		orr	r3, r3, fp, lsr #28
 275 0186 4FEA0B12 		lsl	r2, fp, #4
 276 018a 9C46     		mov	ip, r3
 277 018c 9346     		mov	fp, r2
 278 018e 3B46     		mov	r3, r7
 279              		.loc 2 39 0
 280 0190 1FFA80F9 		uxth	r9, r0
 281              		.loc 2 40 0
 282 0194 3246     		mov	r2, r6
 283 0196 6146     		mov	r1, ip
 284 0198 5846     		mov	r0, fp
 285 019a FFF7FEFF 		bl	__aeabi_uldivmod
ARM GAS  C:\Users\osour\AppData\Local\Temp\cck6cmEt.s 			page 6


 286              	.LVL16:
 287 019e 80B2     		uxth	r0, r0
 288              		.loc 2 42 0
 289 01a0 A4FB0031 		umull	r3, r1, r4, r0
 290 01a4 4909     		lsrs	r1, r1, #5
 291 01a6 A4FB0932 		umull	r3, r2, r4, r9
 292 01aa 5209     		lsrs	r2, r2, #5
 293 01ac 0AFB1100 		mls	r0, r10, r1, r0
 294 01b0 0AFB1293 		mls	r3, r10, r2, r9
 295 01b4 80B2     		uxth	r0, r0
 296 01b6 0190     		str	r0, [sp, #4]
 297 01b8 9BB2     		uxth	r3, r3
 298 01ba 0091     		str	r1, [sp]
 299 01bc 2846     		mov	r0, r5
 300 01be 0D49     		ldr	r1, .L17+20
 301 01c0 FFF7FEFF 		bl	chprintf
 302              	.LVL17:
 303              		.loc 2 44 0
 304 01c4 064B     		ldr	r3, .L17
 305 01c6 039A     		ldr	r2, [sp, #12]
 306 01c8 1B68     		ldr	r3, [r3]
 307 01ca 9A42     		cmp	r2, r3
 308 01cc 06D1     		bne	.L16
 309 01ce 0A49     		ldr	r1, .L17+24
 310 01d0 2846     		mov	r0, r5
 311              		.loc 2 45 0
 312 01d2 05B0     		add	sp, sp, #20
 313              		.cfi_remember_state
 314              		.cfi_def_cfa_offset 36
 315              		@ sp needed
 316 01d4 BDE8F04F 		pop	{r4, r5, r6, r7, r8, r9, r10, fp, lr}
 317              		.cfi_restore 14
 318              		.cfi_restore 11
 319              		.cfi_restore 10
 320              		.cfi_restore 9
 321              		.cfi_restore 8
 322              		.cfi_restore 7
 323              		.cfi_restore 6
 324              		.cfi_restore 5
 325              		.cfi_restore 4
 326              		.cfi_def_cfa_offset 0
 327              	.LVL18:
 328              		.loc 2 44 0
 329 01d8 FFF7FEBF 		b	chprintf
 330              	.LVL19:
 331              	.L16:
 332              		.cfi_restore_state
 333 01dc FFF7FEFF 		bl	__stack_chk_fail
 334              	.LVL20:
 335              	.L18:
 336              		.align	2
 337              	.L17:
 338 01e0 00000000 		.word	__stack_chk_guard
 339 01e4 00000000 		.word	.LANCHOR0
 340 01e8 C8040000 		.word	ch+1224
 341 01ec 1F85EB51 		.word	1374389535
 342 01f0 E0040000 		.word	ch+1248
ARM GAS  C:\Users\osour\AppData\Local\Temp\cck6cmEt.s 			page 7


 343 01f4 10000000 		.word	.LC1
 344 01f8 40000000 		.word	.LC2
 345 01fc 00000000 		.word	.LC0
 346              		.cfi_endproc
 347              	.LFE220:
 348              		.size	printUcUsage, .-printUcUsage
 349              		.section	.bss.sum.7868,"aw",%nobits
 350              		.align	3
 351              		.set	.LANCHOR0,. + 0
 352              		.type	sum.7868, %object
 353              		.size	sum.7868, 8
 354              	sum.7868:
 355 0000 00000000 		.space	8
 355      00000000 
 356              		.section	.rodata.printUcUsage.str1.4,"aMS",%progbits,1
 357              		.align	2
 358              	.LC0:
 359 0000 25313273 		.ascii	"%12s %u.%u%%\015\012\000"
 359      2025752E 
 359      25752525 
 359      0D0A00
 360 000f 00       		.space	1
 361              	.LC1:
 362 0010 63726974 		.ascii	"critical thd:%u.%u%%   critical isr:%u.%u%%\015\012"
 362      6963616C 
 362      20746864 
 362      3A25752E 
 362      25752525 
 363 003d 00       		.ascii	"\000"
 364 003e 0000     		.space	2
 365              	.LC2:
 366 0040 0D0A00   		.ascii	"\015\012\000"
 367              		.text
 368              	.Letext0:
 369              		.file 3 "c:\\users\\osour\\desktop\\robotique\\eclipse_e-puck2\\tools\\gcc-arm-none-eabi-7-2017-q4
 370              		.file 4 "c:\\users\\osour\\desktop\\robotique\\eclipse_e-puck2\\tools\\gcc-arm-none-eabi-7-2017-q4
 371              		.file 5 "c:\\users\\osour\\desktop\\robotique\\eclipse_e-puck2\\tools\\gcc-arm-none-eabi-7-2017-q4
 372              		.file 6 "../../lib/e-puck2_main-processor/ChibiOS//os/rt/ports/ARMCMx/compilers/GCC/chtypes.h"
 373              		.file 7 "../../lib/e-puck2_main-processor/ChibiOS//os/rt/include/chsystypes.h"
 374              		.file 8 "../../lib/e-puck2_main-processor/ChibiOS//os/rt/include/chschd.h"
 375              		.file 9 "../../lib/e-puck2_main-processor/ChibiOS//os/ext/CMSIS/include/core_cm4.h"
 376              		.file 10 "../../lib/e-puck2_main-processor/ChibiOS//os/ext/CMSIS/ST/system_stm32f4xx.h"
 377              		.file 11 "../../lib/e-puck2_main-processor/ChibiOS//os/rt/ports/ARMCMx/chcore.h"
 378              		.file 12 "../../lib/e-puck2_main-processor/ChibiOS//os/rt/ports/ARMCMx/chcore_v7m.h"
 379              		.file 13 "../../lib/e-puck2_main-processor/ChibiOS//os/rt/include/chdebug.h"
 380              		.file 14 "../../lib/e-puck2_main-processor/ChibiOS//os/rt/include/chtm.h"
 381              		.file 15 "../../lib/e-puck2_main-processor/ChibiOS//os/rt/include/chstats.h"
 382              		.file 16 "../../lib/e-puck2_main-processor/ChibiOS//os/rt/include/chsem.h"
 383              		.file 17 "../../lib/e-puck2_main-processor/ChibiOS//os/rt/include/chmtx.h"
 384              		.file 18 "../../lib/e-puck2_main-processor/ChibiOS//os/rt/include/chregistry.h"
 385              		.file 19 "../../lib/e-puck2_main-processor/ChibiOS//os/rt/include/chstreams.h"
 386              		.file 20 "c:\\users\\osour\\desktop\\robotique\\eclipse_e-puck2\\tools\\gcc-arm-none-eabi-7-2017-q
 387              		.file 21 "<built-in>"